; Listing generated by Microsoft (R) Optimizing Compiler Version 16.00.30319.01 

include listing.inc

INCLUDELIB LIBCMTD
INCLUDELIB OLDNAMES

PUBLIC	IID_IAMFilterGraphCallback
CONST	SEGMENT
$SG82258 DB	'.', 00H, '.', 00H, '\', 00H, 'a', 00H, 'm', 00H, 'e', 00H
	DB	'x', 00H, 't', 00H, 'r', 00H, 'a', 00H, '.', 00H, 'c', 00H, 'p'
	DB	00H, 'p', 00H, 00H, 00H
	ORG $+2
$SG82259 DB	'(', 00H, '(', 00H, '(', 00H, 'H', 00H, 'R', 00H, 'E', 00H
	DB	'S', 00H, 'U', 00H, 'L', 00H, 'T', 00H, ')', 00H, '(', 00H, 'm'
	DB	00H, '_', 00H, 'p', 00H, 'F', 00H, 'i', 00H, 'l', 00H, 't', 00H
	DB	'e', 00H, 'r', 00H, '-', 00H, '>', 00H, 'G', 00H, 'e', 00H, 't'
	DB	00H, 'S', 00H, 't', 00H, 'a', 00H, 't', 00H, 'e', 00H, '(', 00H
	DB	'0', 00H, ',', 00H, ' ', 00H, '&', 00H, 'f', 00H, 's', 00H, ')'
	DB	00H, ')', 00H, ')', 00H, ' ', 00H, '>', 00H, '=', 00H, ' ', 00H
	DB	'0', 00H, ')', 00H, 00H, 00H
$SG82279 DB	'.', 00H, '.', 00H, '\', 00H, 'a', 00H, 'm', 00H, 'e', 00H
	DB	'x', 00H, 't', 00H, 'r', 00H, 'a', 00H, '.', 00H, 'c', 00H, 'p'
	DB	00H, 'p', 00H, 00H, 00H
	ORG $+2
$SG82280 DB	'm', 00H, '_', 00H, 'b', 00H, 'A', 00H, 't', 00H, 'E', 00H
	DB	'n', 00H, 'd', 00H, 'O', 00H, 'f', 00H, 'S', 00H, 't', 00H, 'r'
	DB	00H, 'e', 00H, 'a', 00H, 'm', 00H, 00H, 00H
CONST	ENDS
;	COMDAT IID_IAMFilterGraphCallback
CONST	SEGMENT
IID_IAMFilterGraphCallback DD 056a868fdH
	DW	0ad4H
	DW	011ceH
	DB	0b0H
	DB	0a3H
	DB	00H
	DB	020H
	DB	0afH
	DB	0bH
	DB	0a7H
	DB	070H
CONST	ENDS
PUBLIC	??_7CRenderedInputPin@@6B@			; CRenderedInputPin::`vftable'
PUBLIC	??_7CRenderedInputPin@@6BIQualityControl@@@	; CRenderedInputPin::`vftable'
PUBLIC	??_7CRenderedInputPin@@6BIPin@@@		; CRenderedInputPin::`vftable'
PUBLIC	??_7CRenderedInputPin@@6BCUnknown@@@		; CRenderedInputPin::`vftable'
PUBLIC	??0CRenderedInputPin@@QEAA@PEA_WPEAVCBaseFilter@@PEAVCCritSec@@PEAJPEB_W@Z ; CRenderedInputPin::CRenderedInputPin
PUBLIC	??_R4CRenderedInputPin@@6BCUnknown@@@		; CRenderedInputPin::`RTTI Complete Object Locator'
PUBLIC	??_R0?AVCRenderedInputPin@@@8			; CRenderedInputPin `RTTI Type Descriptor'
PUBLIC	??_R3CRenderedInputPin@@8			; CRenderedInputPin::`RTTI Class Hierarchy Descriptor'
PUBLIC	??_R2CRenderedInputPin@@8			; CRenderedInputPin::`RTTI Base Class Array'
PUBLIC	??_R1A@?0A@EA@CRenderedInputPin@@8		; CRenderedInputPin::`RTTI Base Class Descriptor at (0,-1,0,64)'
PUBLIC	??_R1A@?0A@EA@CBaseInputPin@@8			; CBaseInputPin::`RTTI Base Class Descriptor at (0,-1,0,64)'
PUBLIC	??_R0?AVCBaseInputPin@@@8			; CBaseInputPin `RTTI Type Descriptor'
PUBLIC	??_R3CBaseInputPin@@8				; CBaseInputPin::`RTTI Class Hierarchy Descriptor'
PUBLIC	??_R2CBaseInputPin@@8				; CBaseInputPin::`RTTI Base Class Array'
PUBLIC	??_R1A@?0A@EA@CBasePin@@8			; CBasePin::`RTTI Base Class Descriptor at (0,-1,0,64)'
PUBLIC	??_R0?AVCBasePin@@@8				; CBasePin `RTTI Type Descriptor'
PUBLIC	??_R3CBasePin@@8				; CBasePin::`RTTI Class Hierarchy Descriptor'
PUBLIC	??_R2CBasePin@@8				; CBasePin::`RTTI Base Class Array'
PUBLIC	??_R1A@?0A@EA@CUnknown@@8			; CUnknown::`RTTI Base Class Descriptor at (0,-1,0,64)'
PUBLIC	??_R0?AVCUnknown@@@8				; CUnknown `RTTI Type Descriptor'
PUBLIC	??_R3CUnknown@@8				; CUnknown::`RTTI Class Hierarchy Descriptor'
PUBLIC	??_R2CUnknown@@8				; CUnknown::`RTTI Base Class Array'
PUBLIC	??_R1A@?0A@EA@INonDelegatingUnknown@@8		; INonDelegatingUnknown::`RTTI Base Class Descriptor at (0,-1,0,64)'
PUBLIC	??_R0?AUINonDelegatingUnknown@@@8		; INonDelegatingUnknown `RTTI Type Descriptor'
PUBLIC	??_R3INonDelegatingUnknown@@8			; INonDelegatingUnknown::`RTTI Class Hierarchy Descriptor'
PUBLIC	??_R2INonDelegatingUnknown@@8			; INonDelegatingUnknown::`RTTI Base Class Array'
PUBLIC	??_R17?0A@EA@CBaseObject@@8			; CBaseObject::`RTTI Base Class Descriptor at (8,-1,0,64)'
PUBLIC	??_R0?AVCBaseObject@@@8				; CBaseObject `RTTI Type Descriptor'
PUBLIC	??_R3CBaseObject@@8				; CBaseObject::`RTTI Class Hierarchy Descriptor'
PUBLIC	??_R2CBaseObject@@8				; CBaseObject::`RTTI Base Class Array'
PUBLIC	??_R1A@?0A@EA@CBaseObject@@8			; CBaseObject::`RTTI Base Class Descriptor at (0,-1,0,64)'
PUBLIC	??_R1CA@?0A@EA@IPin@@8				; IPin::`RTTI Base Class Descriptor at (32,-1,0,64)'
PUBLIC	??_R0?AUIPin@@@8				; IPin `RTTI Type Descriptor'
PUBLIC	??_R3IPin@@8					; IPin::`RTTI Class Hierarchy Descriptor'
PUBLIC	??_R2IPin@@8					; IPin::`RTTI Base Class Array'
PUBLIC	??_R1A@?0A@EA@IPin@@8				; IPin::`RTTI Base Class Descriptor at (0,-1,0,64)'
PUBLIC	??_R1A@?0A@EA@IUnknown@@8			; IUnknown::`RTTI Base Class Descriptor at (0,-1,0,64)'
PUBLIC	??_R0?AUIUnknown@@@8				; IUnknown `RTTI Type Descriptor'
PUBLIC	??_R3IUnknown@@8				; IUnknown::`RTTI Class Hierarchy Descriptor'
PUBLIC	??_R2IUnknown@@8				; IUnknown::`RTTI Base Class Array'
PUBLIC	??_R1CA@?0A@EC@IUnknown@@8			; IUnknown::`RTTI Base Class Descriptor at (32,-1,0,66)'
PUBLIC	??_R1CI@?0A@EA@IQualityControl@@8		; IQualityControl::`RTTI Base Class Descriptor at (40,-1,0,64)'
PUBLIC	??_R0?AUIQualityControl@@@8			; IQualityControl `RTTI Type Descriptor'
PUBLIC	??_R3IQualityControl@@8				; IQualityControl::`RTTI Class Hierarchy Descriptor'
PUBLIC	??_R2IQualityControl@@8				; IQualityControl::`RTTI Base Class Array'
PUBLIC	??_R1A@?0A@EA@IQualityControl@@8		; IQualityControl::`RTTI Base Class Descriptor at (0,-1,0,64)'
PUBLIC	??_R1CI@?0A@EC@IUnknown@@8			; IUnknown::`RTTI Base Class Descriptor at (40,-1,0,66)'
PUBLIC	??_R1OI@?0A@EA@IMemInputPin@@8			; IMemInputPin::`RTTI Base Class Descriptor at (232,-1,0,64)'
PUBLIC	??_R0?AUIMemInputPin@@@8			; IMemInputPin `RTTI Type Descriptor'
PUBLIC	??_R3IMemInputPin@@8				; IMemInputPin::`RTTI Class Hierarchy Descriptor'
PUBLIC	??_R2IMemInputPin@@8				; IMemInputPin::`RTTI Base Class Array'
PUBLIC	??_R1A@?0A@EA@IMemInputPin@@8			; IMemInputPin::`RTTI Base Class Descriptor at (0,-1,0,64)'
PUBLIC	??_R1OI@?0A@EC@IUnknown@@8			; IUnknown::`RTTI Base Class Descriptor at (232,-1,0,66)'
PUBLIC	?Active@CRenderedInputPin@@UEAAJXZ		; CRenderedInputPin::Active
PUBLIC	?Run@CRenderedInputPin@@UEAAJ_J@Z		; CRenderedInputPin::Run
PUBLIC	??_R4CRenderedInputPin@@6BIPin@@@		; CRenderedInputPin::`RTTI Complete Object Locator'
PUBLIC	?QueryInterface@CBaseInputPin@@UEAAJAEBU_GUID@@PEAPEAX@Z ; CBaseInputPin::QueryInterface
PUBLIC	?AddRef@CBaseInputPin@@UEAAKXZ			; CBaseInputPin::AddRef
PUBLIC	?Release@CBaseInputPin@@UEAAKXZ			; CBaseInputPin::Release
PUBLIC	?QueryInternalConnections@CBasePin@@UEAAJPEAPEAUIPin@@PEAK@Z ; CBasePin::QueryInternalConnections
PUBLIC	?EndOfStream@CRenderedInputPin@@UEAAJXZ		; CRenderedInputPin::EndOfStream
PUBLIC	?EndFlush@CRenderedInputPin@@UEAAJXZ		; CRenderedInputPin::EndFlush
PUBLIC	??_R4CRenderedInputPin@@6BIQualityControl@@@	; CRenderedInputPin::`RTTI Complete Object Locator'
PUBLIC	?QueryInterface@CBaseInputPin@@W7EAAJAEBU_GUID@@PEAPEAX@Z ; [thunk]:CBaseInputPin::QueryInterface`adjustor{8}'
PUBLIC	?AddRef@CBaseInputPin@@W7EAAKXZ			; [thunk]:CBaseInputPin::AddRef`adjustor{8}'
PUBLIC	?Release@CBaseInputPin@@W7EAAKXZ		; [thunk]:CBaseInputPin::Release`adjustor{8}'
PUBLIC	??_R4CRenderedInputPin@@6B@			; CRenderedInputPin::`RTTI Complete Object Locator'
PUBLIC	?QueryInterface@CBaseInputPin@@WMI@EAAJAEBU_GUID@@PEAPEAX@Z ; [thunk]:CBaseInputPin::QueryInterface`adjustor{200}'
PUBLIC	?AddRef@CBaseInputPin@@WMI@EAAKXZ		; [thunk]:CBaseInputPin::AddRef`adjustor{200}'
PUBLIC	?Release@CBaseInputPin@@WMI@EAAKXZ		; [thunk]:CBaseInputPin::Release`adjustor{200}'
EXTRN	??0CBaseInputPin@@QEAA@PEA_WPEAVCBaseFilter@@PEAVCCritSec@@PEAJPEB_W@Z:PROC ; CBaseInputPin::CBaseInputPin
EXTRN	_RTC_Shutdown:PROC
EXTRN	_RTC_InitBase:PROC
EXTRN	??_7type_info@@6B@:BYTE				; type_info::`vftable'
EXTRN	?NonDelegatingQueryInterface@CBaseInputPin@@UEAAJAEBU_GUID@@PEAPEAX@Z:PROC ; CBaseInputPin::NonDelegatingQueryInterface
EXTRN	?NonDelegatingAddRef@CBasePin@@UEAAKXZ:PROC	; CBasePin::NonDelegatingAddRef
EXTRN	?NonDelegatingRelease@CBasePin@@UEAAKXZ:PROC	; CBasePin::NonDelegatingRelease
EXTRN	??_ECRenderedInputPin@@UEAAPEAXI@Z:PROC		; CRenderedInputPin::`vector deleting destructor'
EXTRN	?GetMediaTypeVersion@CBasePin@@UEAAJXZ:PROC	; CBasePin::GetMediaTypeVersion
EXTRN	?Inactive@CBaseInputPin@@UEAAJXZ:PROC		; CBaseInputPin::Inactive
EXTRN	_purecall:PROC
EXTRN	?SetMediaType@CBasePin@@UEAAJPEBVCMediaType@@@Z:PROC ; CBasePin::SetMediaType
EXTRN	?CheckConnect@CBasePin@@UEAAJPEAUIPin@@@Z:PROC	; CBasePin::CheckConnect
EXTRN	?BreakConnect@CBaseInputPin@@UEAAJXZ:PROC	; CBaseInputPin::BreakConnect
EXTRN	?CompleteConnect@CBasePin@@UEAAJPEAUIPin@@@Z:PROC ; CBasePin::CompleteConnect
EXTRN	?GetMediaType@CBasePin@@UEAAJHPEAVCMediaType@@@Z:PROC ; CBasePin::GetMediaType
EXTRN	?CheckStreaming@CBaseInputPin@@UEAAJXZ:PROC	; CBaseInputPin::CheckStreaming
EXTRN	?Connect@CBasePin@@UEAAJPEAUIPin@@PEBU_AMMediaType@@@Z:PROC ; CBasePin::Connect
EXTRN	?ReceiveConnection@CBasePin@@UEAAJPEAUIPin@@PEBU_AMMediaType@@@Z:PROC ; CBasePin::ReceiveConnection
EXTRN	?Disconnect@CBasePin@@UEAAJXZ:PROC		; CBasePin::Disconnect
EXTRN	?ConnectedTo@CBasePin@@UEAAJPEAPEAUIPin@@@Z:PROC ; CBasePin::ConnectedTo
EXTRN	?ConnectionMediaType@CBasePin@@UEAAJPEAU_AMMediaType@@@Z:PROC ; CBasePin::ConnectionMediaType
EXTRN	?QueryPinInfo@CBasePin@@UEAAJPEAU_PinInfo@@@Z:PROC ; CBasePin::QueryPinInfo
EXTRN	?QueryDirection@CBasePin@@UEAAJPEAW4_PinDirection@@@Z:PROC ; CBasePin::QueryDirection
EXTRN	?QueryId@CBasePin@@UEAAJPEAPEA_W@Z:PROC		; CBasePin::QueryId
EXTRN	?QueryAccept@CBasePin@@UEAAJPEBU_AMMediaType@@@Z:PROC ; CBasePin::QueryAccept
EXTRN	?EnumMediaTypes@CBasePin@@UEAAJPEAPEAUIEnumMediaTypes@@@Z:PROC ; CBasePin::EnumMediaTypes
EXTRN	?BeginFlush@CBaseInputPin@@UEAAJXZ:PROC		; CBaseInputPin::BeginFlush
EXTRN	?NewSegment@CBasePin@@UEAAJ_J0N@Z:PROC		; CBasePin::NewSegment
EXTRN	?Notify@CBaseInputPin@@UEAAJPEAUIBaseFilter@@UtagQuality@@@Z:PROC ; CBaseInputPin::Notify
EXTRN	?SetSink@CBasePin@@UEAAJPEAUIQualityControl@@@Z:PROC ; CBasePin::SetSink
EXTRN	?GetAllocator@CBaseInputPin@@UEAAJPEAPEAUIMemAllocator@@@Z:PROC ; CBaseInputPin::GetAllocator
EXTRN	?NotifyAllocator@CBaseInputPin@@UEAAJPEAUIMemAllocator@@H@Z:PROC ; CBaseInputPin::NotifyAllocator
EXTRN	?GetAllocatorRequirements@CBaseInputPin@@UEAAJPEAU_AllocatorProperties@@@Z:PROC ; CBaseInputPin::GetAllocatorRequirements
EXTRN	?Receive@CBaseInputPin@@UEAAJPEAUIMediaSample@@@Z:PROC ; CBaseInputPin::Receive
EXTRN	?ReceiveMultiple@CBaseInputPin@@UEAAJPEAPEAUIMediaSample@@JPEAJ@Z:PROC ; CBaseInputPin::ReceiveMultiple
EXTRN	?ReceiveCanBlock@CBaseInputPin@@UEAAJXZ:PROC	; CBaseInputPin::ReceiveCanBlock
;	COMDAT pdata
; File c:\downloads\wpf mediakit - copy\src\filters\baseclasses\amextra.cpp
pdata	SEGMENT
$pdata$??0CRenderedInputPin@@QEAA@PEA_WPEAVCBaseFilter@@PEAVCCritSec@@PEAJPEB_W@Z DD imagerel $LN4
	DD	imagerel $LN4+197
	DD	imagerel $unwind$??0CRenderedInputPin@@QEAA@PEA_WPEAVCBaseFilter@@PEAVCCritSec@@PEAJPEB_W@Z
pdata	ENDS
;	COMDAT ??_R4CRenderedInputPin@@6B@
rdata$r	SEGMENT
??_R4CRenderedInputPin@@6B@ DD 01H			; CRenderedInputPin::`RTTI Complete Object Locator'
	DD	0e8H
	DD	00H
	DD	imagerel ??_R0?AVCRenderedInputPin@@@8
	DD	imagerel ??_R3CRenderedInputPin@@8
	DD	imagerel ??_R4CRenderedInputPin@@6B@
rdata$r	ENDS
;	COMDAT ??_R4CRenderedInputPin@@6BIQualityControl@@@
rdata$r	SEGMENT
??_R4CRenderedInputPin@@6BIQualityControl@@@ DD 01H	; CRenderedInputPin::`RTTI Complete Object Locator'
	DD	028H
	DD	00H
	DD	imagerel ??_R0?AVCRenderedInputPin@@@8
	DD	imagerel ??_R3CRenderedInputPin@@8
	DD	imagerel ??_R4CRenderedInputPin@@6BIQualityControl@@@
rdata$r	ENDS
;	COMDAT ??_R4CRenderedInputPin@@6BIPin@@@
rdata$r	SEGMENT
??_R4CRenderedInputPin@@6BIPin@@@ DD 01H		; CRenderedInputPin::`RTTI Complete Object Locator'
	DD	020H
	DD	00H
	DD	imagerel ??_R0?AVCRenderedInputPin@@@8
	DD	imagerel ??_R3CRenderedInputPin@@8
	DD	imagerel ??_R4CRenderedInputPin@@6BIPin@@@
rdata$r	ENDS
;	COMDAT ??_R1OI@?0A@EC@IUnknown@@8
rdata$r	SEGMENT
??_R1OI@?0A@EC@IUnknown@@8 DD imagerel ??_R0?AUIUnknown@@@8 ; IUnknown::`RTTI Base Class Descriptor at (232,-1,0,66)'
	DD	00H
	DD	0e8H
	DD	0ffffffffH
	DD	00H
	DD	042H
	DD	imagerel ??_R3IUnknown@@8
rdata$r	ENDS
;	COMDAT ??_R1A@?0A@EA@IMemInputPin@@8
rdata$r	SEGMENT
??_R1A@?0A@EA@IMemInputPin@@8 DD imagerel ??_R0?AUIMemInputPin@@@8 ; IMemInputPin::`RTTI Base Class Descriptor at (0,-1,0,64)'
	DD	01H
	DD	00H
	DD	0ffffffffH
	DD	00H
	DD	040H
	DD	imagerel ??_R3IMemInputPin@@8
rdata$r	ENDS
;	COMDAT ??_R2IMemInputPin@@8
rdata$r	SEGMENT
??_R2IMemInputPin@@8 DD imagerel ??_R1A@?0A@EA@IMemInputPin@@8 ; IMemInputPin::`RTTI Base Class Array'
	DD	imagerel ??_R1A@?0A@EA@IUnknown@@8
	ORG $+3
rdata$r	ENDS
;	COMDAT ??_R3IMemInputPin@@8
rdata$r	SEGMENT
??_R3IMemInputPin@@8 DD 00H				; IMemInputPin::`RTTI Class Hierarchy Descriptor'
	DD	00H
	DD	02H
	DD	imagerel ??_R2IMemInputPin@@8
rdata$r	ENDS
;	COMDAT ??_R0?AUIMemInputPin@@@8
_DATA	SEGMENT
??_R0?AUIMemInputPin@@@8 DQ FLAT:??_7type_info@@6B@	; IMemInputPin `RTTI Type Descriptor'
	DQ	0000000000000000H
	DB	'.?AUIMemInputPin@@', 00H
_DATA	ENDS
;	COMDAT ??_R1OI@?0A@EA@IMemInputPin@@8
rdata$r	SEGMENT
??_R1OI@?0A@EA@IMemInputPin@@8 DD imagerel ??_R0?AUIMemInputPin@@@8 ; IMemInputPin::`RTTI Base Class Descriptor at (232,-1,0,64)'
	DD	01H
	DD	0e8H
	DD	0ffffffffH
	DD	00H
	DD	040H
	DD	imagerel ??_R3IMemInputPin@@8
rdata$r	ENDS
;	COMDAT ??_R1CI@?0A@EC@IUnknown@@8
rdata$r	SEGMENT
??_R1CI@?0A@EC@IUnknown@@8 DD imagerel ??_R0?AUIUnknown@@@8 ; IUnknown::`RTTI Base Class Descriptor at (40,-1,0,66)'
	DD	00H
	DD	028H
	DD	0ffffffffH
	DD	00H
	DD	042H
	DD	imagerel ??_R3IUnknown@@8
rdata$r	ENDS
;	COMDAT ??_R1A@?0A@EA@IQualityControl@@8
rdata$r	SEGMENT
??_R1A@?0A@EA@IQualityControl@@8 DD imagerel ??_R0?AUIQualityControl@@@8 ; IQualityControl::`RTTI Base Class Descriptor at (0,-1,0,64)'
	DD	01H
	DD	00H
	DD	0ffffffffH
	DD	00H
	DD	040H
	DD	imagerel ??_R3IQualityControl@@8
rdata$r	ENDS
;	COMDAT ??_R2IQualityControl@@8
rdata$r	SEGMENT
??_R2IQualityControl@@8 DD imagerel ??_R1A@?0A@EA@IQualityControl@@8 ; IQualityControl::`RTTI Base Class Array'
	DD	imagerel ??_R1A@?0A@EA@IUnknown@@8
	ORG $+3
rdata$r	ENDS
;	COMDAT ??_R3IQualityControl@@8
rdata$r	SEGMENT
??_R3IQualityControl@@8 DD 00H				; IQualityControl::`RTTI Class Hierarchy Descriptor'
	DD	00H
	DD	02H
	DD	imagerel ??_R2IQualityControl@@8
rdata$r	ENDS
;	COMDAT ??_R0?AUIQualityControl@@@8
_DATA	SEGMENT
??_R0?AUIQualityControl@@@8 DQ FLAT:??_7type_info@@6B@	; IQualityControl `RTTI Type Descriptor'
	DQ	0000000000000000H
	DB	'.?AUIQualityControl@@', 00H
_DATA	ENDS
;	COMDAT ??_R1CI@?0A@EA@IQualityControl@@8
rdata$r	SEGMENT
??_R1CI@?0A@EA@IQualityControl@@8 DD imagerel ??_R0?AUIQualityControl@@@8 ; IQualityControl::`RTTI Base Class Descriptor at (40,-1,0,64)'
	DD	01H
	DD	028H
	DD	0ffffffffH
	DD	00H
	DD	040H
	DD	imagerel ??_R3IQualityControl@@8
rdata$r	ENDS
;	COMDAT ??_R1CA@?0A@EC@IUnknown@@8
rdata$r	SEGMENT
??_R1CA@?0A@EC@IUnknown@@8 DD imagerel ??_R0?AUIUnknown@@@8 ; IUnknown::`RTTI Base Class Descriptor at (32,-1,0,66)'
	DD	00H
	DD	020H
	DD	0ffffffffH
	DD	00H
	DD	042H
	DD	imagerel ??_R3IUnknown@@8
rdata$r	ENDS
;	COMDAT ??_R2IUnknown@@8
rdata$r	SEGMENT
??_R2IUnknown@@8 DD imagerel ??_R1A@?0A@EA@IUnknown@@8	; IUnknown::`RTTI Base Class Array'
	ORG $+3
rdata$r	ENDS
;	COMDAT ??_R3IUnknown@@8
rdata$r	SEGMENT
??_R3IUnknown@@8 DD 00H					; IUnknown::`RTTI Class Hierarchy Descriptor'
	DD	00H
	DD	01H
	DD	imagerel ??_R2IUnknown@@8
rdata$r	ENDS
;	COMDAT ??_R0?AUIUnknown@@@8
_DATA	SEGMENT
??_R0?AUIUnknown@@@8 DQ FLAT:??_7type_info@@6B@		; IUnknown `RTTI Type Descriptor'
	DQ	0000000000000000H
	DB	'.?AUIUnknown@@', 00H
_DATA	ENDS
;	COMDAT ??_R1A@?0A@EA@IUnknown@@8
rdata$r	SEGMENT
??_R1A@?0A@EA@IUnknown@@8 DD imagerel ??_R0?AUIUnknown@@@8 ; IUnknown::`RTTI Base Class Descriptor at (0,-1,0,64)'
	DD	00H
	DD	00H
	DD	0ffffffffH
	DD	00H
	DD	040H
	DD	imagerel ??_R3IUnknown@@8
rdata$r	ENDS
;	COMDAT ??_R1A@?0A@EA@IPin@@8
rdata$r	SEGMENT
??_R1A@?0A@EA@IPin@@8 DD imagerel ??_R0?AUIPin@@@8	; IPin::`RTTI Base Class Descriptor at (0,-1,0,64)'
	DD	01H
	DD	00H
	DD	0ffffffffH
	DD	00H
	DD	040H
	DD	imagerel ??_R3IPin@@8
rdata$r	ENDS
;	COMDAT ??_R2IPin@@8
rdata$r	SEGMENT
??_R2IPin@@8 DD	imagerel ??_R1A@?0A@EA@IPin@@8		; IPin::`RTTI Base Class Array'
	DD	imagerel ??_R1A@?0A@EA@IUnknown@@8
	ORG $+3
rdata$r	ENDS
;	COMDAT ??_R3IPin@@8
rdata$r	SEGMENT
??_R3IPin@@8 DD	00H					; IPin::`RTTI Class Hierarchy Descriptor'
	DD	00H
	DD	02H
	DD	imagerel ??_R2IPin@@8
rdata$r	ENDS
;	COMDAT ??_R0?AUIPin@@@8
_DATA	SEGMENT
??_R0?AUIPin@@@8 DQ FLAT:??_7type_info@@6B@		; IPin `RTTI Type Descriptor'
	DQ	0000000000000000H
	DB	'.?AUIPin@@', 00H
_DATA	ENDS
;	COMDAT ??_R1CA@?0A@EA@IPin@@8
rdata$r	SEGMENT
??_R1CA@?0A@EA@IPin@@8 DD imagerel ??_R0?AUIPin@@@8	; IPin::`RTTI Base Class Descriptor at (32,-1,0,64)'
	DD	01H
	DD	020H
	DD	0ffffffffH
	DD	00H
	DD	040H
	DD	imagerel ??_R3IPin@@8
rdata$r	ENDS
;	COMDAT ??_R1A@?0A@EA@CBaseObject@@8
rdata$r	SEGMENT
??_R1A@?0A@EA@CBaseObject@@8 DD imagerel ??_R0?AVCBaseObject@@@8 ; CBaseObject::`RTTI Base Class Descriptor at (0,-1,0,64)'
	DD	00H
	DD	00H
	DD	0ffffffffH
	DD	00H
	DD	040H
	DD	imagerel ??_R3CBaseObject@@8
rdata$r	ENDS
;	COMDAT ??_R2CBaseObject@@8
rdata$r	SEGMENT
??_R2CBaseObject@@8 DD imagerel ??_R1A@?0A@EA@CBaseObject@@8 ; CBaseObject::`RTTI Base Class Array'
	ORG $+3
rdata$r	ENDS
;	COMDAT ??_R3CBaseObject@@8
rdata$r	SEGMENT
??_R3CBaseObject@@8 DD 00H				; CBaseObject::`RTTI Class Hierarchy Descriptor'
	DD	00H
	DD	01H
	DD	imagerel ??_R2CBaseObject@@8
rdata$r	ENDS
;	COMDAT ??_R0?AVCBaseObject@@@8
_DATA	SEGMENT
??_R0?AVCBaseObject@@@8 DQ FLAT:??_7type_info@@6B@	; CBaseObject `RTTI Type Descriptor'
	DQ	0000000000000000H
	DB	'.?AVCBaseObject@@', 00H
_DATA	ENDS
;	COMDAT ??_R17?0A@EA@CBaseObject@@8
rdata$r	SEGMENT
??_R17?0A@EA@CBaseObject@@8 DD imagerel ??_R0?AVCBaseObject@@@8 ; CBaseObject::`RTTI Base Class Descriptor at (8,-1,0,64)'
	DD	00H
	DD	08H
	DD	0ffffffffH
	DD	00H
	DD	040H
	DD	imagerel ??_R3CBaseObject@@8
rdata$r	ENDS
;	COMDAT ??_R2INonDelegatingUnknown@@8
rdata$r	SEGMENT
??_R2INonDelegatingUnknown@@8 DD imagerel ??_R1A@?0A@EA@INonDelegatingUnknown@@8 ; INonDelegatingUnknown::`RTTI Base Class Array'
	ORG $+3
rdata$r	ENDS
;	COMDAT ??_R3INonDelegatingUnknown@@8
rdata$r	SEGMENT
??_R3INonDelegatingUnknown@@8 DD 00H			; INonDelegatingUnknown::`RTTI Class Hierarchy Descriptor'
	DD	00H
	DD	01H
	DD	imagerel ??_R2INonDelegatingUnknown@@8
rdata$r	ENDS
;	COMDAT ??_R0?AUINonDelegatingUnknown@@@8
_DATA	SEGMENT
??_R0?AUINonDelegatingUnknown@@@8 DQ FLAT:??_7type_info@@6B@ ; INonDelegatingUnknown `RTTI Type Descriptor'
	DQ	0000000000000000H
	DB	'.?AUINonDelegatingUnknown@@', 00H
_DATA	ENDS
;	COMDAT ??_R1A@?0A@EA@INonDelegatingUnknown@@8
rdata$r	SEGMENT
??_R1A@?0A@EA@INonDelegatingUnknown@@8 DD imagerel ??_R0?AUINonDelegatingUnknown@@@8 ; INonDelegatingUnknown::`RTTI Base Class Descriptor at (0,-1,0,64)'
	DD	00H
	DD	00H
	DD	0ffffffffH
	DD	00H
	DD	040H
	DD	imagerel ??_R3INonDelegatingUnknown@@8
rdata$r	ENDS
;	COMDAT ??_R2CUnknown@@8
rdata$r	SEGMENT
??_R2CUnknown@@8 DD imagerel ??_R1A@?0A@EA@CUnknown@@8	; CUnknown::`RTTI Base Class Array'
	DD	imagerel ??_R1A@?0A@EA@INonDelegatingUnknown@@8
	DD	imagerel ??_R17?0A@EA@CBaseObject@@8
	ORG $+3
rdata$r	ENDS
;	COMDAT ??_R3CUnknown@@8
rdata$r	SEGMENT
??_R3CUnknown@@8 DD 00H					; CUnknown::`RTTI Class Hierarchy Descriptor'
	DD	01H
	DD	03H
	DD	imagerel ??_R2CUnknown@@8
rdata$r	ENDS
;	COMDAT ??_R0?AVCUnknown@@@8
_DATA	SEGMENT
??_R0?AVCUnknown@@@8 DQ FLAT:??_7type_info@@6B@		; CUnknown `RTTI Type Descriptor'
	DQ	0000000000000000H
	DB	'.?AVCUnknown@@', 00H
_DATA	ENDS
;	COMDAT ??_R1A@?0A@EA@CUnknown@@8
rdata$r	SEGMENT
??_R1A@?0A@EA@CUnknown@@8 DD imagerel ??_R0?AVCUnknown@@@8 ; CUnknown::`RTTI Base Class Descriptor at (0,-1,0,64)'
	DD	02H
	DD	00H
	DD	0ffffffffH
	DD	00H
	DD	040H
	DD	imagerel ??_R3CUnknown@@8
rdata$r	ENDS
;	COMDAT ??_R2CBasePin@@8
rdata$r	SEGMENT
??_R2CBasePin@@8 DD imagerel ??_R1A@?0A@EA@CBasePin@@8	; CBasePin::`RTTI Base Class Array'
	DD	imagerel ??_R1A@?0A@EA@CUnknown@@8
	DD	imagerel ??_R1A@?0A@EA@INonDelegatingUnknown@@8
	DD	imagerel ??_R17?0A@EA@CBaseObject@@8
	DD	imagerel ??_R1CA@?0A@EA@IPin@@8
	DD	imagerel ??_R1CA@?0A@EC@IUnknown@@8
	DD	imagerel ??_R1CI@?0A@EA@IQualityControl@@8
	DD	imagerel ??_R1CI@?0A@EC@IUnknown@@8
	ORG $+3
rdata$r	ENDS
;	COMDAT ??_R3CBasePin@@8
rdata$r	SEGMENT
??_R3CBasePin@@8 DD 00H					; CBasePin::`RTTI Class Hierarchy Descriptor'
	DD	05H
	DD	08H
	DD	imagerel ??_R2CBasePin@@8
rdata$r	ENDS
;	COMDAT ??_R0?AVCBasePin@@@8
_DATA	SEGMENT
??_R0?AVCBasePin@@@8 DQ FLAT:??_7type_info@@6B@		; CBasePin `RTTI Type Descriptor'
	DQ	0000000000000000H
	DB	'.?AVCBasePin@@', 00H
_DATA	ENDS
;	COMDAT ??_R1A@?0A@EA@CBasePin@@8
rdata$r	SEGMENT
??_R1A@?0A@EA@CBasePin@@8 DD imagerel ??_R0?AVCBasePin@@@8 ; CBasePin::`RTTI Base Class Descriptor at (0,-1,0,64)'
	DD	07H
	DD	00H
	DD	0ffffffffH
	DD	00H
	DD	040H
	DD	imagerel ??_R3CBasePin@@8
rdata$r	ENDS
;	COMDAT ??_R2CBaseInputPin@@8
rdata$r	SEGMENT
??_R2CBaseInputPin@@8 DD imagerel ??_R1A@?0A@EA@CBaseInputPin@@8 ; CBaseInputPin::`RTTI Base Class Array'
	DD	imagerel ??_R1A@?0A@EA@CBasePin@@8
	DD	imagerel ??_R1A@?0A@EA@CUnknown@@8
	DD	imagerel ??_R1A@?0A@EA@INonDelegatingUnknown@@8
	DD	imagerel ??_R17?0A@EA@CBaseObject@@8
	DD	imagerel ??_R1CA@?0A@EA@IPin@@8
	DD	imagerel ??_R1CA@?0A@EC@IUnknown@@8
	DD	imagerel ??_R1CI@?0A@EA@IQualityControl@@8
	DD	imagerel ??_R1CI@?0A@EC@IUnknown@@8
	DD	imagerel ??_R1OI@?0A@EA@IMemInputPin@@8
	DD	imagerel ??_R1OI@?0A@EC@IUnknown@@8
	ORG $+3
rdata$r	ENDS
;	COMDAT ??_R3CBaseInputPin@@8
rdata$r	SEGMENT
??_R3CBaseInputPin@@8 DD 00H				; CBaseInputPin::`RTTI Class Hierarchy Descriptor'
	DD	05H
	DD	0bH
	DD	imagerel ??_R2CBaseInputPin@@8
rdata$r	ENDS
;	COMDAT ??_R0?AVCBaseInputPin@@@8
_DATA	SEGMENT
??_R0?AVCBaseInputPin@@@8 DQ FLAT:??_7type_info@@6B@	; CBaseInputPin `RTTI Type Descriptor'
	DQ	0000000000000000H
	DB	'.?AVCBaseInputPin@@', 00H
_DATA	ENDS
;	COMDAT ??_R1A@?0A@EA@CBaseInputPin@@8
rdata$r	SEGMENT
??_R1A@?0A@EA@CBaseInputPin@@8 DD imagerel ??_R0?AVCBaseInputPin@@@8 ; CBaseInputPin::`RTTI Base Class Descriptor at (0,-1,0,64)'
	DD	0aH
	DD	00H
	DD	0ffffffffH
	DD	00H
	DD	040H
	DD	imagerel ??_R3CBaseInputPin@@8
rdata$r	ENDS
;	COMDAT ??_R1A@?0A@EA@CRenderedInputPin@@8
rdata$r	SEGMENT
??_R1A@?0A@EA@CRenderedInputPin@@8 DD imagerel ??_R0?AVCRenderedInputPin@@@8 ; CRenderedInputPin::`RTTI Base Class Descriptor at (0,-1,0,64)'
	DD	0bH
	DD	00H
	DD	0ffffffffH
	DD	00H
	DD	040H
	DD	imagerel ??_R3CRenderedInputPin@@8
rdata$r	ENDS
;	COMDAT ??_R2CRenderedInputPin@@8
rdata$r	SEGMENT
??_R2CRenderedInputPin@@8 DD imagerel ??_R1A@?0A@EA@CRenderedInputPin@@8 ; CRenderedInputPin::`RTTI Base Class Array'
	DD	imagerel ??_R1A@?0A@EA@CBaseInputPin@@8
	DD	imagerel ??_R1A@?0A@EA@CBasePin@@8
	DD	imagerel ??_R1A@?0A@EA@CUnknown@@8
	DD	imagerel ??_R1A@?0A@EA@INonDelegatingUnknown@@8
	DD	imagerel ??_R17?0A@EA@CBaseObject@@8
	DD	imagerel ??_R1CA@?0A@EA@IPin@@8
	DD	imagerel ??_R1CA@?0A@EC@IUnknown@@8
	DD	imagerel ??_R1CI@?0A@EA@IQualityControl@@8
	DD	imagerel ??_R1CI@?0A@EC@IUnknown@@8
	DD	imagerel ??_R1OI@?0A@EA@IMemInputPin@@8
	DD	imagerel ??_R1OI@?0A@EC@IUnknown@@8
	ORG $+3
rdata$r	ENDS
;	COMDAT ??_R3CRenderedInputPin@@8
rdata$r	SEGMENT
??_R3CRenderedInputPin@@8 DD 00H			; CRenderedInputPin::`RTTI Class Hierarchy Descriptor'
	DD	01H
	DD	0cH
	DD	imagerel ??_R2CRenderedInputPin@@8
rdata$r	ENDS
;	COMDAT ??_R0?AVCRenderedInputPin@@@8
_DATA	SEGMENT
??_R0?AVCRenderedInputPin@@@8 DQ FLAT:??_7type_info@@6B@ ; CRenderedInputPin `RTTI Type Descriptor'
	DQ	0000000000000000H
	DB	'.?AVCRenderedInputPin@@', 00H
_DATA	ENDS
;	COMDAT ??_R4CRenderedInputPin@@6BCUnknown@@@
rdata$r	SEGMENT
??_R4CRenderedInputPin@@6BCUnknown@@@ DD 01H		; CRenderedInputPin::`RTTI Complete Object Locator'
	DD	00H
	DD	00H
	DD	imagerel ??_R0?AVCRenderedInputPin@@@8
	DD	imagerel ??_R3CRenderedInputPin@@8
	DD	imagerel ??_R4CRenderedInputPin@@6BCUnknown@@@
rdata$r	ENDS
;	COMDAT xdata
xdata	SEGMENT
$unwind$??0CRenderedInputPin@@QEAA@PEA_WPEAVCBaseFilter@@PEAVCCritSec@@PEAJPEB_W@Z DD 022d01H
	DD	070155219H
xdata	ENDS
;	COMDAT ??_7CRenderedInputPin@@6B@
CONST	SEGMENT
??_7CRenderedInputPin@@6B@ DQ FLAT:??_R4CRenderedInputPin@@6B@ ; CRenderedInputPin::`vftable'
	DQ	FLAT:?QueryInterface@CBaseInputPin@@WMI@EAAJAEBU_GUID@@PEAPEAX@Z
	DQ	FLAT:?AddRef@CBaseInputPin@@WMI@EAAKXZ
	DQ	FLAT:?Release@CBaseInputPin@@WMI@EAAKXZ
	DQ	FLAT:?GetAllocator@CBaseInputPin@@UEAAJPEAPEAUIMemAllocator@@@Z
	DQ	FLAT:?NotifyAllocator@CBaseInputPin@@UEAAJPEAUIMemAllocator@@H@Z
	DQ	FLAT:?GetAllocatorRequirements@CBaseInputPin@@UEAAJPEAU_AllocatorProperties@@@Z
	DQ	FLAT:?Receive@CBaseInputPin@@UEAAJPEAUIMediaSample@@@Z
	DQ	FLAT:?ReceiveMultiple@CBaseInputPin@@UEAAJPEAPEAUIMediaSample@@JPEAJ@Z
	DQ	FLAT:?ReceiveCanBlock@CBaseInputPin@@UEAAJXZ
CONST	ENDS
;	COMDAT ??_7CRenderedInputPin@@6BIQualityControl@@@
CONST	SEGMENT
??_7CRenderedInputPin@@6BIQualityControl@@@ DQ FLAT:??_R4CRenderedInputPin@@6BIQualityControl@@@ ; CRenderedInputPin::`vftable'
	DQ	FLAT:?QueryInterface@CBaseInputPin@@W7EAAJAEBU_GUID@@PEAPEAX@Z
	DQ	FLAT:?AddRef@CBaseInputPin@@W7EAAKXZ
	DQ	FLAT:?Release@CBaseInputPin@@W7EAAKXZ
	DQ	FLAT:?Notify@CBaseInputPin@@UEAAJPEAUIBaseFilter@@UtagQuality@@@Z
	DQ	FLAT:?SetSink@CBasePin@@UEAAJPEAUIQualityControl@@@Z
CONST	ENDS
;	COMDAT ??_7CRenderedInputPin@@6BIPin@@@
CONST	SEGMENT
??_7CRenderedInputPin@@6BIPin@@@ DQ FLAT:??_R4CRenderedInputPin@@6BIPin@@@ ; CRenderedInputPin::`vftable'
	DQ	FLAT:?QueryInterface@CBaseInputPin@@UEAAJAEBU_GUID@@PEAPEAX@Z
	DQ	FLAT:?AddRef@CBaseInputPin@@UEAAKXZ
	DQ	FLAT:?Release@CBaseInputPin@@UEAAKXZ
	DQ	FLAT:?Connect@CBasePin@@UEAAJPEAUIPin@@PEBU_AMMediaType@@@Z
	DQ	FLAT:?ReceiveConnection@CBasePin@@UEAAJPEAUIPin@@PEBU_AMMediaType@@@Z
	DQ	FLAT:?Disconnect@CBasePin@@UEAAJXZ
	DQ	FLAT:?ConnectedTo@CBasePin@@UEAAJPEAPEAUIPin@@@Z
	DQ	FLAT:?ConnectionMediaType@CBasePin@@UEAAJPEAU_AMMediaType@@@Z
	DQ	FLAT:?QueryPinInfo@CBasePin@@UEAAJPEAU_PinInfo@@@Z
	DQ	FLAT:?QueryDirection@CBasePin@@UEAAJPEAW4_PinDirection@@@Z
	DQ	FLAT:?QueryId@CBasePin@@UEAAJPEAPEA_W@Z
	DQ	FLAT:?QueryAccept@CBasePin@@UEAAJPEBU_AMMediaType@@@Z
	DQ	FLAT:?EnumMediaTypes@CBasePin@@UEAAJPEAPEAUIEnumMediaTypes@@@Z
	DQ	FLAT:?QueryInternalConnections@CBasePin@@UEAAJPEAPEAUIPin@@PEAK@Z
	DQ	FLAT:?EndOfStream@CRenderedInputPin@@UEAAJXZ
	DQ	FLAT:?BeginFlush@CBaseInputPin@@UEAAJXZ
	DQ	FLAT:?EndFlush@CRenderedInputPin@@UEAAJXZ
	DQ	FLAT:?NewSegment@CBasePin@@UEAAJ_J0N@Z
CONST	ENDS
;	COMDAT ??_7CRenderedInputPin@@6BCUnknown@@@
CONST	SEGMENT
??_7CRenderedInputPin@@6BCUnknown@@@ DQ FLAT:??_R4CRenderedInputPin@@6BCUnknown@@@ ; CRenderedInputPin::`vftable'
	DQ	FLAT:?NonDelegatingQueryInterface@CBaseInputPin@@UEAAJAEBU_GUID@@PEAPEAX@Z
	DQ	FLAT:?NonDelegatingAddRef@CBasePin@@UEAAKXZ
	DQ	FLAT:?NonDelegatingRelease@CBasePin@@UEAAKXZ
	DQ	FLAT:??_ECRenderedInputPin@@UEAAPEAXI@Z
	DQ	FLAT:?GetMediaTypeVersion@CBasePin@@UEAAJXZ
	DQ	FLAT:?Active@CRenderedInputPin@@UEAAJXZ
	DQ	FLAT:?Inactive@CBaseInputPin@@UEAAJXZ
	DQ	FLAT:?Run@CRenderedInputPin@@UEAAJ_J@Z
	DQ	FLAT:_purecall
	DQ	FLAT:?SetMediaType@CBasePin@@UEAAJPEBVCMediaType@@@Z
	DQ	FLAT:?CheckConnect@CBasePin@@UEAAJPEAUIPin@@@Z
	DQ	FLAT:?BreakConnect@CBaseInputPin@@UEAAJXZ
	DQ	FLAT:?CompleteConnect@CBasePin@@UEAAJPEAUIPin@@@Z
	DQ	FLAT:?GetMediaType@CBasePin@@UEAAJHPEAVCMediaType@@@Z
	DQ	FLAT:?CheckStreaming@CBaseInputPin@@UEAAJXZ
CONST	ENDS
;	COMDAT rtc$TMZ
rtc$TMZ	SEGMENT
_RTC_Shutdown.rtc$TMZ DQ FLAT:_RTC_Shutdown
rtc$TMZ	ENDS
;	COMDAT rtc$IMZ
rtc$IMZ	SEGMENT
_RTC_InitBase.rtc$IMZ DQ FLAT:_RTC_InitBase
; Function compile flags: /Odtp /RTCsu
rtc$IMZ	ENDS
;	COMDAT ??0CRenderedInputPin@@QEAA@PEA_WPEAVCBaseFilter@@PEAVCCritSec@@PEAJPEB_W@Z
_TEXT	SEGMENT
this$ = 64
pObjectName$ = 72
pFilter$ = 80
pLock$ = 88
phr$ = 96
pName$ = 104
??0CRenderedInputPin@@QEAA@PEA_WPEAVCBaseFilter@@PEAVCCritSec@@PEAJPEB_W@Z PROC ; CRenderedInputPin::CRenderedInputPin, COMDAT
; Line 29
$LN4:
	mov	QWORD PTR [rsp+32], r9
	mov	QWORD PTR [rsp+24], r8
	mov	QWORD PTR [rsp+16], rdx
	mov	QWORD PTR [rsp+8], rcx
	push	rdi
	sub	rsp, 48					; 00000030H
	mov	rdi, rsp
	mov	ecx, 12
	mov	eax, -858993460				; ccccccccH
	rep stosd
	mov	rcx, QWORD PTR [rsp+64]
	mov	rax, QWORD PTR pName$[rsp]
	mov	QWORD PTR [rsp+40], rax
	mov	rax, QWORD PTR phr$[rsp]
	mov	QWORD PTR [rsp+32], rax
	mov	r9, QWORD PTR pLock$[rsp]
	mov	r8, QWORD PTR pFilter$[rsp]
	mov	rdx, QWORD PTR pObjectName$[rsp]
	mov	rcx, QWORD PTR this$[rsp]
	call	??0CBaseInputPin@@QEAA@PEA_WPEAVCBaseFilter@@PEAVCCritSec@@PEAJPEB_W@Z ; CBaseInputPin::CBaseInputPin
	mov	rax, QWORD PTR this$[rsp]
	lea	rcx, OFFSET FLAT:??_7CRenderedInputPin@@6BCUnknown@@@
	mov	QWORD PTR [rax], rcx
	mov	rax, QWORD PTR this$[rsp]
	lea	rcx, OFFSET FLAT:??_7CRenderedInputPin@@6BIPin@@@
	mov	QWORD PTR [rax+32], rcx
	mov	rax, QWORD PTR this$[rsp]
	lea	rcx, OFFSET FLAT:??_7CRenderedInputPin@@6BIQualityControl@@@
	mov	QWORD PTR [rax+40], rcx
	mov	rax, QWORD PTR this$[rsp]
	lea	rcx, OFFSET FLAT:??_7CRenderedInputPin@@6B@
	mov	QWORD PTR [rax+232], rcx
	mov	rax, QWORD PTR this$[rsp]
	mov	DWORD PTR [rax+320], 0
	mov	rax, QWORD PTR this$[rsp]
	mov	DWORD PTR [rax+324], 0
; Line 30
	mov	rax, QWORD PTR this$[rsp]
	add	rsp, 48					; 00000030H
	pop	rdi
	ret	0
??0CRenderedInputPin@@QEAA@PEA_WPEAVCBaseFilter@@PEAVCCritSec@@PEAJPEB_W@Z ENDP ; CRenderedInputPin::CRenderedInputPin
_TEXT	ENDS
;	COMDAT pdata
; File c:\downloads\wpf mediakit - copy\src\filters\baseclasses\amfilter.h
pdata	SEGMENT
$pdata$?QueryInternalConnections@CBasePin@@UEAAJPEAPEAUIPin@@PEAK@Z DD imagerel $LN3
	DD	imagerel $LN3+23
	DD	imagerel $unwind$?QueryInternalConnections@CBasePin@@UEAAJPEAPEAUIPin@@PEAK@Z
pdata	ENDS
;	COMDAT xdata
xdata	SEGMENT
$unwind$?QueryInternalConnections@CBasePin@@UEAAJPEAPEAUIPin@@PEAK@Z DD 011001H
	DD	07010H
; Function compile flags: /Odtp /RTCsu
xdata	ENDS
;	COMDAT ?QueryInternalConnections@CBasePin@@UEAAJPEAPEAUIPin@@PEAK@Z
_TEXT	SEGMENT
this$ = 16
apPin$ = 24
nPin$ = 32
?QueryInternalConnections@CBasePin@@UEAAJPEAPEAUIPin@@PEAK@Z PROC ; CBasePin::QueryInternalConnections, COMDAT
; Line 472
$LN3:
	mov	QWORD PTR [rsp+24], r8
	mov	QWORD PTR [rsp+16], rdx
	mov	QWORD PTR [rsp+8], rcx
	push	rdi
	mov	eax, -2147467263			; ffffffff80004001H
	pop	rdi
	ret	0
?QueryInternalConnections@CBasePin@@UEAAJPEAPEAUIPin@@PEAK@Z ENDP ; CBasePin::QueryInternalConnections
_TEXT	ENDS
PUBLIC	?GetOwner@CUnknown@@QEBAPEAUIUnknown@@XZ	; CUnknown::GetOwner
;	COMDAT pdata
pdata	SEGMENT
$pdata$?QueryInterface@CBaseInputPin@@UEAAJAEBU_GUID@@PEAPEAX@Z DD imagerel $LN3
	DD	imagerel $LN3+93
	DD	imagerel $unwind$?QueryInterface@CBaseInputPin@@UEAAJAEBU_GUID@@PEAPEAX@Z
pdata	ENDS
;	COMDAT xdata
xdata	SEGMENT
$unwind$?QueryInterface@CBaseInputPin@@UEAAJAEBU_GUID@@PEAPEAX@Z DD 022801H
	DD	070105214H
; Function compile flags: /Odtp /RTCsu
xdata	ENDS
;	COMDAT ?QueryInterface@CBaseInputPin@@UEAAJAEBU_GUID@@PEAPEAX@Z
_TEXT	SEGMENT
tv72 = 32
this$ = 64
riid$ = 72
ppv$ = 80
?QueryInterface@CBaseInputPin@@UEAAJAEBU_GUID@@PEAPEAX@Z PROC ; CBaseInputPin::QueryInterface, COMDAT
; Line 857
$LN3:
	mov	QWORD PTR [rsp+24], r8
	mov	QWORD PTR [rsp+16], rdx
	mov	QWORD PTR [rsp+8], rcx
	push	rdi
	sub	rsp, 48					; 00000030H
	mov	rdi, rsp
	mov	ecx, 12
	mov	eax, -858993460				; ccccccccH
	rep stosd
	mov	rcx, QWORD PTR [rsp+64]
	mov	rax, QWORD PTR this$[rsp]
	sub	rax, 32					; 00000020H
	mov	rcx, rax
	call	?GetOwner@CUnknown@@QEBAPEAUIUnknown@@XZ ; CUnknown::GetOwner
	mov	QWORD PTR tv72[rsp], rax
	mov	rax, QWORD PTR tv72[rsp]
	mov	rax, QWORD PTR [rax]
	mov	r8, QWORD PTR ppv$[rsp]
	mov	rdx, QWORD PTR riid$[rsp]
	mov	rcx, QWORD PTR tv72[rsp]
	call	QWORD PTR [rax]
	add	rsp, 48					; 00000030H
	pop	rdi
	ret	0
?QueryInterface@CBaseInputPin@@UEAAJAEBU_GUID@@PEAPEAX@Z ENDP ; CBaseInputPin::QueryInterface
_TEXT	ENDS
;	COMDAT pdata
; File c:\downloads\wpf mediakit - copy\src\filters\baseclasses\combase.h
pdata	SEGMENT
$pdata$?GetOwner@CUnknown@@QEBAPEAUIUnknown@@XZ DD imagerel $LN3
	DD	imagerel $LN3+17
	DD	imagerel $unwind$?GetOwner@CUnknown@@QEBAPEAUIUnknown@@XZ
pdata	ENDS
;	COMDAT xdata
xdata	SEGMENT
$unwind$?GetOwner@CUnknown@@QEBAPEAUIUnknown@@XZ DD 010601H
	DD	07006H
; Function compile flags: /Odtp /RTCsu
xdata	ENDS
;	COMDAT ?GetOwner@CUnknown@@QEBAPEAUIUnknown@@XZ
_TEXT	SEGMENT
this$ = 16
?GetOwner@CUnknown@@QEBAPEAUIUnknown@@XZ PROC		; CUnknown::GetOwner, COMDAT
; Line 224
$LN3:
	mov	QWORD PTR [rsp+8], rcx
	push	rdi
; Line 225
	mov	rax, QWORD PTR this$[rsp]
	mov	rax, QWORD PTR [rax+16]
; Line 226
	pop	rdi
	ret	0
?GetOwner@CUnknown@@QEBAPEAUIUnknown@@XZ ENDP		; CUnknown::GetOwner
_TEXT	ENDS
;	COMDAT pdata
; File c:\downloads\wpf mediakit - copy\src\filters\baseclasses\amfilter.h
pdata	SEGMENT
$pdata$?AddRef@CBaseInputPin@@UEAAKXZ DD imagerel $LN3
	DD	imagerel $LN3+74
	DD	imagerel $unwind$?AddRef@CBaseInputPin@@UEAAKXZ
pdata	ENDS
;	COMDAT xdata
xdata	SEGMENT
$unwind$?AddRef@CBaseInputPin@@UEAAKXZ DD 021e01H
	DD	07006520aH
; Function compile flags: /Odtp /RTCsu
xdata	ENDS
;	COMDAT ?AddRef@CBaseInputPin@@UEAAKXZ
_TEXT	SEGMENT
tv72 = 32
this$ = 64
?AddRef@CBaseInputPin@@UEAAKXZ PROC			; CBaseInputPin::AddRef, COMDAT
; Line 857
$LN3:
	mov	QWORD PTR [rsp+8], rcx
	push	rdi
	sub	rsp, 48					; 00000030H
	mov	rdi, rsp
	mov	ecx, 12
	mov	eax, -858993460				; ccccccccH
	rep stosd
	mov	rcx, QWORD PTR [rsp+64]
	mov	rax, QWORD PTR this$[rsp]
	sub	rax, 32					; 00000020H
	mov	rcx, rax
	call	?GetOwner@CUnknown@@QEBAPEAUIUnknown@@XZ ; CUnknown::GetOwner
	mov	QWORD PTR tv72[rsp], rax
	mov	rax, QWORD PTR tv72[rsp]
	mov	rax, QWORD PTR [rax]
	mov	rcx, QWORD PTR tv72[rsp]
	call	QWORD PTR [rax+8]
	add	rsp, 48					; 00000030H
	pop	rdi
	ret	0
?AddRef@CBaseInputPin@@UEAAKXZ ENDP			; CBaseInputPin::AddRef
_TEXT	ENDS
;	COMDAT pdata
pdata	SEGMENT
$pdata$?Release@CBaseInputPin@@UEAAKXZ DD imagerel $LN3
	DD	imagerel $LN3+74
	DD	imagerel $unwind$?Release@CBaseInputPin@@UEAAKXZ
pdata	ENDS
;	COMDAT xdata
xdata	SEGMENT
$unwind$?Release@CBaseInputPin@@UEAAKXZ DD 021e01H
	DD	07006520aH
; Function compile flags: /Odtp /RTCsu
xdata	ENDS
;	COMDAT ?Release@CBaseInputPin@@UEAAKXZ
_TEXT	SEGMENT
tv72 = 32
this$ = 64
?Release@CBaseInputPin@@UEAAKXZ PROC			; CBaseInputPin::Release, COMDAT
; Line 857
$LN3:
	mov	QWORD PTR [rsp+8], rcx
	push	rdi
	sub	rsp, 48					; 00000030H
	mov	rdi, rsp
	mov	ecx, 12
	mov	eax, -858993460				; ccccccccH
	rep stosd
	mov	rcx, QWORD PTR [rsp+64]
	mov	rax, QWORD PTR this$[rsp]
	sub	rax, 32					; 00000020H
	mov	rcx, rax
	call	?GetOwner@CUnknown@@QEBAPEAUIUnknown@@XZ ; CUnknown::GetOwner
	mov	QWORD PTR tv72[rsp], rax
	mov	rax, QWORD PTR tv72[rsp]
	mov	rax, QWORD PTR [rax]
	mov	rcx, QWORD PTR tv72[rsp]
	call	QWORD PTR [rax+16]
	add	rsp, 48					; 00000030H
	pop	rdi
	ret	0
?Release@CBaseInputPin@@UEAAKXZ ENDP			; CBaseInputPin::Release
_TEXT	ENDS
PUBLIC	??1CRenderedInputPin@@UEAA@XZ			; CRenderedInputPin::~CRenderedInputPin
EXTRN	??3@YAXPEAX@Z:PROC				; operator delete
;	COMDAT pdata
pdata	SEGMENT
$pdata$??_GCRenderedInputPin@@UEAAPEAXI@Z DD imagerel $LN4
	DD	imagerel $LN4+76
	DD	imagerel $unwind$??_GCRenderedInputPin@@UEAAPEAXI@Z
pdata	ENDS
;	COMDAT xdata
xdata	SEGMENT
$unwind$??_GCRenderedInputPin@@UEAAPEAXI@Z DD 022201H
	DD	0700a320eH
; Function compile flags: /Odtp /RTCsu
xdata	ENDS
;	COMDAT ??_GCRenderedInputPin@@UEAAPEAXI@Z
_TEXT	SEGMENT
this$ = 48
__flags$ = 56
??_GCRenderedInputPin@@UEAAPEAXI@Z PROC			; CRenderedInputPin::`scalar deleting destructor', COMDAT
$LN4:
	mov	DWORD PTR [rsp+16], edx
	mov	QWORD PTR [rsp+8], rcx
	push	rdi
	sub	rsp, 32					; 00000020H
	mov	rdi, rsp
	mov	ecx, 8
	mov	eax, -858993460				; ccccccccH
	rep stosd
	mov	rcx, QWORD PTR [rsp+48]
	mov	rcx, QWORD PTR this$[rsp]
	call	??1CRenderedInputPin@@UEAA@XZ
	mov	eax, DWORD PTR __flags$[rsp]
	and	eax, 1
	test	eax, eax
	je	SHORT $LN1@scalar
	mov	rcx, QWORD PTR this$[rsp]
	call	??3@YAXPEAX@Z				; operator delete
$LN1@scalar:
	mov	rax, QWORD PTR this$[rsp]
	add	rsp, 32					; 00000020H
	pop	rdi
	ret	0
??_GCRenderedInputPin@@UEAAPEAXI@Z ENDP			; CRenderedInputPin::`scalar deleting destructor'
_TEXT	ENDS
EXTRN	??1CBaseInputPin@@UEAA@XZ:PROC			; CBaseInputPin::~CBaseInputPin
;	COMDAT pdata
pdata	SEGMENT
$pdata$??1CRenderedInputPin@@UEAA@XZ DD imagerel $LN4
	DD	imagerel $LN4+46
	DD	imagerel $unwind$??1CRenderedInputPin@@UEAA@XZ
pdata	ENDS
;	COMDAT xdata
xdata	SEGMENT
$unwind$??1CRenderedInputPin@@UEAA@XZ DD 021e01H
	DD	07006320aH
; Function compile flags: /Odtp /RTCsu
xdata	ENDS
;	COMDAT ??1CRenderedInputPin@@UEAA@XZ
_TEXT	SEGMENT
this$ = 48
??1CRenderedInputPin@@UEAA@XZ PROC			; CRenderedInputPin::~CRenderedInputPin, COMDAT
$LN4:
	mov	QWORD PTR [rsp+8], rcx
	push	rdi
	sub	rsp, 32					; 00000020H
	mov	rdi, rsp
	mov	ecx, 8
	mov	eax, -858993460				; ccccccccH
	rep stosd
	mov	rcx, QWORD PTR [rsp+48]
	mov	rcx, QWORD PTR this$[rsp]
	call	??1CBaseInputPin@@UEAA@XZ		; CBaseInputPin::~CBaseInputPin
	add	rsp, 32					; 00000020H
	pop	rdi
	ret	0
??1CRenderedInputPin@@UEAA@XZ ENDP			; CRenderedInputPin::~CRenderedInputPin
_TEXT	ENDS
PUBLIC	??0CRenderedInputPin@@QEAA@PEADPEAVCBaseFilter@@PEAVCCritSec@@PEAJPEB_W@Z ; CRenderedInputPin::CRenderedInputPin
EXTRN	??0CBaseInputPin@@QEAA@PEADPEAVCBaseFilter@@PEAVCCritSec@@PEAJPEB_W@Z:PROC ; CBaseInputPin::CBaseInputPin
;	COMDAT pdata
; File c:\downloads\wpf mediakit - copy\src\filters\baseclasses\amextra.cpp
pdata	SEGMENT
$pdata$??0CRenderedInputPin@@QEAA@PEADPEAVCBaseFilter@@PEAVCCritSec@@PEAJPEB_W@Z DD imagerel $LN4
	DD	imagerel $LN4+197
	DD	imagerel $unwind$??0CRenderedInputPin@@QEAA@PEADPEAVCBaseFilter@@PEAVCCritSec@@PEAJPEB_W@Z
pdata	ENDS
;	COMDAT xdata
xdata	SEGMENT
$unwind$??0CRenderedInputPin@@QEAA@PEADPEAVCBaseFilter@@PEAVCCritSec@@PEAJPEB_W@Z DD 022d01H
	DD	070155219H
; Function compile flags: /Odtp /RTCsu
xdata	ENDS
;	COMDAT ??0CRenderedInputPin@@QEAA@PEADPEAVCBaseFilter@@PEAVCCritSec@@PEAJPEB_W@Z
_TEXT	SEGMENT
this$ = 64
pObjectName$ = 72
pFilter$ = 80
pLock$ = 88
phr$ = 96
pName$ = 104
??0CRenderedInputPin@@QEAA@PEADPEAVCBaseFilter@@PEAVCCritSec@@PEAJPEB_W@Z PROC ; CRenderedInputPin::CRenderedInputPin, COMDAT
; Line 40
$LN4:
	mov	QWORD PTR [rsp+32], r9
	mov	QWORD PTR [rsp+24], r8
	mov	QWORD PTR [rsp+16], rdx
	mov	QWORD PTR [rsp+8], rcx
	push	rdi
	sub	rsp, 48					; 00000030H
	mov	rdi, rsp
	mov	ecx, 12
	mov	eax, -858993460				; ccccccccH
	rep stosd
	mov	rcx, QWORD PTR [rsp+64]
	mov	rax, QWORD PTR pName$[rsp]
	mov	QWORD PTR [rsp+40], rax
	mov	rax, QWORD PTR phr$[rsp]
	mov	QWORD PTR [rsp+32], rax
	mov	r9, QWORD PTR pLock$[rsp]
	mov	r8, QWORD PTR pFilter$[rsp]
	mov	rdx, QWORD PTR pObjectName$[rsp]
	mov	rcx, QWORD PTR this$[rsp]
	call	??0CBaseInputPin@@QEAA@PEADPEAVCBaseFilter@@PEAVCCritSec@@PEAJPEB_W@Z ; CBaseInputPin::CBaseInputPin
	mov	rax, QWORD PTR this$[rsp]
	lea	rcx, OFFSET FLAT:??_7CRenderedInputPin@@6BCUnknown@@@
	mov	QWORD PTR [rax], rcx
	mov	rax, QWORD PTR this$[rsp]
	lea	rcx, OFFSET FLAT:??_7CRenderedInputPin@@6BIPin@@@
	mov	QWORD PTR [rax+32], rcx
	mov	rax, QWORD PTR this$[rsp]
	lea	rcx, OFFSET FLAT:??_7CRenderedInputPin@@6BIQualityControl@@@
	mov	QWORD PTR [rax+40], rcx
	mov	rax, QWORD PTR this$[rsp]
	lea	rcx, OFFSET FLAT:??_7CRenderedInputPin@@6B@
	mov	QWORD PTR [rax+232], rcx
	mov	rax, QWORD PTR this$[rsp]
	mov	DWORD PTR [rax+320], 0
	mov	rax, QWORD PTR this$[rsp]
	mov	DWORD PTR [rax+324], 0
; Line 41
	mov	rax, QWORD PTR this$[rsp]
	add	rsp, 48					; 00000030H
	pop	rdi
	ret	0
??0CRenderedInputPin@@QEAA@PEADPEAVCBaseFilter@@PEAVCCritSec@@PEAJPEB_W@Z ENDP ; CRenderedInputPin::CRenderedInputPin
_TEXT	ENDS
PUBLIC	?DoCompleteHandling@CRenderedInputPin@@AEAAXXZ	; CRenderedInputPin::DoCompleteHandling
EXTRN	?DbgAssert@@YAXPEB_W0H@Z:PROC			; DbgAssert
EXTRN	_RTC_CheckStackVars:PROC
;	COMDAT pdata
pdata	SEGMENT
$pdata$?EndOfStream@CRenderedInputPin@@UEAAJXZ DD imagerel $LN6
	DD	imagerel $LN6+222
	DD	imagerel $unwind$?EndOfStream@CRenderedInputPin@@UEAAJXZ
pdata	ENDS
;	COMDAT xdata
xdata	SEGMENT
$unwind$?EndOfStream@CRenderedInputPin@@UEAAJXZ DD 021e01H
	DD	07006920aH
xdata	ENDS
;	COMDAT CONST
CONST	SEGMENT
?EndOfStream@CRenderedInputPin@@UEAAJXZ$rtcName$0 DB 066H ; CRenderedInputPin::EndOfStream
	DB	073H
	DB	00H
	ORG $+13
?EndOfStream@CRenderedInputPin@@UEAAJXZ$rtcVarDesc DD 034H ; CRenderedInputPin::EndOfStream
	DD	04H
	DQ	FLAT:?EndOfStream@CRenderedInputPin@@UEAAJXZ$rtcName$0
	ORG $+48
?EndOfStream@CRenderedInputPin@@UEAAJXZ$rtcFrameData DD 01H ; CRenderedInputPin::EndOfStream
	DD	00H
	DQ	FLAT:?EndOfStream@CRenderedInputPin@@UEAAJXZ$rtcVarDesc
; Function compile flags: /Odtp /RTCsu
CONST	ENDS
;	COMDAT ?EndOfStream@CRenderedInputPin@@UEAAJXZ
_TEXT	SEGMENT
hr$ = 32
fs$82255 = 52
tv141 = 72
this$ = 96
?EndOfStream@CRenderedInputPin@@UEAAJXZ PROC		; CRenderedInputPin::EndOfStream, COMDAT
; Line 48
$LN6:
	mov	QWORD PTR [rsp+8], rcx
	push	rdi
	sub	rsp, 80					; 00000050H
	mov	rdi, rsp
	mov	ecx, 20
	mov	eax, -858993460				; ccccccccH
	rep stosd
	mov	rcx, QWORD PTR [rsp+96]
; Line 49
	mov	rax, QWORD PTR this$[rsp]
	sub	rax, 32					; 00000020H
	mov	rcx, QWORD PTR this$[rsp]
	mov	rcx, QWORD PTR [rcx-32]
	mov	QWORD PTR tv141[rsp], rcx
	mov	rcx, rax
	mov	rax, QWORD PTR tv141[rsp]
	call	QWORD PTR [rax+112]
	mov	DWORD PTR hr$[rsp], eax
; Line 52
	cmp	DWORD PTR hr$[rsp], 0
	jne	SHORT $LN3@EndOfStrea
	mov	rax, QWORD PTR this$[rsp]
	cmp	DWORD PTR [rax+288], 0
	jne	SHORT $LN3@EndOfStrea
; Line 53
	mov	rax, QWORD PTR this$[rsp]
	mov	DWORD PTR [rax+288], 1
; Line 55
	mov	rax, QWORD PTR this$[rsp]
	mov	rax, QWORD PTR [rax+56]
	mov	rcx, QWORD PTR this$[rsp]
	mov	rcx, QWORD PTR [rcx+56]
	add	rcx, 32					; 00000020H
	mov	rax, QWORD PTR [rax+32]
	lea	r8, QWORD PTR fs$82255[rsp]
	xor	edx, edx
	call	QWORD PTR [rax+56]
	test	eax, eax
	jge	SHORT $LN2@EndOfStrea
	mov	r8d, 55					; 00000037H
	lea	rdx, OFFSET FLAT:$SG82258
	lea	rcx, OFFSET FLAT:$SG82259
	call	?DbgAssert@@YAXPEB_W0H@Z		; DbgAssert
$LN2@EndOfStrea:
; Line 56
	cmp	DWORD PTR fs$82255[rsp], 2
	jne	SHORT $LN1@EndOfStrea
; Line 57
	mov	rax, QWORD PTR this$[rsp]
	sub	rax, 32					; 00000020H
	mov	rcx, rax
	call	?DoCompleteHandling@CRenderedInputPin@@AEAAXXZ ; CRenderedInputPin::DoCompleteHandling
$LN1@EndOfStrea:
$LN3@EndOfStrea:
; Line 60
	mov	eax, DWORD PTR hr$[rsp]
; Line 61
	mov	edi, eax
	mov	rcx, rsp
	lea	rdx, OFFSET FLAT:?EndOfStream@CRenderedInputPin@@UEAAJXZ$rtcFrameData
	call	_RTC_CheckStackVars
	mov	eax, edi
	add	rsp, 80					; 00000050H
	pop	rdi
	ret	0
?EndOfStream@CRenderedInputPin@@UEAAJXZ ENDP		; CRenderedInputPin::EndOfStream
_TEXT	ENDS
PUBLIC	??1CAutoLock@@QEAA@XZ				; CAutoLock::~CAutoLock
PUBLIC	??0CAutoLock@@QEAA@PEAVCCritSec@@@Z		; CAutoLock::CAutoLock
EXTRN	__CxxFrameHandler3:PROC
EXTRN	?EndFlush@CBaseInputPin@@UEAAJXZ:PROC		; CBaseInputPin::EndFlush
;	COMDAT pdata
pdata	SEGMENT
$pdata$?EndFlush@CRenderedInputPin@@UEAAJXZ DD imagerel $LN4
	DD	imagerel $LN4+145
	DD	imagerel $unwind$?EndFlush@CRenderedInputPin@@UEAAJXZ
pdata	ENDS
;	COMDAT pdata
pdata	SEGMENT
$pdata$?dtor$0@?0??EndFlush@CRenderedInputPin@@UEAAJXZ@4HA DD imagerel ?dtor$0@?0??EndFlush@CRenderedInputPin@@UEAAJXZ@4HA
	DD	imagerel ?dtor$0@?0??EndFlush@CRenderedInputPin@@UEAAJXZ@4HA+35
	DD	imagerel $unwind$?dtor$0@?0??EndFlush@CRenderedInputPin@@UEAAJXZ@4HA
pdata	ENDS
;	COMDAT xdata
xdata	SEGMENT
$ip2state$?EndFlush@CRenderedInputPin@@UEAAJXZ DD imagerel ?EndFlush@CRenderedInputPin@@UEAAJXZ
	DD	0ffffffffH
	DD	imagerel ?EndFlush@CRenderedInputPin@@UEAAJXZ+59
	DD	00H
	DD	imagerel ?EndFlush@CRenderedInputPin@@UEAAJXZ+106
	DD	0ffffffffH
xdata	ENDS
;	COMDAT xdata
xdata	SEGMENT
$unwind$?dtor$0@?0??EndFlush@CRenderedInputPin@@UEAAJXZ@4HA DD 031001H
	DD	0700c4210H
	DD	0500bH
xdata	ENDS
;	COMDAT xdata
xdata	SEGMENT
$unwind$?EndFlush@CRenderedInputPin@@UEAAJXZ DD 022711H
	DD	07006720aH
	DD	imagerel __CxxFrameHandler3
	DD	imagerel $cppxdata$?EndFlush@CRenderedInputPin@@UEAAJXZ
xdata	ENDS
;	COMDAT xdata
xdata	SEGMENT
$stateUnwindMap$?EndFlush@CRenderedInputPin@@UEAAJXZ DD 0ffffffffH
	DD	imagerel ?dtor$0@?0??EndFlush@CRenderedInputPin@@UEAAJXZ@4HA
xdata	ENDS
;	COMDAT CONST
CONST	SEGMENT
?EndFlush@CRenderedInputPin@@UEAAJXZ$rtcName$0 DB 06cH	; CRenderedInputPin::EndFlush
	DB	063H
	DB	06bH
	DB	00H
	ORG $+12
?EndFlush@CRenderedInputPin@@UEAAJXZ$rtcVarDesc DD 028H	; CRenderedInputPin::EndFlush
	DD	08H
	DQ	FLAT:?EndFlush@CRenderedInputPin@@UEAAJXZ$rtcName$0
	ORG $+48
?EndFlush@CRenderedInputPin@@UEAAJXZ$rtcFrameData DD 01H ; CRenderedInputPin::EndFlush
	DD	00H
	DQ	FLAT:?EndFlush@CRenderedInputPin@@UEAAJXZ$rtcVarDesc
$cppxdata$?EndFlush@CRenderedInputPin@@UEAAJXZ DD 019930522H
	DD	01H
	DD	imagerel $stateUnwindMap$?EndFlush@CRenderedInputPin@@UEAAJXZ
	DD	00H
	DD	00H
	DD	03H
	DD	imagerel $ip2state$?EndFlush@CRenderedInputPin@@UEAAJXZ
	DD	038H
	DD	00H
	DD	01H
; Function compile flags: /Odtp /RTCsu
CONST	ENDS
;	COMDAT ?EndFlush@CRenderedInputPin@@UEAAJXZ
_TEXT	SEGMENT
lck$ = 40
$T82938 = 52
$T82944 = 56
this$ = 80
?EndFlush@CRenderedInputPin@@UEAAJXZ PROC		; CRenderedInputPin::EndFlush, COMDAT
; Line 67
$LN4:
	mov	QWORD PTR [rsp+8], rcx
	push	rdi
	sub	rsp, 64					; 00000040H
	mov	rdi, rsp
	mov	ecx, 16
	mov	eax, -858993460				; ccccccccH
	rep stosd
	mov	rcx, QWORD PTR [rsp+80]
	mov	QWORD PTR $T82944[rsp], -2
; Line 68
	mov	rax, QWORD PTR this$[rsp]
	mov	rdx, QWORD PTR [rax+40]
	lea	rcx, QWORD PTR lck$[rsp]
	call	??0CAutoLock@@QEAA@PEAVCCritSec@@@Z	; CAutoLock::CAutoLock
	npad	1
; Line 71
	mov	rax, QWORD PTR this$[rsp]
	mov	DWORD PTR [rax+288], 0
; Line 72
	mov	rax, QWORD PTR this$[rsp]
	mov	DWORD PTR [rax+292], 0
; Line 74
	mov	rax, QWORD PTR this$[rsp]
	mov	rcx, rax
	call	?EndFlush@CBaseInputPin@@UEAAJXZ	; CBaseInputPin::EndFlush
	mov	DWORD PTR $T82938[rsp], eax
	lea	rcx, QWORD PTR lck$[rsp]
	call	??1CAutoLock@@QEAA@XZ			; CAutoLock::~CAutoLock
	mov	eax, DWORD PTR $T82938[rsp]
; Line 75
	mov	edi, eax
	mov	rcx, rsp
	lea	rdx, OFFSET FLAT:?EndFlush@CRenderedInputPin@@UEAAJXZ$rtcFrameData
	call	_RTC_CheckStackVars
	mov	eax, edi
	add	rsp, 64					; 00000040H
	pop	rdi
	ret	0
?EndFlush@CRenderedInputPin@@UEAAJXZ ENDP		; CRenderedInputPin::EndFlush
; Function compile flags: /Odtp /RTCsu
_TEXT	ENDS
;	COMDAT text$x
text$x	SEGMENT
lck$ = 40
$T82938 = 52
$T82944 = 56
this$ = 80
?dtor$0@?0??EndFlush@CRenderedInputPin@@UEAAJXZ@4HA PROC ; `CRenderedInputPin::EndFlush'::`1'::dtor$0
	mov	QWORD PTR [rsp+8], rcx
	mov	QWORD PTR [rsp+16], rdx
	push	rbp
	push	rdi
	sub	rsp, 40					; 00000028H
	mov	rbp, rdx
	lea	rcx, QWORD PTR lck$[rbp]
	call	??1CAutoLock@@QEAA@XZ			; CAutoLock::~CAutoLock
	add	rsp, 40					; 00000028H
	pop	rdi
	pop	rbp
	ret	0
?dtor$0@?0??EndFlush@CRenderedInputPin@@UEAAJXZ@4HA ENDP ; `CRenderedInputPin::EndFlush'::`1'::dtor$0
text$x	ENDS
EXTRN	?Lock@CCritSec@@QEAAXXZ:PROC			; CCritSec::Lock
;	COMDAT pdata
; File c:\downloads\wpf mediakit - copy\src\filters\baseclasses\wxutil.h
pdata	SEGMENT
$pdata$??0CAutoLock@@QEAA@PEAVCCritSec@@@Z DD imagerel $LN3
	DD	imagerel $LN3+72
	DD	imagerel $unwind$??0CAutoLock@@QEAA@PEAVCCritSec@@@Z
pdata	ENDS
;	COMDAT xdata
xdata	SEGMENT
$unwind$??0CAutoLock@@QEAA@PEAVCCritSec@@@Z DD 022301H
	DD	0700b320fH
; Function compile flags: /Odtp /RTCsu
xdata	ENDS
;	COMDAT ??0CAutoLock@@QEAA@PEAVCCritSec@@@Z
_TEXT	SEGMENT
this$ = 48
plock$ = 56
??0CAutoLock@@QEAA@PEAVCCritSec@@@Z PROC		; CAutoLock::CAutoLock, COMDAT
; Line 94
$LN3:
	mov	QWORD PTR [rsp+16], rdx
	mov	QWORD PTR [rsp+8], rcx
	push	rdi
	sub	rsp, 32					; 00000020H
	mov	rdi, rsp
	mov	ecx, 8
	mov	eax, -858993460				; ccccccccH
	rep stosd
	mov	rcx, QWORD PTR [rsp+48]
; Line 96
	mov	rax, QWORD PTR this$[rsp]
	mov	rcx, QWORD PTR plock$[rsp]
	mov	QWORD PTR [rax], rcx
; Line 97
	mov	rax, QWORD PTR this$[rsp]
	mov	rcx, QWORD PTR [rax]
	call	?Lock@CCritSec@@QEAAXXZ			; CCritSec::Lock
; Line 98
	mov	rax, QWORD PTR this$[rsp]
	add	rsp, 32					; 00000020H
	pop	rdi
	ret	0
??0CAutoLock@@QEAA@PEAVCCritSec@@@Z ENDP		; CAutoLock::CAutoLock
_TEXT	ENDS
EXTRN	?Unlock@CCritSec@@QEAAXXZ:PROC			; CCritSec::Unlock
;	COMDAT pdata
pdata	SEGMENT
$pdata$??1CAutoLock@@QEAA@XZ DD imagerel $LN3
	DD	imagerel $LN3+49
	DD	imagerel $unwind$??1CAutoLock@@QEAA@XZ
pdata	ENDS
;	COMDAT xdata
xdata	SEGMENT
$unwind$??1CAutoLock@@QEAA@XZ DD 021e01H
	DD	07006320aH
; Function compile flags: /Odtp /RTCsu
xdata	ENDS
;	COMDAT ??1CAutoLock@@QEAA@XZ
_TEXT	SEGMENT
this$ = 48
??1CAutoLock@@QEAA@XZ PROC				; CAutoLock::~CAutoLock, COMDAT
; Line 100
$LN3:
	mov	QWORD PTR [rsp+8], rcx
	push	rdi
	sub	rsp, 32					; 00000020H
	mov	rdi, rsp
	mov	ecx, 8
	mov	eax, -858993460				; ccccccccH
	rep stosd
	mov	rcx, QWORD PTR [rsp+48]
; Line 101
	mov	rax, QWORD PTR this$[rsp]
	mov	rcx, QWORD PTR [rax]
	call	?Unlock@CCritSec@@QEAAXXZ		; CCritSec::Unlock
; Line 102
	add	rsp, 32					; 00000020H
	pop	rdi
	ret	0
??1CAutoLock@@QEAA@XZ ENDP				; CAutoLock::~CAutoLock
_TEXT	ENDS
;	COMDAT pdata
; File c:\downloads\wpf mediakit - copy\src\filters\baseclasses\amextra.cpp
pdata	SEGMENT
$pdata$?Run@CRenderedInputPin@@UEAAJ_J@Z DD imagerel $LN4
	DD	imagerel $LN4+82
	DD	imagerel $unwind$?Run@CRenderedInputPin@@UEAAJ_J@Z
pdata	ENDS
;	COMDAT xdata
xdata	SEGMENT
$unwind$?Run@CRenderedInputPin@@UEAAJ_J@Z DD 022301H
	DD	0700b320fH
; Function compile flags: /Odtp /RTCsu
xdata	ENDS
;	COMDAT ?Run@CRenderedInputPin@@UEAAJ_J@Z
_TEXT	SEGMENT
this$ = 48
tStart$ = 56
?Run@CRenderedInputPin@@UEAAJ_J@Z PROC			; CRenderedInputPin::Run, COMDAT
; Line 81
$LN4:
	mov	QWORD PTR [rsp+16], rdx
	mov	QWORD PTR [rsp+8], rcx
	push	rdi
	sub	rsp, 32					; 00000020H
	mov	rdi, rsp
	mov	ecx, 8
	mov	eax, -858993460				; ccccccccH
	rep stosd
	mov	rcx, QWORD PTR [rsp+48]
; Line 83
	mov	rax, QWORD PTR this$[rsp]
	mov	DWORD PTR [rax+324], 0
; Line 84
	mov	rax, QWORD PTR this$[rsp]
	cmp	DWORD PTR [rax+320], 0
	je	SHORT $LN1@Run
; Line 85
	mov	rcx, QWORD PTR this$[rsp]
	call	?DoCompleteHandling@CRenderedInputPin@@AEAAXXZ ; CRenderedInputPin::DoCompleteHandling
$LN1@Run:
; Line 87
	xor	eax, eax
; Line 88
	add	rsp, 32					; 00000020H
	pop	rdi
	ret	0
?Run@CRenderedInputPin@@UEAAJ_J@Z ENDP			; CRenderedInputPin::Run
_TEXT	ENDS
EXTRN	?Active@CBasePin@@UEAAJXZ:PROC			; CBasePin::Active
;	COMDAT pdata
pdata	SEGMENT
$pdata$?Active@CRenderedInputPin@@UEAAJXZ DD imagerel $LN3
	DD	imagerel $LN3+76
	DD	imagerel $unwind$?Active@CRenderedInputPin@@UEAAJXZ
pdata	ENDS
;	COMDAT xdata
xdata	SEGMENT
$unwind$?Active@CRenderedInputPin@@UEAAJXZ DD 021e01H
	DD	07006320aH
; Function compile flags: /Odtp /RTCsu
xdata	ENDS
;	COMDAT ?Active@CRenderedInputPin@@UEAAJXZ
_TEXT	SEGMENT
this$ = 48
?Active@CRenderedInputPin@@UEAAJXZ PROC			; CRenderedInputPin::Active, COMDAT
; Line 94
$LN3:
	mov	QWORD PTR [rsp+8], rcx
	push	rdi
	sub	rsp, 32					; 00000020H
	mov	rdi, rsp
	mov	ecx, 8
	mov	eax, -858993460				; ccccccccH
	rep stosd
	mov	rcx, QWORD PTR [rsp+48]
; Line 95
	mov	rax, QWORD PTR this$[rsp]
	mov	DWORD PTR [rax+320], 0
; Line 96
	mov	rax, QWORD PTR this$[rsp]
	mov	DWORD PTR [rax+324], 0
; Line 97
	mov	rcx, QWORD PTR this$[rsp]
	call	?Active@CBasePin@@UEAAJXZ		; CBasePin::Active
; Line 98
	add	rsp, 32					; 00000020H
	pop	rdi
	ret	0
?Active@CRenderedInputPin@@UEAAJXZ ENDP			; CRenderedInputPin::Active
_TEXT	ENDS
EXTRN	?NotifyEvent@CBaseFilter@@QEAAJJ_J0@Z:PROC	; CBaseFilter::NotifyEvent
;	COMDAT pdata
pdata	SEGMENT
$pdata$?DoCompleteHandling@CRenderedInputPin@@AEAAXXZ DD imagerel $LN7
	DD	imagerel $LN7+178
	DD	imagerel $unwind$?DoCompleteHandling@CRenderedInputPin@@AEAAXXZ
pdata	ENDS
;	COMDAT xdata
xdata	SEGMENT
$unwind$?DoCompleteHandling@CRenderedInputPin@@AEAAXXZ DD 021e01H
	DD	07006520aH
; Function compile flags: /Odtp /RTCsu
xdata	ENDS
;	COMDAT ?DoCompleteHandling@CRenderedInputPin@@AEAAXXZ
_TEXT	SEGMENT
tv89 = 32
tv88 = 40
this$ = 64
?DoCompleteHandling@CRenderedInputPin@@AEAAXXZ PROC	; CRenderedInputPin::DoCompleteHandling, COMDAT
; Line 104
$LN7:
	mov	QWORD PTR [rsp+8], rcx
	push	rdi
	sub	rsp, 48					; 00000030H
	mov	rdi, rsp
	mov	ecx, 12
	mov	eax, -858993460				; ccccccccH
	rep stosd
	mov	rcx, QWORD PTR [rsp+64]
; Line 105
	mov	rax, QWORD PTR this$[rsp]
	cmp	DWORD PTR [rax+320], 0
	jne	SHORT $LN2@DoComplete
	mov	r8d, 105				; 00000069H
	lea	rdx, OFFSET FLAT:$SG82279
	lea	rcx, OFFSET FLAT:$SG82280
	call	?DbgAssert@@YAXPEB_W0H@Z		; DbgAssert
$LN2@DoComplete:
; Line 106
	mov	rax, QWORD PTR this$[rsp]
	cmp	DWORD PTR [rax+324], 0
	jne	SHORT $LN1@DoComplete
; Line 107
	mov	rax, QWORD PTR this$[rsp]
	mov	DWORD PTR [rax+324], 1
; Line 108
	mov	rax, QWORD PTR this$[rsp]
	mov	rax, QWORD PTR [rax+88]
	mov	QWORD PTR tv89[rsp], rax
	cmp	QWORD PTR tv89[rsp], 0
	je	SHORT $LN5@DoComplete
	mov	rax, QWORD PTR tv89[rsp]
	add	rax, 32					; 00000020H
	mov	QWORD PTR tv88[rsp], rax
	jmp	SHORT $LN6@DoComplete
$LN5@DoComplete:
	mov	QWORD PTR tv88[rsp], 0
$LN6@DoComplete:
	mov	r9, QWORD PTR tv88[rsp]
	xor	r8d, r8d
	mov	edx, 1
	mov	rax, QWORD PTR this$[rsp]
	mov	rcx, QWORD PTR [rax+88]
	call	?NotifyEvent@CBaseFilter@@QEAAJJ_J0@Z	; CBaseFilter::NotifyEvent
$LN1@DoComplete:
; Line 110
	add	rsp, 48					; 00000030H
	pop	rdi
	ret	0
?DoCompleteHandling@CRenderedInputPin@@AEAAXXZ ENDP	; CRenderedInputPin::DoCompleteHandling
; Function compile flags: /Odtp /RTCsu
_TEXT	ENDS
;	COMDAT ?QueryInterface@CBaseInputPin@@WMI@EAAJAEBU_GUID@@PEAPEAX@Z
_TEXT	SEGMENT
?QueryInterface@CBaseInputPin@@WMI@EAAJAEBU_GUID@@PEAPEAX@Z PROC ; [thunk]:CBaseInputPin::QueryInterface`adjustor{200}', COMDAT
	sub	rcx, 200				; 000000c8H
	jmp	?QueryInterface@CBaseInputPin@@UEAAJAEBU_GUID@@PEAPEAX@Z ; CBaseInputPin::QueryInterface
?QueryInterface@CBaseInputPin@@WMI@EAAJAEBU_GUID@@PEAPEAX@Z ENDP ; [thunk]:CBaseInputPin::QueryInterface`adjustor{200}'
; Function compile flags: /Odtp /RTCsu
_TEXT	ENDS
;	COMDAT ?Release@CBaseInputPin@@W7EAAKXZ
_TEXT	SEGMENT
?Release@CBaseInputPin@@W7EAAKXZ PROC			; [thunk]:CBaseInputPin::Release`adjustor{8}', COMDAT
	sub	rcx, 8
	jmp	?Release@CBaseInputPin@@UEAAKXZ		; CBaseInputPin::Release
?Release@CBaseInputPin@@W7EAAKXZ ENDP			; [thunk]:CBaseInputPin::Release`adjustor{8}'
; Function compile flags: /Odtp /RTCsu
_TEXT	ENDS
;	COMDAT ?Release@CBaseInputPin@@WMI@EAAKXZ
_TEXT	SEGMENT
?Release@CBaseInputPin@@WMI@EAAKXZ PROC			; [thunk]:CBaseInputPin::Release`adjustor{200}', COMDAT
	sub	rcx, 200				; 000000c8H
	jmp	?Release@CBaseInputPin@@UEAAKXZ		; CBaseInputPin::Release
?Release@CBaseInputPin@@WMI@EAAKXZ ENDP			; [thunk]:CBaseInputPin::Release`adjustor{200}'
; Function compile flags: /Odtp /RTCsu
_TEXT	ENDS
;	COMDAT ?AddRef@CBaseInputPin@@W7EAAKXZ
_TEXT	SEGMENT
?AddRef@CBaseInputPin@@W7EAAKXZ PROC			; [thunk]:CBaseInputPin::AddRef`adjustor{8}', COMDAT
	sub	rcx, 8
	jmp	?AddRef@CBaseInputPin@@UEAAKXZ		; CBaseInputPin::AddRef
?AddRef@CBaseInputPin@@W7EAAKXZ ENDP			; [thunk]:CBaseInputPin::AddRef`adjustor{8}'
; Function compile flags: /Odtp /RTCsu
_TEXT	ENDS
;	COMDAT ?AddRef@CBaseInputPin@@WMI@EAAKXZ
_TEXT	SEGMENT
?AddRef@CBaseInputPin@@WMI@EAAKXZ PROC			; [thunk]:CBaseInputPin::AddRef`adjustor{200}', COMDAT
	sub	rcx, 200				; 000000c8H
	jmp	?AddRef@CBaseInputPin@@UEAAKXZ		; CBaseInputPin::AddRef
?AddRef@CBaseInputPin@@WMI@EAAKXZ ENDP			; [thunk]:CBaseInputPin::AddRef`adjustor{200}'
; Function compile flags: /Odtp /RTCsu
_TEXT	ENDS
;	COMDAT ?QueryInterface@CBaseInputPin@@W7EAAJAEBU_GUID@@PEAPEAX@Z
_TEXT	SEGMENT
?QueryInterface@CBaseInputPin@@W7EAAJAEBU_GUID@@PEAPEAX@Z PROC ; [thunk]:CBaseInputPin::QueryInterface`adjustor{8}', COMDAT
	sub	rcx, 8
	jmp	?QueryInterface@CBaseInputPin@@UEAAJAEBU_GUID@@PEAPEAX@Z ; CBaseInputPin::QueryInterface
?QueryInterface@CBaseInputPin@@W7EAAJAEBU_GUID@@PEAPEAX@Z ENDP ; [thunk]:CBaseInputPin::QueryInterface`adjustor{8}'
_TEXT	ENDS
END
