; Listing generated by Microsoft (R) Optimizing Compiler Version 16.00.30319.01 

include listing.inc

INCLUDELIB LIBCMTD
INCLUDELIB OLDNAMES

PUBLIC	IID_IAMFilterGraphCallback
CONST	SEGMENT
$SG82288 DB	'.', 00H, '.', 00H, '\', 00H, 'a', 00H, 'm', 00H, 'f', 00H
	DB	'i', 00H, 'l', 00H, 't', 00H, 'e', 00H, 'r', 00H, '.', 00H, 'c'
	DB	00H, 'p', 00H, 'p', 00H, 00H, 00H
$SG82289 DB	'"', 00H, 'I', 00H, 'n', 00H, 'v', 00H, 'a', 00H, 'l', 00H
	DB	'i', 00H, 'd', 00H, ' ', 00H, 'r', 00H, 'e', 00H, 'a', 00H, 'd'
	DB	00H, ' ', 00H, 'p', 00H, 'o', 00H, 'i', 00H, 'n', 00H, 't', 00H
	DB	'e', 00H, 'r', 00H, '"', 00H, 00H, 00H
	ORG $+2
$SG82293 DB	'.', 00H, '.', 00H, '\', 00H, 'a', 00H, 'm', 00H, 'f', 00H
	DB	'i', 00H, 'l', 00H, 't', 00H, 'e', 00H, 'r', 00H, '.', 00H, 'c'
	DB	00H, 'p', 00H, 'p', 00H, 00H, 00H
$SG82294 DB	'"', 00H, 'I', 00H, 'n', 00H, 'v', 00H, 'a', 00H, 'l', 00H
	DB	'i', 00H, 'd', 00H, ' ', 00H, 'w', 00H, 'r', 00H, 'i', 00H, 't'
	DB	00H, 'e', 00H, ' ', 00H, 'p', 00H, 'o', 00H, 'i', 00H, 'n', 00H
	DB	't', 00H, 'e', 00H, 'r', 00H, '"', 00H, 00H, 00H
$SG82305 DB	'.', 00H, '.', 00H, '\', 00H, 'a', 00H, 'm', 00H, 'f', 00H
	DB	'i', 00H, 'l', 00H, 't', 00H, 'e', 00H, 'r', 00H, '.', 00H, 'c'
	DB	00H, 'p', 00H, 'p', 00H, 00H, 00H
$SG82306 DB	'"', 00H, 'I', 00H, 'n', 00H, 'v', 00H, 'a', 00H, 'l', 00H
	DB	'i', 00H, 'd', 00H, ' ', 00H, 'r', 00H, 'e', 00H, 'a', 00H, 'd'
	DB	00H, ' ', 00H, 'p', 00H, 'o', 00H, 'i', 00H, 'n', 00H, 't', 00H
	DB	'e', 00H, 'r', 00H, '"', 00H, 00H, 00H
	ORG $+2
$SG82310 DB	'.', 00H, '.', 00H, '\', 00H, 'a', 00H, 'm', 00H, 'f', 00H
	DB	'i', 00H, 'l', 00H, 't', 00H, 'e', 00H, 'r', 00H, '.', 00H, 'c'
	DB	00H, 'p', 00H, 'p', 00H, 00H, 00H
$SG82311 DB	'"', 00H, 'I', 00H, 'n', 00H, 'v', 00H, 'a', 00H, 'l', 00H
	DB	'i', 00H, 'd', 00H, ' ', 00H, 'w', 00H, 'r', 00H, 'i', 00H, 't'
	DB	00H, 'e', 00H, ' ', 00H, 'p', 00H, 'o', 00H, 'i', 00H, 'n', 00H
	DB	't', 00H, 'e', 00H, 'r', 00H, '"', 00H, 00H, 00H
$SG82330 DB	'.', 00H, '.', 00H, '\', 00H, 'a', 00H, 'm', 00H, 'f', 00H
	DB	'i', 00H, 'l', 00H, 't', 00H, 'e', 00H, 'r', 00H, '.', 00H, 'c'
	DB	00H, 'p', 00H, 'p', 00H, 00H, 00H
$SG82331 DB	'"', 00H, 'I', 00H, 'n', 00H, 'v', 00H, 'a', 00H, 'l', 00H
	DB	'i', 00H, 'd', 00H, ' ', 00H, 'r', 00H, 'e', 00H, 'a', 00H, 'd'
	DB	00H, ' ', 00H, 'p', 00H, 'o', 00H, 'i', 00H, 'n', 00H, 't', 00H
	DB	'e', 00H, 'r', 00H, '"', 00H, 00H, 00H
	ORG $+2
$SG82335 DB	'.', 00H, '.', 00H, '\', 00H, 'a', 00H, 'm', 00H, 'f', 00H
	DB	'i', 00H, 'l', 00H, 't', 00H, 'e', 00H, 'r', 00H, '.', 00H, 'c'
	DB	00H, 'p', 00H, 'p', 00H, 00H, 00H
$SG82336 DB	'"', 00H, 'I', 00H, 'n', 00H, 'v', 00H, 'a', 00H, 'l', 00H
	DB	'i', 00H, 'd', 00H, ' ', 00H, 'w', 00H, 'r', 00H, 'i', 00H, 't'
	DB	00H, 'e', 00H, ' ', 00H, 'p', 00H, 'o', 00H, 'i', 00H, 'n', 00H
	DB	't', 00H, 'e', 00H, 'r', 00H, '"', 00H, 00H, 00H
$SG82398 DB	'.', 00H, '.', 00H, '\', 00H, 'a', 00H, 'm', 00H, 'f', 00H
	DB	'i', 00H, 'l', 00H, 't', 00H, 'e', 00H, 'r', 00H, '.', 00H, 'c'
	DB	00H, 'p', 00H, 'p', 00H, 00H, 00H
$SG82399 DB	'm', 00H, '_', 00H, 'p', 00H, 'G', 00H, 'r', 00H, 'a', 00H
	DB	'p', 00H, 'h', 00H, ' ', 00H, '=', 00H, '=', 00H, ' ', 00H, 'N'
	DB	00H, 'U', 00H, 'L', 00H, 'L', 00H, 00H, 00H
	ORG $+6
$SG82408 DB	'.', 00H, '.', 00H, '\', 00H, 'a', 00H, 'm', 00H, 'f', 00H
	DB	'i', 00H, 'l', 00H, 't', 00H, 'e', 00H, 'r', 00H, '.', 00H, 'c'
	DB	00H, 'p', 00H, 'p', 00H, 00H, 00H
$SG82409 DB	'p', 00H, 'L', 00H, 'o', 00H, 'c', 00H, 'k', 00H, ' ', 00H
	DB	'!', 00H, '=', 00H, ' ', 00H, 'N', 00H, 'U', 00H, 'L', 00H, 'L'
	DB	00H, 00H, 00H
	ORG $+4
$SG82427 DB	'.', 00H, '.', 00H, '\', 00H, 'a', 00H, 'm', 00H, 'f', 00H
	DB	'i', 00H, 'l', 00H, 't', 00H, 'e', 00H, 'r', 00H, '.', 00H, 'c'
	DB	00H, 'p', 00H, 'p', 00H, 00H, 00H
$SG82428 DB	'p', 00H, 'L', 00H, 'o', 00H, 'c', 00H, 'k', 00H, ' ', 00H
	DB	'!', 00H, '=', 00H, ' ', 00H, 'N', 00H, 'U', 00H, 'L', 00H, 'L'
	DB	00H, 00H, 00H
	ORG $+4
$SG82437 DB	'.', 00H, '.', 00H, '\', 00H, 'a', 00H, 'm', 00H, 'f', 00H
	DB	'i', 00H, 'l', 00H, 't', 00H, 'e', 00H, 'r', 00H, '.', 00H, 'c'
	DB	00H, 'p', 00H, 'p', 00H, 00H, 00H
$SG82438 DB	'p', 00H, 'L', 00H, 'o', 00H, 'c', 00H, 'k', 00H, ' ', 00H
	DB	'!', 00H, '=', 00H, ' ', 00H, 'N', 00H, 'U', 00H, 'L', 00H, 'L'
	DB	00H, 00H, 00H
	ORG $+4
$SG82448 DB	'.', 00H, '.', 00H, '\', 00H, 'a', 00H, 'm', 00H, 'f', 00H
	DB	'i', 00H, 'l', 00H, 't', 00H, 'e', 00H, 'r', 00H, '.', 00H, 'c'
	DB	00H, 'p', 00H, 'p', 00H, 00H, 00H
$SG82449 DB	'p', 00H, 'L', 00H, 'o', 00H, 'c', 00H, 'k', 00H, ' ', 00H
	DB	'!', 00H, '=', 00H, ' ', 00H, 'N', 00H, 'U', 00H, 'L', 00H, 'L'
	DB	00H, 00H, 00H
	ORG $+4
$SG82464 DB	'.', 00H, '.', 00H, '\', 00H, 'a', 00H, 'm', 00H, 'f', 00H
	DB	'i', 00H, 'l', 00H, 't', 00H, 'e', 00H, 'r', 00H, '.', 00H, 'c'
	DB	00H, 'p', 00H, 'p', 00H, 00H, 00H
$SG82465 DB	'"', 00H, 'I', 00H, 'n', 00H, 'v', 00H, 'a', 00H, 'l', 00H
	DB	'i', 00H, 'd', 00H, ' ', 00H, 'r', 00H, 'e', 00H, 'a', 00H, 'd'
	DB	00H, ' ', 00H, 'p', 00H, 'o', 00H, 'i', 00H, 'n', 00H, 't', 00H
	DB	'e', 00H, 'r', 00H, '"', 00H, 00H, 00H
	ORG $+2
$SG82469 DB	'.', 00H, '.', 00H, '\', 00H, 'a', 00H, 'm', 00H, 'f', 00H
	DB	'i', 00H, 'l', 00H, 't', 00H, 'e', 00H, 'r', 00H, '.', 00H, 'c'
	DB	00H, 'p', 00H, 'p', 00H, 00H, 00H
$SG82470 DB	'"', 00H, 'I', 00H, 'n', 00H, 'v', 00H, 'a', 00H, 'l', 00H
	DB	'i', 00H, 'd', 00H, ' ', 00H, 'w', 00H, 'r', 00H, 'i', 00H, 't'
	DB	00H, 'e', 00H, ' ', 00H, 'p', 00H, 'o', 00H, 'i', 00H, 'n', 00H
	DB	't', 00H, 'e', 00H, 'r', 00H, '"', 00H, 00H, 00H
$SG82481 DB	'.', 00H, '.', 00H, '\', 00H, 'a', 00H, 'm', 00H, 'f', 00H
	DB	'i', 00H, 'l', 00H, 't', 00H, 'e', 00H, 'r', 00H, '.', 00H, 'c'
	DB	00H, 'p', 00H, 'p', 00H, 00H, 00H
$SG82482 DB	'"', 00H, 'I', 00H, 'n', 00H, 'v', 00H, 'a', 00H, 'l', 00H
	DB	'i', 00H, 'd', 00H, ' ', 00H, 'r', 00H, 'e', 00H, 'a', 00H, 'd'
	DB	00H, ' ', 00H, 'p', 00H, 'o', 00H, 'i', 00H, 'n', 00H, 't', 00H
	DB	'e', 00H, 'r', 00H, '"', 00H, 00H, 00H
	ORG $+2
$SG82486 DB	'.', 00H, '.', 00H, '\', 00H, 'a', 00H, 'm', 00H, 'f', 00H
	DB	'i', 00H, 'l', 00H, 't', 00H, 'e', 00H, 'r', 00H, '.', 00H, 'c'
	DB	00H, 'p', 00H, 'p', 00H, 00H, 00H
$SG82487 DB	'"', 00H, 'I', 00H, 'n', 00H, 'v', 00H, 'a', 00H, 'l', 00H
	DB	'i', 00H, 'd', 00H, ' ', 00H, 'w', 00H, 'r', 00H, 'i', 00H, 't'
	DB	00H, 'e', 00H, ' ', 00H, 'p', 00H, 'o', 00H, 'i', 00H, 'n', 00H
	DB	't', 00H, 'e', 00H, 'r', 00H, '"', 00H, 00H, 00H
$SG82506 DB	'.', 00H, '.', 00H, '\', 00H, 'a', 00H, 'm', 00H, 'f', 00H
	DB	'i', 00H, 'l', 00H, 't', 00H, 'e', 00H, 'r', 00H, '.', 00H, 'c'
	DB	00H, 'p', 00H, 'p', 00H, 00H, 00H
$SG82507 DB	'"', 00H, 'I', 00H, 'n', 00H, 'v', 00H, 'a', 00H, 'l', 00H
	DB	'i', 00H, 'd', 00H, ' ', 00H, 'r', 00H, 'e', 00H, 'a', 00H, 'd'
	DB	00H, ' ', 00H, 'p', 00H, 'o', 00H, 'i', 00H, 'n', 00H, 't', 00H
	DB	'e', 00H, 'r', 00H, '"', 00H, 00H, 00H
	ORG $+2
$SG82511 DB	'.', 00H, '.', 00H, '\', 00H, 'a', 00H, 'm', 00H, 'f', 00H
	DB	'i', 00H, 'l', 00H, 't', 00H, 'e', 00H, 'r', 00H, '.', 00H, 'c'
	DB	00H, 'p', 00H, 'p', 00H, 00H, 00H
$SG82512 DB	'"', 00H, 'I', 00H, 'n', 00H, 'v', 00H, 'a', 00H, 'l', 00H
	DB	'i', 00H, 'd', 00H, ' ', 00H, 'w', 00H, 'r', 00H, 'i', 00H, 't'
	DB	00H, 'e', 00H, ' ', 00H, 'p', 00H, 'o', 00H, 'i', 00H, 'n', 00H
	DB	't', 00H, 'e', 00H, 'r', 00H, '"', 00H, 00H, 00H
$SG82597 DB	'.', 00H, '.', 00H, '\', 00H, 'a', 00H, 'm', 00H, 'f', 00H
	DB	'i', 00H, 'l', 00H, 't', 00H, 'e', 00H, 'r', 00H, '.', 00H, 'c'
	DB	00H, 'p', 00H, 'p', 00H, 00H, 00H
$SG82598 DB	'"', 00H, 'I', 00H, 'n', 00H, 'v', 00H, 'a', 00H, 'l', 00H
	DB	'i', 00H, 'd', 00H, ' ', 00H, 'r', 00H, 'e', 00H, 'a', 00H, 'd'
	DB	00H, ' ', 00H, 'p', 00H, 'o', 00H, 'i', 00H, 'n', 00H, 't', 00H
	DB	'e', 00H, 'r', 00H, '"', 00H, 00H, 00H
	ORG $+2
$SG82602 DB	'.', 00H, '.', 00H, '\', 00H, 'a', 00H, 'm', 00H, 'f', 00H
	DB	'i', 00H, 'l', 00H, 't', 00H, 'e', 00H, 'r', 00H, '.', 00H, 'c'
	DB	00H, 'p', 00H, 'p', 00H, 00H, 00H
$SG82603 DB	'"', 00H, 'I', 00H, 'n', 00H, 'v', 00H, 'a', 00H, 'l', 00H
	DB	'i', 00H, 'd', 00H, ' ', 00H, 'w', 00H, 'r', 00H, 'i', 00H, 't'
	DB	00H, 'e', 00H, ' ', 00H, 'p', 00H, 'o', 00H, 'i', 00H, 'n', 00H
	DB	't', 00H, 'e', 00H, 'r', 00H, '"', 00H, 00H, 00H
$SG82619 DB	'.', 00H, '.', 00H, '\', 00H, 'a', 00H, 'm', 00H, 'f', 00H
	DB	'i', 00H, 'l', 00H, 't', 00H, 'e', 00H, 'r', 00H, '.', 00H, 'c'
	DB	00H, 'p', 00H, 'p', 00H, 00H, 00H
$SG82620 DB	'"', 00H, 'I', 00H, 'n', 00H, 'v', 00H, 'a', 00H, 'l', 00H
	DB	'i', 00H, 'd', 00H, ' ', 00H, 'r', 00H, 'e', 00H, 'a', 00H, 'd'
	DB	00H, ' ', 00H, 'p', 00H, 'o', 00H, 'i', 00H, 'n', 00H, 't', 00H
	DB	'e', 00H, 'r', 00H, '"', 00H, 00H, 00H
	ORG $+2
$SG82624 DB	'.', 00H, '.', 00H, '\', 00H, 'a', 00H, 'm', 00H, 'f', 00H
	DB	'i', 00H, 'l', 00H, 't', 00H, 'e', 00H, 'r', 00H, '.', 00H, 'c'
	DB	00H, 'p', 00H, 'p', 00H, 00H, 00H
$SG82625 DB	'"', 00H, 'I', 00H, 'n', 00H, 'v', 00H, 'a', 00H, 'l', 00H
	DB	'i', 00H, 'd', 00H, ' ', 00H, 'w', 00H, 'r', 00H, 'i', 00H, 't'
	DB	00H, 'e', 00H, ' ', 00H, 'p', 00H, 'o', 00H, 'i', 00H, 'n', 00H
	DB	't', 00H, 'e', 00H, 'r', 00H, '"', 00H, 00H, 00H
$SG82634 DB	'.', 00H, '.', 00H, '\', 00H, 'a', 00H, 'm', 00H, 'f', 00H
	DB	'i', 00H, 'l', 00H, 't', 00H, 'e', 00H, 'r', 00H, '.', 00H, 'c'
	DB	00H, 'p', 00H, 'p', 00H, 00H, 00H
$SG82635 DB	'p', 00H, 'P', 00H, 'i', 00H, 'n', 00H, ' ', 00H, '!', 00H
	DB	'=', 00H, ' ', 00H, 'N', 00H, 'U', 00H, 'L', 00H, 'L', 00H, 00H
	DB	00H
	ORG $+6
$SG82650 DB	'.', 00H, '.', 00H, '\', 00H, 'a', 00H, 'm', 00H, 'f', 00H
	DB	'i', 00H, 'l', 00H, 't', 00H, 'e', 00H, 'r', 00H, '.', 00H, 'c'
	DB	00H, 'p', 00H, 'p', 00H, 00H, 00H
$SG82651 DB	'"', 00H, 'I', 00H, 'n', 00H, 'v', 00H, 'a', 00H, 'l', 00H
	DB	'i', 00H, 'd', 00H, ' ', 00H, 'r', 00H, 'e', 00H, 'a', 00H, 'd'
	DB	00H, ' ', 00H, 'p', 00H, 'o', 00H, 'i', 00H, 'n', 00H, 't', 00H
	DB	'e', 00H, 'r', 00H, '"', 00H, 00H, 00H
	ORG $+2
$SG82655 DB	'.', 00H, '.', 00H, '\', 00H, 'a', 00H, 'm', 00H, 'f', 00H
	DB	'i', 00H, 'l', 00H, 't', 00H, 'e', 00H, 'r', 00H, '.', 00H, 'c'
	DB	00H, 'p', 00H, 'p', 00H, 00H, 00H
$SG82656 DB	'"', 00H, 'I', 00H, 'n', 00H, 'v', 00H, 'a', 00H, 'l', 00H
	DB	'i', 00H, 'd', 00H, ' ', 00H, 'w', 00H, 'r', 00H, 'i', 00H, 't'
	DB	00H, 'e', 00H, ' ', 00H, 'p', 00H, 'o', 00H, 'i', 00H, 'n', 00H
	DB	't', 00H, 'e', 00H, 'r', 00H, '"', 00H, 00H, 00H
$SG82673 DB	'.', 00H, '.', 00H, '\', 00H, 'a', 00H, 'm', 00H, 'f', 00H
	DB	'i', 00H, 'l', 00H, 't', 00H, 'e', 00H, 'r', 00H, '.', 00H, 'c'
	DB	00H, 'p', 00H, 'p', 00H, 00H, 00H
$SG82674 DB	'm', 00H, '_', 00H, 'p', 00H, 'S', 00H, 'i', 00H, 'n', 00H
	DB	'k', 00H, ' ', 00H, '=', 00H, '=', 00H, ' ', 00H, 'N', 00H, 'U'
	DB	00H, 'L', 00H, 'L', 00H, 00H, 00H
$SG82687 DB	'.', 00H, '.', 00H, '\', 00H, 'a', 00H, 'm', 00H, 'f', 00H
	DB	'i', 00H, 'l', 00H, 't', 00H, 'e', 00H, 'r', 00H, '.', 00H, 'c'
	DB	00H, 'p', 00H, 'p', 00H, 00H, 00H
$SG82688 DB	'F', 00H, 'A', 00H, 'L', 00H, 'S', 00H, 'E', 00H, 00H, 00H
	ORG $+4
$SG82738 DB	'.', 00H, '.', 00H, '\', 00H, 'a', 00H, 'm', 00H, 'f', 00H
	DB	'i', 00H, 'l', 00H, 't', 00H, 'e', 00H, 'r', 00H, '.', 00H, 'c'
	DB	00H, 'p', 00H, 'p', 00H, 00H, 00H
$SG82739 DB	'S', 00H, 'U', 00H, 'C', 00H, 'C', 00H, 'E', 00H, 'E', 00H
	DB	'D', 00H, 'E', 00H, 'D', 00H, '(', 00H, 'h', 00H, 'r', 00H, ')'
	DB	00H, 00H, 00H
	ORG $+4
$SG82754 DB	'.', 00H, '.', 00H, '\', 00H, 'a', 00H, 'm', 00H, 'f', 00H
	DB	'i', 00H, 'l', 00H, 't', 00H, 'e', 00H, 'r', 00H, '.', 00H, 'c'
	DB	00H, 'p', 00H, 'p', 00H, 00H, 00H
$SG82755 DB	'S', 00H, 'U', 00H, 'C', 00H, 'C', 00H, 'E', 00H, 'E', 00H
	DB	'D', 00H, 'E', 00H, 'D', 00H, '(', 00H, 'h', 00H, 'r', 00H, ')'
	DB	00H, 00H, 00H
	ORG $+4
$SG82767 DB	'P', 00H, 'i', 00H, 'n', 00H, ' ', 00H, 'C', 00H, 'a', 00H
	DB	'c', 00H, 'h', 00H, 'e', 00H, 00H, 00H
	ORG $+4
$SG82768 DB	'CEnumPins', 00H
	ORG $+6
$SG82770 DB	'.', 00H, '.', 00H, '\', 00H, 'a', 00H, 'm', 00H, 'f', 00H
	DB	'i', 00H, 'l', 00H, 't', 00H, 'e', 00H, 'r', 00H, '.', 00H, 'c'
	DB	00H, 'p', 00H, 'p', 00H, 00H, 00H
$SG82771 DB	'p', 00H, 'F', 00H, 'i', 00H, 'l', 00H, 't', 00H, 'e', 00H
	DB	'r', 00H, ' ', 00H, '!', 00H, '=', 00H, ' ', 00H, 'N', 00H, 'U'
	DB	00H, 'L', 00H, 'L', 00H, 00H, 00H
$SG82775 DB	'.', 00H, '.', 00H, '\', 00H, 'a', 00H, 'm', 00H, 'f', 00H
	DB	'i', 00H, 'l', 00H, 't', 00H, 'e', 00H, 'r', 00H, '.', 00H, 'c'
	DB	00H, 'p', 00H, 'p', 00H, 00H, 00H
$SG82776 DB	'm', 00H, '_', 00H, 'P', 00H, 'o', 00H, 's', 00H, 'i', 00H
	DB	't', 00H, 'i', 00H, 'o', 00H, 'n', 00H, ' ', 00H, '<', 00H, '='
	DB	00H, ' ', 00H, 'm', 00H, '_', 00H, 'P', 00H, 'i', 00H, 'n', 00H
	DB	'C', 00H, 'o', 00H, 'u', 00H, 'n', 00H, 't', 00H, 00H, 00H
	ORG $+6
$SG82819 DB	'.', 00H, '.', 00H, '\', 00H, 'a', 00H, 'm', 00H, 'f', 00H
	DB	'i', 00H, 'l', 00H, 't', 00H, 'e', 00H, 'r', 00H, '.', 00H, 'c'
	DB	00H, 'p', 00H, 'p', 00H, 00H, 00H
$SG82820 DB	'"', 00H, 'I', 00H, 'n', 00H, 'v', 00H, 'a', 00H, 'l', 00H
	DB	'i', 00H, 'd', 00H, ' ', 00H, 'r', 00H, 'e', 00H, 'a', 00H, 'd'
	DB	00H, ' ', 00H, 'p', 00H, 'o', 00H, 'i', 00H, 'n', 00H, 't', 00H
	DB	'e', 00H, 'r', 00H, '"', 00H, 00H, 00H
	ORG $+2
$SG82824 DB	'.', 00H, '.', 00H, '\', 00H, 'a', 00H, 'm', 00H, 'f', 00H
	DB	'i', 00H, 'l', 00H, 't', 00H, 'e', 00H, 'r', 00H, '.', 00H, 'c'
	DB	00H, 'p', 00H, 'p', 00H, 00H, 00H
$SG82825 DB	'"', 00H, 'I', 00H, 'n', 00H, 'v', 00H, 'a', 00H, 'l', 00H
	DB	'i', 00H, 'd', 00H, ' ', 00H, 'w', 00H, 'r', 00H, 'i', 00H, 't'
	DB	00H, 'e', 00H, ' ', 00H, 'p', 00H, 'o', 00H, 'i', 00H, 'n', 00H
	DB	't', 00H, 'e', 00H, 'r', 00H, '"', 00H, 00H, 00H
$SG82847 DB	'.', 00H, '.', 00H, '\', 00H, 'a', 00H, 'm', 00H, 'f', 00H
	DB	'i', 00H, 'l', 00H, 't', 00H, 'e', 00H, 'r', 00H, '.', 00H, 'c'
	DB	00H, 'p', 00H, 'p', 00H, 00H, 00H
$SG82848 DB	'"', 00H, 'I', 00H, 'n', 00H, 'v', 00H, 'a', 00H, 'l', 00H
	DB	'i', 00H, 'd', 00H, ' ', 00H, 'r', 00H, 'e', 00H, 'a', 00H, 'd'
	DB	00H, ' ', 00H, 'p', 00H, 'o', 00H, 'i', 00H, 'n', 00H, 't', 00H
	DB	'e', 00H, 'r', 00H, '"', 00H, 00H, 00H
	ORG $+2
$SG82852 DB	'.', 00H, '.', 00H, '\', 00H, 'a', 00H, 'm', 00H, 'f', 00H
	DB	'i', 00H, 'l', 00H, 't', 00H, 'e', 00H, 'r', 00H, '.', 00H, 'c'
	DB	00H, 'p', 00H, 'p', 00H, 00H, 00H
$SG82853 DB	'"', 00H, 'I', 00H, 'n', 00H, 'v', 00H, 'a', 00H, 'l', 00H
	DB	'i', 00H, 'd', 00H, ' ', 00H, 'w', 00H, 'r', 00H, 'i', 00H, 't'
	DB	00H, 'e', 00H, ' ', 00H, 'p', 00H, 'o', 00H, 'i', 00H, 'n', 00H
	DB	't', 00H, 'e', 00H, 'r', 00H, '"', 00H, 00H, 00H
$SG82855 DB	'.', 00H, '.', 00H, '\', 00H, 'a', 00H, 'm', 00H, 'f', 00H
	DB	'i', 00H, 'l', 00H, 't', 00H, 'e', 00H, 'r', 00H, '.', 00H, 'c'
	DB	00H, 'p', 00H, 'p', 00H, 00H, 00H
$SG82856 DB	'p', 00H, 'p', 00H, 'P', 00H, 'i', 00H, 'n', 00H, 's', 00H
	DB	00H, 00H
	ORG $+2
$SG82861 DB	'.', 00H, '.', 00H, '\', 00H, 'a', 00H, 'm', 00H, 'f', 00H
	DB	'i', 00H, 'l', 00H, 't', 00H, 'e', 00H, 'r', 00H, '.', 00H, 'c'
	DB	00H, 'p', 00H, 'p', 00H, 00H, 00H
$SG82862 DB	'"', 00H, 'I', 00H, 'n', 00H, 'v', 00H, 'a', 00H, 'l', 00H
	DB	'i', 00H, 'd', 00H, ' ', 00H, 'w', 00H, 'r', 00H, 'i', 00H, 't'
	DB	00H, 'e', 00H, ' ', 00H, 'p', 00H, 'o', 00H, 'i', 00H, 'n', 00H
	DB	't', 00H, 'e', 00H, 'r', 00H, '"', 00H, 00H, 00H
$SG82879 DB	'.', 00H, '.', 00H, '\', 00H, 'a', 00H, 'm', 00H, 'f', 00H
	DB	'i', 00H, 'l', 00H, 't', 00H, 'e', 00H, 'r', 00H, '.', 00H, 'c'
	DB	00H, 'p', 00H, 'p', 00H, 00H, 00H
$SG82880 DB	'c', 00H, 'F', 00H, 'e', 00H, 't', 00H, 'c', 00H, 'h', 00H
	DB	'e', 00H, 'd', 00H, '=', 00H, '=', 00H, '0', 00H, 00H, 00H
$SG82907 DB	'CEnumMediaTypes', 00H
$SG82909 DB	'.', 00H, '.', 00H, '\', 00H, 'a', 00H, 'm', 00H, 'f', 00H
	DB	'i', 00H, 'l', 00H, 't', 00H, 'e', 00H, 'r', 00H, '.', 00H, 'c'
	DB	00H, 'p', 00H, 'p', 00H, 00H, 00H
$SG82910 DB	'p', 00H, 'P', 00H, 'i', 00H, 'n', 00H, ' ', 00H, '!', 00H
	DB	'=', 00H, ' ', 00H, 'N', 00H, 'U', 00H, 'L', 00H, 'L', 00H, 00H
	DB	00H
	ORG $+6
$SG82952 DB	'.', 00H, '.', 00H, '\', 00H, 'a', 00H, 'm', 00H, 'f', 00H
	DB	'i', 00H, 'l', 00H, 't', 00H, 'e', 00H, 'r', 00H, '.', 00H, 'c'
	DB	00H, 'p', 00H, 'p', 00H, 00H, 00H
$SG82953 DB	'"', 00H, 'I', 00H, 'n', 00H, 'v', 00H, 'a', 00H, 'l', 00H
	DB	'i', 00H, 'd', 00H, ' ', 00H, 'r', 00H, 'e', 00H, 'a', 00H, 'd'
	DB	00H, ' ', 00H, 'p', 00H, 'o', 00H, 'i', 00H, 'n', 00H, 't', 00H
	DB	'e', 00H, 'r', 00H, '"', 00H, 00H, 00H
	ORG $+2
$SG82957 DB	'.', 00H, '.', 00H, '\', 00H, 'a', 00H, 'm', 00H, 'f', 00H
	DB	'i', 00H, 'l', 00H, 't', 00H, 'e', 00H, 'r', 00H, '.', 00H, 'c'
	DB	00H, 'p', 00H, 'p', 00H, 00H, 00H
$SG82958 DB	'"', 00H, 'I', 00H, 'n', 00H, 'v', 00H, 'a', 00H, 'l', 00H
	DB	'i', 00H, 'd', 00H, ' ', 00H, 'w', 00H, 'r', 00H, 'i', 00H, 't'
	DB	00H, 'e', 00H, ' ', 00H, 'p', 00H, 'o', 00H, 'i', 00H, 'n', 00H
	DB	't', 00H, 'e', 00H, 'r', 00H, '"', 00H, 00H, 00H
$SG82980 DB	'.', 00H, '.', 00H, '\', 00H, 'a', 00H, 'm', 00H, 'f', 00H
	DB	'i', 00H, 'l', 00H, 't', 00H, 'e', 00H, 'r', 00H, '.', 00H, 'c'
	DB	00H, 'p', 00H, 'p', 00H, 00H, 00H
$SG82981 DB	'"', 00H, 'I', 00H, 'n', 00H, 'v', 00H, 'a', 00H, 'l', 00H
	DB	'i', 00H, 'd', 00H, ' ', 00H, 'r', 00H, 'e', 00H, 'a', 00H, 'd'
	DB	00H, ' ', 00H, 'p', 00H, 'o', 00H, 'i', 00H, 'n', 00H, 't', 00H
	DB	'e', 00H, 'r', 00H, '"', 00H, 00H, 00H
	ORG $+2
$SG82985 DB	'.', 00H, '.', 00H, '\', 00H, 'a', 00H, 'm', 00H, 'f', 00H
	DB	'i', 00H, 'l', 00H, 't', 00H, 'e', 00H, 'r', 00H, '.', 00H, 'c'
	DB	00H, 'p', 00H, 'p', 00H, 00H, 00H
$SG82986 DB	'"', 00H, 'I', 00H, 'n', 00H, 'v', 00H, 'a', 00H, 'l', 00H
	DB	'i', 00H, 'd', 00H, ' ', 00H, 'w', 00H, 'r', 00H, 'i', 00H, 't'
	DB	00H, 'e', 00H, ' ', 00H, 'p', 00H, 'o', 00H, 'i', 00H, 'n', 00H
	DB	't', 00H, 'e', 00H, 'r', 00H, '"', 00H, 00H, 00H
$SG82993 DB	'.', 00H, '.', 00H, '\', 00H, 'a', 00H, 'm', 00H, 'f', 00H
	DB	'i', 00H, 'l', 00H, 't', 00H, 'e', 00H, 'r', 00H, '.', 00H, 'c'
	DB	00H, 'p', 00H, 'p', 00H, 00H, 00H
$SG82994 DB	'"', 00H, 'I', 00H, 'n', 00H, 'v', 00H, 'a', 00H, 'l', 00H
	DB	'i', 00H, 'd', 00H, ' ', 00H, 'w', 00H, 'r', 00H, 'i', 00H, 't'
	DB	00H, 'e', 00H, ' ', 00H, 'p', 00H, 'o', 00H, 'i', 00H, 'n', 00H
	DB	't', 00H, 'e', 00H, 'r', 00H, '"', 00H, 00H, 00H
$SG83039 DB	'.', 00H, '.', 00H, '\', 00H, 'a', 00H, 'm', 00H, 'f', 00H
	DB	'i', 00H, 'l', 00H, 't', 00H, 'e', 00H, 'r', 00H, '.', 00H, 'c'
	DB	00H, 'p', 00H, 'p', 00H, 00H, 00H
$SG83040 DB	'p', 00H, 'F', 00H, 'i', 00H, 'l', 00H, 't', 00H, 'e', 00H
	DB	'r', 00H, ' ', 00H, '!', 00H, '=', 00H, ' ', 00H, 'N', 00H, 'U'
	DB	00H, 'L', 00H, 'L', 00H, 00H, 00H
$SG83042 DB	'.', 00H, '.', 00H, '\', 00H, 'a', 00H, 'm', 00H, 'f', 00H
	DB	'i', 00H, 'l', 00H, 't', 00H, 'e', 00H, 'r', 00H, '.', 00H, 'c'
	DB	00H, 'p', 00H, 'p', 00H, 00H, 00H
$SG83043 DB	'p', 00H, 'L', 00H, 'o', 00H, 'c', 00H, 'k', 00H, ' ', 00H
	DB	'!', 00H, '=', 00H, ' ', 00H, 'N', 00H, 'U', 00H, 'L', 00H, 'L'
	DB	00H, 00H, 00H
	ORG $+4
$SG83068 DB	'.', 00H, '.', 00H, '\', 00H, 'a', 00H, 'm', 00H, 'f', 00H
	DB	'i', 00H, 'l', 00H, 't', 00H, 'e', 00H, 'r', 00H, '.', 00H, 'c'
	DB	00H, 'p', 00H, 'p', 00H, 00H, 00H
$SG83069 DB	'p', 00H, 'F', 00H, 'i', 00H, 'l', 00H, 't', 00H, 'e', 00H
	DB	'r', 00H, ' ', 00H, '!', 00H, '=', 00H, ' ', 00H, 'N', 00H, 'U'
	DB	00H, 'L', 00H, 'L', 00H, 00H, 00H
$SG83071 DB	'.', 00H, '.', 00H, '\', 00H, 'a', 00H, 'm', 00H, 'f', 00H
	DB	'i', 00H, 'l', 00H, 't', 00H, 'e', 00H, 'r', 00H, '.', 00H, 'c'
	DB	00H, 'p', 00H, 'p', 00H, 00H, 00H
$SG83072 DB	'p', 00H, 'L', 00H, 'o', 00H, 'c', 00H, 'k', 00H, ' ', 00H
	DB	'!', 00H, '=', 00H, ' ', 00H, 'N', 00H, 'U', 00H, 'L', 00H, 'L'
	DB	00H, 00H, 00H
	ORG $+4
$SG83083 DB	'.', 00H, '.', 00H, '\', 00H, 'a', 00H, 'm', 00H, 'f', 00H
	DB	'i', 00H, 'l', 00H, 't', 00H, 'e', 00H, 'r', 00H, '.', 00H, 'c'
	DB	00H, 'p', 00H, 'p', 00H, 00H, 00H
$SG83084 DB	'm', 00H, '_', 00H, 'C', 00H, 'o', 00H, 'n', 00H, 'n', 00H
	DB	'e', 00H, 'c', 00H, 't', 00H, 'e', 00H, 'd', 00H, ' ', 00H, '='
	DB	00H, '=', 00H, ' ', 00H, 'F', 00H, 'A', 00H, 'L', 00H, 'S', 00H
	DB	'E', 00H, 00H, 00H
	ORG $+6
$SG83087 DB	'.', 00H, '.', 00H, '\', 00H, 'a', 00H, 'm', 00H, 'f', 00H
	DB	'i', 00H, 'l', 00H, 't', 00H, 'e', 00H, 'r', 00H, '.', 00H, 'c'
	DB	00H, 'p', 00H, 'p', 00H, 00H, 00H
$SG83088 DB	'm', 00H, '_', 00H, 'c', 00H, 'R', 00H, 'e', 00H, 'f', 00H
	DB	' ', 00H, '=', 00H, '=', 00H, ' ', 00H, '0', 00H, 00H, 00H
$SG83104 DB	'.', 00H, '.', 00H, '\', 00H, 'a', 00H, 'm', 00H, 'f', 00H
	DB	'i', 00H, 'l', 00H, 't', 00H, 'e', 00H, 'r', 00H, '.', 00H, 'c'
	DB	00H, 'p', 00H, 'p', 00H, 00H, 00H
	ORG $+8
$SG83105 DB	'I', 00H, 'n', 00H, 't', 00H, 'e', 00H, 'r', 00H, 'l', 00H
	DB	'o', 00H, 'c', 00H, 'k', 00H, 'e', 00H, 'd', 00H, 'I', 00H, 'n'
	DB	00H, 'c', 00H, 'r', 00H, 'e', 00H, 'm', 00H, 'e', 00H, 'n', 00H
	DB	't', 00H, '(', 00H, '&', 00H, 'm', 00H, '_', 00H, 'c', 00H, 'R'
	DB	00H, 'e', 00H, 'f', 00H, ')', 00H, ' ', 00H, '>', 00H, ' ', 00H
	DB	'0', 00H, 00H, 00H
	ORG $+4
$SG83110 DB	'.', 00H, '.', 00H, '\', 00H, 'a', 00H, 'm', 00H, 'f', 00H
	DB	'i', 00H, 'l', 00H, 't', 00H, 'e', 00H, 'r', 00H, '.', 00H, 'c'
	DB	00H, 'p', 00H, 'p', 00H, 00H, 00H
	ORG $+8
$SG83111 DB	'I', 00H, 'n', 00H, 't', 00H, 'e', 00H, 'r', 00H, 'l', 00H
	DB	'o', 00H, 'c', 00H, 'k', 00H, 'e', 00H, 'd', 00H, 'D', 00H, 'e'
	DB	00H, 'c', 00H, 'r', 00H, 'e', 00H, 'm', 00H, 'e', 00H, 'n', 00H
	DB	't', 00H, '(', 00H, '&', 00H, 'm', 00H, '_', 00H, 'c', 00H, 'R'
	DB	00H, 'e', 00H, 'f', 00H, ')', 00H, ' ', 00H, '>', 00H, '=', 00H
	DB	' ', 00H, '0', 00H, 00H, 00H
	ORG $+2
$SG83121 DB	'B', 00H, 'a', 00H, 'd', 00H, ' ', 00H, 'P', 00H, 'i', 00H
	DB	'n', 00H, 00H, 00H
$SG83126 DB	'B', 00H, 'a', 00H, 'd', 00H, ' ', 00H, 'P', 00H, 'i', 00H
	DB	'n', 00H, 00H, 00H
$SG83129 DB	'T', 00H, 'r', 00H, 'y', 00H, 'i', 00H, 'n', 00H, 'g', 00H
	DB	' ', 00H, 't', 00H, 'o', 00H, ' ', 00H, 'c', 00H, 'o', 00H, 'n'
	DB	00H, 'n', 00H, 'e', 00H, 'c', 00H, 't', 00H, ' ', 00H, 'P', 00H
	DB	'i', 00H, 'n', 00H, 's', 00H, ' ', 00H, ':', 00H, 00H, 00H
	ORG $+6
$SG83130 DB	' ', 00H, ' ', 00H, ' ', 00H, ' ', 00H, '<', 00H, '%', 00H
	DB	'l', 00H, 's', 00H, '>', 00H, 00H, 00H
	ORG $+4
$SG83131 DB	' ', 00H, ' ', 00H, ' ', 00H, ' ', 00H, '<', 00H, '%', 00H
	DB	'l', 00H, 's', 00H, '>', 00H, 00H, 00H
	ORG $+4
$SG83138 DB	'T', 00H, 'r', 00H, 'y', 00H, 'i', 00H, 'n', 00H, 'g', 00H
	DB	' ', 00H, 'm', 00H, 'e', 00H, 'd', 00H, 'i', 00H, 'a', 00H, ' '
	DB	00H, 't', 00H, 'y', 00H, 'p', 00H, 'e', 00H, ':', 00H, 00H, 00H
	ORG $+2
$SG83139 DB	' ', 00H, ' ', 00H, ' ', 00H, ' ', 00H, 'm', 00H, 'a', 00H
	DB	'j', 00H, 'o', 00H, 'r', 00H, ' ', 00H, 't', 00H, 'y', 00H, 'p'
	DB	00H, 'e', 00H, ':', 00H, ' ', 00H, ' ', 00H, '%', 00H, 'h', 00H
	DB	's', 00H, 00H, 00H
	ORG $+6
$SG83140 DB	' ', 00H, ' ', 00H, ' ', 00H, ' ', 00H, 's', 00H, 'u', 00H
	DB	'b', 00H, ' ', 00H, 't', 00H, 'y', 00H, 'p', 00H, 'e', 00H, ' '
	DB	00H, ' ', 00H, ':', 00H, ' ', 00H, ' ', 00H, '%', 00H, 'h', 00H
	DB	's', 00H, 00H, 00H
	ORG $+6
$SG83151 DB	'.', 00H, '.', 00H, '\', 00H, 'a', 00H, 'm', 00H, 'f', 00H
	DB	'i', 00H, 'l', 00H, 't', 00H, 'e', 00H, 'r', 00H, '.', 00H, 'c'
	DB	00H, 'p', 00H, 'p', 00H, 00H, 00H
$SG83152 DB	'"', 00H, 'I', 00H, 'n', 00H, 'v', 00H, 'a', 00H, 'l', 00H
	DB	'i', 00H, 'd', 00H, ' ', 00H, 'r', 00H, 'e', 00H, 'a', 00H, 'd'
	DB	00H, ' ', 00H, 'p', 00H, 'o', 00H, 'i', 00H, 'n', 00H, 't', 00H
	DB	'e', 00H, 'r', 00H, '"', 00H, 00H, 00H
	ORG $+2
$SG83155 DB	'A', 00H, 'l', 00H, 'r', 00H, 'e', 00H, 'a', 00H, 'd', 00H
	DB	'y', 00H, ' ', 00H, 'c', 00H, 'o', 00H, 'n', 00H, 'n', 00H, 'e'
	DB	00H, 'c', 00H, 't', 00H, 'e', 00H, 'd', 00H, 00H, 00H
	ORG $+4
$SG83166 DB	'F', 00H, 'a', 00H, 'i', 00H, 'l', 00H, 'e', 00H, 'd', 00H
	DB	' ', 00H, 't', 00H, 'o', 00H, ' ', 00H, 'a', 00H, 'g', 00H, 'r'
	DB	00H, 'e', 00H, 'e', 00H, ' ', 00H, 't', 00H, 'y', 00H, 'p', 00H
	DB	'e', 00H, 00H, 00H
	ORG $+6
$SG83169 DB	'.', 00H, '.', 00H, '\', 00H, 'a', 00H, 'm', 00H, 'f', 00H
	DB	'i', 00H, 'l', 00H, 't', 00H, 'e', 00H, 'r', 00H, '.', 00H, 'c'
	DB	00H, 'p', 00H, 'p', 00H, 00H, 00H
$SG83170 DB	'(', 00H, '(', 00H, '(', 00H, 'H', 00H, 'R', 00H, 'E', 00H
	DB	'S', 00H, 'U', 00H, 'L', 00H, 'T', 00H, ')', 00H, '(', 00H, 'B'
	DB	00H, 'r', 00H, 'e', 00H, 'a', 00H, 'k', 00H, 'C', 00H, 'o', 00H
	DB	'n', 00H, 'n', 00H, 'e', 00H, 'c', 00H, 't', 00H, '(', 00H, ')'
	DB	00H, ')', 00H, ')', 00H, ' ', 00H, '>', 00H, '=', 00H, ' ', 00H
	DB	'0', 00H, ')', 00H, 00H, 00H
	ORG $+2
$SG83172 DB	'C', 00H, 'o', 00H, 'n', 00H, 'n', 00H, 'e', 00H, 'c', 00H
	DB	't', 00H, 'i', 00H, 'o', 00H, 'n', 00H, ' ', 00H, 's', 00H, 'u'
	DB	00H, 'c', 00H, 'c', 00H, 'e', 00H, 'e', 00H, 'd', 00H, 'e', 00H
	DB	'd', 00H, 00H, 00H
	ORG $+6
$SG83180 DB	'.', 00H, '.', 00H, '\', 00H, 'a', 00H, 'm', 00H, 'f', 00H
	DB	'i', 00H, 'l', 00H, 't', 00H, 'e', 00H, 'r', 00H, '.', 00H, 'c'
	DB	00H, 'p', 00H, 'p', 00H, 00H, 00H
$SG83181 DB	'C', 00H, 'r', 00H, 'i', 00H, 't', 00H, 'C', 00H, 'h', 00H
	DB	'e', 00H, 'c', 00H, 'k', 00H, 'I', 00H, 'n', 00H, '(', 00H, 'm'
	DB	00H, '_', 00H, 'p', 00H, 'L', 00H, 'o', 00H, 'c', 00H, 'k', 00H
	DB	')', 00H, 00H, 00H
	ORG $+6
$SG83185 DB	'C', 00H, 'h', 00H, 'e', 00H, 'c', 00H, 'k', 00H, 'C', 00H
	DB	'o', 00H, 'n', 00H, 'n', 00H, 'e', 00H, 'c', 00H, 't', 00H, ' '
	DB	00H, 'f', 00H, 'a', 00H, 'i', 00H, 'l', 00H, 'e', 00H, 'd', 00H
	DB	00H, 00H
$SG83188 DB	'.', 00H, '.', 00H, '\', 00H, 'a', 00H, 'm', 00H, 'f', 00H
	DB	'i', 00H, 'l', 00H, 't', 00H, 'e', 00H, 'r', 00H, '.', 00H, 'c'
	DB	00H, 'p', 00H, 'p', 00H, 00H, 00H
$SG83189 DB	'(', 00H, '(', 00H, '(', 00H, 'H', 00H, 'R', 00H, 'E', 00H
	DB	'S', 00H, 'U', 00H, 'L', 00H, 'T', 00H, ')', 00H, '(', 00H, 'B'
	DB	00H, 'r', 00H, 'e', 00H, 'a', 00H, 'k', 00H, 'C', 00H, 'o', 00H
	DB	'n', 00H, 'n', 00H, 'e', 00H, 'c', 00H, 't', 00H, '(', 00H, ')'
	DB	00H, ')', 00H, ')', 00H, ' ', 00H, '>', 00H, '=', 00H, ' ', 00H
	DB	'0', 00H, ')', 00H, 00H, 00H
	ORG $+2
$SG83199 DB	'F', 00H, 'a', 00H, 'i', 00H, 'l', 00H, 'e', 00H, 'd', 00H
	DB	' ', 00H, 't', 00H, 'o', 00H, ' ', 00H, 'c', 00H, 'o', 00H, 'm'
	DB	00H, 'p', 00H, 'l', 00H, 'e', 00H, 't', 00H, 'e', 00H, ' ', 00H
	DB	'c', 00H, 'o', 00H, 'n', 00H, 'n', 00H, 'e', 00H, 'c', 00H, 't'
	DB	00H, 'i', 00H, 'o', 00H, 'n', 00H, 00H, 00H
	ORG $+4
$SG83209 DB	'.', 00H, '.', 00H, '\', 00H, 'a', 00H, 'm', 00H, 'f', 00H
	DB	'i', 00H, 'l', 00H, 't', 00H, 'e', 00H, 'r', 00H, '.', 00H, 'c'
	DB	00H, 'p', 00H, 'p', 00H, 00H, 00H
	ORG $+8
$SG83210 DB	'(', 00H, '(', 00H, '(', 00H, 'H', 00H, 'R', 00H, 'E', 00H
	DB	'S', 00H, 'U', 00H, 'L', 00H, 'T', 00H, ')', 00H, '(', 00H, 'B'
	DB	00H, 'r', 00H, 'e', 00H, 'a', 00H, 'k', 00H, 'C', 00H, 'o', 00H
	DB	'n', 00H, 'n', 00H, 'e', 00H, 'c', 00H, 't', 00H, '(', 00H, ')'
	DB	00H, ')', 00H, ')', 00H, ' ', 00H, '>', 00H, '=', 00H, ' ', 00H
	DB	'0', 00H, ')', 00H, 00H, 00H
	ORG $+2
$SG83235 DB	'.', 00H, '.', 00H, '\', 00H, 'a', 00H, 'm', 00H, 'f', 00H
	DB	'i', 00H, 'l', 00H, 't', 00H, 'e', 00H, 'r', 00H, '.', 00H, 'c'
	DB	00H, 'p', 00H, 'p', 00H, 00H, 00H
$SG83236 DB	'u', 00H, 'l', 00H, 'M', 00H, 'e', 00H, 'd', 00H, 'i', 00H
	DB	'a', 00H, 'C', 00H, 'o', 00H, 'u', 00H, 'n', 00H, 't', 00H, ' '
	DB	00H, '=', 00H, '=', 00H, ' ', 00H, '1', 00H, 00H, 00H
	ORG $+4
$SG83238 DB	'.', 00H, '.', 00H, '\', 00H, 'a', 00H, 'm', 00H, 'f', 00H
	DB	'i', 00H, 'l', 00H, 't', 00H, 'e', 00H, 'r', 00H, '.', 00H, 'c'
	DB	00H, 'p', 00H, 'p', 00H, 00H, 00H
$SG83239 DB	'p', 00H, 'M', 00H, 'e', 00H, 'd', 00H, 'i', 00H, 'a', 00H
	DB	'T', 00H, 'y', 00H, 'p', 00H, 'e', 00H, 00H, 00H
	ORG $+2
$SG83258 DB	'.', 00H, '.', 00H, '\', 00H, 'a', 00H, 'm', 00H, 'f', 00H
	DB	'i', 00H, 'l', 00H, 't', 00H, 'e', 00H, 'r', 00H, '.', 00H, 'c'
	DB	00H, 'p', 00H, 'p', 00H, 00H, 00H
$SG83259 DB	'p', 00H, 'R', 00H, 'e', 00H, 'c', 00H, 'e', 00H, 'i', 00H
	DB	'v', 00H, 'e', 00H, 'P', 00H, 'i', 00H, 'n', 00H, 00H, 00H
$SG83275 DB	'.', 00H, '.', 00H, '\', 00H, 'a', 00H, 'm', 00H, 'f', 00H
	DB	'i', 00H, 'l', 00H, 't', 00H, 'e', 00H, 'r', 00H, '.', 00H, 'c'
	DB	00H, 'p', 00H, 'p', 00H, 00H, 00H
$SG83276 DB	'p', 00H, 'E', 00H, 'n', 00H, 'u', 00H, 'm', 00H, 'M', 00H
	DB	'e', 00H, 'd', 00H, 'i', 00H, 'a', 00H, 'T', 00H, 'y', 00H, 'p'
	DB	00H, 'e', 00H, 's', 00H, 00H, 00H
$SG83301 DB	'.', 00H, '.', 00H, '\', 00H, 'a', 00H, 'm', 00H, 'f', 00H
	DB	'i', 00H, 'l', 00H, 't', 00H, 'e', 00H, 'r', 00H, '.', 00H, 'c'
	DB	00H, 'p', 00H, 'p', 00H, 00H, 00H
$SG83302 DB	'(', 00H, 'p', 00H, 'd', 00H, ' ', 00H, '=', 00H, '=', 00H
	DB	' ', 00H, 'P', 00H, 'I', 00H, 'N', 00H, 'D', 00H, 'I', 00H, 'R'
	DB	00H, '_', 00H, 'O', 00H, 'U', 00H, 'T', 00H, 'P', 00H, 'U', 00H
	DB	'T', 00H, ')', 00H, ' ', 00H, '|', 00H, '|', 00H, ' ', 00H, '('
	DB	00H, 'p', 00H, 'd', 00H, ' ', 00H, '=', 00H, '=', 00H, ' ', 00H
	DB	'P', 00H, 'I', 00H, 'N', 00H, 'D', 00H, 'I', 00H, 'R', 00H, '_'
	DB	00H, 'I', 00H, 'N', 00H, 'P', 00H, 'U', 00H, 'T', 00H, ')', 00H
	DB	00H, 00H
	ORG $+4
$SG83304 DB	'.', 00H, '.', 00H, '\', 00H, 'a', 00H, 'm', 00H, 'f', 00H
	DB	'i', 00H, 'l', 00H, 't', 00H, 'e', 00H, 'r', 00H, '.', 00H, 'c'
	DB	00H, 'p', 00H, 'p', 00H, 00H, 00H
$SG83305 DB	'(', 00H, 'm', 00H, '_', 00H, 'd', 00H, 'i', 00H, 'r', 00H
	DB	' ', 00H, '=', 00H, '=', 00H, ' ', 00H, 'P', 00H, 'I', 00H, 'N'
	DB	00H, 'D', 00H, 'I', 00H, 'R', 00H, '_', 00H, 'O', 00H, 'U', 00H
	DB	'T', 00H, 'P', 00H, 'U', 00H, 'T', 00H, ')', 00H, ' ', 00H, '|'
	DB	00H, '|', 00H, ' ', 00H, '(', 00H, 'm', 00H, '_', 00H, 'd', 00H
	DB	'i', 00H, 'r', 00H, ' ', 00H, '=', 00H, '=', 00H, ' ', 00H, 'P'
	DB	00H, 'I', 00H, 'N', 00H, 'D', 00H, 'I', 00H, 'R', 00H, '_', 00H
	DB	'I', 00H, 'N', 00H, 'P', 00H, 'U', 00H, 'T', 00H, ')', 00H, 00H
	DB	00H
$SG83323 DB	'.', 00H, '.', 00H, '\', 00H, 'a', 00H, 'm', 00H, 'f', 00H
	DB	'i', 00H, 'l', 00H, 't', 00H, 'e', 00H, 'r', 00H, '.', 00H, 'c'
	DB	00H, 'p', 00H, 'p', 00H, 00H, 00H
$SG83324 DB	'"', 00H, 'I', 00H, 'n', 00H, 'v', 00H, 'a', 00H, 'l', 00H
	DB	'i', 00H, 'd', 00H, ' ', 00H, 'r', 00H, 'e', 00H, 'a', 00H, 'd'
	DB	00H, ' ', 00H, 'p', 00H, 'o', 00H, 'i', 00H, 'n', 00H, 't', 00H
	DB	'e', 00H, 'r', 00H, '"', 00H, 00H, 00H
	ORG $+2
$SG83328 DB	'.', 00H, '.', 00H, '\', 00H, 'a', 00H, 'm', 00H, 'f', 00H
	DB	'i', 00H, 'l', 00H, 't', 00H, 'e', 00H, 'r', 00H, '.', 00H, 'c'
	DB	00H, 'p', 00H, 'p', 00H, 00H, 00H
$SG83329 DB	'"', 00H, 'I', 00H, 'n', 00H, 'v', 00H, 'a', 00H, 'l', 00H
	DB	'i', 00H, 'd', 00H, ' ', 00H, 'r', 00H, 'e', 00H, 'a', 00H, 'd'
	DB	00H, ' ', 00H, 'p', 00H, 'o', 00H, 'i', 00H, 'n', 00H, 't', 00H
	DB	'e', 00H, 'r', 00H, '"', 00H, 00H, 00H
	ORG $+2
$SG83342 DB	'.', 00H, '.', 00H, '\', 00H, 'a', 00H, 'm', 00H, 'f', 00H
	DB	'i', 00H, 'l', 00H, 't', 00H, 'e', 00H, 'r', 00H, '.', 00H, 'c'
	DB	00H, 'p', 00H, 'p', 00H, 00H, 00H
	ORG $+8
$SG83343 DB	'(', 00H, '(', 00H, '(', 00H, 'H', 00H, 'R', 00H, 'E', 00H
	DB	'S', 00H, 'U', 00H, 'L', 00H, 'T', 00H, ')', 00H, '(', 00H, 'B'
	DB	00H, 'r', 00H, 'e', 00H, 'a', 00H, 'k', 00H, 'C', 00H, 'o', 00H
	DB	'n', 00H, 'n', 00H, 'e', 00H, 'c', 00H, 't', 00H, '(', 00H, ')'
	DB	00H, ')', 00H, ')', 00H, ' ', 00H, '>', 00H, '=', 00H, ' ', 00H
	DB	'0', 00H, ')', 00H, 00H, 00H
	ORG $+2
$SG83350 DB	'.', 00H, '.', 00H, '\', 00H, 'a', 00H, 'm', 00H, 'f', 00H
	DB	'i', 00H, 'l', 00H, 't', 00H, 'e', 00H, 'r', 00H, '.', 00H, 'c'
	DB	00H, 'p', 00H, 'p', 00H, 00H, 00H
	ORG $+8
$SG83351 DB	'(', 00H, '(', 00H, '(', 00H, 'H', 00H, 'R', 00H, 'E', 00H
	DB	'S', 00H, 'U', 00H, 'L', 00H, 'T', 00H, ')', 00H, '(', 00H, 'B'
	DB	00H, 'r', 00H, 'e', 00H, 'a', 00H, 'k', 00H, 'C', 00H, 'o', 00H
	DB	'n', 00H, 'n', 00H, 'e', 00H, 'c', 00H, 't', 00H, '(', 00H, ')'
	DB	00H, ')', 00H, ')', 00H, ' ', 00H, '>', 00H, '=', 00H, ' ', 00H
	DB	'0', 00H, ')', 00H, 00H, 00H
	ORG $+10
$SG83364 DB	'F', 00H, 'a', 00H, 'i', 00H, 'l', 00H, 'e', 00H, 'd', 00H
	DB	' ', 00H, 't', 00H, 'o', 00H, ' ', 00H, 's', 00H, 'e', 00H, 't'
	DB	00H, ' ', 00H, 't', 00H, 'h', 00H, 'e', 00H, ' ', 00H, 'm', 00H
	DB	'e', 00H, 'd', 00H, 'i', 00H, 'a', 00H, ' ', 00H, 't', 00H, 'y'
	DB	00H, 'p', 00H, 'e', 00H, ' ', 00H, 'o', 00H, 'r', 00H, ' ', 00H
	DB	'f', 00H, 'a', 00H, 'i', 00H, 'l', 00H, 'e', 00H, 'd', 00H, ' '
	DB	00H, 't', 00H, 'o', 00H, ' ', 00H, 'c', 00H, 'o', 00H, 'm', 00H
	DB	'p', 00H, 'l', 00H, 'e', 00H, 't', 00H, 'e', 00H, ' ', 00H, 't'
	DB	00H, 'h', 00H, 'e', 00H, ' ', 00H, 'c', 00H, 'o', 00H, 'n', 00H
	DB	'n', 00H, 'e', 00H, 'c', 00H, 't', 00H, 'i', 00H, 'o', 00H, 'n'
	DB	00H, '.', 00H, 00H, 00H
	ORG $+2
$SG83367 DB	'.', 00H, '.', 00H, '\', 00H, 'a', 00H, 'm', 00H, 'f', 00H
	DB	'i', 00H, 'l', 00H, 't', 00H, 'e', 00H, 'r', 00H, '.', 00H, 'c'
	DB	00H, 'p', 00H, 'p', 00H, 00H, 00H
	ORG $+8
$SG83368 DB	'(', 00H, '(', 00H, '(', 00H, 'H', 00H, 'R', 00H, 'E', 00H
	DB	'S', 00H, 'U', 00H, 'L', 00H, 'T', 00H, ')', 00H, '(', 00H, 'B'
	DB	00H, 'r', 00H, 'e', 00H, 'a', 00H, 'k', 00H, 'C', 00H, 'o', 00H
	DB	'n', 00H, 'n', 00H, 'e', 00H, 'c', 00H, 't', 00H, '(', 00H, ')'
	DB	00H, ')', 00H, ')', 00H, ' ', 00H, '>', 00H, '=', 00H, ' ', 00H
	DB	'0', 00H, ')', 00H, 00H, 00H
	ORG $+2
$SG83382 DB	'.', 00H, '.', 00H, '\', 00H, 'a', 00H, 'm', 00H, 'f', 00H
	DB	'i', 00H, 'l', 00H, 't', 00H, 'e', 00H, 'r', 00H, '.', 00H, 'c'
	DB	00H, 'p', 00H, 'p', 00H, 00H, 00H
$SG83383 DB	'C', 00H, 'r', 00H, 'i', 00H, 't', 00H, 'C', 00H, 'h', 00H
	DB	'e', 00H, 'c', 00H, 'k', 00H, 'I', 00H, 'n', 00H, '(', 00H, 'm'
	DB	00H, '_', 00H, 'p', 00H, 'L', 00H, 'o', 00H, 'c', 00H, 'k', 00H
	DB	')', 00H, 00H, 00H
	ORG $+6
$SG83388 DB	'.', 00H, '.', 00H, '\', 00H, 'a', 00H, 'm', 00H, 'f', 00H
	DB	'i', 00H, 'l', 00H, 't', 00H, 'e', 00H, 'r', 00H, '.', 00H, 'c'
	DB	00H, 'p', 00H, 'p', 00H, 00H, 00H
	ORG $+8
$SG83389 DB	'"', 00H, 'W', 00H, 'A', 00H, 'R', 00H, 'N', 00H, 'I', 00H
	DB	'N', 00H, 'G', 00H, ':', 00H, ' ', 00H, 'B', 00H, 'r', 00H, 'e'
	DB	00H, 'a', 00H, 'k', 00H, 'C', 00H, 'o', 00H, 'n', 00H, 'n', 00H
	DB	'e', 00H, 'c', 00H, 't', 00H, '(', 00H, ')', 00H, ' ', 00H, 'f'
	DB	00H, 'a', 00H, 'i', 00H, 'l', 00H, 'e', 00H, 'd', 00H, ' ', 00H
	DB	'i', 00H, 'n', 00H, ' ', 00H, 'C', 00H, 'B', 00H, 'a', 00H, 's'
	DB	00H, 'e', 00H, 'P', 00H, 'i', 00H, 'n', 00H, ':', 00H, ':', 00H
	DB	'D', 00H, 'i', 00H, 's', 00H, 'c', 00H, 'o', 00H, 'n', 00H, 'n'
	DB	00H, 'e', 00H, 'c', 00H, 't', 00H, '(', 00H, ')', 00H, '.', 00H
	DB	'"', 00H, 00H, 00H
$SG83402 DB	'.', 00H, '.', 00H, '\', 00H, 'a', 00H, 'm', 00H, 'f', 00H
	DB	'i', 00H, 'l', 00H, 't', 00H, 'e', 00H, 'r', 00H, '.', 00H, 'c'
	DB	00H, 'p', 00H, 'p', 00H, 00H, 00H
$SG83403 DB	'"', 00H, 'I', 00H, 'n', 00H, 'v', 00H, 'a', 00H, 'l', 00H
	DB	'i', 00H, 'd', 00H, ' ', 00H, 'r', 00H, 'e', 00H, 'a', 00H, 'd'
	DB	00H, ' ', 00H, 'p', 00H, 'o', 00H, 'i', 00H, 'n', 00H, 't', 00H
	DB	'e', 00H, 'r', 00H, '"', 00H, 00H, 00H
	ORG $+2
$SG83407 DB	'.', 00H, '.', 00H, '\', 00H, 'a', 00H, 'm', 00H, 'f', 00H
	DB	'i', 00H, 'l', 00H, 't', 00H, 'e', 00H, 'r', 00H, '.', 00H, 'c'
	DB	00H, 'p', 00H, 'p', 00H, 00H, 00H
$SG83408 DB	'"', 00H, 'I', 00H, 'n', 00H, 'v', 00H, 'a', 00H, 'l', 00H
	DB	'i', 00H, 'd', 00H, ' ', 00H, 'w', 00H, 'r', 00H, 'i', 00H, 't'
	DB	00H, 'e', 00H, ' ', 00H, 'p', 00H, 'o', 00H, 'i', 00H, 'n', 00H
	DB	't', 00H, 'e', 00H, 'r', 00H, '"', 00H, 00H, 00H
$SG83414 DB	'.', 00H, '.', 00H, '\', 00H, 'a', 00H, 'm', 00H, 'f', 00H
	DB	'i', 00H, 'l', 00H, 't', 00H, 'e', 00H, 'r', 00H, '.', 00H, 'c'
	DB	00H, 'p', 00H, 'p', 00H, 00H, 00H
$SG83415 DB	'*', 00H, 'p', 00H, 'p', 00H, 'P', 00H, 'i', 00H, 'n', 00H
	DB	' ', 00H, '=', 00H, '=', 00H, ' ', 00H, 'N', 00H, 'U', 00H, 'L'
	DB	00H, 'L', 00H, 00H, 00H
	ORG $+2
$SG83426 DB	'.', 00H, '.', 00H, '\', 00H, 'a', 00H, 'm', 00H, 'f', 00H
	DB	'i', 00H, 'l', 00H, 't', 00H, 'e', 00H, 'r', 00H, '.', 00H, 'c'
	DB	00H, 'p', 00H, 'p', 00H, 00H, 00H
$SG83427 DB	'"', 00H, 'I', 00H, 'n', 00H, 'v', 00H, 'a', 00H, 'l', 00H
	DB	'i', 00H, 'd', 00H, ' ', 00H, 'r', 00H, 'e', 00H, 'a', 00H, 'd'
	DB	00H, ' ', 00H, 'p', 00H, 'o', 00H, 'i', 00H, 'n', 00H, 't', 00H
	DB	'e', 00H, 'r', 00H, '"', 00H, 00H, 00H
	ORG $+2
$SG83431 DB	'.', 00H, '.', 00H, '\', 00H, 'a', 00H, 'm', 00H, 'f', 00H
	DB	'i', 00H, 'l', 00H, 't', 00H, 'e', 00H, 'r', 00H, '.', 00H, 'c'
	DB	00H, 'p', 00H, 'p', 00H, 00H, 00H
$SG83432 DB	'"', 00H, 'I', 00H, 'n', 00H, 'v', 00H, 'a', 00H, 'l', 00H
	DB	'i', 00H, 'd', 00H, ' ', 00H, 'w', 00H, 'r', 00H, 'i', 00H, 't'
	DB	00H, 'e', 00H, ' ', 00H, 'p', 00H, 'o', 00H, 'i', 00H, 'n', 00H
	DB	't', 00H, 'e', 00H, 'r', 00H, '"', 00H, 00H, 00H
$SG83450 DB	'.', 00H, '.', 00H, '\', 00H, 'a', 00H, 'm', 00H, 'f', 00H
	DB	'i', 00H, 'l', 00H, 't', 00H, 'e', 00H, 'r', 00H, '.', 00H, 'c'
	DB	00H, 'p', 00H, 'p', 00H, 00H, 00H
$SG83451 DB	'"', 00H, 'I', 00H, 'n', 00H, 'v', 00H, 'a', 00H, 'l', 00H
	DB	'i', 00H, 'd', 00H, ' ', 00H, 'r', 00H, 'e', 00H, 'a', 00H, 'd'
	DB	00H, ' ', 00H, 'p', 00H, 'o', 00H, 'i', 00H, 'n', 00H, 't', 00H
	DB	'e', 00H, 'r', 00H, '"', 00H, 00H, 00H
	ORG $+2
$SG83455 DB	'.', 00H, '.', 00H, '\', 00H, 'a', 00H, 'm', 00H, 'f', 00H
	DB	'i', 00H, 'l', 00H, 't', 00H, 'e', 00H, 'r', 00H, '.', 00H, 'c'
	DB	00H, 'p', 00H, 'p', 00H, 00H, 00H
$SG83456 DB	'"', 00H, 'I', 00H, 'n', 00H, 'v', 00H, 'a', 00H, 'l', 00H
	DB	'i', 00H, 'd', 00H, ' ', 00H, 'w', 00H, 'r', 00H, 'i', 00H, 't'
	DB	00H, 'e', 00H, ' ', 00H, 'p', 00H, 'o', 00H, 'i', 00H, 'n', 00H
	DB	't', 00H, 'e', 00H, 'r', 00H, '"', 00H, 00H, 00H
$SG83470 DB	'.', 00H, '.', 00H, '\', 00H, 'a', 00H, 'm', 00H, 'f', 00H
	DB	'i', 00H, 'l', 00H, 't', 00H, 'e', 00H, 'r', 00H, '.', 00H, 'c'
	DB	00H, 'p', 00H, 'p', 00H, 00H, 00H
$SG83471 DB	'"', 00H, 'I', 00H, 'n', 00H, 'v', 00H, 'a', 00H, 'l', 00H
	DB	'i', 00H, 'd', 00H, ' ', 00H, 'r', 00H, 'e', 00H, 'a', 00H, 'd'
	DB	00H, ' ', 00H, 'p', 00H, 'o', 00H, 'i', 00H, 'n', 00H, 't', 00H
	DB	'e', 00H, 'r', 00H, '"', 00H, 00H, 00H
	ORG $+2
$SG83475 DB	'.', 00H, '.', 00H, '\', 00H, 'a', 00H, 'm', 00H, 'f', 00H
	DB	'i', 00H, 'l', 00H, 't', 00H, 'e', 00H, 'r', 00H, '.', 00H, 'c'
	DB	00H, 'p', 00H, 'p', 00H, 00H, 00H
$SG83476 DB	'"', 00H, 'I', 00H, 'n', 00H, 'v', 00H, 'a', 00H, 'l', 00H
	DB	'i', 00H, 'd', 00H, ' ', 00H, 'w', 00H, 'r', 00H, 'i', 00H, 't'
	DB	00H, 'e', 00H, ' ', 00H, 'p', 00H, 'o', 00H, 'i', 00H, 'n', 00H
	DB	't', 00H, 'e', 00H, 'r', 00H, '"', 00H, 00H, 00H
$SG83490 DB	'.', 00H, '.', 00H, '\', 00H, 'a', 00H, 'm', 00H, 'f', 00H
	DB	'i', 00H, 'l', 00H, 't', 00H, 'e', 00H, 'r', 00H, '.', 00H, 'c'
	DB	00H, 'p', 00H, 'p', 00H, 00H, 00H
$SG83491 DB	'"', 00H, 'I', 00H, 'n', 00H, 'v', 00H, 'a', 00H, 'l', 00H
	DB	'i', 00H, 'd', 00H, ' ', 00H, 'r', 00H, 'e', 00H, 'a', 00H, 'd'
	DB	00H, ' ', 00H, 'p', 00H, 'o', 00H, 'i', 00H, 'n', 00H, 't', 00H
	DB	'e', 00H, 'r', 00H, '"', 00H, 00H, 00H
	ORG $+2
$SG83506 DB	'.', 00H, '.', 00H, '\', 00H, 'a', 00H, 'm', 00H, 'f', 00H
	DB	'i', 00H, 'l', 00H, 't', 00H, 'e', 00H, 'r', 00H, '.', 00H, 'c'
	DB	00H, 'p', 00H, 'p', 00H, 00H, 00H
$SG83507 DB	'"', 00H, 'I', 00H, 'n', 00H, 'v', 00H, 'a', 00H, 'l', 00H
	DB	'i', 00H, 'd', 00H, ' ', 00H, 'r', 00H, 'e', 00H, 'a', 00H, 'd'
	DB	00H, ' ', 00H, 'p', 00H, 'o', 00H, 'i', 00H, 'n', 00H, 't', 00H
	DB	'e', 00H, 'r', 00H, '"', 00H, 00H, 00H
	ORG $+2
$SG83511 DB	'.', 00H, '.', 00H, '\', 00H, 'a', 00H, 'm', 00H, 'f', 00H
	DB	'i', 00H, 'l', 00H, 't', 00H, 'e', 00H, 'r', 00H, '.', 00H, 'c'
	DB	00H, 'p', 00H, 'p', 00H, 00H, 00H
$SG83512 DB	'"', 00H, 'I', 00H, 'n', 00H, 'v', 00H, 'a', 00H, 'l', 00H
	DB	'i', 00H, 'd', 00H, ' ', 00H, 'w', 00H, 'r', 00H, 'i', 00H, 't'
	DB	00H, 'e', 00H, ' ', 00H, 'p', 00H, 'o', 00H, 'i', 00H, 'n', 00H
	DB	't', 00H, 'e', 00H, 'r', 00H, '"', 00H, 00H, 00H
$SG83557 DB	'.', 00H, '.', 00H, '\', 00H, 'a', 00H, 'm', 00H, 'f', 00H
	DB	'i', 00H, 'l', 00H, 't', 00H, 'e', 00H, 'r', 00H, '.', 00H, 'c'
	DB	00H, 'p', 00H, 'p', 00H, 00H, 00H
$SG83558 DB	'"', 00H, 'I', 00H, 'n', 00H, 'v', 00H, 'a', 00H, 'l', 00H
	DB	'i', 00H, 'd', 00H, ' ', 00H, 'r', 00H, 'e', 00H, 'a', 00H, 'd'
	DB	00H, ' ', 00H, 'p', 00H, 'o', 00H, 'i', 00H, 'n', 00H, 't', 00H
	DB	'e', 00H, 'r', 00H, '"', 00H, 00H, 00H
	ORG $+2
$SG83565 DB	'.', 00H, '.', 00H, '\', 00H, 'a', 00H, 'm', 00H, 'f', 00H
	DB	'i', 00H, 'l', 00H, 't', 00H, 'e', 00H, 'r', 00H, '.', 00H, 'c'
	DB	00H, 'p', 00H, 'p', 00H, 00H, 00H
	ORG $+8
$SG83566 DB	'"', 00H, 'I', 00H, 'Q', 00H, 'u', 00H, 'a', 00H, 'l', 00H
	DB	'i', 00H, 't', 00H, 'y', 00H, 'C', 00H, 'o', 00H, 'n', 00H, 't'
	DB	00H, 'r', 00H, 'o', 00H, 'l', 00H, ':', 00H, ':', 00H, 'N', 00H
	DB	'o', 00H, 't', 00H, 'i', 00H, 'f', 00H, 'y', 00H, ' ', 00H, 'n'
	DB	00H, 'o', 00H, 't', 00H, ' ', 00H, 'o', 00H, 'v', 00H, 'e', 00H
	DB	'r', 00H, '-', 00H, 'r', 00H, 'i', 00H, 'd', 00H, 'd', 00H, 'e'
	DB	00H, 'n', 00H, ' ', 00H, 'f', 00H, 'r', 00H, 'o', 00H, 'm', 00H
	DB	' ', 00H, 'C', 00H, 'B', 00H, 'a', 00H, 's', 00H, 'e', 00H, 'P'
	DB	00H, 'i', 00H, 'n', 00H, '.', 00H, ' ', 00H, ' ', 00H, '(', 00H
	DB	'I', 00H, 'G', 00H, 'N', 00H, 'O', 00H, 'R', 00H, 'E', 00H, ' '
	DB	00H, 'i', 00H, 's', 00H, ' ', 00H, 'O', 00H, 'K', 00H, ')', 00H
	DB	'"', 00H, 00H, 00H
	ORG $+6
$SG83584 DB	'.', 00H, '.', 00H, '\', 00H, 'a', 00H, 'm', 00H, 'f', 00H
	DB	'i', 00H, 'l', 00H, 't', 00H, 'e', 00H, 'r', 00H, '.', 00H, 'c'
	DB	00H, 'p', 00H, 'p', 00H, 00H, 00H
$SG83585 DB	'p', 00H, 'F', 00H, 'i', 00H, 'l', 00H, 't', 00H, 'e', 00H
	DB	'r', 00H, 00H, 00H
$SG83601 DB	'.', 00H, '.', 00H, '\', 00H, 'a', 00H, 'm', 00H, 'f', 00H
	DB	'i', 00H, 'l', 00H, 't', 00H, 'e', 00H, 'r', 00H, '.', 00H, 'c'
	DB	00H, 'p', 00H, 'p', 00H, 00H, 00H
$SG83602 DB	'p', 00H, 'F', 00H, 'i', 00H, 'l', 00H, 't', 00H, 'e', 00H
	DB	'r', 00H, 00H, 00H
$SG83763 DB	'.', 00H, '.', 00H, '\', 00H, 'a', 00H, 'm', 00H, 'f', 00H
	DB	'i', 00H, 'l', 00H, 't', 00H, 'e', 00H, 'r', 00H, '.', 00H, 'c'
	DB	00H, 'p', 00H, 'p', 00H, 00H, 00H
$SG83764 DB	'"', 00H, 'I', 00H, 'n', 00H, 'v', 00H, 'a', 00H, 'l', 00H
	DB	'i', 00H, 'd', 00H, ' ', 00H, 'r', 00H, 'e', 00H, 'a', 00H, 'd'
	DB	00H, ' ', 00H, 'p', 00H, 'o', 00H, 'i', 00H, 'n', 00H, 't', 00H
	DB	'e', 00H, 'r', 00H, '"', 00H, 00H, 00H
	ORG $+2
$SG83768 DB	'.', 00H, '.', 00H, '\', 00H, 'a', 00H, 'm', 00H, 'f', 00H
	DB	'i', 00H, 'l', 00H, 't', 00H, 'e', 00H, 'r', 00H, '.', 00H, 'c'
	DB	00H, 'p', 00H, 'p', 00H, 00H, 00H
$SG83769 DB	'"', 00H, 'I', 00H, 'n', 00H, 'v', 00H, 'a', 00H, 'l', 00H
	DB	'i', 00H, 'd', 00H, ' ', 00H, 'w', 00H, 'r', 00H, 'i', 00H, 't'
	DB	00H, 'e', 00H, ' ', 00H, 'p', 00H, 'o', 00H, 'i', 00H, 'n', 00H
	DB	't', 00H, 'e', 00H, 'r', 00H, '"', 00H, 00H, 00H
$SG83777 DB	'.', 00H, '.', 00H, '\', 00H, 'a', 00H, 'm', 00H, 'f', 00H
	DB	'i', 00H, 'l', 00H, 't', 00H, 'e', 00H, 'r', 00H, '.', 00H, 'c'
	DB	00H, 'p', 00H, 'p', 00H, 00H, 00H
$SG83778 DB	'm', 00H, '_', 00H, 'p', 00H, 'A', 00H, 'l', 00H, 'l', 00H
	DB	'o', 00H, 'c', 00H, 'a', 00H, 't', 00H, 'o', 00H, 'r', 00H, ' '
	DB	00H, '!', 00H, '=', 00H, ' ', 00H, 'N', 00H, 'U', 00H, 'L', 00H
	DB	'L', 00H, 00H, 00H
	ORG $+6
$SG83790 DB	'.', 00H, '.', 00H, '\', 00H, 'a', 00H, 'm', 00H, 'f', 00H
	DB	'i', 00H, 'l', 00H, 't', 00H, 'e', 00H, 'r', 00H, '.', 00H, 'c'
	DB	00H, 'p', 00H, 'p', 00H, 00H, 00H
$SG83791 DB	'"', 00H, 'I', 00H, 'n', 00H, 'v', 00H, 'a', 00H, 'l', 00H
	DB	'i', 00H, 'd', 00H, ' ', 00H, 'r', 00H, 'e', 00H, 'a', 00H, 'd'
	DB	00H, ' ', 00H, 'p', 00H, 'o', 00H, 'i', 00H, 'n', 00H, 't', 00H
	DB	'e', 00H, 'r', 00H, '"', 00H, 00H, 00H
	ORG $+2
$SG83814 DB	'.', 00H, '.', 00H, '\', 00H, 'a', 00H, 'm', 00H, 'f', 00H
	DB	'i', 00H, 'l', 00H, 't', 00H, 'e', 00H, 'r', 00H, '.', 00H, 'c'
	DB	00H, 'p', 00H, 'p', 00H, 00H, 00H
$SG83815 DB	'"', 00H, 'I', 00H, 'n', 00H, 'v', 00H, 'a', 00H, 'l', 00H
	DB	'i', 00H, 'd', 00H, ' ', 00H, 'r', 00H, 'e', 00H, 'a', 00H, 'd'
	DB	00H, ' ', 00H, 'p', 00H, 'o', 00H, 'i', 00H, 'n', 00H, 't', 00H
	DB	'e', 00H, 'r', 00H, '"', 00H, 00H, 00H
	ORG $+2
$SG83817 DB	'.', 00H, '.', 00H, '\', 00H, 'a', 00H, 'm', 00H, 'f', 00H
	DB	'i', 00H, 'l', 00H, 't', 00H, 'e', 00H, 'r', 00H, '.', 00H, 'c'
	DB	00H, 'p', 00H, 'p', 00H, 00H, 00H
$SG83818 DB	'p', 00H, 'S', 00H, 'a', 00H, 'm', 00H, 'p', 00H, 'l', 00H
	DB	'e', 00H, 00H, 00H
$SG83856 DB	'.', 00H, '.', 00H, '\', 00H, 'a', 00H, 'm', 00H, 'f', 00H
	DB	'i', 00H, 'l', 00H, 't', 00H, 'e', 00H, 'r', 00H, '.', 00H, 'c'
	DB	00H, 'p', 00H, 'p', 00H, 00H, 00H
$SG83857 DB	'"', 00H, 'I', 00H, 'n', 00H, 'v', 00H, 'a', 00H, 'l', 00H
	DB	'i', 00H, 'd', 00H, ' ', 00H, 'r', 00H, 'e', 00H, 'a', 00H, 'd'
	DB	00H, ' ', 00H, 'p', 00H, 'o', 00H, 'i', 00H, 'n', 00H, 't', 00H
	DB	'e', 00H, 'r', 00H, '"', 00H, 00H, 00H
	ORG $+2
$SG83884 DB	'.', 00H, '.', 00H, '\', 00H, 'a', 00H, 'm', 00H, 'f', 00H
	DB	'i', 00H, 'l', 00H, 't', 00H, 'e', 00H, 'r', 00H, '.', 00H, 'c'
	DB	00H, 'p', 00H, 'p', 00H, 00H, 00H
$SG83885 DB	'p', 00H, 'C', 00H, 'o', 00H, 'n', 00H, 'n', 00H, 'e', 00H
	DB	'c', 00H, 't', 00H, 'e', 00H, 'd', 00H, ' ', 00H, '!', 00H, '='
	DB	00H, ' ', 00H, 'N', 00H, 'U', 00H, 'L', 00H, 'L', 00H, 00H, 00H
	ORG $+2
$SG83903 DB	'.', 00H, '.', 00H, '\', 00H, 'a', 00H, 'm', 00H, 'f', 00H
	DB	'i', 00H, 'l', 00H, 't', 00H, 'e', 00H, 'r', 00H, '.', 00H, 'c'
	DB	00H, 'p', 00H, 'p', 00H, 00H, 00H
$SG83904 DB	'!', 00H, 'm', 00H, '_', 00H, 'b', 00H, 'F', 00H, 'l', 00H
	DB	'u', 00H, 's', 00H, 'h', 00H, 'i', 00H, 'n', 00H, 'g', 00H, 00H
	DB	00H
	ORG $+6
$SG83913 DB	'.', 00H, '.', 00H, '\', 00H, 'a', 00H, 'm', 00H, 'f', 00H
	DB	'i', 00H, 'l', 00H, 't', 00H, 'e', 00H, 'r', 00H, '.', 00H, 'c'
	DB	00H, 'p', 00H, 'p', 00H, 00H, 00H
$SG83914 DB	'm', 00H, '_', 00H, 'b', 00H, 'F', 00H, 'l', 00H, 'u', 00H
	DB	's', 00H, 'h', 00H, 'i', 00H, 'n', 00H, 'g', 00H, 00H, 00H
$SG83927 DB	'.', 00H, '.', 00H, '\', 00H, 'a', 00H, 'm', 00H, 'f', 00H
	DB	'i', 00H, 'l', 00H, 't', 00H, 'e', 00H, 'r', 00H, '.', 00H, 'c'
	DB	00H, 'p', 00H, 'p', 00H, 00H, 00H
$SG83928 DB	'"', 00H, 'I', 00H, 'n', 00H, 'v', 00H, 'a', 00H, 'l', 00H
	DB	'i', 00H, 'd', 00H, ' ', 00H, 'r', 00H, 'e', 00H, 'a', 00H, 'd'
	DB	00H, ' ', 00H, 'p', 00H, 'o', 00H, 'i', 00H, 'n', 00H, 't', 00H
	DB	'e', 00H, 'r', 00H, '"', 00H, 00H, 00H
	ORG $+2
$SG83929 DB	'.', 00H, '.', 00H, '\', 00H, 'a', 00H, 'm', 00H, 'f', 00H
	DB	'i', 00H, 'l', 00H, 't', 00H, 'e', 00H, 'r', 00H, '.', 00H, 'c'
	DB	00H, 'p', 00H, 'p', 00H, 00H, 00H
	ORG $+8
$SG83930 DB	'"', 00H, 'I', 00H, 'Q', 00H, 'u', 00H, 'a', 00H, 'l', 00H
	DB	'i', 00H, 't', 00H, 'y', 00H, ':', 00H, ':', 00H, 'N', 00H, 'o'
	DB	00H, 't', 00H, 'i', 00H, 'f', 00H, 'y', 00H, ' ', 00H, 'c', 00H
	DB	'a', 00H, 'l', 00H, 'l', 00H, 'e', 00H, 'd', 00H, ' ', 00H, 'o'
	DB	00H, 'n', 00H, ' ', 00H, 'a', 00H, 'n', 00H, ' ', 00H, 'i', 00H
	DB	'n', 00H, 'p', 00H, 'u', 00H, 't', 00H, ' ', 00H, 'p', 00H, 'i'
	DB	00H, 'n', 00H, '"', 00H, 00H, 00H
	ORG $+4
$SG83946 DB	'.', 00H, '.', 00H, '\', 00H, 'a', 00H, 'm', 00H, 'f', 00H
	DB	'i', 00H, 'l', 00H, 't', 00H, 'e', 00H, 'r', 00H, '.', 00H, 'c'
	DB	00H, 'p', 00H, 'p', 00H, 00H, 00H
$SG83947 DB	'I', 00H, 's', 00H, 'C', 00H, 'o', 00H, 'n', 00H, 'n', 00H
	DB	'e', 00H, 'c', 00H, 't', 00H, 'e', 00H, 'd', 00H, '(', 00H, ')'
	DB	00H, 00H, 00H
	ORG $+12
$SG83959 DB	'P', 00H, 'a', 00H, 's', 00H, 's', 00H, 'i', 00H, 'n', 00H
	DB	'g', 00H, ' ', 00H, 'Q', 00H, 'u', 00H, 'a', 00H, 'l', 00H, 'i'
	DB	00H, 't', 00H, 'y', 00H, ' ', 00H, 'n', 00H, 'o', 00H, 't', 00H
	DB	'i', 00H, 'f', 00H, 'i', 00H, 'c', 00H, 'a', 00H, 't', 00H, 'i'
	DB	00H, 'o', 00H, 'n', 00H, ' ', 00H, 't', 00H, 'h', 00H, 'r', 00H
	DB	'o', 00H, 'u', 00H, 'g', 00H, 'h', 00H, ' ', 00H, 't', 00H, 'r'
	DB	00H, 'a', 00H, 'n', 00H, 's', 00H, 'f', 00H, 'o', 00H, 'r', 00H
	DB	'm', 00H, 00H, 00H
	ORG $+2
$SG83977 DB	'.', 00H, '.', 00H, '\', 00H, 'a', 00H, 'm', 00H, 'f', 00H
	DB	'i', 00H, 'l', 00H, 't', 00H, 'e', 00H, 'r', 00H, '.', 00H, 'c'
	DB	00H, 'p', 00H, 'p', 00H, 00H, 00H
$SG83978 DB	'p', 00H, 'A', 00H, 'l', 00H, 'l', 00H, 'o', 00H, 'c', 00H
	DB	'a', 00H, 't', 00H, 'o', 00H, 'r', 00H, 00H, 00H
	ORG $+2
$SG83996 DB	'.', 00H, '.', 00H, '\', 00H, 'a', 00H, 'm', 00H, 'f', 00H
	DB	'i', 00H, 'l', 00H, 't', 00H, 'e', 00H, 'r', 00H, '.', 00H, 'c'
	DB	00H, 'p', 00H, 'p', 00H, 00H, 00H
$SG83997 DB	'p', 00H, 'A', 00H, 'l', 00H, 'l', 00H, 'o', 00H, 'c', 00H
	DB	'a', 00H, 't', 00H, 'o', 00H, 'r', 00H, 00H, 00H
	ORG $+2
$SG84022 DB	'.', 00H, '.', 00H, '\', 00H, 'a', 00H, 'm', 00H, 'f', 00H
	DB	'i', 00H, 'l', 00H, 't', 00H, 'e', 00H, 'r', 00H, '.', 00H, 'c'
	DB	00H, 'p', 00H, 'p', 00H, 00H, 00H
$SG84023 DB	'l', 00H, 'R', 00H, 'e', 00H, 'f', 00H, ' ', 00H, '>', 00H
	DB	'=', 00H, ' ', 00H, '0', 00H, 00H, 00H
	ORG $+4
$SG84024 DB	' ', 00H, ' ', 00H, ' ', 00H, ' ', 00H, 'U', 00H, 'n', 00H
	DB	'k', 00H, 'n', 00H, 'o', 00H, 'w', 00H, 'n', 00H, ' ', 00H, '%'
	DB	00H, 'X', 00H, ' ', 00H, 'r', 00H, 'e', 00H, 'f', 00H, '-', 00H
	DB	'-', 00H, ' ', 00H, '=', 00H, ' ', 00H, '%', 00H, 'd', 00H, 00H
	DB	00H
	ORG $+4
$SG84028 DB	'.', 00H, '.', 00H, '\', 00H, 'a', 00H, 'm', 00H, 'f', 00H
	DB	'i', 00H, 'l', 00H, 't', 00H, 'e', 00H, 'r', 00H, '.', 00H, 'c'
	DB	00H, 'p', 00H, 'p', 00H, 00H, 00H
$SG84029 DB	'm', 00H, '_', 00H, 'p', 00H, 'M', 00H, 'e', 00H, 'd', 00H
	DB	'i', 00H, 'a', 00H, 'T', 00H, 'y', 00H, 'p', 00H, 'e', 00H, ' '
	DB	00H, '=', 00H, '=', 00H, ' ', 00H, 'N', 00H, 'U', 00H, 'L', 00H
	DB	'L', 00H, 00H, 00H
	ORG $+6
$SG84044 DB	'.', 00H, '.', 00H, '\', 00H, 'a', 00H, 'm', 00H, 'f', 00H
	DB	'i', 00H, 'l', 00H, 't', 00H, 'e', 00H, 'r', 00H, '.', 00H, 'c'
	DB	00H, 'p', 00H, 'p', 00H, 00H, 00H
$SG84045 DB	'"', 00H, 'I', 00H, 'n', 00H, 'v', 00H, 'a', 00H, 'l', 00H
	DB	'i', 00H, 'd', 00H, ' ', 00H, 'r', 00H, 'e', 00H, 'a', 00H, 'd'
	DB	00H, ' ', 00H, 'p', 00H, 'o', 00H, 'i', 00H, 'n', 00H, 't', 00H
	DB	'e', 00H, 'r', 00H, '"', 00H, 00H, 00H
	ORG $+2
$SG84049 DB	'.', 00H, '.', 00H, '\', 00H, 'a', 00H, 'm', 00H, 'f', 00H
	DB	'i', 00H, 'l', 00H, 't', 00H, 'e', 00H, 'r', 00H, '.', 00H, 'c'
	DB	00H, 'p', 00H, 'p', 00H, 00H, 00H
$SG84050 DB	'"', 00H, 'I', 00H, 'n', 00H, 'v', 00H, 'a', 00H, 'l', 00H
	DB	'i', 00H, 'd', 00H, ' ', 00H, 'w', 00H, 'r', 00H, 'i', 00H, 't'
	DB	00H, 'e', 00H, ' ', 00H, 'p', 00H, 'o', 00H, 'i', 00H, 'n', 00H
	DB	't', 00H, 'e', 00H, 'r', 00H, '"', 00H, 00H, 00H
$SG84052 DB	'.', 00H, '.', 00H, '\', 00H, 'a', 00H, 'm', 00H, 'f', 00H
	DB	'i', 00H, 'l', 00H, 't', 00H, 'e', 00H, 'r', 00H, '.', 00H, 'c'
	DB	00H, 'p', 00H, 'p', 00H, 00H, 00H
$SG84053 DB	'm', 00H, '_', 00H, 'p', 00H, 'B', 00H, 'u', 00H, 'f', 00H
	DB	'f', 00H, 'e', 00H, 'r', 00H, 00H, 00H
	ORG $+4
$SG84066 DB	'.', 00H, '.', 00H, '\', 00H, 'a', 00H, 'm', 00H, 'f', 00H
	DB	'i', 00H, 'l', 00H, 't', 00H, 'e', 00H, 'r', 00H, '.', 00H, 'c'
	DB	00H, 'p', 00H, 'p', 00H, 00H, 00H
$SG84067 DB	'"', 00H, 'I', 00H, 'n', 00H, 'v', 00H, 'a', 00H, 'l', 00H
	DB	'i', 00H, 'd', 00H, ' ', 00H, 'r', 00H, 'e', 00H, 'a', 00H, 'd'
	DB	00H, ' ', 00H, 'p', 00H, 'o', 00H, 'i', 00H, 'n', 00H, 't', 00H
	DB	'e', 00H, 'r', 00H, '"', 00H, 00H, 00H
	ORG $+2
$SG84071 DB	'.', 00H, '.', 00H, '\', 00H, 'a', 00H, 'm', 00H, 'f', 00H
	DB	'i', 00H, 'l', 00H, 't', 00H, 'e', 00H, 'r', 00H, '.', 00H, 'c'
	DB	00H, 'p', 00H, 'p', 00H, 00H, 00H
$SG84072 DB	'"', 00H, 'I', 00H, 'n', 00H, 'v', 00H, 'a', 00H, 'l', 00H
	DB	'i', 00H, 'd', 00H, ' ', 00H, 'w', 00H, 'r', 00H, 'i', 00H, 't'
	DB	00H, 'e', 00H, ' ', 00H, 'p', 00H, 'o', 00H, 'i', 00H, 'n', 00H
	DB	't', 00H, 'e', 00H, 'r', 00H, '"', 00H, 00H, 00H
$SG84076 DB	'.', 00H, '.', 00H, '\', 00H, 'a', 00H, 'm', 00H, 'f', 00H
	DB	'i', 00H, 'l', 00H, 't', 00H, 'e', 00H, 'r', 00H, '.', 00H, 'c'
	DB	00H, 'p', 00H, 'p', 00H, 00H, 00H
$SG84077 DB	'"', 00H, 'I', 00H, 'n', 00H, 'v', 00H, 'a', 00H, 'l', 00H
	DB	'i', 00H, 'd', 00H, ' ', 00H, 'r', 00H, 'e', 00H, 'a', 00H, 'd'
	DB	00H, ' ', 00H, 'p', 00H, 'o', 00H, 'i', 00H, 'n', 00H, 't', 00H
	DB	'e', 00H, 'r', 00H, '"', 00H, 00H, 00H
	ORG $+2
$SG84081 DB	'.', 00H, '.', 00H, '\', 00H, 'a', 00H, 'm', 00H, 'f', 00H
	DB	'i', 00H, 'l', 00H, 't', 00H, 'e', 00H, 'r', 00H, '.', 00H, 'c'
	DB	00H, 'p', 00H, 'p', 00H, 00H, 00H
$SG84082 DB	'"', 00H, 'I', 00H, 'n', 00H, 'v', 00H, 'a', 00H, 'l', 00H
	DB	'i', 00H, 'd', 00H, ' ', 00H, 'w', 00H, 'r', 00H, 'i', 00H, 't'
	DB	00H, 'e', 00H, ' ', 00H, 'p', 00H, 'o', 00H, 'i', 00H, 'n', 00H
	DB	't', 00H, 'e', 00H, 'r', 00H, '"', 00H, 00H, 00H
$SG84095 DB	'.', 00H, '.', 00H, '\', 00H, 'a', 00H, 'm', 00H, 'f', 00H
	DB	'i', 00H, 'l', 00H, 't', 00H, 'e', 00H, 'r', 00H, '.', 00H, 'c'
	DB	00H, 'p', 00H, 'p', 00H, 00H, 00H
$SG84096 DB	'p', 00H, 'T', 00H, 'i', 00H, 'm', 00H, 'e', 00H, 'E', 00H
	DB	'n', 00H, 'd', 00H, ' ', 00H, '=', 00H, '=', 00H, ' ', 00H, 'N'
	DB	00H, 'U', 00H, 'L', 00H, 'L', 00H, 00H, 00H
	ORG $+6
$SG84103 DB	'.', 00H, '.', 00H, '\', 00H, 'a', 00H, 'm', 00H, 'f', 00H
	DB	'i', 00H, 'l', 00H, 't', 00H, 'e', 00H, 'r', 00H, '.', 00H, 'c'
	DB	00H, 'p', 00H, 'p', 00H, 00H, 00H
$SG84104 DB	'"', 00H, 'I', 00H, 'n', 00H, 'v', 00H, 'a', 00H, 'l', 00H
	DB	'i', 00H, 'd', 00H, ' ', 00H, 'r', 00H, 'e', 00H, 'a', 00H, 'd'
	DB	00H, ' ', 00H, 'p', 00H, 'o', 00H, 'i', 00H, 'n', 00H, 't', 00H
	DB	'e', 00H, 'r', 00H, '"', 00H, 00H, 00H
	ORG $+2
$SG84108 DB	'.', 00H, '.', 00H, '\', 00H, 'a', 00H, 'm', 00H, 'f', 00H
	DB	'i', 00H, 'l', 00H, 't', 00H, 'e', 00H, 'r', 00H, '.', 00H, 'c'
	DB	00H, 'p', 00H, 'p', 00H, 00H, 00H
$SG84109 DB	'"', 00H, 'I', 00H, 'n', 00H, 'v', 00H, 'a', 00H, 'l', 00H
	DB	'i', 00H, 'd', 00H, ' ', 00H, 'r', 00H, 'e', 00H, 'a', 00H, 'd'
	DB	00H, ' ', 00H, 'p', 00H, 'o', 00H, 'i', 00H, 'n', 00H, 't', 00H
	DB	'e', 00H, 'r', 00H, '"', 00H, 00H, 00H
	ORG $+2
$SG84111 DB	'.', 00H, '.', 00H, '\', 00H, 'a', 00H, 'm', 00H, 'f', 00H
	DB	'i', 00H, 'l', 00H, 't', 00H, 'e', 00H, 'r', 00H, '.', 00H, 'c'
	DB	00H, 'p', 00H, 'p', 00H, 00H, 00H
$SG84112 DB	'*', 00H, 'p', 00H, 'T', 00H, 'i', 00H, 'm', 00H, 'e', 00H
	DB	'E', 00H, 'n', 00H, 'd', 00H, ' ', 00H, '>', 00H, '=', 00H, ' '
	DB	00H, '*', 00H, 'p', 00H, 'T', 00H, 'i', 00H, 'm', 00H, 'e', 00H
	DB	'S', 00H, 't', 00H, 'a', 00H, 'r', 00H, 't', 00H, 00H, 00H
	ORG $+6
$SG84121 DB	'.', 00H, '.', 00H, '\', 00H, 'a', 00H, 'm', 00H, 'f', 00H
	DB	'i', 00H, 'l', 00H, 't', 00H, 'e', 00H, 'r', 00H, '.', 00H, 'c'
	DB	00H, 'p', 00H, 'p', 00H, 00H, 00H
$SG84122 DB	'"', 00H, 'I', 00H, 'n', 00H, 'v', 00H, 'a', 00H, 'l', 00H
	DB	'i', 00H, 'd', 00H, ' ', 00H, 'r', 00H, 'e', 00H, 'a', 00H, 'd'
	DB	00H, ' ', 00H, 'p', 00H, 'o', 00H, 'i', 00H, 'n', 00H, 't', 00H
	DB	'e', 00H, 'r', 00H, '"', 00H, 00H, 00H
	ORG $+2
$SG84126 DB	'.', 00H, '.', 00H, '\', 00H, 'a', 00H, 'm', 00H, 'f', 00H
	DB	'i', 00H, 'l', 00H, 't', 00H, 'e', 00H, 'r', 00H, '.', 00H, 'c'
	DB	00H, 'p', 00H, 'p', 00H, 00H, 00H
$SG84127 DB	'"', 00H, 'I', 00H, 'n', 00H, 'v', 00H, 'a', 00H, 'l', 00H
	DB	'i', 00H, 'd', 00H, ' ', 00H, 'w', 00H, 'r', 00H, 'i', 00H, 't'
	DB	00H, 'e', 00H, ' ', 00H, 'p', 00H, 'o', 00H, 'i', 00H, 'n', 00H
	DB	't', 00H, 'e', 00H, 'r', 00H, '"', 00H, 00H, 00H
$SG84131 DB	'.', 00H, '.', 00H, '\', 00H, 'a', 00H, 'm', 00H, 'f', 00H
	DB	'i', 00H, 'l', 00H, 't', 00H, 'e', 00H, 'r', 00H, '.', 00H, 'c'
	DB	00H, 'p', 00H, 'p', 00H, 00H, 00H
$SG84132 DB	'"', 00H, 'I', 00H, 'n', 00H, 'v', 00H, 'a', 00H, 'l', 00H
	DB	'i', 00H, 'd', 00H, ' ', 00H, 'r', 00H, 'e', 00H, 'a', 00H, 'd'
	DB	00H, ' ', 00H, 'p', 00H, 'o', 00H, 'i', 00H, 'n', 00H, 't', 00H
	DB	'e', 00H, 'r', 00H, '"', 00H, 00H, 00H
	ORG $+2
$SG84136 DB	'.', 00H, '.', 00H, '\', 00H, 'a', 00H, 'm', 00H, 'f', 00H
	DB	'i', 00H, 'l', 00H, 't', 00H, 'e', 00H, 'r', 00H, '.', 00H, 'c'
	DB	00H, 'p', 00H, 'p', 00H, 00H, 00H
$SG84137 DB	'"', 00H, 'I', 00H, 'n', 00H, 'v', 00H, 'a', 00H, 'l', 00H
	DB	'i', 00H, 'd', 00H, ' ', 00H, 'w', 00H, 'r', 00H, 'i', 00H, 't'
	DB	00H, 'e', 00H, ' ', 00H, 'p', 00H, 'o', 00H, 'i', 00H, 'n', 00H
	DB	't', 00H, 'e', 00H, 'r', 00H, '"', 00H, 00H, 00H
$SG84147 DB	'.', 00H, '.', 00H, '\', 00H, 'a', 00H, 'm', 00H, 'f', 00H
	DB	'i', 00H, 'l', 00H, 't', 00H, 'e', 00H, 'r', 00H, '.', 00H, 'c'
	DB	00H, 'p', 00H, 'p', 00H, 00H, 00H
$SG84148 DB	'p', 00H, 'T', 00H, 'i', 00H, 'm', 00H, 'e', 00H, 'E', 00H
	DB	'n', 00H, 'd', 00H, ' ', 00H, '=', 00H, '=', 00H, ' ', 00H, 'N'
	DB	00H, 'U', 00H, 'L', 00H, 'L', 00H, 00H, 00H
	ORG $+6
$SG84153 DB	'.', 00H, '.', 00H, '\', 00H, 'a', 00H, 'm', 00H, 'f', 00H
	DB	'i', 00H, 'l', 00H, 't', 00H, 'e', 00H, 'r', 00H, '.', 00H, 'c'
	DB	00H, 'p', 00H, 'p', 00H, 00H, 00H
$SG84154 DB	'"', 00H, 'I', 00H, 'n', 00H, 'v', 00H, 'a', 00H, 'l', 00H
	DB	'i', 00H, 'd', 00H, ' ', 00H, 'r', 00H, 'e', 00H, 'a', 00H, 'd'
	DB	00H, ' ', 00H, 'p', 00H, 'o', 00H, 'i', 00H, 'n', 00H, 't', 00H
	DB	'e', 00H, 'r', 00H, '"', 00H, 00H, 00H
	ORG $+2
$SG84158 DB	'.', 00H, '.', 00H, '\', 00H, 'a', 00H, 'm', 00H, 'f', 00H
	DB	'i', 00H, 'l', 00H, 't', 00H, 'e', 00H, 'r', 00H, '.', 00H, 'c'
	DB	00H, 'p', 00H, 'p', 00H, 00H, 00H
$SG84159 DB	'"', 00H, 'I', 00H, 'n', 00H, 'v', 00H, 'a', 00H, 'l', 00H
	DB	'i', 00H, 'd', 00H, ' ', 00H, 'r', 00H, 'e', 00H, 'a', 00H, 'd'
	DB	00H, ' ', 00H, 'p', 00H, 'o', 00H, 'i', 00H, 'n', 00H, 't', 00H
	DB	'e', 00H, 'r', 00H, '"', 00H, 00H, 00H
	ORG $+2
$SG84161 DB	'.', 00H, '.', 00H, '\', 00H, 'a', 00H, 'm', 00H, 'f', 00H
	DB	'i', 00H, 'l', 00H, 't', 00H, 'e', 00H, 'r', 00H, '.', 00H, 'c'
	DB	00H, 'p', 00H, 'p', 00H, 00H, 00H
$SG84162 DB	'*', 00H, 'p', 00H, 'T', 00H, 'i', 00H, 'm', 00H, 'e', 00H
	DB	'E', 00H, 'n', 00H, 'd', 00H, ' ', 00H, '>', 00H, '=', 00H, ' '
	DB	00H, '*', 00H, 'p', 00H, 'T', 00H, 'i', 00H, 'm', 00H, 'e', 00H
	DB	'S', 00H, 't', 00H, 'a', 00H, 'r', 00H, 't', 00H, 00H, 00H
	ORG $+6
$SG84217 DB	'.', 00H, '.', 00H, '\', 00H, 'a', 00H, 'm', 00H, 'f', 00H
	DB	'i', 00H, 'l', 00H, 't', 00H, 'e', 00H, 'r', 00H, '.', 00H, 'c'
	DB	00H, 'p', 00H, 'p', 00H, 00H, 00H
$SG84218 DB	'l', 00H, 'A', 00H, 'c', 00H, 't', 00H, 'u', 00H, 'a', 00H
	DB	'l', 00H, ' ', 00H, '<', 00H, '=', 00H, ' ', 00H, 'G', 00H, 'e'
	DB	00H, 't', 00H, 'S', 00H, 'i', 00H, 'z', 00H, 'e', 00H, '(', 00H
	DB	')', 00H, 00H, 00H
	ORG $+6
$SG84227 DB	'.', 00H, '.', 00H, '\', 00H, 'a', 00H, 'm', 00H, 'f', 00H
	DB	'i', 00H, 'l', 00H, 't', 00H, 'e', 00H, 'r', 00H, '.', 00H, 'c'
	DB	00H, 'p', 00H, 'p', 00H, 00H, 00H
$SG84228 DB	'"', 00H, 'I', 00H, 'n', 00H, 'v', 00H, 'a', 00H, 'l', 00H
	DB	'i', 00H, 'd', 00H, ' ', 00H, 'r', 00H, 'e', 00H, 'a', 00H, 'd'
	DB	00H, ' ', 00H, 'p', 00H, 'o', 00H, 'i', 00H, 'n', 00H, 't', 00H
	DB	'e', 00H, 'r', 00H, '"', 00H, 00H, 00H
	ORG $+2
$SG84232 DB	'.', 00H, '.', 00H, '\', 00H, 'a', 00H, 'm', 00H, 'f', 00H
	DB	'i', 00H, 'l', 00H, 't', 00H, 'e', 00H, 'r', 00H, '.', 00H, 'c'
	DB	00H, 'p', 00H, 'p', 00H, 00H, 00H
$SG84233 DB	'"', 00H, 'I', 00H, 'n', 00H, 'v', 00H, 'a', 00H, 'l', 00H
	DB	'i', 00H, 'd', 00H, ' ', 00H, 'w', 00H, 'r', 00H, 'i', 00H, 't'
	DB	00H, 'e', 00H, ' ', 00H, 'p', 00H, 'o', 00H, 'i', 00H, 'n', 00H
	DB	't', 00H, 'e', 00H, 'r', 00H, '"', 00H, 00H, 00H
$SG84235 DB	'.', 00H, '.', 00H, '\', 00H, 'a', 00H, 'm', 00H, 'f', 00H
	DB	'i', 00H, 'l', 00H, 't', 00H, 'e', 00H, 'r', 00H, '.', 00H, 'c'
	DB	00H, 'p', 00H, 'p', 00H, 00H, 00H
$SG84236 DB	'p', 00H, 'p', 00H, 'M', 00H, 'e', 00H, 'd', 00H, 'i', 00H
	DB	'a', 00H, 'T', 00H, 'y', 00H, 'p', 00H, 'e', 00H, 00H, 00H
$SG84239 DB	'.', 00H, '.', 00H, '\', 00H, 'a', 00H, 'm', 00H, 'f', 00H
	DB	'i', 00H, 'l', 00H, 't', 00H, 'e', 00H, 'r', 00H, '.', 00H, 'c'
	DB	00H, 'p', 00H, 'p', 00H, 00H, 00H
$SG84240 DB	'm', 00H, '_', 00H, 'p', 00H, 'M', 00H, 'e', 00H, 'd', 00H
	DB	'i', 00H, 'a', 00H, 'T', 00H, 'y', 00H, 'p', 00H, 'e', 00H, ' '
	DB	00H, '=', 00H, '=', 00H, ' ', 00H, 'N', 00H, 'U', 00H, 'L', 00H
	DB	'L', 00H, 00H, 00H
	ORG $+6
$SG84243 DB	'.', 00H, '.', 00H, '\', 00H, 'a', 00H, 'm', 00H, 'f', 00H
	DB	'i', 00H, 'l', 00H, 't', 00H, 'e', 00H, 'r', 00H, '.', 00H, 'c'
	DB	00H, 'p', 00H, 'p', 00H, 00H, 00H
$SG84244 DB	'm', 00H, '_', 00H, 'p', 00H, 'M', 00H, 'e', 00H, 'd', 00H
	DB	'i', 00H, 'a', 00H, 'T', 00H, 'y', 00H, 'p', 00H, 'e', 00H, 00H
	DB	00H
	ORG $+6
$SG84254 DB	'.', 00H, '.', 00H, '\', 00H, 'a', 00H, 'm', 00H, 'f', 00H
	DB	'i', 00H, 'l', 00H, 't', 00H, 'e', 00H, 'r', 00H, '.', 00H, 'c'
	DB	00H, 'p', 00H, 'p', 00H, 00H, 00H
$SG84255 DB	'p', 00H, 'M', 00H, 'e', 00H, 'd', 00H, 'i', 00H, 'a', 00H
	DB	'T', 00H, 'y', 00H, 'p', 00H, 'e', 00H, 00H, 00H
	ORG $+2
$SG84259 DB	'.', 00H, '.', 00H, '\', 00H, 'a', 00H, 'm', 00H, 'f', 00H
	DB	'i', 00H, 'l', 00H, 't', 00H, 'e', 00H, 'r', 00H, '.', 00H, 'c'
	DB	00H, 'p', 00H, 'p', 00H, 00H, 00H
$SG84260 DB	'"', 00H, 'I', 00H, 'n', 00H, 'v', 00H, 'a', 00H, 'l', 00H
	DB	'i', 00H, 'd', 00H, ' ', 00H, 'r', 00H, 'e', 00H, 'a', 00H, 'd'
	DB	00H, ' ', 00H, 'p', 00H, 'o', 00H, 'i', 00H, 'n', 00H, 't', 00H
	DB	'e', 00H, 'r', 00H, '"', 00H, 00H, 00H
	ORG $+2
$SG84417 DB	'.', 00H, '.', 00H, '\', 00H, 'a', 00H, 'm', 00H, 'f', 00H
	DB	'i', 00H, 'l', 00H, 't', 00H, 'e', 00H, 'r', 00H, '.', 00H, 'c'
	DB	00H, 'p', 00H, 'p', 00H, 00H, 00H
	ORG $+8
$SG84418 DB	':', 00H, ':', 00H, 'C', 00H, 'l', 00H, 'o', 00H, 's', 00H
	DB	'e', 00H, 'H', 00H, 'a', 00H, 'n', 00H, 'd', 00H, 'l', 00H, 'e'
	DB	00H, '(', 00H, 'm', 00H, '_', 00H, 'h', 00H, 'U', 00H, 'n', 00H
	DB	'b', 00H, 'l', 00H, 'o', 00H, 'c', 00H, 'k', 00H, 'O', 00H, 'u'
	DB	00H, 't', 00H, 'p', 00H, 'u', 00H, 't', 00H, 'P', 00H, 'i', 00H
	DB	'n', 00H, 'E', 00H, 'v', 00H, 'e', 00H, 'n', 00H, 't', 00H, ')'
	DB	00H, 00H, 00H
$SG84421 DB	'.', 00H, '.', 00H, '\', 00H, 'a', 00H, 'm', 00H, 'f', 00H
	DB	'i', 00H, 'l', 00H, 't', 00H, 'e', 00H, 'r', 00H, '.', 00H, 'c'
	DB	00H, 'p', 00H, 'p', 00H, 00H, 00H
$SG84422 DB	':', 00H, ':', 00H, 'C', 00H, 'l', 00H, 'o', 00H, 's', 00H
	DB	'e', 00H, 'H', 00H, 'a', 00H, 'n', 00H, 'd', 00H, 'l', 00H, 'e'
	DB	00H, '(', 00H, 'm', 00H, '_', 00H, 'h', 00H, 'N', 00H, 'o', 00H
	DB	't', 00H, 'i', 00H, 'f', 00H, 'y', 00H, 'C', 00H, 'a', 00H, 'l'
	DB	00H, 'l', 00H, 'e', 00H, 'r', 00H, 'P', 00H, 'i', 00H, 'n', 00H
	DB	'B', 00H, 'l', 00H, 'o', 00H, 'c', 00H, 'k', 00H, 'e', 00H, 'd'
	DB	00H, 'E', 00H, 'v', 00H, 'e', 00H, 'n', 00H, 't', 00H, ')', 00H
	DB	00H, 00H
	ORG $+4
$SG84474 DB	'.', 00H, '.', 00H, '\', 00H, 'a', 00H, 'm', 00H, 'f', 00H
	DB	'i', 00H, 'l', 00H, 't', 00H, 'e', 00H, 'r', 00H, '.', 00H, 'c'
	DB	00H, 'p', 00H, 'p', 00H, 00H, 00H
$SG84475 DB	':', 00H, ':', 00H, 'C', 00H, 'l', 00H, 'o', 00H, 's', 00H
	DB	'e', 00H, 'H', 00H, 'a', 00H, 'n', 00H, 'd', 00H, 'l', 00H, 'e'
	DB	00H, '(', 00H, 'h', 00H, 'N', 00H, 'o', 00H, 't', 00H, 'i', 00H
	DB	'f', 00H, 'y', 00H, 'C', 00H, 'a', 00H, 'l', 00H, 'l', 00H, 'e'
	DB	00H, 'r', 00H, 'P', 00H, 'i', 00H, 'n', 00H, 'B', 00H, 'l', 00H
	DB	'o', 00H, 'c', 00H, 'k', 00H, 'e', 00H, 'd', 00H, 'E', 00H, 'v'
	DB	00H, 'e', 00H, 'n', 00H, 't', 00H, ')', 00H, 00H, 00H
$SG84477 DB	'.', 00H, '.', 00H, '\', 00H, 'a', 00H, 'm', 00H, 'f', 00H
	DB	'i', 00H, 'l', 00H, 't', 00H, 'e', 00H, 'r', 00H, '.', 00H, 'c'
	DB	00H, 'p', 00H, 'p', 00H, 00H, 00H
	ORG $+8
$SG84478 DB	':', 00H, ':', 00H, 'C', 00H, 'l', 00H, 'o', 00H, 's', 00H
	DB	'e', 00H, 'H', 00H, 'a', 00H, 'n', 00H, 'd', 00H, 'l', 00H, 'e'
	DB	00H, '(', 00H, 'h', 00H, 'N', 00H, 'o', 00H, 't', 00H, 'i', 00H
	DB	'f', 00H, 'y', 00H, 'C', 00H, 'a', 00H, 'l', 00H, 'l', 00H, 'e'
	DB	00H, 'r', 00H, 'P', 00H, 'i', 00H, 'n', 00H, 'B', 00H, 'l', 00H
	DB	'o', 00H, 'c', 00H, 'k', 00H, 'e', 00H, 'd', 00H, 'E', 00H, 'v'
	DB	00H, 'e', 00H, 'n', 00H, 't', 00H, ')', 00H, 00H, 00H
$SG84505 DB	'.', 00H, '.', 00H, '\', 00H, 'a', 00H, 'm', 00H, 'f', 00H
	DB	'i', 00H, 'l', 00H, 't', 00H, 'e', 00H, 'r', 00H, '.', 00H, 'c'
	DB	00H, 'p', 00H, 'p', 00H, 00H, 00H
$SG84506 DB	'C', 00H, 'r', 00H, 'i', 00H, 't', 00H, 'C', 00H, 'h', 00H
	DB	'e', 00H, 'c', 00H, 'k', 00H, 'I', 00H, 'n', 00H, '(', 00H, '&'
	DB	00H, 'm', 00H, '_', 00H, 'B', 00H, 'l', 00H, 'o', 00H, 'c', 00H
	DB	'k', 00H, 'S', 00H, 't', 00H, 'a', 00H, 't', 00H, 'e', 00H, 'L'
	DB	00H, 'o', 00H, 'c', 00H, 'k', 00H, ')', 00H, 00H, 00H
	ORG $+2
$SG84508 DB	'.', 00H, '.', 00H, '\', 00H, 'a', 00H, 'm', 00H, 'f', 00H
	DB	'i', 00H, 'l', 00H, 't', 00H, 'e', 00H, 'r', 00H, '.', 00H, 'c'
	DB	00H, 'p', 00H, 'p', 00H, 00H, 00H
	ORG $+8
$SG84509 DB	'!', 00H, 'S', 00H, 't', 00H, 'r', 00H, 'e', 00H, 'a', 00H
	DB	'm', 00H, 'i', 00H, 'n', 00H, 'g', 00H, 'T', 00H, 'h', 00H, 'r'
	DB	00H, 'e', 00H, 'a', 00H, 'd', 00H, 'U', 00H, 's', 00H, 'i', 00H
	DB	'n', 00H, 'g', 00H, 'O', 00H, 'u', 00H, 't', 00H, 'p', 00H, 'u'
	DB	00H, 't', 00H, 'P', 00H, 'i', 00H, 'n', 00H, '(', 00H, ')', 00H
	DB	00H, 00H
	ORG $+6
$SG84511 DB	'.', 00H, '.', 00H, '\', 00H, 'a', 00H, 'm', 00H, 'f', 00H
	DB	'i', 00H, 'l', 00H, 't', 00H, 'e', 00H, 'r', 00H, '.', 00H, 'c'
	DB	00H, 'p', 00H, 'p', 00H, 00H, 00H
	ORG $+8
$SG84512 DB	':', 00H, ':', 00H, 'R', 00H, 'e', 00H, 's', 00H, 'e', 00H
	DB	't', 00H, 'E', 00H, 'v', 00H, 'e', 00H, 'n', 00H, 't', 00H, '('
	DB	00H, 'm', 00H, '_', 00H, 'h', 00H, 'U', 00H, 'n', 00H, 'b', 00H
	DB	'l', 00H, 'o', 00H, 'c', 00H, 'k', 00H, 'O', 00H, 'u', 00H, 't'
	DB	00H, 'p', 00H, 'u', 00H, 't', 00H, 'P', 00H, 'i', 00H, 'n', 00H
	DB	'E', 00H, 'v', 00H, 'e', 00H, 'n', 00H, 't', 00H, ')', 00H, 00H
	DB	00H
	ORG $+2
$SG84514 DB	'.', 00H, '.', 00H, '\', 00H, 'a', 00H, 'm', 00H, 'f', 00H
	DB	'i', 00H, 'l', 00H, 't', 00H, 'e', 00H, 'r', 00H, '.', 00H, 'c'
	DB	00H, 'p', 00H, 'p', 00H, 00H, 00H
$SG84515 DB	':', 00H, ':', 00H, 'S', 00H, 'e', 00H, 't', 00H, 'E', 00H
	DB	'v', 00H, 'e', 00H, 'n', 00H, 't', 00H, '(', 00H, 'm', 00H, '_'
	DB	00H, 'h', 00H, 'N', 00H, 'o', 00H, 't', 00H, 'i', 00H, 'f', 00H
	DB	'y', 00H, 'C', 00H, 'a', 00H, 'l', 00H, 'l', 00H, 'e', 00H, 'r'
	DB	00H, 'P', 00H, 'i', 00H, 'n', 00H, 'B', 00H, 'l', 00H, 'o', 00H
	DB	'c', 00H, 'k', 00H, 'e', 00H, 'd', 00H, 'E', 00H, 'v', 00H, 'e'
	DB	00H, 'n', 00H, 't', 00H, ')', 00H, 00H, 00H
	ORG $+2
$SG84517 DB	'.', 00H, '.', 00H, '\', 00H, 'a', 00H, 'm', 00H, 'f', 00H
	DB	'i', 00H, 'l', 00H, 't', 00H, 'e', 00H, 'r', 00H, '.', 00H, 'c'
	DB	00H, 'p', 00H, 'p', 00H, 00H, 00H
	ORG $+8
$SG84518 DB	':', 00H, ':', 00H, 'C', 00H, 'l', 00H, 'o', 00H, 's', 00H
	DB	'e', 00H, 'H', 00H, 'a', 00H, 'n', 00H, 'd', 00H, 'l', 00H, 'e'
	DB	00H, '(', 00H, 'm', 00H, '_', 00H, 'h', 00H, 'N', 00H, 'o', 00H
	DB	't', 00H, 'i', 00H, 'f', 00H, 'y', 00H, 'C', 00H, 'a', 00H, 'l'
	DB	00H, 'l', 00H, 'e', 00H, 'r', 00H, 'P', 00H, 'i', 00H, 'n', 00H
	DB	'B', 00H, 'l', 00H, 'o', 00H, 'c', 00H, 'k', 00H, 'e', 00H, 'd'
	DB	00H, 'E', 00H, 'v', 00H, 'e', 00H, 'n', 00H, 't', 00H, ')', 00H
	DB	00H, 00H
	ORG $+4
$SG84528 DB	'.', 00H, '.', 00H, '\', 00H, 'a', 00H, 'm', 00H, 'f', 00H
	DB	'i', 00H, 'l', 00H, 't', 00H, 'e', 00H, 'r', 00H, '.', 00H, 'c'
	DB	00H, 'p', 00H, 'p', 00H, 00H, 00H
$SG84529 DB	':', 00H, ':', 00H, 'S', 00H, 'e', 00H, 't', 00H, 'E', 00H
	DB	'v', 00H, 'e', 00H, 'n', 00H, 't', 00H, '(', 00H, 'm', 00H, '_'
	DB	00H, 'h', 00H, 'U', 00H, 'n', 00H, 'b', 00H, 'l', 00H, 'o', 00H
	DB	'c', 00H, 'k', 00H, 'O', 00H, 'u', 00H, 't', 00H, 'p', 00H, 'u'
	DB	00H, 't', 00H, 'P', 00H, 'i', 00H, 'n', 00H, 'E', 00H, 'v', 00H
	DB	'e', 00H, 'n', 00H, 't', 00H, ')', 00H, 00H, 00H
	ORG $+6
$SG84532 DB	'.', 00H, '.', 00H, '\', 00H, 'a', 00H, 'm', 00H, 'f', 00H
	DB	'i', 00H, 'l', 00H, 't', 00H, 'e', 00H, 'r', 00H, '.', 00H, 'c'
	DB	00H, 'p', 00H, 'p', 00H, 00H, 00H
$SG84533 DB	':', 00H, ':', 00H, 'S', 00H, 'e', 00H, 't', 00H, 'E', 00H
	DB	'v', 00H, 'e', 00H, 'n', 00H, 't', 00H, '(', 00H, 'm', 00H, '_'
	DB	00H, 'h', 00H, 'N', 00H, 'o', 00H, 't', 00H, 'i', 00H, 'f', 00H
	DB	'y', 00H, 'C', 00H, 'a', 00H, 'l', 00H, 'l', 00H, 'e', 00H, 'r'
	DB	00H, 'P', 00H, 'i', 00H, 'n', 00H, 'B', 00H, 'l', 00H, 'o', 00H
	DB	'c', 00H, 'k', 00H, 'e', 00H, 'd', 00H, 'E', 00H, 'v', 00H, 'e'
	DB	00H, 'n', 00H, 't', 00H, ')', 00H, 00H, 00H
	ORG $+2
$SG84535 DB	'.', 00H, '.', 00H, '\', 00H, 'a', 00H, 'm', 00H, 'f', 00H
	DB	'i', 00H, 'l', 00H, 't', 00H, 'e', 00H, 'r', 00H, '.', 00H, 'c'
	DB	00H, 'p', 00H, 'p', 00H, 00H, 00H
	ORG $+8
$SG84536 DB	':', 00H, ':', 00H, 'C', 00H, 'l', 00H, 'o', 00H, 's', 00H
	DB	'e', 00H, 'H', 00H, 'a', 00H, 'n', 00H, 'd', 00H, 'l', 00H, 'e'
	DB	00H, '(', 00H, 'm', 00H, '_', 00H, 'h', 00H, 'N', 00H, 'o', 00H
	DB	't', 00H, 'i', 00H, 'f', 00H, 'y', 00H, 'C', 00H, 'a', 00H, 'l'
	DB	00H, 'l', 00H, 'e', 00H, 'r', 00H, 'P', 00H, 'i', 00H, 'n', 00H
	DB	'B', 00H, 'l', 00H, 'o', 00H, 'c', 00H, 'k', 00H, 'e', 00H, 'd'
	DB	00H, 'E', 00H, 'v', 00H, 'e', 00H, 'n', 00H, 't', 00H, ')', 00H
	DB	00H, 00H
	ORG $+4
$SG84544 DB	'.', 00H, '.', 00H, '\', 00H, 'a', 00H, 'm', 00H, 'f', 00H
	DB	'i', 00H, 'l', 00H, 't', 00H, 'e', 00H, 'r', 00H, '.', 00H, 'c'
	DB	00H, 'p', 00H, 'p', 00H, 00H, 00H
$SG84545 DB	'C', 00H, 'r', 00H, 'i', 00H, 't', 00H, 'C', 00H, 'h', 00H
	DB	'e', 00H, 'c', 00H, 'k', 00H, 'O', 00H, 'u', 00H, 't', 00H, '('
	DB	00H, '&', 00H, 'm', 00H, '_', 00H, 'B', 00H, 'l', 00H, 'o', 00H
	DB	'c', 00H, 'k', 00H, 'S', 00H, 't', 00H, 'a', 00H, 't', 00H, 'e'
	DB	00H, 'L', 00H, 'o', 00H, 'c', 00H, 'k', 00H, ')', 00H, 00H, 00H
$SG84551 DB	'.', 00H, '.', 00H, '\', 00H, 'a', 00H, 'm', 00H, 'f', 00H
	DB	'i', 00H, 'l', 00H, 't', 00H, 'e', 00H, 'r', 00H, '.', 00H, 'c'
	DB	00H, 'p', 00H, 'p', 00H, 00H, 00H
$SG84552 DB	'C', 00H, 'r', 00H, 'i', 00H, 't', 00H, 'C', 00H, 'h', 00H
	DB	'e', 00H, 'c', 00H, 'k', 00H, 'O', 00H, 'u', 00H, 't', 00H, '('
	DB	00H, ' ', 00H, '&', 00H, 'm', 00H, '_', 00H, 'B', 00H, 'l', 00H
	DB	'o', 00H, 'c', 00H, 'k', 00H, 'S', 00H, 't', 00H, 'a', 00H, 't'
	DB	00H, 'e', 00H, 'L', 00H, 'o', 00H, 'c', 00H, 'k', 00H, ' ', 00H
	DB	')', 00H, 00H, 00H
	ORG $+4
$SG84573 DB	'.', 00H, '.', 00H, '\', 00H, 'a', 00H, 'm', 00H, 'f', 00H
	DB	'i', 00H, 'l', 00H, 't', 00H, 'e', 00H, 'r', 00H, '.', 00H, 'c'
	DB	00H, 'p', 00H, 'p', 00H, 00H, 00H
	ORG $+8
$SG84574 DB	'"', 00H, 'A', 00H, 'n', 00H, ' ', 00H, 'U', 00H, 'n', 00H
	DB	'e', 00H, 'x', 00H, 'p', 00H, 'e', 00H, 'c', 00H, 't', 00H, 'e'
	DB	00H, 'd', 00H, ' ', 00H, 'c', 00H, 'a', 00H, 's', 00H, 'e', 00H
	DB	' ', 00H, 'o', 00H, 'c', 00H, 'c', 00H, 'u', 00H, 'r', 00H, 'e'
	DB	00H, 'd', 00H, ' ', 00H, 'i', 00H, 'n', 00H, ' ', 00H, 'C', 00H
	DB	'D', 00H, 'y', 00H, 'n', 00H, 'a', 00H, 'm', 00H, 'i', 00H, 'c'
	DB	00H, 'O', 00H, 'u', 00H, 't', 00H, 'p', 00H, 'u', 00H, 't', 00H
	DB	'P', 00H, 'i', 00H, 'n', 00H, ':', 00H, ':', 00H, 'S', 00H, 't'
	DB	00H, 'a', 00H, 'r', 00H, 't', 00H, 'U', 00H, 's', 00H, 'i', 00H
	DB	'n', 00H, 'g', 00H, 'O', 00H, 'u', 00H, 't', 00H, 'p', 00H, 'u'
	DB	00H, 't', 00H, 'P', 00H, 'i', 00H, 'n', 00H, '(', 00H, ')', 00H
	DB	'.', 00H, '"', 00H, 00H, 00H
	ORG $+4
$SG84602 DB	'.', 00H, '.', 00H, '\', 00H, 'a', 00H, 'm', 00H, 'f', 00H
	DB	'i', 00H, 'l', 00H, 't', 00H, 'e', 00H, 'r', 00H, '.', 00H, 'c'
	DB	00H, 'p', 00H, 'p', 00H, 00H, 00H
	ORG $+8
$SG84603 DB	'E', 00H, 'R', 00H, 'R', 00H, 'O', 00H, 'R', 00H, ':', 00H
	DB	' ', 00H, 'C', 00H, 'D', 00H, 'y', 00H, 'n', 00H, 'a', 00H, 'm'
	DB	00H, 'i', 00H, 'c', 00H, 'O', 00H, 'u', 00H, 't', 00H, 'p', 00H
	DB	'u', 00H, 't', 00H, 'P', 00H, 'i', 00H, 'n', 00H, ':', 00H, ':'
	DB	00H, 'A', 00H, 'c', 00H, 't', 00H, 'i', 00H, 'v', 00H, 'e', 00H
	DB	'(', 00H, ')', 00H, ' ', 00H, 'f', 00H, 'a', 00H, 'i', 00H, 'l'
	DB	00H, 'e', 00H, 'd', 00H, ' ', 00H, 'b', 00H, 'e', 00H, 'c', 00H
	DB	'a', 00H, 'u', 00H, 's', 00H, 'e', 00H, ' ', 00H, 'm', 00H, '_'
	DB	00H, 'p', 00H, 'G', 00H, 'r', 00H, 'a', 00H, 'p', 00H, 'h', 00H
	DB	'C', 00H, 'o', 00H, 'n', 00H, 'f', 00H, 'i', 00H, 'g', 00H, ' '
	DB	00H, 'a', 00H, 'n', 00H, 'd', 00H, ' ', 00H, 'm', 00H, '_', 00H
	DB	'h', 00H, 'S', 00H, 't', 00H, 'o', 00H, 'p', 00H, 'E', 00H, 'v'
	DB	00H, 'e', 00H, 'n', 00H, 't', 00H, ' ', 00H, 'w', 00H, 'e', 00H
	DB	'r', 00H, 'e', 00H, ' ', 00H, 'n', 00H, 'o', 00H, 't', 00H, ' '
	DB	00H, 'i', 00H, 'n', 00H, 'i', 00H, 't', 00H, 'i', 00H, 'a', 00H
	DB	'l', 00H, 'i', 00H, 'z', 00H, 'e', 00H, 'd', 00H, '.', 00H, ' '
	DB	00H, 'C', 00H, 'a', 00H, 'l', 00H, 'l', 00H, ' ', 00H, 'S', 00H
	DB	'e', 00H, 't', 00H, 'C', 00H, 'o', 00H, 'n', 00H, 'f', 00H, 'i'
	DB	00H, 'g', 00H, 'I', 00H, 'n', 00H, 'f', 00H, 'o', 00H, '(', 00H
	DB	')', 00H, ' ', 00H, 't', 00H, 'o', 00H, ' ', 00H, 'i', 00H, 'n'
	DB	00H, 'i', 00H, 't', 00H, 'i', 00H, 'a', 00H, 'l', 00H, 'i', 00H
	DB	'z', 00H, 'e', 00H, ' ', 00H, 't', 00H, 'h', 00H, 'e', 00H, 'm'
	DB	00H, '.', 00H, 00H, 00H
	ORG $+6
$SG84606 DB	'.', 00H, '.', 00H, '\', 00H, 'a', 00H, 'm', 00H, 'f', 00H
	DB	'i', 00H, 'l', 00H, 't', 00H, 'e', 00H, 'r', 00H, '.', 00H, 'c'
	DB	00H, 'p', 00H, 'p', 00H, 00H, 00H
$SG84607 DB	'R', 00H, 'e', 00H, 's', 00H, 'e', 00H, 't', 00H, 'E', 00H
	DB	'v', 00H, 'e', 00H, 'n', 00H, 't', 00H, '(', 00H, 'm', 00H, '_'
	DB	00H, 'h', 00H, 'S', 00H, 't', 00H, 'o', 00H, 'p', 00H, 'E', 00H
	DB	'v', 00H, 'e', 00H, 'n', 00H, 't', 00H, ')', 00H, 00H, 00H
	ORG $+6
$SG84613 DB	'.', 00H, '.', 00H, '\', 00H, 'a', 00H, 'm', 00H, 'f', 00H
	DB	'i', 00H, 'l', 00H, 't', 00H, 'e', 00H, 'r', 00H, '.', 00H, 'c'
	DB	00H, 'p', 00H, 'p', 00H, 00H, 00H
$SG84614 DB	'S', 00H, 'e', 00H, 't', 00H, 'E', 00H, 'v', 00H, 'e', 00H
	DB	'n', 00H, 't', 00H, '(', 00H, 'm', 00H, '_', 00H, 'h', 00H, 'S'
	DB	00H, 't', 00H, 'o', 00H, 'p', 00H, 'E', 00H, 'v', 00H, 'e', 00H
	DB	'n', 00H, 't', 00H, ')', 00H, 00H, 00H
	ORG $+2
$SG84620 DB	'.', 00H, '.', 00H, '\', 00H, 'a', 00H, 'm', 00H, 'f', 00H
	DB	'i', 00H, 'l', 00H, 't', 00H, 'e', 00H, 'r', 00H, '.', 00H, 'c'
	DB	00H, 'p', 00H, 'p', 00H, 00H, 00H
$SG84621 DB	'S', 00H, 'e', 00H, 't', 00H, 'E', 00H, 'v', 00H, 'e', 00H
	DB	'n', 00H, 't', 00H, '(', 00H, 'm', 00H, '_', 00H, 'h', 00H, 'S'
	DB	00H, 't', 00H, 'o', 00H, 'p', 00H, 'E', 00H, 'v', 00H, 'e', 00H
	DB	'n', 00H, 't', 00H, ')', 00H, 00H, 00H
	ORG $+2
$SG84627 DB	'.', 00H, '.', 00H, '\', 00H, 'a', 00H, 'm', 00H, 'f', 00H
	DB	'i', 00H, 'l', 00H, 't', 00H, 'e', 00H, 'r', 00H, '.', 00H, 'c'
	DB	00H, 'p', 00H, 'p', 00H, 00H, 00H
$SG84628 DB	'R', 00H, 'e', 00H, 's', 00H, 'e', 00H, 't', 00H, 'E', 00H
	DB	'v', 00H, 'e', 00H, 'n', 00H, 't', 00H, '(', 00H, 'm', 00H, '_'
	DB	00H, 'h', 00H, 'S', 00H, 't', 00H, 'o', 00H, 'p', 00H, 'E', 00H
	DB	'v', 00H, 'e', 00H, 'n', 00H, 't', 00H, ')', 00H, 00H, 00H
	ORG $+6
$SG84637 DB	'.', 00H, '.', 00H, '\', 00H, 'a', 00H, 'm', 00H, 'f', 00H
	DB	'i', 00H, 'l', 00H, 't', 00H, 'e', 00H, 'r', 00H, '.', 00H, 'c'
	DB	00H, 'p', 00H, 'p', 00H, 00H, 00H
	ORG $+8
$SG84638 DB	'S', 00H, 't', 00H, 'r', 00H, 'e', 00H, 'a', 00H, 'm', 00H
	DB	'i', 00H, 'n', 00H, 'g', 00H, 'T', 00H, 'h', 00H, 'r', 00H, 'e'
	DB	00H, 'a', 00H, 'd', 00H, 'U', 00H, 's', 00H, 'i', 00H, 'n', 00H
	DB	'g', 00H, 'O', 00H, 'u', 00H, 't', 00H, 'p', 00H, 'u', 00H, 't'
	DB	00H, 'P', 00H, 'i', 00H, 'n', 00H, '(', 00H, ')', 00H, 00H, 00H
$SG84640 DB	'.', 00H, '.', 00H, '\', 00H, 'a', 00H, 'm', 00H, 'f', 00H
	DB	'i', 00H, 'l', 00H, 't', 00H, 'e', 00H, 'r', 00H, '.', 00H, 'c'
	DB	00H, 'p', 00H, 'p', 00H, 00H, 00H
$SG84641 DB	'N', 00H, 'U', 00H, 'L', 00H, 'L', 00H, ' ', 00H, '!', 00H
	DB	'=', 00H, ' ', 00H, 'p', 00H, 'm', 00H, 't', 00H, 00H, 00H
$SG84657 DB	'.', 00H, '.', 00H, '\', 00H, 'a', 00H, 'm', 00H, 'f', 00H
	DB	'i', 00H, 'l', 00H, 't', 00H, 'e', 00H, 'r', 00H, '.', 00H, 'c'
	DB	00H, 'p', 00H, 'p', 00H, 00H, 00H
	ORG $+8
$SG84658 DB	'S', 00H, 't', 00H, 'r', 00H, 'e', 00H, 'a', 00H, 'm', 00H
	DB	'i', 00H, 'n', 00H, 'g', 00H, 'T', 00H, 'h', 00H, 'r', 00H, 'e'
	DB	00H, 'a', 00H, 'd', 00H, 'U', 00H, 's', 00H, 'i', 00H, 'n', 00H
	DB	'g', 00H, 'O', 00H, 'u', 00H, 't', 00H, 'p', 00H, 'u', 00H, 't'
	DB	00H, 'P', 00H, 'i', 00H, 'n', 00H, '(', 00H, ')', 00H, 00H, 00H
$SG84660 DB	'.', 00H, '.', 00H, '\', 00H, 'a', 00H, 'm', 00H, 'f', 00H
	DB	'i', 00H, 'l', 00H, 't', 00H, 'e', 00H, 'r', 00H, '.', 00H, 'c'
	DB	00H, 'p', 00H, 'p', 00H, 00H, 00H
$SG84661 DB	'!', 00H, 'I', 00H, 's', 00H, 'S', 00H, 't', 00H, 'o', 00H
	DB	'p', 00H, 'p', 00H, 'e', 00H, 'd', 00H, '(', 00H, ')', 00H, 00H
	DB	00H
	ORG $+6
$SG84709 DB	'.', 00H, '.', 00H, '\', 00H, 'a', 00H, 'm', 00H, 'f', 00H
	DB	'i', 00H, 'l', 00H, 't', 00H, 'e', 00H, 'r', 00H, '.', 00H, 'c'
	DB	00H, 'p', 00H, 'p', 00H, 00H, 00H
$SG84710 DB	'S', 00H, 't', 00H, 'r', 00H, 'e', 00H, 'a', 00H, 'm', 00H
	DB	'i', 00H, 'n', 00H, 'g', 00H, 'T', 00H, 'h', 00H, 'r', 00H, 'e'
	DB	00H, 'a', 00H, 'd', 00H, 'U', 00H, 's', 00H, 'i', 00H, 'n', 00H
	DB	'g', 00H, 'O', 00H, 'u', 00H, 't', 00H, 'p', 00H, 'u', 00H, 't'
	DB	00H, 'P', 00H, 'i', 00H, 'n', 00H, '(', 00H, ')', 00H, 00H, 00H
$SG84718 DB	'.', 00H, '.', 00H, '\', 00H, 'a', 00H, 'm', 00H, 'f', 00H
	DB	'i', 00H, 'l', 00H, 't', 00H, 'e', 00H, 'r', 00H, '.', 00H, 'c'
	DB	00H, 'p', 00H, 'p', 00H, 00H, 00H
$SG84719 DB	':', 00H, ':', 00H, 'I', 00H, 's', 00H, 'E', 00H, 'q', 00H
	DB	'u', 00H, 'a', 00H, 'l', 00H, 'O', 00H, 'b', 00H, 'j', 00H, 'e'
	DB	00H, 'c', 00H, 't', 00H, '(', 00H, 'm', 00H, '_', 00H, 'C', 00H
	DB	'o', 00H, 'n', 00H, 'n', 00H, 'e', 00H, 'c', 00H, 't', 00H, 'e'
	DB	00H, 'd', 00H, ',', 00H, ' ', 00H, 'm', 00H, '_', 00H, 'p', 00H
	DB	'I', 00H, 'n', 00H, 'p', 00H, 'u', 00H, 't', 00H, 'P', 00H, 'i'
	DB	00H, 'n', 00H, ')', 00H, 00H, 00H
	ORG $+4
$SG84736 DB	'.', 00H, '.', 00H, '\', 00H, 'a', 00H, 'm', 00H, 'f', 00H
	DB	'i', 00H, 'l', 00H, 't', 00H, 'e', 00H, 'r', 00H, '.', 00H, 'c'
	DB	00H, 'p', 00H, 'p', 00H, 00H, 00H
	ORG $+8
$SG84737 DB	'S', 00H, 't', 00H, 'r', 00H, 'e', 00H, 'a', 00H, 'm', 00H
	DB	'i', 00H, 'n', 00H, 'g', 00H, 'T', 00H, 'h', 00H, 'r', 00H, 'e'
	DB	00H, 'a', 00H, 'd', 00H, 'U', 00H, 's', 00H, 'i', 00H, 'n', 00H
	DB	'g', 00H, 'O', 00H, 'u', 00H, 't', 00H, 'p', 00H, 'u', 00H, 't'
	DB	00H, 'P', 00H, 'i', 00H, 'n', 00H, '(', 00H, ')', 00H, 00H, 00H
$SG84752 DB	'.', 00H, '.', 00H, '\', 00H, 'a', 00H, 'm', 00H, 'f', 00H
	DB	'i', 00H, 'l', 00H, 't', 00H, 'e', 00H, 'r', 00H, '.', 00H, 'c'
	DB	00H, 'p', 00H, 'p', 00H, 00H, 00H
$SG84753 DB	'h', 00H, 'r', 00H, ' ', 00H, '!', 00H, '=', 00H, ' ', 00H
	DB	'V', 00H, 'F', 00H, 'W', 00H, '_', 00H, 'E', 00H, '_', 00H, 'A'
	DB	00H, 'L', 00H, 'R', 00H, 'E', 00H, 'A', 00H, 'D', 00H, 'Y', 00H
	DB	'_', 00H, 'C', 00H, 'O', 00H, 'M', 00H, 'M', 00H, 'I', 00H, 'T'
	DB	00H, 'T', 00H, 'E', 00H, 'D', 00H, 00H, 00H
	ORG $+4
$SG84759 DB	'.', 00H, '.', 00H, '\', 00H, 'a', 00H, 'm', 00H, 'f', 00H
	DB	'i', 00H, 'l', 00H, 't', 00H, 'e', 00H, 'r', 00H, '.', 00H, 'c'
	DB	00H, 'p', 00H, 'p', 00H, 00H, 00H
$SG84760 DB	'N', 00H, 'U', 00H, 'L', 00H, 'L', 00H, ' ', 00H, '!', 00H
	DB	'=', 00H, ' ', 00H, 'm', 00H, '_', 00H, 'h', 00H, 'U', 00H, 'n'
	DB	00H, 'b', 00H, 'l', 00H, 'o', 00H, 'c', 00H, 'k', 00H, 'O', 00H
	DB	'u', 00H, 't', 00H, 'p', 00H, 'u', 00H, 't', 00H, 'P', 00H, 'i'
	DB	00H, 'n', 00H, 'E', 00H, 'v', 00H, 'e', 00H, 'n', 00H, 't', 00H
	DB	00H, 00H
	ORG $+6
$SG84762 DB	'.', 00H, '.', 00H, '\', 00H, 'a', 00H, 'm', 00H, 'f', 00H
	DB	'i', 00H, 'l', 00H, 't', 00H, 'e', 00H, 'r', 00H, '.', 00H, 'c'
	DB	00H, 'p', 00H, 'p', 00H, 00H, 00H
$SG84763 DB	'N', 00H, 'U', 00H, 'L', 00H, 'L', 00H, ' ', 00H, '!', 00H
	DB	'=', 00H, ' ', 00H, 'm', 00H, '_', 00H, 'h', 00H, 'S', 00H, 't'
	DB	00H, 'o', 00H, 'p', 00H, 'E', 00H, 'v', 00H, 'e', 00H, 'n', 00H
	DB	't', 00H, 00H, 00H
	ORG $+6
$SG84765 DB	'.', 00H, '.', 00H, '\', 00H, 'a', 00H, 'm', 00H, 'f', 00H
	DB	'i', 00H, 'l', 00H, 't', 00H, 'e', 00H, 'r', 00H, '.', 00H, 'c'
	DB	00H, 'p', 00H, 'p', 00H, 00H, 00H
$SG84766 DB	'N', 00H, 'U', 00H, 'L', 00H, 'L', 00H, ' ', 00H, '!', 00H
	DB	'=', 00H, ' ', 00H, 'm', 00H, '_', 00H, 'p', 00H, 'G', 00H, 'r'
	DB	00H, 'a', 00H, 'p', 00H, 'h', 00H, 'C', 00H, 'o', 00H, 'n', 00H
	DB	'f', 00H, 'i', 00H, 'g', 00H, 00H, 00H
	ORG $+2
$SG84769 DB	'.', 00H, '.', 00H, '\', 00H, 'a', 00H, 'm', 00H, 'f', 00H
	DB	'i', 00H, 'l', 00H, 't', 00H, 'e', 00H, 'r', 00H, '.', 00H, 'c'
	DB	00H, 'p', 00H, 'p', 00H, 00H, 00H
	ORG $+8
$SG84770 DB	'(', 00H, 'N', 00H, 'O', 00H, 'T', 00H, '_', 00H, 'B', 00H
	DB	'L', 00H, 'O', 00H, 'C', 00H, 'K', 00H, 'E', 00H, 'D', 00H, ' '
	DB	00H, '=', 00H, '=', 00H, ' ', 00H, 'm', 00H, '_', 00H, 'B', 00H
	DB	'l', 00H, 'o', 00H, 'c', 00H, 'k', 00H, 'S', 00H, 't', 00H, 'a'
	DB	00H, 't', 00H, 'e', 00H, ')', 00H, ' ', 00H, '|', 00H, '|', 00H
	DB	' ', 00H, '(', 00H, 'P', 00H, 'E', 00H, 'N', 00H, 'D', 00H, 'I'
	DB	00H, 'N', 00H, 'G', 00H, ' ', 00H, '=', 00H, '=', 00H, ' ', 00H
	DB	'm', 00H, '_', 00H, 'B', 00H, 'l', 00H, 'o', 00H, 'c', 00H, 'k'
	DB	00H, 'S', 00H, 't', 00H, 'a', 00H, 't', 00H, 'e', 00H, ')', 00H
	DB	' ', 00H, '|', 00H, '|', 00H, ' ', 00H, '(', 00H, 'B', 00H, 'L'
	DB	00H, 'O', 00H, 'C', 00H, 'K', 00H, 'E', 00H, 'D', 00H, ' ', 00H
	DB	'=', 00H, '=', 00H, ' ', 00H, 'm', 00H, '_', 00H, 'B', 00H, 'l'
	DB	00H, 'o', 00H, 'c', 00H, 'k', 00H, 'S', 00H, 't', 00H, 'a', 00H
	DB	't', 00H, 'e', 00H, ')', 00H, 00H, 00H
$SG84774 DB	'.', 00H, '.', 00H, '\', 00H, 'a', 00H, 'm', 00H, 'f', 00H
	DB	'i', 00H, 'l', 00H, 't', 00H, 'e', 00H, 'r', 00H, '.', 00H, 'c'
	DB	00H, 'p', 00H, 'p', 00H, 00H, 00H
$SG84775 DB	'(', 00H, '(', 00H, 'N', 00H, 'U', 00H, 'L', 00H, 'L', 00H
	DB	' ', 00H, '=', 00H, '=', 00H, ' ', 00H, 'm', 00H, '_', 00H, 'h'
	DB	00H, 'N', 00H, 'o', 00H, 't', 00H, 'i', 00H, 'f', 00H, 'y', 00H
	DB	'C', 00H, 'a', 00H, 'l', 00H, 'l', 00H, 'e', 00H, 'r', 00H, 'P'
	DB	00H, 'i', 00H, 'n', 00H, 'B', 00H, 'l', 00H, 'o', 00H, 'c', 00H
	DB	'k', 00H, 'e', 00H, 'd', 00H, 'E', 00H, 'v', 00H, 'e', 00H, 'n'
	DB	00H, 't', 00H, ')', 00H, ' ', 00H, '&', 00H, '&', 00H, ' ', 00H
	DB	'(', 00H, 'P', 00H, 'E', 00H, 'N', 00H, 'D', 00H, 'I', 00H, 'N'
	DB	00H, 'G', 00H, ' ', 00H, '!', 00H, '=', 00H, ' ', 00H, 'm', 00H
	DB	'_', 00H, 'B', 00H, 'l', 00H, 'o', 00H, 'c', 00H, 'k', 00H, 'S'
	DB	00H, 't', 00H, 'a', 00H, 't', 00H, 'e', 00H, ')', 00H, ')', 00H
	DB	' ', 00H, '|', 00H, '|', 00H, ' ', 00H, '(', 00H, '(', 00H, 'N'
	DB	00H, 'U', 00H, 'L', 00H, 'L', 00H, ' ', 00H, '!', 00H, '=', 00H
	DB	' ', 00H, 'm', 00H, '_', 00H, 'h', 00H, 'N', 00H, 'o', 00H, 't'
	DB	00H, 'i', 00H, 'f', 00H, 'y', 00H, 'C', 00H, 'a', 00H, 'l', 00H
	DB	'l', 00H, 'e', 00H, 'r', 00H, 'P', 00H, 'i', 00H, 'n', 00H, 'B'
	DB	00H, 'l', 00H, 'o', 00H, 'c', 00H, 'k', 00H, 'e', 00H, 'd', 00H
	DB	'E', 00H, 'v', 00H, 'e', 00H, 'n', 00H, 't', 00H, ')', 00H, ' '
	DB	00H, '&', 00H, '&', 00H, ' ', 00H, '(', 00H, 'P', 00H, 'E', 00H
	DB	'N', 00H, 'D', 00H, 'I', 00H, 'N', 00H, 'G', 00H, ' ', 00H, '='
	DB	00H, '=', 00H, ' ', 00H, 'm', 00H, '_', 00H, 'B', 00H, 'l', 00H
	DB	'o', 00H, 'c', 00H, 'k', 00H, 'S', 00H, 't', 00H, 'a', 00H, 't'
	DB	00H, 'e', 00H, ')', 00H, ')', 00H, 00H, 00H
	ORG $+2
$SG84777 DB	'.', 00H, '.', 00H, '\', 00H, 'a', 00H, 'm', 00H, 'f', 00H
	DB	'i', 00H, 'l', 00H, 't', 00H, 'e', 00H, 'r', 00H, '.', 00H, 'c'
	DB	00H, 'p', 00H, 'p', 00H, 00H, 00H
	ORG $+8
$SG84778 DB	'(', 00H, '0', 00H, ' ', 00H, '=', 00H, '=', 00H, ' ', 00H
	DB	'm', 00H, '_', 00H, 'd', 00H, 'w', 00H, 'B', 00H, 'l', 00H, 'o'
	DB	00H, 'c', 00H, 'k', 00H, 'C', 00H, 'a', 00H, 'l', 00H, 'l', 00H
	DB	'e', 00H, 'r', 00H, 'T', 00H, 'h', 00H, 'r', 00H, 'e', 00H, 'a'
	DB	00H, 'd', 00H, 'I', 00H, 'D', 00H, ')', 00H, ' ', 00H, '|', 00H
	DB	'|', 00H, ' ', 00H, '(', 00H, 'N', 00H, 'O', 00H, 'T', 00H, '_'
	DB	00H, 'B', 00H, 'L', 00H, 'O', 00H, 'C', 00H, 'K', 00H, 'E', 00H
	DB	'D', 00H, ' ', 00H, '!', 00H, '=', 00H, ' ', 00H, 'm', 00H, '_'
	DB	00H, 'B', 00H, 'l', 00H, 'o', 00H, 'c', 00H, 'k', 00H, 'S', 00H
	DB	't', 00H, 'a', 00H, 't', 00H, 'e', 00H, ')', 00H, 00H, 00H
$SG84783 DB	'.', 00H, '.', 00H, '\', 00H, 'a', 00H, 'm', 00H, 'f', 00H
	DB	'i', 00H, 'l', 00H, 't', 00H, 'e', 00H, 'r', 00H, '.', 00H, 'c'
	DB	00H, 'p', 00H, 'p', 00H, 00H, 00H
$SG84784 DB	'(', 00H, '(', 00H, '0', 00H, ' ', 00H, '!', 00H, '=', 00H
	DB	' ', 00H, 'm', 00H, '_', 00H, 'd', 00H, 'w', 00H, 'N', 00H, 'u'
	DB	00H, 'm', 00H, 'O', 00H, 'u', 00H, 't', 00H, 's', 00H, 't', 00H
	DB	'a', 00H, 'n', 00H, 'd', 00H, 'i', 00H, 'n', 00H, 'g', 00H, 'O'
	DB	00H, 'u', 00H, 't', 00H, 'p', 00H, 'u', 00H, 't', 00H, 'P', 00H
	DB	'i', 00H, 'n', 00H, 'U', 00H, 's', 00H, 'e', 00H, 'r', 00H, 's'
	DB	00H, ')', 00H, ' ', 00H, '&', 00H, '&', 00H, ' ', 00H, '(', 00H
	DB	'B', 00H, 'L', 00H, 'O', 00H, 'C', 00H, 'K', 00H, 'E', 00H, 'D'
	DB	00H, ' ', 00H, '!', 00H, '=', 00H, ' ', 00H, 'm', 00H, '_', 00H
	DB	'B', 00H, 'l', 00H, 'o', 00H, 'c', 00H, 'k', 00H, 'S', 00H, 't'
	DB	00H, 'a', 00H, 't', 00H, 'e', 00H, ')', 00H, ')', 00H, ' ', 00H
	DB	'|', 00H, '|', 00H, ' ', 00H, '(', 00H, '(', 00H, '0', 00H, ' '
	DB	00H, '=', 00H, '=', 00H, ' ', 00H, 'm', 00H, '_', 00H, 'd', 00H
	DB	'w', 00H, 'N', 00H, 'u', 00H, 'm', 00H, 'O', 00H, 'u', 00H, 't'
	DB	00H, 's', 00H, 't', 00H, 'a', 00H, 'n', 00H, 'd', 00H, 'i', 00H
	DB	'n', 00H, 'g', 00H, 'O', 00H, 'u', 00H, 't', 00H, 'p', 00H, 'u'
	DB	00H, 't', 00H, 'P', 00H, 'i', 00H, 'n', 00H, 'U', 00H, 's', 00H
	DB	'e', 00H, 'r', 00H, 's', 00H, ')', 00H, ' ', 00H, '&', 00H, '&'
	DB	00H, ' ', 00H, '(', 00H, 'N', 00H, 'O', 00H, 'T', 00H, '_', 00H
	DB	'B', 00H, 'L', 00H, 'O', 00H, 'C', 00H, 'K', 00H, 'E', 00H, 'D'
	DB	00H, ' ', 00H, '!', 00H, '=', 00H, ' ', 00H, 'm', 00H, '_', 00H
	DB	'B', 00H, 'l', 00H, 'o', 00H, 'c', 00H, 'k', 00H, 'S', 00H, 't'
	DB	00H, 'a', 00H, 't', 00H, 'e', 00H, ')', 00H, ')', 00H, ' ', 00H
	DB	'|', 00H, '|', 00H, ' ', 00H, '(', 00H, '(', 00H, '0', 00H, ' '
	DB	00H, '=', 00H, '=', 00H, ' ', 00H, 'm', 00H, '_', 00H, 'd', 00H
	DB	'w', 00H, 'N', 00H, 'u', 00H, 'm', 00H, 'O', 00H, 'u', 00H, 't'
	DB	00H, 's', 00H, 't', 00H, 'a', 00H, 'n', 00H, 'd', 00H, 'i', 00H
	DB	'n', 00H, 'g', 00H, 'O', 00H, 'u', 00H, 't', 00H, 'p', 00H, 'u'
	DB	00H, 't', 00H, 'P', 00H, 'i', 00H, 'n', 00H, 'U', 00H, 's', 00H
	DB	'e', 00H, 'r', 00H, 's', 00H, ')', 00H, ' ', 00H, '&', 00H, '&'
	DB	00H, ' ', 00H, '(', 00H, 'N', 00H, 'O', 00H, 'T', 00H, '_', 00H
	DB	'B', 00H, 'L', 00H, 'O', 00H, 'C', 00H, 'K', 00H, 'E', 00H, 'D'
	DB	00H, ' ', 00H, '=', 00H, '=', 00H, ' ', 00H, 'm', 00H, '_', 00H
	DB	'B', 00H, 'l', 00H, 'o', 00H, 'c', 00H, 'k', 00H, 'S', 00H, 't'
	DB	00H, 'a', 00H, 't', 00H, 'e', 00H, ')', 00H, ')', 00H, 00H, 00H
	ORG $+2
$SG84800 DB	'.', 00H, '.', 00H, '\', 00H, 'a', 00H, 'm', 00H, 'f', 00H
	DB	'i', 00H, 'l', 00H, 't', 00H, 'e', 00H, 'r', 00H, '.', 00H, 'c'
	DB	00H, 'p', 00H, 'p', 00H, 00H, 00H
	ORG $+8
$SG84801 DB	'"', 00H, 'A', 00H, 'n', 00H, ' ', 00H, 'U', 00H, 'n', 00H
	DB	'e', 00H, 'x', 00H, 'p', 00H, 'e', 00H, 'c', 00H, 't', 00H, 'e'
	DB	00H, 'd', 00H, ' ', 00H, 'c', 00H, 'a', 00H, 's', 00H, 'e', 00H
	DB	' ', 00H, 'o', 00H, 'c', 00H, 'c', 00H, 'u', 00H, 'r', 00H, 'e'
	DB	00H, 'd', 00H, ' ', 00H, 'i', 00H, 'n', 00H, ' ', 00H, 'C', 00H
	DB	'D', 00H, 'y', 00H, 'n', 00H, 'a', 00H, 'm', 00H, 'i', 00H, 'c'
	DB	00H, 'O', 00H, 'u', 00H, 't', 00H, 'p', 00H, 'u', 00H, 't', 00H
	DB	'P', 00H, 'i', 00H, 'n', 00H, ':', 00H, ':', 00H, 'W', 00H, 'a'
	DB	00H, 'i', 00H, 't', 00H, 'E', 00H, 'v', 00H, 'e', 00H, 'n', 00H
	DB	't', 00H, '(', 00H, ')', 00H, '.', 00H, '"', 00H, 00H, 00H
$SG84837 DB	'.', 00H, '.', 00H, '\', 00H, 'a', 00H, 'm', 00H, 'f', 00H
	DB	'i', 00H, 'l', 00H, 't', 00H, 'e', 00H, 'r', 00H, '.', 00H, 'c'
	DB	00H, 'p', 00H, 'p', 00H, 00H, 00H
$SG84838 DB	'!', 00H, 'm', 00H, '_', 00H, 'b', 00H, 'C', 00H, 'o', 00H
	DB	'm', 00H, 'm', 00H, 'i', 00H, 't', 00H, 't', 00H, 'e', 00H, 'd'
	DB	00H, 00H, 00H
	ORG $+4
$SG84841 DB	'.', 00H, '.', 00H, '\', 00H, 'a', 00H, 'm', 00H, 'f', 00H
	DB	'i', 00H, 'l', 00H, 't', 00H, 'e', 00H, 'r', 00H, '.', 00H, 'c'
	DB	00H, 'p', 00H, 'p', 00H, 00H, 00H
$SG84842 DB	'C', 00H, 'l', 00H, 'o', 00H, 's', 00H, 'e', 00H, 'H', 00H
	DB	'a', 00H, 'n', 00H, 'd', 00H, 'l', 00H, 'e', 00H, '(', 00H, 'm'
	DB	00H, '_', 00H, 'h', 00H, 'S', 00H, 'e', 00H, 'm', 00H, ')', 00H
	DB	00H, 00H
$SG84865 DB	'.', 00H, '.', 00H, '\', 00H, 'a', 00H, 'm', 00H, 'f', 00H
	DB	'i', 00H, 'l', 00H, 't', 00H, 'e', 00H, 'r', 00H, '.', 00H, 'c'
	DB	00H, 'p', 00H, 'p', 00H, 00H, 00H
$SG84866 DB	'"', 00H, 'I', 00H, 'n', 00H, 'v', 00H, 'a', 00H, 'l', 00H
	DB	'i', 00H, 'd', 00H, ' ', 00H, 'r', 00H, 'e', 00H, 'a', 00H, 'd'
	DB	00H, ' ', 00H, 'p', 00H, 'o', 00H, 'i', 00H, 'n', 00H, 't', 00H
	DB	'e', 00H, 'r', 00H, '"', 00H, 00H, 00H
	ORG $+2
$SG84870 DB	'.', 00H, '.', 00H, '\', 00H, 'a', 00H, 'm', 00H, 'f', 00H
	DB	'i', 00H, 'l', 00H, 't', 00H, 'e', 00H, 'r', 00H, '.', 00H, 'c'
	DB	00H, 'p', 00H, 'p', 00H, 00H, 00H
$SG84871 DB	'"', 00H, 'I', 00H, 'n', 00H, 'v', 00H, 'a', 00H, 'l', 00H
	DB	'i', 00H, 'd', 00H, ' ', 00H, 'w', 00H, 'r', 00H, 'i', 00H, 't'
	DB	00H, 'e', 00H, ' ', 00H, 'p', 00H, 'o', 00H, 'i', 00H, 'n', 00H
	DB	't', 00H, 'e', 00H, 'r', 00H, '"', 00H, 00H, 00H
$SG84875 DB	'.', 00H, '.', 00H, '\', 00H, 'a', 00H, 'm', 00H, 'f', 00H
	DB	'i', 00H, 'l', 00H, 't', 00H, 'e', 00H, 'r', 00H, '.', 00H, 'c'
	DB	00H, 'p', 00H, 'p', 00H, 00H, 00H
$SG84876 DB	'p', 00H, 'R', 00H, 'e', 00H, 'q', 00H, 'u', 00H, 'e', 00H
	DB	's', 00H, 't', 00H, '-', 00H, '>', 00H, 'c', 00H, 'b', 00H, 'B'
	DB	00H, 'u', 00H, 'f', 00H, 'f', 00H, 'e', 00H, 'r', 00H, ' ', 00H
	DB	'>', 00H, ' ', 00H, '0', 00H, 00H, 00H
	ORG $+10
$SG84878 DB	'A', 00H, 'l', 00H, 'i', 00H, 'g', 00H, 'n', 00H, 'm', 00H
	DB	'e', 00H, 'n', 00H, 't', 00H, ' ', 00H, 'r', 00H, 'e', 00H, 'q'
	DB	00H, 'u', 00H, 'e', 00H, 's', 00H, 't', 00H, 'e', 00H, 'd', 00H
	DB	' ', 00H, 'w', 00H, 'a', 00H, 's', 00H, ' ', 00H, '0', 00H, 'x'
	DB	00H, '%', 00H, 'x', 00H, ',', 00H, ' ', 00H, 'n', 00H, 'o', 00H
	DB	't', 00H, ' ', 00H, '1', 00H, 00H, 00H
$SG84897 DB	'.', 00H, '.', 00H, '\', 00H, 'a', 00H, 'm', 00H, 'f', 00H
	DB	'i', 00H, 'l', 00H, 't', 00H, 'e', 00H, 'r', 00H, '.', 00H, 'c'
	DB	00H, 'p', 00H, 'p', 00H, 00H, 00H
$SG84898 DB	'"', 00H, 'I', 00H, 'n', 00H, 'v', 00H, 'a', 00H, 'l', 00H
	DB	'i', 00H, 'd', 00H, ' ', 00H, 'r', 00H, 'e', 00H, 'a', 00H, 'd'
	DB	00H, ' ', 00H, 'p', 00H, 'o', 00H, 'i', 00H, 'n', 00H, 't', 00H
	DB	'e', 00H, 'r', 00H, '"', 00H, 00H, 00H
	ORG $+2
$SG84902 DB	'.', 00H, '.', 00H, '\', 00H, 'a', 00H, 'm', 00H, 'f', 00H
	DB	'i', 00H, 'l', 00H, 't', 00H, 'e', 00H, 'r', 00H, '.', 00H, 'c'
	DB	00H, 'p', 00H, 'p', 00H, 00H, 00H
$SG84903 DB	'"', 00H, 'I', 00H, 'n', 00H, 'v', 00H, 'a', 00H, 'l', 00H
	DB	'i', 00H, 'd', 00H, ' ', 00H, 'w', 00H, 'r', 00H, 'i', 00H, 't'
	DB	00H, 'e', 00H, ' ', 00H, 'p', 00H, 'o', 00H, 'i', 00H, 'n', 00H
	DB	't', 00H, 'e', 00H, 'r', 00H, '"', 00H, 00H, 00H
$SG84927 DB	'.', 00H, '.', 00H, '\', 00H, 'a', 00H, 'm', 00H, 'f', 00H
	DB	'i', 00H, 'l', 00H, 't', 00H, 'e', 00H, 'r', 00H, '.', 00H, 'c'
	DB	00H, 'p', 00H, 'p', 00H, 00H, 00H
$SG84928 DB	'm', 00H, '_', 00H, 'h', 00H, 'S', 00H, 'e', 00H, 'm', 00H
	DB	' ', 00H, '!', 00H, '=', 00H, ' ', 00H, 'N', 00H, 'U', 00H, 'L'
	DB	00H, 'L', 00H, 00H, 00H
	ORG $+2
$SG84930 DB	'.', 00H, '.', 00H, '\', 00H, 'a', 00H, 'm', 00H, 'f', 00H
	DB	'i', 00H, 'l', 00H, 't', 00H, 'e', 00H, 'r', 00H, '.', 00H, 'c'
	DB	00H, 'p', 00H, 'p', 00H, 00H, 00H
$SG84931 DB	'p', 00H, 'S', 00H, 'a', 00H, 'm', 00H, 'p', 00H, 'l', 00H
	DB	'e', 00H, '-', 00H, '>', 00H, 'm', 00H, '_', 00H, 'c', 00H, 'R'
	DB	00H, 'e', 00H, 'f', 00H, ' ', 00H, '=', 00H, '=', 00H, ' ', 00H
	DB	'0', 00H, 00H, 00H
	ORG $+6
$SG84941 DB	'.', 00H, '.', 00H, '\', 00H, 'a', 00H, 'm', 00H, 'f', 00H
	DB	'i', 00H, 'l', 00H, 't', 00H, 'e', 00H, 'r', 00H, '.', 00H, 'c'
	DB	00H, 'p', 00H, 'p', 00H, 00H, 00H
$SG84942 DB	'"', 00H, 'I', 00H, 'n', 00H, 'v', 00H, 'a', 00H, 'l', 00H
	DB	'i', 00H, 'd', 00H, ' ', 00H, 'r', 00H, 'e', 00H, 'a', 00H, 'd'
	DB	00H, ' ', 00H, 'p', 00H, 'o', 00H, 'i', 00H, 'n', 00H, 't', 00H
	DB	'e', 00H, 'r', 00H, '"', 00H, 00H, 00H
	ORG $+2
$SG84951 DB	'.', 00H, '.', 00H, '\', 00H, 'a', 00H, 'm', 00H, 'f', 00H
	DB	'i', 00H, 'l', 00H, 't', 00H, 'e', 00H, 'r', 00H, '.', 00H, 'c'
	DB	00H, 'p', 00H, 'p', 00H, 00H, 00H
$SG84952 DB	'm', 00H, '_', 00H, 'f', 00H, 'E', 00H, 'n', 00H, 'a', 00H
	DB	'b', 00H, 'l', 00H, 'e', 00H, 'R', 00H, 'e', 00H, 'l', 00H, 'e'
	DB	00H, 'a', 00H, 's', 00H, 'e', 00H, 'C', 00H, 'a', 00H, 'l', 00H
	DB	'l', 00H, 'b', 00H, 'a', 00H, 'c', 00H, 'k', 00H, 00H, 00H
	ORG $+6
$SG84959 DB	'.', 00H, '.', 00H, '\', 00H, 'a', 00H, 'm', 00H, 'f', 00H
	DB	'i', 00H, 'l', 00H, 't', 00H, 'e', 00H, 'r', 00H, '.', 00H, 'c'
	DB	00H, 'p', 00H, 'p', 00H, 00H, 00H
$SG84960 DB	'm', 00H, '_', 00H, 'f', 00H, 'E', 00H, 'n', 00H, 'a', 00H
	DB	'b', 00H, 'l', 00H, 'e', 00H, 'R', 00H, 'e', 00H, 'l', 00H, 'e'
	DB	00H, 'a', 00H, 's', 00H, 'e', 00H, 'C', 00H, 'a', 00H, 'l', 00H
	DB	'l', 00H, 'b', 00H, 'a', 00H, 'c', 00H, 'k', 00H, 00H, 00H
	ORG $+6
$SG84971 DB	'.', 00H, '.', 00H, '\', 00H, 'a', 00H, 'm', 00H, 'f', 00H
	DB	'i', 00H, 'l', 00H, 't', 00H, 'e', 00H, 'r', 00H, '.', 00H, 'c'
	DB	00H, 'p', 00H, 'p', 00H, 00H, 00H
$SG84972 DB	'm', 00H, '_', 00H, 'f', 00H, 'E', 00H, 'n', 00H, 'a', 00H
	DB	'b', 00H, 'l', 00H, 'e', 00H, 'R', 00H, 'e', 00H, 'l', 00H, 'e'
	DB	00H, 'a', 00H, 's', 00H, 'e', 00H, 'C', 00H, 'a', 00H, 'l', 00H
	DB	'l', 00H, 'b', 00H, 'a', 00H, 'c', 00H, 'k', 00H, 00H, 00H
	ORG $+6
$SG84980 DB	'.', 00H, '.', 00H, '\', 00H, 'a', 00H, 'm', 00H, 'f', 00H
	DB	'i', 00H, 'l', 00H, 't', 00H, 'e', 00H, 'r', 00H, '.', 00H, 'c'
	DB	00H, 'p', 00H, 'p', 00H, 00H, 00H
$SG84981 DB	'm', 00H, '_', 00H, 'h', 00H, 'S', 00H, 'e', 00H, 'm', 00H
	DB	' ', 00H, '!', 00H, '=', 00H, ' ', 00H, 'N', 00H, 'U', 00H, 'L'
	DB	00H, 'L', 00H, 00H, 00H
	ORG $+2
$SG84990 DB	'A', 00H, 'l', 00H, 'l', 00H, 'o', 00H, 'c', 00H, 'a', 00H
	DB	't', 00H, 'i', 00H, 'n', 00H, 'g', 00H, ':', 00H, ' ', 00H, '%'
	DB	00H, 'l', 00H, 'd', 00H, 'x', 00H, '%', 00H, 'l', 00H, 'd', 00H
	DB	00H, 00H
$SG85015 DB	'.', 00H, '.', 00H, '\', 00H, 'a', 00H, 'm', 00H, 'f', 00H
	DB	'i', 00H, 'l', 00H, 't', 00H, 'e', 00H, 'r', 00H, '.', 00H, 'c'
	DB	00H, 'p', 00H, 'p', 00H, 00H, 00H
	ORG $+8
$SG85016 DB	'm', 00H, '_', 00H, 'l', 00H, 'F', 00H, 'r', 00H, 'e', 00H
	DB	'e', 00H, '.', 00H, 'G', 00H, 'e', 00H, 't', 00H, 'C', 00H, 'o'
	DB	00H, 'u', 00H, 'n', 00H, 't', 00H, '(', 00H, ')', 00H, ' ', 00H
	DB	'=', 00H, '=', 00H, ' ', 00H, 'm', 00H, '_', 00H, 'l', 00H, 'A'
	DB	00H, 'l', 00H, 'l', 00H, 'o', 00H, 'c', 00H, 'a', 00H, 't', 00H
	DB	'e', 00H, 'd', 00H, 00H, 00H
	ORG $+2
$SG85028 DB	'.', 00H, '.', 00H, '\', 00H, 'a', 00H, 'm', 00H, 'f', 00H
	DB	'i', 00H, 'l', 00H, 't', 00H, 'e', 00H, 'r', 00H, '.', 00H, 'c'
	DB	00H, 'p', 00H, 'p', 00H, 00H, 00H
$SG85029 DB	'"', 00H, 'C', 00H, 'o', 00H, 'u', 00H, 'l', 00H, 'd', 00H
	DB	'n', 00H, '''', 00H, 't', 00H, ' ', 00H, 'f', 00H, 'i', 00H, 'n'
	DB	00H, 'd', 00H, ' ', 00H, 's', 00H, 'a', 00H, 'm', 00H, 'p', 00H
	DB	'l', 00H, 'e', 00H, ' ', 00H, 'i', 00H, 'n', 00H, ' ', 00H, 'l'
	DB	00H, 'i', 00H, 's', 00H, 't', 00H, '"', 00H, 00H, 00H
	ORG $+2
$SG85039 DB	'C', 00H, 'M', 00H, 'e', 00H, 'm', 00H, 'A', 00H, 'l', 00H
	DB	'l', 00H, 'o', 00H, 'c', 00H, 'a', 00H, 't', 00H, 'o', 00H, 'r'
	DB	00H, 00H, 00H
	ORG $+4
$SG85066 DB	'.', 00H, '.', 00H, '\', 00H, 'a', 00H, 'm', 00H, 'f', 00H
	DB	'i', 00H, 'l', 00H, 't', 00H, 'e', 00H, 'r', 00H, '.', 00H, 'c'
	DB	00H, 'p', 00H, 'p', 00H, 00H, 00H
$SG85067 DB	'"', 00H, 'I', 00H, 'n', 00H, 'v', 00H, 'a', 00H, 'l', 00H
	DB	'i', 00H, 'd', 00H, ' ', 00H, 'r', 00H, 'e', 00H, 'a', 00H, 'd'
	DB	00H, ' ', 00H, 'p', 00H, 'o', 00H, 'i', 00H, 'n', 00H, 't', 00H
	DB	'e', 00H, 'r', 00H, '"', 00H, 00H, 00H
	ORG $+2
$SG85071 DB	'.', 00H, '.', 00H, '\', 00H, 'a', 00H, 'm', 00H, 'f', 00H
	DB	'i', 00H, 'l', 00H, 't', 00H, 'e', 00H, 'r', 00H, '.', 00H, 'c'
	DB	00H, 'p', 00H, 'p', 00H, 00H, 00H
$SG85072 DB	'"', 00H, 'I', 00H, 'n', 00H, 'v', 00H, 'a', 00H, 'l', 00H
	DB	'i', 00H, 'd', 00H, ' ', 00H, 'w', 00H, 'r', 00H, 'i', 00H, 't'
	DB	00H, 'e', 00H, ' ', 00H, 'p', 00H, 'o', 00H, 'i', 00H, 'n', 00H
	DB	't', 00H, 'e', 00H, 'r', 00H, '"', 00H, 00H, 00H
$SG85076 DB	'.', 00H, '.', 00H, '\', 00H, 'a', 00H, 'm', 00H, 'f', 00H
	DB	'i', 00H, 'l', 00H, 't', 00H, 'e', 00H, 'r', 00H, '.', 00H, 'c'
	DB	00H, 'p', 00H, 'p', 00H, 00H, 00H
$SG85077 DB	'p', 00H, 'R', 00H, 'e', 00H, 'q', 00H, 'u', 00H, 'e', 00H
	DB	's', 00H, 't', 00H, '-', 00H, '>', 00H, 'c', 00H, 'b', 00H, 'B'
	DB	00H, 'u', 00H, 'f', 00H, 'f', 00H, 'e', 00H, 'r', 00H, ' ', 00H
	DB	'>', 00H, ' ', 00H, '0', 00H, 00H, 00H
	ORG $+10
$SG85080 DB	'A', 00H, 'l', 00H, 'i', 00H, 'g', 00H, 'n', 00H, 'm', 00H
	DB	'e', 00H, 'n', 00H, 't', 00H, ' ', 00H, 'r', 00H, 'e', 00H, 'q'
	DB	00H, 'u', 00H, 'e', 00H, 's', 00H, 't', 00H, 'e', 00H, 'd', 00H
	DB	' ', 00H, '0', 00H, 'x', 00H, '%', 00H, 'x', 00H, ' ', 00H, 'n'
	DB	00H, 'o', 00H, 't', 00H, ' ', 00H, 'a', 00H, ' ', 00H, 'p', 00H
	DB	'o', 00H, 'w', 00H, 'e', 00H, 'r', 00H, ' ', 00H, 'o', 00H, 'f'
	DB	00H, ' ', 00H, '2', 00H, '!', 00H, 00H, 00H
	ORG $+10
$SG85083 DB	'I', 00H, 'n', 00H, 'v', 00H, 'a', 00H, 'l', 00H, 'i', 00H
	DB	'd', 00H, ' ', 00H, 'a', 00H, 'l', 00H, 'i', 00H, 'g', 00H, 'n'
	DB	00H, 'm', 00H, 'e', 00H, 'n', 00H, 't', 00H, ' ', 00H, '0', 00H
	DB	'x', 00H, '%', 00H, 'x', 00H, ' ', 00H, 'r', 00H, 'e', 00H, 'q'
	DB	00H, 'u', 00H, 'e', 00H, 's', 00H, 't', 00H, 'e', 00H, 'd', 00H
	DB	' ', 00H, '-', 00H, ' ', 00H, 'g', 00H, 'r', 00H, 'a', 00H, 'n'
	DB	00H, 'u', 00H, 'l', 00H, 'a', 00H, 'r', 00H, 'i', 00H, 't', 00H
	DB	'y', 00H, ' ', 00H, '=', 00H, ' ', 00H, '0', 00H, 'x', 00H, '%'
	DB	00H, 'x', 00H, 00H, 00H
	ORG $+4
$SG85108 DB	'.', 00H, '.', 00H, '\', 00H, 'a', 00H, 'm', 00H, 'f', 00H
	DB	'i', 00H, 'l', 00H, 't', 00H, 'e', 00H, 'r', 00H, '.', 00H, 'c'
	DB	00H, 'p', 00H, 'p', 00H, 00H, 00H
$SG85109 DB	'm', 00H, '_', 00H, 'p', 00H, 'B', 00H, 'u', 00H, 'f', 00H
	DB	'f', 00H, 'e', 00H, 'r', 00H, 00H, 00H
	ORG $+4
$SG85113 DB	'.', 00H, '.', 00H, '\', 00H, 'a', 00H, 'm', 00H, 'f', 00H
	DB	'i', 00H, 'l', 00H, 't', 00H, 'e', 00H, 'r', 00H, '.', 00H, 'c'
	DB	00H, 'p', 00H, 'p', 00H, 00H, 00H
$SG85114 DB	'h', 00H, 'r', 00H, ' ', 00H, '=', 00H, '=', 00H, ' ', 00H
	DB	'S', 00H, '_', 00H, 'O', 00H, 'K', 00H, 00H, 00H
	ORG $+2
$SG85121 DB	'.', 00H, '.', 00H, '\', 00H, 'a', 00H, 'm', 00H, 'f', 00H
	DB	'i', 00H, 'l', 00H, 't', 00H, 'e', 00H, 'r', 00H, '.', 00H, 'c'
	DB	00H, 'p', 00H, 'p', 00H, 00H, 00H
$SG85122 DB	'l', 00H, 'A', 00H, 'l', 00H, 'i', 00H, 'g', 00H, 'n', 00H
	DB	'e', 00H, 'd', 00H, 'S', 00H, 'i', 00H, 'z', 00H, 'e', 00H, ' '
	DB	00H, '%', 00H, ' ', 00H, 'm', 00H, '_', 00H, 'l', 00H, 'A', 00H
	DB	'l', 00H, 'i', 00H, 'g', 00H, 'n', 00H, 'm', 00H, 'e', 00H, 'n'
	DB	00H, 't', 00H, ' ', 00H, '=', 00H, '=', 00H, ' ', 00H, '0', 00H
	DB	00H, 00H
	ORG $+6
$SG85130 DB	'.', 00H, '.', 00H, '\', 00H, 'a', 00H, 'm', 00H, 'f', 00H
	DB	'i', 00H, 'l', 00H, 't', 00H, 'e', 00H, 'r', 00H, '.', 00H, 'c'
	DB	00H, 'p', 00H, 'p', 00H, 00H, 00H
$SG85131 DB	'm', 00H, '_', 00H, 'l', 00H, 'A', 00H, 'l', 00H, 'l', 00H
	DB	'o', 00H, 'c', 00H, 'a', 00H, 't', 00H, 'e', 00H, 'd', 00H, ' '
	DB	00H, '=', 00H, '=', 00H, ' ', 00H, '0', 00H, 00H, 00H
	ORG $+4
$SG85139 DB	'D', 00H, 'e', 00H, 'f', 00H, 'a', 00H, 'u', 00H, 'l', 00H
	DB	't', 00H, ' ', 00H, 'm', 00H, 'e', 00H, 'm', 00H, 'o', 00H, 'r'
	DB	00H, 'y', 00H, ' ', 00H, 'm', 00H, 'e', 00H, 'd', 00H, 'i', 00H
	DB	'a', 00H, ' ', 00H, 's', 00H, 'a', 00H, 'm', 00H, 'p', 00H, 'l'
	DB	00H, 'e', 00H, 00H, 00H
$SG85142 DB	'.', 00H, '.', 00H, '\', 00H, 'a', 00H, 'm', 00H, 'f', 00H
	DB	'i', 00H, 'l', 00H, 't', 00H, 'e', 00H, 'r', 00H, '.', 00H, 'c'
	DB	00H, 'p', 00H, 'p', 00H, 00H, 00H
$SG85143 DB	'S', 00H, 'U', 00H, 'C', 00H, 'C', 00H, 'E', 00H, 'E', 00H
	DB	'D', 00H, 'E', 00H, 'D', 00H, '(', 00H, 'h', 00H, 'r', 00H, ')'
	DB	00H, 00H, 00H
	ORG $+4
$SG85157 DB	'.', 00H, '.', 00H, '\', 00H, 'a', 00H, 'm', 00H, 'f', 00H
	DB	'i', 00H, 'l', 00H, 't', 00H, 'e', 00H, 'r', 00H, '.', 00H, 'c'
	DB	00H, 'p', 00H, 'p', 00H, 00H, 00H
	ORG $+8
$SG85158 DB	'm', 00H, '_', 00H, 'l', 00H, 'A', 00H, 'l', 00H, 'l', 00H
	DB	'o', 00H, 'c', 00H, 'a', 00H, 't', 00H, 'e', 00H, 'd', 00H, ' '
	DB	00H, '=', 00H, '=', 00H, ' ', 00H, 'm', 00H, '_', 00H, 'l', 00H
	DB	'F', 00H, 'r', 00H, 'e', 00H, 'e', 00H, '.', 00H, 'G', 00H, 'e'
	DB	00H, 't', 00H, 'C', 00H, 'o', 00H, 'u', 00H, 'n', 00H, 't', 00H
	DB	'(', 00H, ')', 00H, 00H, 00H
	ORG $+2
$SG85169 DB	'.', 00H, '.', 00H, '\', 00H, 'a', 00H, 'm', 00H, 'f', 00H
	DB	'i', 00H, 'l', 00H, 't', 00H, 'e', 00H, 'r', 00H, '.', 00H, 'c'
	DB	00H, 'p', 00H, 'p', 00H, 00H, 00H
	ORG $+8
$SG85170 DB	'V', 00H, 'i', 00H, 'r', 00H, 't', 00H, 'u', 00H, 'a', 00H
	DB	'l', 00H, 'F', 00H, 'r', 00H, 'e', 00H, 'e', 00H, '(', 00H, 'm'
	DB	00H, '_', 00H, 'p', 00H, 'B', 00H, 'u', 00H, 'f', 00H, 'f', 00H
	DB	'e', 00H, 'r', 00H, ',', 00H, ' ', 00H, '0', 00H, ',', 00H, ' '
	DB	00H, '0', 00H, 'x', 00H, '8', 00H, '0', 00H, '0', 00H, '0', 00H
	DB	')', 00H, 00H, 00H
	ORG $+4
$SG85179 DB	'=', 00H, ' ', 00H, 'A', 00H, 'M', 00H, 'o', 00H, 'v', 00H
	DB	'i', 00H, 'e', 00H, 'S', 00H, 'e', 00H, 't', 00H, 'u', 00H, 'p'
	DB	00H, 'R', 00H, 'e', 00H, 'g', 00H, 'i', 00H, 's', 00H, 't', 00H
	DB	'e', 00H, 'r', 00H, 'F', 00H, 'i', 00H, 'l', 00H, 't', 00H, 'e'
	DB	00H, 'r', 00H, 00H, 00H
$SG85182 DB	'=', 00H, ' ', 00H, '=', 00H, ' ', 00H, 'u', 00H, 'n', 00H
	DB	'r', 00H, 'e', 00H, 'g', 00H, 'i', 00H, 's', 00H, 't', 00H, 'e'
	DB	00H, 'r', 00H, ' ', 00H, 'f', 00H, 'i', 00H, 'l', 00H, 't', 00H
	DB	'e', 00H, 'r', 00H, 00H, 00H
	ORG $+4
$SG85185 DB	'=', 00H, ' ', 00H, '=', 00H, ' ', 00H, 'r', 00H, 'e', 00H
	DB	'g', 00H, 'i', 00H, 's', 00H, 't', 00H, 'e', 00H, 'r', 00H, ' '
	DB	00H, 'f', 00H, 'i', 00H, 'l', 00H, 't', 00H, 'e', 00H, 'r', 00H
	DB	00H, 00H
$SG85188 DB	'=', 00H, ' ', 00H, '=', 00H, ' ', 00H, 'r', 00H, 'e', 00H
	DB	'g', 00H, 'i', 00H, 's', 00H, 't', 00H, 'e', 00H, 'r', 00H, ' '
	DB	00H, 'f', 00H, 'i', 00H, 'l', 00H, 't', 00H, 'e', 00H, 'r', 00H
	DB	' ', 00H, 'p', 00H, 'i', 00H, 'n', 00H, 's', 00H, 00H, 00H
	ORG $+6
$SG85195 DB	'=', 00H, ' ', 00H, '=', 00H, ' ', 00H, 'r', 00H, 'e', 00H
	DB	'g', 00H, 'i', 00H, 's', 00H, 't', 00H, 'e', 00H, 'r', 00H, ' '
	DB	00H, 'f', 00H, 'i', 00H, 'l', 00H, 't', 00H, 'e', 00H, 'r', 00H
	DB	' ', 00H, 'p', 00H, 'i', 00H, 'n', 00H, ' ', 00H, 't', 00H, 'y'
	DB	00H, 'p', 00H, 'e', 00H, 's', 00H, 00H, 00H
CONST	ENDS
;	COMDAT IID_IAMFilterGraphCallback
CONST	SEGMENT
IID_IAMFilterGraphCallback DD 056a868fdH
	DW	0ad4H
	DW	011ceH
	DB	0b0H
	DB	0a3H
	DB	00H
	DB	020H
	DB	0afH
	DB	0bH
	DB	0a7H
	DB	070H
CONST	ENDS
PUBLIC	CreateMemoryAllocator
EXTRN	__imp_CoCreateInstance:PROC
EXTRN	CLSID_MemoryAllocator:BYTE
EXTRN	IID_IMemAllocator:BYTE
EXTRN	_RTC_Shutdown:PROC
EXTRN	_RTC_InitBase:PROC
;	COMDAT pdata
; File c:\downloads\wpf mediakit - copy\src\filters\baseclasses\amfilter.cpp
pdata	SEGMENT
$pdata$CreateMemoryAllocator DD imagerel $LN3
	DD	imagerel $LN3+74
	DD	imagerel $unwind$CreateMemoryAllocator
pdata	ENDS
;	COMDAT xdata
xdata	SEGMENT
$unwind$CreateMemoryAllocator DD 021e01H
	DD	07006520aH
xdata	ENDS
;	COMDAT rtc$TMZ
rtc$TMZ	SEGMENT
_RTC_Shutdown.rtc$TMZ DQ FLAT:_RTC_Shutdown
rtc$TMZ	ENDS
;	COMDAT rtc$IMZ
rtc$IMZ	SEGMENT
_RTC_InitBase.rtc$IMZ DQ FLAT:_RTC_InitBase
; Function compile flags: /Odtp /RTCsu
rtc$IMZ	ENDS
;	COMDAT CreateMemoryAllocator
_TEXT	SEGMENT
ppAllocator$ = 64
CreateMemoryAllocator PROC				; COMDAT
; Line 38
$LN3:
	mov	QWORD PTR [rsp+8], rcx
	push	rdi
	sub	rsp, 48					; 00000030H
	mov	rdi, rsp
	mov	ecx, 12
	mov	eax, -858993460				; ccccccccH
	rep stosd
	mov	rcx, QWORD PTR [rsp+64]
; Line 43
	mov	rax, QWORD PTR ppAllocator$[rsp]
	mov	QWORD PTR [rsp+32], rax
	lea	r9, OFFSET FLAT:IID_IMemAllocator
	mov	r8d, 1
	xor	edx, edx
	lea	rcx, OFFSET FLAT:CLSID_MemoryAllocator
	call	QWORD PTR __imp_CoCreateInstance
; Line 44
	add	rsp, 48					; 00000030H
	pop	rdi
	ret	0
CreateMemoryAllocator ENDP
_TEXT	ENDS
PUBLIC	CreatePosPassThru
EXTRN	IID_ISeekingPassThru:BYTE
EXTRN	CLSID_SeekingPassThru:BYTE
EXTRN	IID_IUnknown:BYTE
EXTRN	_RTC_CheckStackVars:PROC
;	COMDAT pdata
pdata	SEGMENT
$pdata$CreatePosPassThru DD imagerel $LN6
	DD	imagerel $LN6+311
	DD	imagerel $unwind$CreatePosPassThru
pdata	ENDS
;	COMDAT xdata
xdata	SEGMENT
$unwind$CreatePosPassThru DD 022f01H
	DD	07014d218H
xdata	ENDS
;	COMDAT CONST
CONST	SEGMENT
CreatePosPassThru$rtcName$0 DB 070H
	DB	055H
	DB	06eH
	DB	06bH
	DB	053H
	DB	065H
	DB	065H
	DB	06bH
	DB	00H
	ORG $+7
CreatePosPassThru$rtcName$1 DB 070H
	DB	050H
	DB	061H
	DB	073H
	DB	073H
	DB	054H
	DB	068H
	DB	072H
	DB	075H
	DB	00H
	ORG $+6
CreatePosPassThru$rtcVarDesc DD 058H
	DD	08H
	DQ	FLAT:CreatePosPassThru$rtcName$1
	DD	038H
	DD	08H
	DQ	FLAT:CreatePosPassThru$rtcName$0
	ORG $+96
CreatePosPassThru$rtcFrameData DD 02H
	DD	00H
	DQ	FLAT:CreatePosPassThru$rtcVarDesc
; Function compile flags: /Odtp /RTCsu
CONST	ENDS
;	COMDAT CreatePosPassThru
_TEXT	SEGMENT
pUnkSeek$ = 56
hr$ = 68
pPassThru$ = 88
pAgg$ = 128
bRenderer$ = 136
pPin$ = 144
ppPassThru$ = 152
CreatePosPassThru PROC					; COMDAT
; Line 54
$LN6:
	mov	QWORD PTR [rsp+32], r9
	mov	QWORD PTR [rsp+24], r8
	mov	DWORD PTR [rsp+16], edx
	mov	QWORD PTR [rsp+8], rcx
	push	rdi
	sub	rsp, 112				; 00000070H
	mov	rdi, rsp
	mov	ecx, 28
	mov	eax, -858993460				; ccccccccH
	rep stosd
	mov	rcx, QWORD PTR [rsp+128]
; Line 55
	mov	rax, QWORD PTR ppPassThru$[rsp]
	mov	QWORD PTR [rax], 0
; Line 62
	lea	rax, QWORD PTR pUnkSeek$[rsp]
	mov	QWORD PTR [rsp+32], rax
	lea	r9, OFFSET FLAT:IID_IUnknown
	mov	r8d, 1
	mov	rdx, QWORD PTR pAgg$[rsp]
	lea	rcx, OFFSET FLAT:CLSID_SeekingPassThru
	call	QWORD PTR __imp_CoCreateInstance
	mov	DWORD PTR hr$[rsp], eax
; Line 63
	cmp	DWORD PTR hr$[rsp], 0
	jge	SHORT $LN3@CreatePosP
; Line 64
	mov	eax, DWORD PTR hr$[rsp]
	jmp	$LN4@CreatePosP
$LN3@CreatePosP:
; Line 68
	mov	rax, QWORD PTR pUnkSeek$[rsp]
	mov	rax, QWORD PTR [rax]
	lea	r8, QWORD PTR pPassThru$[rsp]
	lea	rdx, OFFSET FLAT:IID_ISeekingPassThru
	mov	rcx, QWORD PTR pUnkSeek$[rsp]
	call	QWORD PTR [rax]
	mov	DWORD PTR hr$[rsp], eax
; Line 69
	cmp	DWORD PTR hr$[rsp], 0
	jge	SHORT $LN2@CreatePosP
; Line 70
	mov	rax, QWORD PTR pUnkSeek$[rsp]
	mov	rax, QWORD PTR [rax]
	mov	rcx, QWORD PTR pUnkSeek$[rsp]
	call	QWORD PTR [rax+16]
; Line 71
	mov	eax, DWORD PTR hr$[rsp]
	jmp	SHORT $LN4@CreatePosP
$LN2@CreatePosP:
; Line 73
	mov	rax, QWORD PTR pPassThru$[rsp]
	mov	rax, QWORD PTR [rax]
	mov	r8, QWORD PTR pPin$[rsp]
	mov	edx, DWORD PTR bRenderer$[rsp]
	mov	rcx, QWORD PTR pPassThru$[rsp]
	call	QWORD PTR [rax+24]
	mov	DWORD PTR hr$[rsp], eax
; Line 74
	mov	rax, QWORD PTR pPassThru$[rsp]
	mov	rax, QWORD PTR [rax]
	mov	rcx, QWORD PTR pPassThru$[rsp]
	call	QWORD PTR [rax+16]
; Line 75
	cmp	DWORD PTR hr$[rsp], 0
	jge	SHORT $LN1@CreatePosP
; Line 76
	mov	rax, QWORD PTR pUnkSeek$[rsp]
	mov	rax, QWORD PTR [rax]
	mov	rcx, QWORD PTR pUnkSeek$[rsp]
	call	QWORD PTR [rax+16]
; Line 77
	mov	eax, DWORD PTR hr$[rsp]
	jmp	SHORT $LN4@CreatePosP
$LN1@CreatePosP:
; Line 79
	mov	rax, QWORD PTR ppPassThru$[rsp]
	mov	rcx, QWORD PTR pUnkSeek$[rsp]
	mov	QWORD PTR [rax], rcx
; Line 80
	xor	eax, eax
$LN4@CreatePosP:
; Line 81
	mov	rdi, rax
	mov	rcx, rsp
	lea	rdx, OFFSET FLAT:CreatePosPassThru$rtcFrameData
	call	_RTC_CheckStackVars
	mov	rax, rdi
	add	rsp, 112				; 00000070H
	pop	rdi
	ret	0
CreatePosPassThru ENDP
_TEXT	ENDS
PUBLIC	??1CUnknown@@UEAA@XZ				; CUnknown::~CUnknown
PUBLIC	$T86975
PUBLIC	??0CRefTime@@QEAA@XZ				; CRefTime::CRefTime
PUBLIC	??0IMediaFilter@@QEAA@XZ			; IMediaFilter::IMediaFilter
PUBLIC	??0CBaseMediaFilter@@QEAA@PEB_WPEAUIUnknown@@PEAVCCritSec@@AEBU_GUID@@@Z ; CBaseMediaFilter::CBaseMediaFilter
EXTRN	__CxxFrameHandler3:PROC
EXTRN	??0CUnknown@@QEAA@PEB_WPEAUIUnknown@@@Z:PROC	; CUnknown::CUnknown
;	COMDAT pdata
pdata	SEGMENT
$pdata$??0CBaseMediaFilter@@QEAA@PEB_WPEAUIUnknown@@PEAVCCritSec@@AEBU_GUID@@@Z DD imagerel $LN4
	DD	imagerel $LN4+208
	DD	imagerel $unwind$??0CBaseMediaFilter@@QEAA@PEB_WPEAUIUnknown@@PEAVCCritSec@@AEBU_GUID@@@Z
pdata	ENDS
;	COMDAT pdata
pdata	SEGMENT
$pdata$?dtor$0@?0???0CBaseMediaFilter@@QEAA@PEB_WPEAUIUnknown@@PEAVCCritSec@@AEBU_GUID@@@Z@4HA DD imagerel ?dtor$0@?0???0CBaseMediaFilter@@QEAA@PEB_WPEAUIUnknown@@PEAVCCritSec@@AEBU_GUID@@@Z@4HA
	DD	imagerel ?dtor$0@?0???0CBaseMediaFilter@@QEAA@PEB_WPEAUIUnknown@@PEAVCCritSec@@AEBU_GUID@@@Z@4HA+35
	DD	imagerel $unwind$?dtor$0@?0???0CBaseMediaFilter@@QEAA@PEB_WPEAUIUnknown@@PEAVCCritSec@@AEBU_GUID@@@Z@4HA
pdata	ENDS
;	COMDAT xdata
xdata	SEGMENT
$ip2state$??0CBaseMediaFilter@@QEAA@PEB_WPEAUIUnknown@@PEAVCCritSec@@AEBU_GUID@@@Z DD imagerel ??0CBaseMediaFilter@@QEAA@PEB_WPEAUIUnknown@@PEAVCCritSec@@AEBU_GUID@@@Z
	DD	0ffffffffH
	DD	imagerel ??0CBaseMediaFilter@@QEAA@PEB_WPEAUIUnknown@@PEAVCCritSec@@AEBU_GUID@@@Z+76
	DD	00H
	DD	imagerel ??0CBaseMediaFilter@@QEAA@PEB_WPEAUIUnknown@@PEAVCCritSec@@AEBU_GUID@@@Z+196
	DD	0ffffffffH
xdata	ENDS
;	COMDAT xdata
xdata	SEGMENT
$unwind$?dtor$0@?0???0CBaseMediaFilter@@QEAA@PEB_WPEAUIUnknown@@PEAVCCritSec@@AEBU_GUID@@@Z@4HA DD 031001H
	DD	0700c4210H
	DD	0500bH
xdata	ENDS
;	COMDAT xdata
xdata	SEGMENT
$unwind$??0CBaseMediaFilter@@QEAA@PEB_WPEAUIUnknown@@PEAVCCritSec@@AEBU_GUID@@@Z DD 033711H
	DD	07016821aH
	DD	06015H
	DD	imagerel __CxxFrameHandler3
	DD	imagerel $cppxdata$??0CBaseMediaFilter@@QEAA@PEB_WPEAUIUnknown@@PEAVCCritSec@@AEBU_GUID@@@Z
xdata	ENDS
;	COMDAT CONST
CONST	SEGMENT
$cppxdata$??0CBaseMediaFilter@@QEAA@PEB_WPEAUIUnknown@@PEAVCCritSec@@AEBU_GUID@@@Z DD 019930522H
	DD	01H
	DD	imagerel $stateUnwindMap$??0CBaseMediaFilter@@QEAA@PEB_WPEAUIUnknown@@PEAVCCritSec@@AEBU_GUID@@@Z
	DD	00H
	DD	00H
	DD	03H
	DD	imagerel $ip2state$??0CBaseMediaFilter@@QEAA@PEB_WPEAUIUnknown@@PEAVCCritSec@@AEBU_GUID@@@Z
	DD	030H
	DD	00H
	DD	01H
CONST	ENDS
;	COMDAT xdata
xdata	SEGMENT
$stateUnwindMap$??0CBaseMediaFilter@@QEAA@PEB_WPEAUIUnknown@@PEAVCCritSec@@AEBU_GUID@@@Z DD 0ffffffffH
	DD	imagerel ?dtor$0@?0???0CBaseMediaFilter@@QEAA@PEB_WPEAUIUnknown@@PEAVCCritSec@@AEBU_GUID@@@Z@4HA
; Function compile flags: /Odtp /RTCsu
xdata	ENDS
;	COMDAT ??0CBaseMediaFilter@@QEAA@PEB_WPEAUIUnknown@@PEAVCCritSec@@AEBU_GUID@@@Z
_TEXT	SEGMENT
$T86975 = 32
$T86976 = 48
this$ = 96
pName$ = 104
pUnk$ = 112
pLock$ = 120
clsid$ = 128
??0CBaseMediaFilter@@QEAA@PEB_WPEAUIUnknown@@PEAVCCritSec@@AEBU_GUID@@@Z PROC ; CBaseMediaFilter::CBaseMediaFilter, COMDAT
; Line 105
$LN4:
	mov	QWORD PTR [rsp+32], r9
	mov	QWORD PTR [rsp+24], r8
	mov	QWORD PTR [rsp+16], rdx
	mov	QWORD PTR [rsp+8], rcx
	push	rsi
	push	rdi
	sub	rsp, 72					; 00000048H
	mov	rdi, rsp
	mov	ecx, 18
	mov	eax, -858993460				; ccccccccH
	rep stosd
	mov	rcx, QWORD PTR [rsp+96]
	mov	QWORD PTR $T86976[rsp], -2
	mov	r8, QWORD PTR pUnk$[rsp]
	mov	rdx, QWORD PTR pName$[rsp]
	mov	rcx, QWORD PTR this$[rsp]
	call	??0CUnknown@@QEAA@PEB_WPEAUIUnknown@@@Z	; CUnknown::CUnknown
	npad	1
	mov	rax, QWORD PTR this$[rsp]
	add	rax, 32					; 00000020H
	mov	rcx, rax
	call	??0IMediaFilter@@QEAA@XZ
	mov	rax, QWORD PTR this$[rsp]
	mov	DWORD PTR [rax+40], 0
	mov	rax, QWORD PTR this$[rsp]
	mov	QWORD PTR [rax+48], 0
	mov	rax, QWORD PTR this$[rsp]
	add	rax, 56					; 00000038H
	mov	rcx, rax
	call	??0CRefTime@@QEAA@XZ			; CRefTime::CRefTime
	lea	rax, QWORD PTR $T86975[rsp]
	mov	rdi, rax
	mov	rsi, QWORD PTR clsid$[rsp]
	mov	ecx, 16
	rep movsb
	mov	rax, QWORD PTR this$[rsp]
	lea	rcx, QWORD PTR $T86975[rsp]
	lea	rdi, QWORD PTR [rax+64]
	mov	rsi, rcx
	mov	ecx, 16
	rep movsb
	mov	rax, QWORD PTR this$[rsp]
	mov	rcx, QWORD PTR pLock$[rsp]
	mov	QWORD PTR [rax+80], rcx
; Line 106
	mov	rax, QWORD PTR this$[rsp]
	add	rsp, 72					; 00000048H
	pop	rdi
	pop	rsi
	ret	0
??0CBaseMediaFilter@@QEAA@PEB_WPEAUIUnknown@@PEAVCCritSec@@AEBU_GUID@@@Z ENDP ; CBaseMediaFilter::CBaseMediaFilter
; Function compile flags: /Odtp /RTCsu
_TEXT	ENDS
;	COMDAT text$x
text$x	SEGMENT
$T86975 = 32
$T86976 = 48
this$ = 96
pName$ = 104
pUnk$ = 112
pLock$ = 120
clsid$ = 128
?dtor$0@?0???0CBaseMediaFilter@@QEAA@PEB_WPEAUIUnknown@@PEAVCCritSec@@AEBU_GUID@@@Z@4HA PROC ; `CBaseMediaFilter::CBaseMediaFilter'::`1'::dtor$0
	mov	QWORD PTR [rsp+8], rcx
	mov	QWORD PTR [rsp+16], rdx
	push	rbp
	push	rdi
	sub	rsp, 40					; 00000028H
	mov	rbp, rdx
	mov	rcx, QWORD PTR this$[rbp]
	call	??1CUnknown@@UEAA@XZ			; CUnknown::~CUnknown
	add	rsp, 40					; 00000028H
	pop	rdi
	pop	rbp
	ret	0
?dtor$0@?0???0CBaseMediaFilter@@QEAA@PEB_WPEAUIUnknown@@PEAVCCritSec@@AEBU_GUID@@@Z@4HA ENDP ; `CBaseMediaFilter::CBaseMediaFilter'::`1'::dtor$0
text$x	ENDS
;	COMDAT pdata
; File c:\downloads\wpf mediakit - copy\src\filters\baseclasses\reftime.h
pdata	SEGMENT
$pdata$??0CRefTime@@QEAA@XZ DD imagerel $LN3
	DD	imagerel $LN3+25
	DD	imagerel $unwind$??0CRefTime@@QEAA@XZ
pdata	ENDS
;	COMDAT xdata
xdata	SEGMENT
$unwind$??0CRefTime@@QEAA@XZ DD 010601H
	DD	07006H
; Function compile flags: /Odtp /RTCsu
xdata	ENDS
;	COMDAT ??0CRefTime@@QEAA@XZ
_TEXT	SEGMENT
this$ = 16
??0CRefTime@@QEAA@XZ PROC				; CRefTime::CRefTime, COMDAT
; Line 59
$LN3:
	mov	QWORD PTR [rsp+8], rcx
	push	rdi
; Line 62
	mov	rax, QWORD PTR this$[rsp]
	mov	QWORD PTR [rax], 0
; Line 63
	mov	rax, QWORD PTR this$[rsp]
	pop	rdi
	ret	0
??0CRefTime@@QEAA@XZ ENDP				; CRefTime::CRefTime
_TEXT	ENDS
EXTRN	??1CBaseObject@@QEAA@XZ:PROC			; CBaseObject::~CBaseObject
;	COMDAT pdata
; File c:\downloads\wpf mediakit - copy\src\filters\baseclasses\combase.h
pdata	SEGMENT
$pdata$??1CUnknown@@UEAA@XZ DD imagerel $LN4
	DD	imagerel $LN4+53
	DD	imagerel $unwind$??1CUnknown@@UEAA@XZ
pdata	ENDS
;	COMDAT xdata
xdata	SEGMENT
$unwind$??1CUnknown@@UEAA@XZ DD 021e01H
	DD	07006320aH
; Function compile flags: /Odtp /RTCsu
xdata	ENDS
;	COMDAT ??1CUnknown@@UEAA@XZ
_TEXT	SEGMENT
this$ = 48
??1CUnknown@@UEAA@XZ PROC				; CUnknown::~CUnknown, COMDAT
; Line 212
$LN4:
	mov	QWORD PTR [rsp+8], rcx
	push	rdi
	sub	rsp, 32					; 00000020H
	mov	rdi, rsp
	mov	ecx, 8
	mov	eax, -858993460				; ccccccccH
	rep stosd
	mov	rcx, QWORD PTR [rsp+48]
	mov	rax, QWORD PTR this$[rsp]
	add	rax, 8
	mov	rcx, rax
	call	??1CBaseObject@@QEAA@XZ			; CBaseObject::~CBaseObject
	add	rsp, 32					; 00000020H
	pop	rdi
	ret	0
??1CUnknown@@UEAA@XZ ENDP				; CUnknown::~CUnknown
_TEXT	ENDS
PUBLIC	??0IPersist@@QEAA@XZ				; IPersist::IPersist
;	COMDAT pdata
pdata	SEGMENT
$pdata$??0IMediaFilter@@QEAA@XZ DD imagerel $LN3
	DD	imagerel $LN3+51
	DD	imagerel $unwind$??0IMediaFilter@@QEAA@XZ
pdata	ENDS
;	COMDAT xdata
xdata	SEGMENT
$unwind$??0IMediaFilter@@QEAA@XZ DD 021e01H
	DD	07006320aH
; Function compile flags: /Odtp /RTCsu
xdata	ENDS
;	COMDAT ??0IMediaFilter@@QEAA@XZ
_TEXT	SEGMENT
this$ = 48
??0IMediaFilter@@QEAA@XZ PROC				; IMediaFilter::IMediaFilter, COMDAT
$LN3:
	mov	QWORD PTR [rsp+8], rcx
	push	rdi
	sub	rsp, 32					; 00000020H
	mov	rdi, rsp
	mov	ecx, 8
	mov	eax, -858993460				; ccccccccH
	rep stosd
	mov	rcx, QWORD PTR [rsp+48]
	mov	rcx, QWORD PTR this$[rsp]
	call	??0IPersist@@QEAA@XZ
	mov	rax, QWORD PTR this$[rsp]
	add	rsp, 32					; 00000020H
	pop	rdi
	ret	0
??0IMediaFilter@@QEAA@XZ ENDP				; IMediaFilter::IMediaFilter
_TEXT	ENDS
PUBLIC	??0IUnknown@@QEAA@XZ				; IUnknown::IUnknown
;	COMDAT pdata
pdata	SEGMENT
$pdata$??0IPersist@@QEAA@XZ DD imagerel $LN3
	DD	imagerel $LN3+51
	DD	imagerel $unwind$??0IPersist@@QEAA@XZ
pdata	ENDS
;	COMDAT xdata
xdata	SEGMENT
$unwind$??0IPersist@@QEAA@XZ DD 021e01H
	DD	07006320aH
; Function compile flags: /Odtp /RTCsu
xdata	ENDS
;	COMDAT ??0IPersist@@QEAA@XZ
_TEXT	SEGMENT
this$ = 48
??0IPersist@@QEAA@XZ PROC				; IPersist::IPersist, COMDAT
$LN3:
	mov	QWORD PTR [rsp+8], rcx
	push	rdi
	sub	rsp, 32					; 00000020H
	mov	rdi, rsp
	mov	ecx, 8
	mov	eax, -858993460				; ccccccccH
	rep stosd
	mov	rcx, QWORD PTR [rsp+48]
	mov	rcx, QWORD PTR this$[rsp]
	call	??0IUnknown@@QEAA@XZ
	mov	rax, QWORD PTR this$[rsp]
	add	rsp, 32					; 00000020H
	pop	rdi
	ret	0
??0IPersist@@QEAA@XZ ENDP				; IPersist::IPersist
_TEXT	ENDS
;	COMDAT pdata
pdata	SEGMENT
$pdata$??0IUnknown@@QEAA@XZ DD imagerel $LN3
	DD	imagerel $LN3+13
	DD	imagerel $unwind$??0IUnknown@@QEAA@XZ
pdata	ENDS
;	COMDAT xdata
xdata	SEGMENT
$unwind$??0IUnknown@@QEAA@XZ DD 010601H
	DD	07006H
; Function compile flags: /Odtp /RTCsu
xdata	ENDS
;	COMDAT ??0IUnknown@@QEAA@XZ
_TEXT	SEGMENT
this$ = 16
??0IUnknown@@QEAA@XZ PROC				; IUnknown::IUnknown, COMDAT
$LN3:
	mov	QWORD PTR [rsp+8], rcx
	push	rdi
	mov	rax, QWORD PTR this$[rsp]
	pop	rdi
	ret	0
??0IUnknown@@QEAA@XZ ENDP				; IUnknown::IUnknown
_TEXT	ENDS
PUBLIC	??1CBaseMediaFilter@@UEAA@XZ			; CBaseMediaFilter::~CBaseMediaFilter
;	COMDAT pdata
; File c:\downloads\wpf mediakit - copy\src\filters\baseclasses\amfilter.cpp
pdata	SEGMENT
$pdata$??1CBaseMediaFilter@@UEAA@XZ DD imagerel $LN5
	DD	imagerel $LN5+104
	DD	imagerel $unwind$??1CBaseMediaFilter@@UEAA@XZ
pdata	ENDS
;	COMDAT pdata
pdata	SEGMENT
$pdata$?dtor$0@?0???1CBaseMediaFilter@@UEAA@XZ@4HA DD imagerel ?dtor$0@?0???1CBaseMediaFilter@@UEAA@XZ@4HA
	DD	imagerel ?dtor$0@?0???1CBaseMediaFilter@@UEAA@XZ@4HA+35
	DD	imagerel $unwind$?dtor$0@?0???1CBaseMediaFilter@@UEAA@XZ@4HA
pdata	ENDS
;	COMDAT xdata
xdata	SEGMENT
$ip2state$??1CBaseMediaFilter@@UEAA@XZ DD imagerel ??1CBaseMediaFilter@@UEAA@XZ
	DD	0ffffffffH
	DD	imagerel ??1CBaseMediaFilter@@UEAA@XZ+39
	DD	00H
	DD	imagerel ??1CBaseMediaFilter@@UEAA@XZ+88
	DD	0ffffffffH
xdata	ENDS
;	COMDAT xdata
xdata	SEGMENT
$unwind$?dtor$0@?0???1CBaseMediaFilter@@UEAA@XZ@4HA DD 031001H
	DD	0700c4210H
	DD	0500bH
xdata	ENDS
;	COMDAT xdata
xdata	SEGMENT
$unwind$??1CBaseMediaFilter@@UEAA@XZ DD 022711H
	DD	07006520aH
	DD	imagerel __CxxFrameHandler3
	DD	imagerel $cppxdata$??1CBaseMediaFilter@@UEAA@XZ
xdata	ENDS
;	COMDAT CONST
CONST	SEGMENT
$cppxdata$??1CBaseMediaFilter@@UEAA@XZ DD 019930522H
	DD	01H
	DD	imagerel $stateUnwindMap$??1CBaseMediaFilter@@UEAA@XZ
	DD	00H
	DD	00H
	DD	03H
	DD	imagerel $ip2state$??1CBaseMediaFilter@@UEAA@XZ
	DD	020H
	DD	00H
	DD	01H
CONST	ENDS
;	COMDAT xdata
xdata	SEGMENT
$stateUnwindMap$??1CBaseMediaFilter@@UEAA@XZ DD 0ffffffffH
	DD	imagerel ?dtor$0@?0???1CBaseMediaFilter@@UEAA@XZ@4HA
; Function compile flags: /Odtp /RTCsu
xdata	ENDS
;	COMDAT ??1CBaseMediaFilter@@UEAA@XZ
_TEXT	SEGMENT
$T87039 = 32
this$ = 64
??1CBaseMediaFilter@@UEAA@XZ PROC			; CBaseMediaFilter::~CBaseMediaFilter, COMDAT
; Line 112
$LN5:
	mov	QWORD PTR [rsp+8], rcx
	push	rdi
	sub	rsp, 48					; 00000030H
	mov	rdi, rsp
	mov	ecx, 12
	mov	eax, -858993460				; ccccccccH
	rep stosd
	mov	rcx, QWORD PTR [rsp+64]
	mov	QWORD PTR $T87039[rsp], -2
; Line 118
	mov	rax, QWORD PTR this$[rsp]
	cmp	QWORD PTR [rax+48], 0
	je	SHORT $LN1@CBaseMedia
; Line 119
	mov	rax, QWORD PTR this$[rsp]
	mov	rax, QWORD PTR [rax+48]
	mov	rcx, QWORD PTR this$[rsp]
	mov	rcx, QWORD PTR [rcx+48]
	mov	rax, QWORD PTR [rax]
	call	QWORD PTR [rax+16]
; Line 120
	mov	rax, QWORD PTR this$[rsp]
	mov	QWORD PTR [rax+48], 0
$LN1@CBaseMedia:
; Line 122
	mov	rcx, QWORD PTR this$[rsp]
	call	??1CUnknown@@UEAA@XZ			; CUnknown::~CUnknown
	add	rsp, 48					; 00000030H
	pop	rdi
	ret	0
??1CBaseMediaFilter@@UEAA@XZ ENDP			; CBaseMediaFilter::~CBaseMediaFilter
; Function compile flags: /Odtp /RTCsu
_TEXT	ENDS
;	COMDAT text$x
text$x	SEGMENT
$T87039 = 32
this$ = 64
?dtor$0@?0???1CBaseMediaFilter@@UEAA@XZ@4HA PROC	; `CBaseMediaFilter::~CBaseMediaFilter'::`1'::dtor$0
	mov	QWORD PTR [rsp+8], rcx
	mov	QWORD PTR [rsp+16], rdx
	push	rbp
	push	rdi
	sub	rsp, 40					; 00000028H
	mov	rbp, rdx
	mov	rcx, QWORD PTR this$[rbp]
	call	??1CUnknown@@UEAA@XZ			; CUnknown::~CUnknown
	add	rsp, 40					; 00000028H
	pop	rdi
	pop	rbp
	ret	0
?dtor$0@?0???1CBaseMediaFilter@@UEAA@XZ@4HA ENDP	; `CBaseMediaFilter::~CBaseMediaFilter'::`1'::dtor$0
text$x	ENDS
PUBLIC	==
PUBLIC	?NonDelegatingQueryInterface@CBaseMediaFilter@@UEAAJAEBU_GUID@@PEAPEAX@Z ; CBaseMediaFilter::NonDelegatingQueryInterface
EXTRN	?NonDelegatingQueryInterface@CUnknown@@UEAAJAEBU_GUID@@PEAPEAX@Z:PROC ; CUnknown::NonDelegatingQueryInterface
EXTRN	IID_IPersist:BYTE
EXTRN	GetInterface:PROC
EXTRN	IID_IMediaFilter:BYTE
;	COMDAT pdata
pdata	SEGMENT
$pdata$?NonDelegatingQueryInterface@CBaseMediaFilter@@UEAAJAEBU_GUID@@PEAPEAX@Z DD imagerel $LN11
	DD	imagerel $LN11+212
	DD	imagerel $unwind$?NonDelegatingQueryInterface@CBaseMediaFilter@@UEAAJAEBU_GUID@@PEAPEAX@Z
pdata	ENDS
;	COMDAT xdata
xdata	SEGMENT
$unwind$?NonDelegatingQueryInterface@CBaseMediaFilter@@UEAAJAEBU_GUID@@PEAPEAX@Z DD 022801H
	DD	070105214H
; Function compile flags: /Odtp /RTCsu
xdata	ENDS
;	COMDAT ?NonDelegatingQueryInterface@CBaseMediaFilter@@UEAAJAEBU_GUID@@PEAPEAX@Z
_TEXT	SEGMENT
tv77 = 32
tv94 = 40
this$ = 64
riid$ = 72
ppv$ = 80
?NonDelegatingQueryInterface@CBaseMediaFilter@@UEAAJAEBU_GUID@@PEAPEAX@Z PROC ; CBaseMediaFilter::NonDelegatingQueryInterface, COMDAT
; Line 131
$LN11:
	mov	QWORD PTR [rsp+24], r8
	mov	QWORD PTR [rsp+16], rdx
	mov	QWORD PTR [rsp+8], rcx
	push	rdi
	sub	rsp, 48					; 00000030H
	mov	rdi, rsp
	mov	ecx, 12
	mov	eax, -858993460				; ccccccccH
	rep stosd
	mov	rcx, QWORD PTR [rsp+64]
; Line 132
	lea	rdx, OFFSET FLAT:IID_IMediaFilter
	mov	rcx, QWORD PTR riid$[rsp]
	call	==
	test	eax, eax
	je	SHORT $LN4@NonDelegat
; Line 133
	cmp	QWORD PTR this$[rsp], 0
	je	SHORT $LN7@NonDelegat
	mov	rax, QWORD PTR this$[rsp]
	add	rax, 32					; 00000020H
	mov	QWORD PTR tv77[rsp], rax
	jmp	SHORT $LN8@NonDelegat
$LN7@NonDelegat:
	mov	QWORD PTR tv77[rsp], 0
$LN8@NonDelegat:
	mov	rdx, QWORD PTR ppv$[rsp]
	mov	rcx, QWORD PTR tv77[rsp]
	call	GetInterface
	jmp	SHORT $LN5@NonDelegat
	jmp	SHORT $LN3@NonDelegat
$LN4@NonDelegat:
; Line 134
	lea	rdx, OFFSET FLAT:IID_IPersist
	mov	rcx, QWORD PTR riid$[rsp]
	call	==
	test	eax, eax
	je	SHORT $LN2@NonDelegat
; Line 135
	cmp	QWORD PTR this$[rsp], 0
	je	SHORT $LN9@NonDelegat
	mov	rax, QWORD PTR this$[rsp]
	add	rax, 32					; 00000020H
	mov	QWORD PTR tv94[rsp], rax
	jmp	SHORT $LN10@NonDelegat
$LN9@NonDelegat:
	mov	QWORD PTR tv94[rsp], 0
$LN10@NonDelegat:
	mov	rdx, QWORD PTR ppv$[rsp]
	mov	rcx, QWORD PTR tv94[rsp]
	call	GetInterface
	jmp	SHORT $LN5@NonDelegat
; Line 136
	jmp	SHORT $LN1@NonDelegat
$LN2@NonDelegat:
; Line 137
	mov	r8, QWORD PTR ppv$[rsp]
	mov	rdx, QWORD PTR riid$[rsp]
	mov	rcx, QWORD PTR this$[rsp]
	call	?NonDelegatingQueryInterface@CUnknown@@UEAAJAEBU_GUID@@PEAPEAX@Z ; CUnknown::NonDelegatingQueryInterface
$LN1@NonDelegat:
$LN3@NonDelegat:
$LN5@NonDelegat:
; Line 139
	add	rsp, 48					; 00000030H
	pop	rdi
	ret	0
?NonDelegatingQueryInterface@CBaseMediaFilter@@UEAAJAEBU_GUID@@PEAPEAX@Z ENDP ; CBaseMediaFilter::NonDelegatingQueryInterface
_TEXT	ENDS
PUBLIC	IsEqualGUID
;	COMDAT pdata
; File c:\program files (x86)\microsoft sdks\windows\v7.0a\include\guiddef.h
pdata	SEGMENT
$pdata$== DD	imagerel $LN3
	DD	imagerel $LN3+56
	DD	imagerel $unwind$==
pdata	ENDS
;	COMDAT xdata
xdata	SEGMENT
$unwind$== DD	022301H
	DD	0700b320fH
; Function compile flags: /Odtp /RTCsu
xdata	ENDS
;	COMDAT ==
_TEXT	SEGMENT
guidOne$ = 48
guidOther$ = 56
==	PROC						; COMDAT
; Line 193
$LN3:
	mov	QWORD PTR [rsp+16], rdx
	mov	QWORD PTR [rsp+8], rcx
	push	rdi
	sub	rsp, 32					; 00000020H
	mov	rdi, rsp
	mov	ecx, 8
	mov	eax, -858993460				; ccccccccH
	rep stosd
	mov	rcx, QWORD PTR [rsp+48]
; Line 194
	mov	rdx, QWORD PTR guidOther$[rsp]
	mov	rcx, QWORD PTR guidOne$[rsp]
	call	IsEqualGUID
; Line 195
	add	rsp, 32					; 00000020H
	pop	rdi
	ret	0
==	ENDP
_TEXT	ENDS
EXTRN	memcmp:PROC
;	COMDAT pdata
pdata	SEGMENT
$pdata$IsEqualGUID DD imagerel $LN5
	DD	imagerel $LN5+88
	DD	imagerel $unwind$IsEqualGUID
pdata	ENDS
;	COMDAT xdata
xdata	SEGMENT
$unwind$IsEqualGUID DD 022301H
	DD	0700b520fH
; Function compile flags: /Odtp /RTCsu
xdata	ENDS
;	COMDAT IsEqualGUID
_TEXT	SEGMENT
tv69 = 32
rguid1$ = 64
rguid2$ = 72
IsEqualGUID PROC					; COMDAT
; Line 160
$LN5:
	mov	QWORD PTR [rsp+16], rdx
	mov	QWORD PTR [rsp+8], rcx
	push	rdi
	sub	rsp, 48					; 00000030H
	mov	rdi, rsp
	mov	ecx, 12
	mov	eax, -858993460				; ccccccccH
	rep stosd
	mov	rcx, QWORD PTR [rsp+64]
; Line 161
	mov	r8d, 16
	mov	rdx, QWORD PTR rguid2$[rsp]
	mov	rcx, QWORD PTR rguid1$[rsp]
	call	memcmp
	test	eax, eax
	jne	SHORT $LN3@IsEqualGUI
	mov	DWORD PTR tv69[rsp], 1
	jmp	SHORT $LN4@IsEqualGUI
$LN3@IsEqualGUI:
	mov	DWORD PTR tv69[rsp], 0
$LN4@IsEqualGUI:
	mov	eax, DWORD PTR tv69[rsp]
; Line 162
	add	rsp, 48					; 00000030H
	pop	rdi
	ret	0
IsEqualGUID ENDP
_TEXT	ENDS
PUBLIC	$T87084
PUBLIC	?GetClassID@CBaseMediaFilter@@UEAAJPEAU_GUID@@@Z ; CBaseMediaFilter::GetClassID
EXTRN	__imp_IsBadWritePtr:PROC
EXTRN	?DbgBreakPoint@@YAXPEB_W0H@Z:PROC		; DbgBreakPoint
EXTRN	__imp_IsBadReadPtr:PROC
;	COMDAT pdata
; File c:\downloads\wpf mediakit - copy\src\filters\baseclasses\amfilter.cpp
pdata	SEGMENT
$pdata$?GetClassID@CBaseMediaFilter@@UEAAJPEAU_GUID@@@Z DD imagerel $LN6
	DD	imagerel $LN6+199
	DD	imagerel $unwind$?GetClassID@CBaseMediaFilter@@UEAAJPEAU_GUID@@@Z
pdata	ENDS
;	COMDAT xdata
xdata	SEGMENT
$unwind$?GetClassID@CBaseMediaFilter@@UEAAJPEAU_GUID@@@Z DD 032401H
	DD	0700c6210H
	DD	0600bH
; Function compile flags: /Odtp /RTCsu
xdata	ENDS
;	COMDAT ?GetClassID@CBaseMediaFilter@@UEAAJPEAU_GUID@@@Z
_TEXT	SEGMENT
$T87084 = 32
this$ = 80
pClsID$ = 88
?GetClassID@CBaseMediaFilter@@UEAAJPEAU_GUID@@@Z PROC	; CBaseMediaFilter::GetClassID, COMDAT
; Line 144
$LN6:
	mov	QWORD PTR [rsp+16], rdx
	mov	QWORD PTR [rsp+8], rcx
	push	rsi
	push	rdi
	sub	rsp, 56					; 00000038H
	mov	rdi, rsp
	mov	ecx, 14
	mov	eax, -858993460				; ccccccccH
	rep stosd
	mov	rcx, QWORD PTR [rsp+80]
; Line 145
	cmp	QWORD PTR pClsID$[rsp], 0
	jne	SHORT $LN3@GetClassID
	mov	eax, -2147467261			; ffffffff80004003H
	jmp	$LN4@GetClassID
$LN3@GetClassID:
; Line 146
	mov	edx, 16
	mov	rcx, QWORD PTR pClsID$[rsp]
	call	QWORD PTR __imp_IsBadReadPtr
	cmp	eax, 1
	jne	SHORT $LN2@GetClassID
	mov	r8d, 146				; 00000092H
	lea	rdx, OFFSET FLAT:$SG82288
	lea	rcx, OFFSET FLAT:$SG82289
	call	?DbgBreakPoint@@YAXPEB_W0H@Z		; DbgBreakPoint
$LN2@GetClassID:
	mov	edx, 16
	mov	rcx, QWORD PTR pClsID$[rsp]
	call	QWORD PTR __imp_IsBadWritePtr
	cmp	eax, 1
	jne	SHORT $LN1@GetClassID
	mov	r8d, 146				; 00000092H
	lea	rdx, OFFSET FLAT:$SG82293
	lea	rcx, OFFSET FLAT:$SG82294
	call	?DbgBreakPoint@@YAXPEB_W0H@Z		; DbgBreakPoint
$LN1@GetClassID:
; Line 147
	lea	rax, QWORD PTR $T87084[rsp]
	mov	rcx, QWORD PTR this$[rsp]
	mov	rdi, rax
	lea	rsi, QWORD PTR [rcx+32]
	mov	ecx, 16
	rep movsb
	lea	rax, QWORD PTR $T87084[rsp]
	mov	rdi, QWORD PTR pClsID$[rsp]
	mov	rsi, rax
	mov	ecx, 16
	rep movsb
; Line 148
	xor	eax, eax
$LN4@GetClassID:
; Line 149
	add	rsp, 56					; 00000038H
	pop	rdi
	pop	rsi
	ret	0
?GetClassID@CBaseMediaFilter@@UEAAJPEAU_GUID@@@Z ENDP	; CBaseMediaFilter::GetClassID
_TEXT	ENDS
PUBLIC	?GetState@CBaseMediaFilter@@UEAAJKPEAW4_FilterState@@@Z ; CBaseMediaFilter::GetState
;	COMDAT pdata
pdata	SEGMENT
$pdata$?GetState@CBaseMediaFilter@@UEAAJKPEAW4_FilterState@@@Z DD imagerel $LN6
	DD	imagerel $LN6+169
	DD	imagerel $unwind$?GetState@CBaseMediaFilter@@UEAAJKPEAW4_FilterState@@@Z
pdata	ENDS
;	COMDAT xdata
xdata	SEGMENT
$unwind$?GetState@CBaseMediaFilter@@UEAAJKPEAW4_FilterState@@@Z DD 022701H
	DD	0700f3213H
; Function compile flags: /Odtp /RTCsu
xdata	ENDS
;	COMDAT ?GetState@CBaseMediaFilter@@UEAAJKPEAW4_FilterState@@@Z
_TEXT	SEGMENT
this$ = 48
dwMSecs$ = 56
State$ = 64
?GetState@CBaseMediaFilter@@UEAAJKPEAW4_FilterState@@@Z PROC ; CBaseMediaFilter::GetState, COMDAT
; Line 155
$LN6:
	mov	QWORD PTR [rsp+24], r8
	mov	DWORD PTR [rsp+16], edx
	mov	QWORD PTR [rsp+8], rcx
	push	rdi
	sub	rsp, 32					; 00000020H
	mov	rdi, rsp
	mov	ecx, 8
	mov	eax, -858993460				; ccccccccH
	rep stosd
	mov	rcx, QWORD PTR [rsp+48]
; Line 157
	cmp	QWORD PTR State$[rsp], 0
	jne	SHORT $LN3@GetState
	mov	eax, -2147467261			; ffffffff80004003H
	jmp	SHORT $LN4@GetState
$LN3@GetState:
; Line 158
	mov	edx, 4
	mov	rcx, QWORD PTR State$[rsp]
	call	QWORD PTR __imp_IsBadReadPtr
	cmp	eax, 1
	jne	SHORT $LN2@GetState
	mov	r8d, 158				; 0000009eH
	lea	rdx, OFFSET FLAT:$SG82305
	lea	rcx, OFFSET FLAT:$SG82306
	call	?DbgBreakPoint@@YAXPEB_W0H@Z		; DbgBreakPoint
$LN2@GetState:
	mov	edx, 4
	mov	rcx, QWORD PTR State$[rsp]
	call	QWORD PTR __imp_IsBadWritePtr
	cmp	eax, 1
	jne	SHORT $LN1@GetState
	mov	r8d, 158				; 0000009eH
	lea	rdx, OFFSET FLAT:$SG82310
	lea	rcx, OFFSET FLAT:$SG82311
	call	?DbgBreakPoint@@YAXPEB_W0H@Z		; DbgBreakPoint
$LN1@GetState:
; Line 160
	mov	rax, QWORD PTR State$[rsp]
	mov	rcx, QWORD PTR this$[rsp]
	mov	ecx, DWORD PTR [rcx+8]
	mov	DWORD PTR [rax], ecx
; Line 161
	xor	eax, eax
$LN4@GetState:
; Line 162
	add	rsp, 32					; 00000020H
	pop	rdi
	ret	0
?GetState@CBaseMediaFilter@@UEAAJKPEAW4_FilterState@@@Z ENDP ; CBaseMediaFilter::GetState
_TEXT	ENDS
PUBLIC	??1CAutoLock@@QEAA@XZ				; CAutoLock::~CAutoLock
PUBLIC	??0CAutoLock@@QEAA@PEAVCCritSec@@@Z		; CAutoLock::CAutoLock
PUBLIC	?SetSyncSource@CBaseMediaFilter@@UEAAJPEAUIReferenceClock@@@Z ; CBaseMediaFilter::SetSyncSource
;	COMDAT pdata
pdata	SEGMENT
$pdata$?SetSyncSource@CBaseMediaFilter@@UEAAJPEAUIReferenceClock@@@Z DD imagerel $LN6
	DD	imagerel $LN6+185
	DD	imagerel $unwind$?SetSyncSource@CBaseMediaFilter@@UEAAJPEAUIReferenceClock@@@Z
pdata	ENDS
;	COMDAT pdata
pdata	SEGMENT
$pdata$?dtor$0@?0??SetSyncSource@CBaseMediaFilter@@UEAAJPEAUIReferenceClock@@@Z@4HA DD imagerel ?dtor$0@?0??SetSyncSource@CBaseMediaFilter@@UEAAJPEAUIReferenceClock@@@Z@4HA
	DD	imagerel ?dtor$0@?0??SetSyncSource@CBaseMediaFilter@@UEAAJPEAUIReferenceClock@@@Z@4HA+35
	DD	imagerel $unwind$?dtor$0@?0??SetSyncSource@CBaseMediaFilter@@UEAAJPEAUIReferenceClock@@@Z@4HA
pdata	ENDS
;	COMDAT xdata
xdata	SEGMENT
$ip2state$?SetSyncSource@CBaseMediaFilter@@UEAAJPEAUIReferenceClock@@@Z DD imagerel ?SetSyncSource@CBaseMediaFilter@@UEAAJPEAUIReferenceClock@@@Z
	DD	0ffffffffH
	DD	imagerel ?SetSyncSource@CBaseMediaFilter@@UEAAJPEAUIReferenceClock@@@Z+64
	DD	00H
	DD	imagerel ?SetSyncSource@CBaseMediaFilter@@UEAAJPEAUIReferenceClock@@@Z+146
	DD	0ffffffffH
xdata	ENDS
;	COMDAT xdata
xdata	SEGMENT
$unwind$?dtor$0@?0??SetSyncSource@CBaseMediaFilter@@UEAAJPEAUIReferenceClock@@@Z@4HA DD 031001H
	DD	0700c4210H
	DD	0500bH
xdata	ENDS
;	COMDAT xdata
xdata	SEGMENT
$unwind$?SetSyncSource@CBaseMediaFilter@@UEAAJPEAUIReferenceClock@@@Z DD 022c11H
	DD	0700b720fH
	DD	imagerel __CxxFrameHandler3
	DD	imagerel $cppxdata$?SetSyncSource@CBaseMediaFilter@@UEAAJPEAUIReferenceClock@@@Z
xdata	ENDS
;	COMDAT xdata
xdata	SEGMENT
$stateUnwindMap$?SetSyncSource@CBaseMediaFilter@@UEAAJPEAUIReferenceClock@@@Z DD 0ffffffffH
	DD	imagerel ?dtor$0@?0??SetSyncSource@CBaseMediaFilter@@UEAAJPEAUIReferenceClock@@@Z@4HA
xdata	ENDS
;	COMDAT CONST
CONST	SEGMENT
?SetSyncSource@CBaseMediaFilter@@UEAAJPEAUIReferenceClock@@@Z$rtcName$0 DB 063H ; CBaseMediaFilter::SetSyncSource
	DB	04fH
	DB	062H
	DB	06aH
	DB	065H
	DB	063H
	DB	074H
	DB	04cH
	DB	06fH
	DB	063H
	DB	06bH
	DB	00H
	ORG $+4
?SetSyncSource@CBaseMediaFilter@@UEAAJPEAUIReferenceClock@@@Z$rtcVarDesc DD 028H ; CBaseMediaFilter::SetSyncSource
	DD	08H
	DQ	FLAT:?SetSyncSource@CBaseMediaFilter@@UEAAJPEAUIReferenceClock@@@Z$rtcName$0
	ORG $+48
?SetSyncSource@CBaseMediaFilter@@UEAAJPEAUIReferenceClock@@@Z$rtcFrameData DD 01H ; CBaseMediaFilter::SetSyncSource
	DD	00H
	DQ	FLAT:?SetSyncSource@CBaseMediaFilter@@UEAAJPEAUIReferenceClock@@@Z$rtcVarDesc
$cppxdata$?SetSyncSource@CBaseMediaFilter@@UEAAJPEAUIReferenceClock@@@Z DD 019930522H
	DD	01H
	DD	imagerel $stateUnwindMap$?SetSyncSource@CBaseMediaFilter@@UEAAJPEAUIReferenceClock@@@Z
	DD	00H
	DD	00H
	DD	03H
	DD	imagerel $ip2state$?SetSyncSource@CBaseMediaFilter@@UEAAJPEAUIReferenceClock@@@Z
	DD	038H
	DD	00H
	DD	01H
; Function compile flags: /Odtp /RTCsu
CONST	ENDS
;	COMDAT ?SetSyncSource@CBaseMediaFilter@@UEAAJPEAUIReferenceClock@@@Z
_TEXT	SEGMENT
cObjectLock$ = 40
$T87099 = 52
$T87105 = 56
this$ = 80
pClock$ = 88
?SetSyncSource@CBaseMediaFilter@@UEAAJPEAUIReferenceClock@@@Z PROC ; CBaseMediaFilter::SetSyncSource, COMDAT
; Line 169
$LN6:
	mov	QWORD PTR [rsp+16], rdx
	mov	QWORD PTR [rsp+8], rcx
	push	rdi
	sub	rsp, 64					; 00000040H
	mov	rdi, rsp
	mov	ecx, 16
	mov	eax, -858993460				; ccccccccH
	rep stosd
	mov	rcx, QWORD PTR [rsp+80]
	mov	QWORD PTR $T87105[rsp], -2
; Line 170
	mov	rax, QWORD PTR this$[rsp]
	mov	rdx, QWORD PTR [rax+48]
	lea	rcx, QWORD PTR cObjectLock$[rsp]
	call	??0CAutoLock@@QEAA@PEAVCCritSec@@@Z	; CAutoLock::CAutoLock
	npad	1
; Line 173
	cmp	QWORD PTR pClock$[rsp], 0
	je	SHORT $LN2@SetSyncSou
; Line 174
	mov	rax, QWORD PTR pClock$[rsp]
	mov	rax, QWORD PTR [rax]
	mov	rcx, QWORD PTR pClock$[rsp]
	call	QWORD PTR [rax+8]
$LN2@SetSyncSou:
; Line 178
	mov	rax, QWORD PTR this$[rsp]
	cmp	QWORD PTR [rax+16], 0
	je	SHORT $LN1@SetSyncSou
; Line 179
	mov	rax, QWORD PTR this$[rsp]
	mov	rax, QWORD PTR [rax+16]
	mov	rcx, QWORD PTR this$[rsp]
	mov	rcx, QWORD PTR [rcx+16]
	mov	rax, QWORD PTR [rax]
	call	QWORD PTR [rax+16]
$LN1@SetSyncSou:
; Line 184
	mov	rax, QWORD PTR this$[rsp]
	mov	rcx, QWORD PTR pClock$[rsp]
	mov	QWORD PTR [rax+16], rcx
; Line 186
	mov	DWORD PTR $T87099[rsp], 0
	lea	rcx, QWORD PTR cObjectLock$[rsp]
	call	??1CAutoLock@@QEAA@XZ			; CAutoLock::~CAutoLock
	mov	eax, DWORD PTR $T87099[rsp]
; Line 187
	mov	edi, eax
	mov	rcx, rsp
	lea	rdx, OFFSET FLAT:?SetSyncSource@CBaseMediaFilter@@UEAAJPEAUIReferenceClock@@@Z$rtcFrameData
	call	_RTC_CheckStackVars
	mov	eax, edi
	add	rsp, 64					; 00000040H
	pop	rdi
	ret	0
?SetSyncSource@CBaseMediaFilter@@UEAAJPEAUIReferenceClock@@@Z ENDP ; CBaseMediaFilter::SetSyncSource
; Function compile flags: /Odtp /RTCsu
_TEXT	ENDS
;	COMDAT text$x
text$x	SEGMENT
cObjectLock$ = 40
$T87099 = 52
$T87105 = 56
this$ = 80
pClock$ = 88
?dtor$0@?0??SetSyncSource@CBaseMediaFilter@@UEAAJPEAUIReferenceClock@@@Z@4HA PROC ; `CBaseMediaFilter::SetSyncSource'::`1'::dtor$0
	mov	QWORD PTR [rsp+8], rcx
	mov	QWORD PTR [rsp+16], rdx
	push	rbp
	push	rdi
	sub	rsp, 40					; 00000028H
	mov	rbp, rdx
	lea	rcx, QWORD PTR cObjectLock$[rbp]
	call	??1CAutoLock@@QEAA@XZ			; CAutoLock::~CAutoLock
	add	rsp, 40					; 00000028H
	pop	rdi
	pop	rbp
	ret	0
?dtor$0@?0??SetSyncSource@CBaseMediaFilter@@UEAAJPEAUIReferenceClock@@@Z@4HA ENDP ; `CBaseMediaFilter::SetSyncSource'::`1'::dtor$0
text$x	ENDS
EXTRN	?Lock@CCritSec@@QEAAXXZ:PROC			; CCritSec::Lock
;	COMDAT pdata
; File c:\downloads\wpf mediakit - copy\src\filters\baseclasses\wxutil.h
pdata	SEGMENT
$pdata$??0CAutoLock@@QEAA@PEAVCCritSec@@@Z DD imagerel $LN3
	DD	imagerel $LN3+72
	DD	imagerel $unwind$??0CAutoLock@@QEAA@PEAVCCritSec@@@Z
pdata	ENDS
;	COMDAT xdata
xdata	SEGMENT
$unwind$??0CAutoLock@@QEAA@PEAVCCritSec@@@Z DD 022301H
	DD	0700b320fH
; Function compile flags: /Odtp /RTCsu
xdata	ENDS
;	COMDAT ??0CAutoLock@@QEAA@PEAVCCritSec@@@Z
_TEXT	SEGMENT
this$ = 48
plock$ = 56
??0CAutoLock@@QEAA@PEAVCCritSec@@@Z PROC		; CAutoLock::CAutoLock, COMDAT
; Line 94
$LN3:
	mov	QWORD PTR [rsp+16], rdx
	mov	QWORD PTR [rsp+8], rcx
	push	rdi
	sub	rsp, 32					; 00000020H
	mov	rdi, rsp
	mov	ecx, 8
	mov	eax, -858993460				; ccccccccH
	rep stosd
	mov	rcx, QWORD PTR [rsp+48]
; Line 96
	mov	rax, QWORD PTR this$[rsp]
	mov	rcx, QWORD PTR plock$[rsp]
	mov	QWORD PTR [rax], rcx
; Line 97
	mov	rax, QWORD PTR this$[rsp]
	mov	rcx, QWORD PTR [rax]
	call	?Lock@CCritSec@@QEAAXXZ			; CCritSec::Lock
; Line 98
	mov	rax, QWORD PTR this$[rsp]
	add	rsp, 32					; 00000020H
	pop	rdi
	ret	0
??0CAutoLock@@QEAA@PEAVCCritSec@@@Z ENDP		; CAutoLock::CAutoLock
_TEXT	ENDS
EXTRN	?Unlock@CCritSec@@QEAAXXZ:PROC			; CCritSec::Unlock
;	COMDAT pdata
pdata	SEGMENT
$pdata$??1CAutoLock@@QEAA@XZ DD imagerel $LN3
	DD	imagerel $LN3+49
	DD	imagerel $unwind$??1CAutoLock@@QEAA@XZ
pdata	ENDS
;	COMDAT xdata
xdata	SEGMENT
$unwind$??1CAutoLock@@QEAA@XZ DD 021e01H
	DD	07006320aH
; Function compile flags: /Odtp /RTCsu
xdata	ENDS
;	COMDAT ??1CAutoLock@@QEAA@XZ
_TEXT	SEGMENT
this$ = 48
??1CAutoLock@@QEAA@XZ PROC				; CAutoLock::~CAutoLock, COMDAT
; Line 100
$LN3:
	mov	QWORD PTR [rsp+8], rcx
	push	rdi
	sub	rsp, 32					; 00000020H
	mov	rdi, rsp
	mov	ecx, 8
	mov	eax, -858993460				; ccccccccH
	rep stosd
	mov	rcx, QWORD PTR [rsp+48]
; Line 101
	mov	rax, QWORD PTR this$[rsp]
	mov	rcx, QWORD PTR [rax]
	call	?Unlock@CCritSec@@QEAAXXZ		; CCritSec::Unlock
; Line 102
	add	rsp, 32					; 00000020H
	pop	rdi
	ret	0
??1CAutoLock@@QEAA@XZ ENDP				; CAutoLock::~CAutoLock
_TEXT	ENDS
PUBLIC	?GetSyncSource@CBaseMediaFilter@@UEAAJPEAPEAUIReferenceClock@@@Z ; CBaseMediaFilter::GetSyncSource
;	COMDAT pdata
; File c:\downloads\wpf mediakit - copy\src\filters\baseclasses\amfilter.cpp
pdata	SEGMENT
$pdata$?GetSyncSource@CBaseMediaFilter@@UEAAJPEAPEAUIReferenceClock@@@Z DD imagerel $LN8
	DD	imagerel $LN8+276
	DD	imagerel $unwind$?GetSyncSource@CBaseMediaFilter@@UEAAJPEAPEAUIReferenceClock@@@Z
pdata	ENDS
;	COMDAT pdata
pdata	SEGMENT
$pdata$?dtor$0@?0??GetSyncSource@CBaseMediaFilter@@UEAAJPEAPEAUIReferenceClock@@@Z@4HA DD imagerel ?dtor$0@?0??GetSyncSource@CBaseMediaFilter@@UEAAJPEAPEAUIReferenceClock@@@Z@4HA
	DD	imagerel ?dtor$0@?0??GetSyncSource@CBaseMediaFilter@@UEAAJPEAPEAUIReferenceClock@@@Z@4HA+35
	DD	imagerel $unwind$?dtor$0@?0??GetSyncSource@CBaseMediaFilter@@UEAAJPEAPEAUIReferenceClock@@@Z@4HA
pdata	ENDS
;	COMDAT xdata
xdata	SEGMENT
$ip2state$?GetSyncSource@CBaseMediaFilter@@UEAAJPEAPEAUIReferenceClock@@@Z DD imagerel ?GetSyncSource@CBaseMediaFilter@@UEAAJPEAPEAUIReferenceClock@@@Z
	DD	0ffffffffH
	DD	imagerel ?GetSyncSource@CBaseMediaFilter@@UEAAJPEAPEAUIReferenceClock@@@Z+174
	DD	00H
	DD	imagerel ?GetSyncSource@CBaseMediaFilter@@UEAAJPEAPEAUIReferenceClock@@@Z+235
	DD	0ffffffffH
xdata	ENDS
;	COMDAT xdata
xdata	SEGMENT
$unwind$?dtor$0@?0??GetSyncSource@CBaseMediaFilter@@UEAAJPEAPEAUIReferenceClock@@@Z@4HA DD 031001H
	DD	0700c4210H
	DD	0500bH
xdata	ENDS
;	COMDAT xdata
xdata	SEGMENT
$unwind$?GetSyncSource@CBaseMediaFilter@@UEAAJPEAPEAUIReferenceClock@@@Z DD 022c11H
	DD	0700b720fH
	DD	imagerel __CxxFrameHandler3
	DD	imagerel $cppxdata$?GetSyncSource@CBaseMediaFilter@@UEAAJPEAPEAUIReferenceClock@@@Z
xdata	ENDS
;	COMDAT xdata
xdata	SEGMENT
$stateUnwindMap$?GetSyncSource@CBaseMediaFilter@@UEAAJPEAPEAUIReferenceClock@@@Z DD 0ffffffffH
	DD	imagerel ?dtor$0@?0??GetSyncSource@CBaseMediaFilter@@UEAAJPEAPEAUIReferenceClock@@@Z@4HA
xdata	ENDS
;	COMDAT CONST
CONST	SEGMENT
?GetSyncSource@CBaseMediaFilter@@UEAAJPEAPEAUIReferenceClock@@@Z$rtcName$0 DB 063H ; CBaseMediaFilter::GetSyncSource
	DB	04fH
	DB	062H
	DB	06aH
	DB	065H
	DB	063H
	DB	074H
	DB	04cH
	DB	06fH
	DB	063H
	DB	06bH
	DB	00H
	ORG $+4
?GetSyncSource@CBaseMediaFilter@@UEAAJPEAPEAUIReferenceClock@@@Z$rtcVarDesc DD 028H ; CBaseMediaFilter::GetSyncSource
	DD	08H
	DQ	FLAT:?GetSyncSource@CBaseMediaFilter@@UEAAJPEAPEAUIReferenceClock@@@Z$rtcName$0
	ORG $+48
?GetSyncSource@CBaseMediaFilter@@UEAAJPEAPEAUIReferenceClock@@@Z$rtcFrameData DD 01H ; CBaseMediaFilter::GetSyncSource
	DD	00H
	DQ	FLAT:?GetSyncSource@CBaseMediaFilter@@UEAAJPEAPEAUIReferenceClock@@@Z$rtcVarDesc
$cppxdata$?GetSyncSource@CBaseMediaFilter@@UEAAJPEAPEAUIReferenceClock@@@Z DD 019930522H
	DD	01H
	DD	imagerel $stateUnwindMap$?GetSyncSource@CBaseMediaFilter@@UEAAJPEAPEAUIReferenceClock@@@Z
	DD	00H
	DD	00H
	DD	03H
	DD	imagerel $ip2state$?GetSyncSource@CBaseMediaFilter@@UEAAJPEAPEAUIReferenceClock@@@Z
	DD	038H
	DD	00H
	DD	01H
; Function compile flags: /Odtp /RTCsu
CONST	ENDS
;	COMDAT ?GetSyncSource@CBaseMediaFilter@@UEAAJPEAPEAUIReferenceClock@@@Z
_TEXT	SEGMENT
cObjectLock$ = 40
$T87140 = 52
$T87146 = 56
this$ = 80
pClock$ = 88
?GetSyncSource@CBaseMediaFilter@@UEAAJPEAPEAUIReferenceClock@@@Z PROC ; CBaseMediaFilter::GetSyncSource, COMDAT
; Line 192
$LN8:
	mov	QWORD PTR [rsp+16], rdx
	mov	QWORD PTR [rsp+8], rcx
	push	rdi
	sub	rsp, 64					; 00000040H
	mov	rdi, rsp
	mov	ecx, 16
	mov	eax, -858993460				; ccccccccH
	rep stosd
	mov	rcx, QWORD PTR [rsp+80]
	mov	QWORD PTR $T87146[rsp], -2
; Line 193
	cmp	QWORD PTR pClock$[rsp], 0
	jne	SHORT $LN4@GetSyncSou
	mov	eax, -2147467261			; ffffffff80004003H
	jmp	$LN5@GetSyncSou
$LN4@GetSyncSou:
; Line 194
	mov	edx, 8
	mov	rcx, QWORD PTR pClock$[rsp]
	call	QWORD PTR __imp_IsBadReadPtr
	cmp	eax, 1
	jne	SHORT $LN3@GetSyncSou
	mov	r8d, 194				; 000000c2H
	lea	rdx, OFFSET FLAT:$SG82330
	lea	rcx, OFFSET FLAT:$SG82331
	call	?DbgBreakPoint@@YAXPEB_W0H@Z		; DbgBreakPoint
$LN3@GetSyncSou:
	mov	edx, 8
	mov	rcx, QWORD PTR pClock$[rsp]
	call	QWORD PTR __imp_IsBadWritePtr
	cmp	eax, 1
	jne	SHORT $LN2@GetSyncSou
	mov	r8d, 194				; 000000c2H
	lea	rdx, OFFSET FLAT:$SG82335
	lea	rcx, OFFSET FLAT:$SG82336
	call	?DbgBreakPoint@@YAXPEB_W0H@Z		; DbgBreakPoint
$LN2@GetSyncSou:
; Line 195
	mov	rax, QWORD PTR this$[rsp]
	mov	rdx, QWORD PTR [rax+48]
	lea	rcx, QWORD PTR cObjectLock$[rsp]
	call	??0CAutoLock@@QEAA@PEAVCCritSec@@@Z	; CAutoLock::CAutoLock
	npad	1
; Line 197
	mov	rax, QWORD PTR this$[rsp]
	cmp	QWORD PTR [rax+16], 0
	je	SHORT $LN1@GetSyncSou
; Line 199
	mov	rax, QWORD PTR this$[rsp]
	mov	rax, QWORD PTR [rax+16]
	mov	rcx, QWORD PTR this$[rsp]
	mov	rcx, QWORD PTR [rcx+16]
	mov	rax, QWORD PTR [rax]
	call	QWORD PTR [rax+8]
$LN1@GetSyncSou:
; Line 201
	mov	rax, QWORD PTR pClock$[rsp]
	mov	rcx, QWORD PTR this$[rsp]
	mov	rcx, QWORD PTR [rcx+16]
	mov	QWORD PTR [rax], rcx
; Line 202
	mov	DWORD PTR $T87140[rsp], 0
	lea	rcx, QWORD PTR cObjectLock$[rsp]
	call	??1CAutoLock@@QEAA@XZ			; CAutoLock::~CAutoLock
	mov	eax, DWORD PTR $T87140[rsp]
$LN5@GetSyncSou:
; Line 203
	mov	rdi, rax
	mov	rcx, rsp
	lea	rdx, OFFSET FLAT:?GetSyncSource@CBaseMediaFilter@@UEAAJPEAPEAUIReferenceClock@@@Z$rtcFrameData
	call	_RTC_CheckStackVars
	mov	rax, rdi
	add	rsp, 64					; 00000040H
	pop	rdi
	ret	0
?GetSyncSource@CBaseMediaFilter@@UEAAJPEAPEAUIReferenceClock@@@Z ENDP ; CBaseMediaFilter::GetSyncSource
; Function compile flags: /Odtp /RTCsu
_TEXT	ENDS
;	COMDAT text$x
text$x	SEGMENT
cObjectLock$ = 40
$T87140 = 52
$T87146 = 56
this$ = 80
pClock$ = 88
?dtor$0@?0??GetSyncSource@CBaseMediaFilter@@UEAAJPEAPEAUIReferenceClock@@@Z@4HA PROC ; `CBaseMediaFilter::GetSyncSource'::`1'::dtor$0
	mov	QWORD PTR [rsp+8], rcx
	mov	QWORD PTR [rsp+16], rdx
	push	rbp
	push	rdi
	sub	rsp, 40					; 00000028H
	mov	rbp, rdx
	lea	rcx, QWORD PTR cObjectLock$[rbp]
	call	??1CAutoLock@@QEAA@XZ			; CAutoLock::~CAutoLock
	add	rsp, 40					; 00000028H
	pop	rdi
	pop	rbp
	ret	0
?dtor$0@?0??GetSyncSource@CBaseMediaFilter@@UEAAJPEAPEAUIReferenceClock@@@Z@4HA ENDP ; `CBaseMediaFilter::GetSyncSource'::`1'::dtor$0
text$x	ENDS
PUBLIC	?Stop@CBaseMediaFilter@@UEAAJXZ			; CBaseMediaFilter::Stop
;	COMDAT pdata
pdata	SEGMENT
$pdata$?Stop@CBaseMediaFilter@@UEAAJXZ DD imagerel $LN4
	DD	imagerel $LN4+108
	DD	imagerel $unwind$?Stop@CBaseMediaFilter@@UEAAJXZ
pdata	ENDS
;	COMDAT xdata
xdata	SEGMENT
$unwind$?Stop@CBaseMediaFilter@@UEAAJXZ DD 021e01H
	DD	07006720aH
xdata	ENDS
;	COMDAT CONST
CONST	SEGMENT
?Stop@CBaseMediaFilter@@UEAAJXZ$rtcName$0 DB 063H	; CBaseMediaFilter::Stop
	DB	04fH
	DB	062H
	DB	06aH
	DB	065H
	DB	063H
	DB	074H
	DB	04cH
	DB	06fH
	DB	063H
	DB	06bH
	DB	00H
	ORG $+4
?Stop@CBaseMediaFilter@@UEAAJXZ$rtcVarDesc DD 028H	; CBaseMediaFilter::Stop
	DD	08H
	DQ	FLAT:?Stop@CBaseMediaFilter@@UEAAJXZ$rtcName$0
	ORG $+48
?Stop@CBaseMediaFilter@@UEAAJXZ$rtcFrameData DD 01H	; CBaseMediaFilter::Stop
	DD	00H
	DQ	FLAT:?Stop@CBaseMediaFilter@@UEAAJXZ$rtcVarDesc
; Function compile flags: /Odtp /RTCsu
CONST	ENDS
;	COMDAT ?Stop@CBaseMediaFilter@@UEAAJXZ
_TEXT	SEGMENT
cObjectLock$ = 40
$T87167 = 52
this$ = 80
?Stop@CBaseMediaFilter@@UEAAJXZ PROC			; CBaseMediaFilter::Stop, COMDAT
; Line 210
$LN4:
	mov	QWORD PTR [rsp+8], rcx
	push	rdi
	sub	rsp, 64					; 00000040H
	mov	rdi, rsp
	mov	ecx, 16
	mov	eax, -858993460				; ccccccccH
	rep stosd
	mov	rcx, QWORD PTR [rsp+80]
; Line 211
	mov	rax, QWORD PTR this$[rsp]
	mov	rdx, QWORD PTR [rax+48]
	lea	rcx, QWORD PTR cObjectLock$[rsp]
	call	??0CAutoLock@@QEAA@PEAVCCritSec@@@Z	; CAutoLock::CAutoLock
; Line 213
	mov	rax, QWORD PTR this$[rsp]
	mov	DWORD PTR [rax+8], 0
; Line 214
	mov	DWORD PTR $T87167[rsp], 0
	lea	rcx, QWORD PTR cObjectLock$[rsp]
	call	??1CAutoLock@@QEAA@XZ			; CAutoLock::~CAutoLock
	mov	eax, DWORD PTR $T87167[rsp]
; Line 215
	mov	edi, eax
	mov	rcx, rsp
	lea	rdx, OFFSET FLAT:?Stop@CBaseMediaFilter@@UEAAJXZ$rtcFrameData
	call	_RTC_CheckStackVars
	mov	eax, edi
	add	rsp, 64					; 00000040H
	pop	rdi
	ret	0
?Stop@CBaseMediaFilter@@UEAAJXZ ENDP			; CBaseMediaFilter::Stop
_TEXT	ENDS
PUBLIC	?Pause@CBaseMediaFilter@@UEAAJXZ		; CBaseMediaFilter::Pause
;	COMDAT pdata
pdata	SEGMENT
$pdata$?Pause@CBaseMediaFilter@@UEAAJXZ DD imagerel $LN4
	DD	imagerel $LN4+108
	DD	imagerel $unwind$?Pause@CBaseMediaFilter@@UEAAJXZ
pdata	ENDS
;	COMDAT xdata
xdata	SEGMENT
$unwind$?Pause@CBaseMediaFilter@@UEAAJXZ DD 021e01H
	DD	07006720aH
xdata	ENDS
;	COMDAT CONST
CONST	SEGMENT
?Pause@CBaseMediaFilter@@UEAAJXZ$rtcName$0 DB 063H	; CBaseMediaFilter::Pause
	DB	04fH
	DB	062H
	DB	06aH
	DB	065H
	DB	063H
	DB	074H
	DB	04cH
	DB	06fH
	DB	063H
	DB	06bH
	DB	00H
	ORG $+4
?Pause@CBaseMediaFilter@@UEAAJXZ$rtcVarDesc DD 028H	; CBaseMediaFilter::Pause
	DD	08H
	DQ	FLAT:?Pause@CBaseMediaFilter@@UEAAJXZ$rtcName$0
	ORG $+48
?Pause@CBaseMediaFilter@@UEAAJXZ$rtcFrameData DD 01H	; CBaseMediaFilter::Pause
	DD	00H
	DQ	FLAT:?Pause@CBaseMediaFilter@@UEAAJXZ$rtcVarDesc
; Function compile flags: /Odtp /RTCsu
CONST	ENDS
;	COMDAT ?Pause@CBaseMediaFilter@@UEAAJXZ
_TEXT	SEGMENT
cObjectLock$ = 40
$T87183 = 52
this$ = 80
?Pause@CBaseMediaFilter@@UEAAJXZ PROC			; CBaseMediaFilter::Pause, COMDAT
; Line 222
$LN4:
	mov	QWORD PTR [rsp+8], rcx
	push	rdi
	sub	rsp, 64					; 00000040H
	mov	rdi, rsp
	mov	ecx, 16
	mov	eax, -858993460				; ccccccccH
	rep stosd
	mov	rcx, QWORD PTR [rsp+80]
; Line 223
	mov	rax, QWORD PTR this$[rsp]
	mov	rdx, QWORD PTR [rax+48]
	lea	rcx, QWORD PTR cObjectLock$[rsp]
	call	??0CAutoLock@@QEAA@PEAVCCritSec@@@Z	; CAutoLock::CAutoLock
; Line 225
	mov	rax, QWORD PTR this$[rsp]
	mov	DWORD PTR [rax+8], 1
; Line 226
	mov	DWORD PTR $T87183[rsp], 0
	lea	rcx, QWORD PTR cObjectLock$[rsp]
	call	??1CAutoLock@@QEAA@XZ			; CAutoLock::~CAutoLock
	mov	eax, DWORD PTR $T87183[rsp]
; Line 227
	mov	edi, eax
	mov	rcx, rsp
	lea	rdx, OFFSET FLAT:?Pause@CBaseMediaFilter@@UEAAJXZ$rtcFrameData
	call	_RTC_CheckStackVars
	mov	eax, edi
	add	rsp, 64					; 00000040H
	pop	rdi
	ret	0
?Pause@CBaseMediaFilter@@UEAAJXZ ENDP			; CBaseMediaFilter::Pause
_TEXT	ENDS
PUBLIC	??4CRefTime@@QEAAAEAV0@_J@Z			; CRefTime::operator=
PUBLIC	?Run@CBaseMediaFilter@@UEAAJ_J@Z		; CBaseMediaFilter::Run
;	COMDAT pdata
pdata	SEGMENT
$pdata$?Run@CBaseMediaFilter@@UEAAJ_J@Z DD imagerel $LN6
	DD	imagerel $LN6+222
	DD	imagerel $unwind$?Run@CBaseMediaFilter@@UEAAJ_J@Z
pdata	ENDS
;	COMDAT pdata
pdata	SEGMENT
$pdata$?dtor$0@?0??Run@CBaseMediaFilter@@UEAAJ_J@Z@4HA DD imagerel ?dtor$0@?0??Run@CBaseMediaFilter@@UEAAJ_J@Z@4HA
	DD	imagerel ?dtor$0@?0??Run@CBaseMediaFilter@@UEAAJ_J@Z@4HA+35
	DD	imagerel $unwind$?dtor$0@?0??Run@CBaseMediaFilter@@UEAAJ_J@Z@4HA
pdata	ENDS
;	COMDAT xdata
xdata	SEGMENT
$ip2state$?Run@CBaseMediaFilter@@UEAAJ_J@Z DD imagerel ?Run@CBaseMediaFilter@@UEAAJ_J@Z
	DD	0ffffffffH
	DD	imagerel ?Run@CBaseMediaFilter@@UEAAJ_J@Z+64
	DD	00H
	DD	imagerel ?Run@CBaseMediaFilter@@UEAAJ_J@Z+145
	DD	0ffffffffH
	DD	imagerel ?Run@CBaseMediaFilter@@UEAAJ_J@Z+161
	DD	00H
	DD	imagerel ?Run@CBaseMediaFilter@@UEAAJ_J@Z+181
	DD	0ffffffffH
xdata	ENDS
;	COMDAT xdata
xdata	SEGMENT
$unwind$?dtor$0@?0??Run@CBaseMediaFilter@@UEAAJ_J@Z@4HA DD 031001H
	DD	0700c4210H
	DD	0500bH
xdata	ENDS
;	COMDAT xdata
xdata	SEGMENT
$unwind$?Run@CBaseMediaFilter@@UEAAJ_J@Z DD 022c11H
	DD	0700b920fH
	DD	imagerel __CxxFrameHandler3
	DD	imagerel $cppxdata$?Run@CBaseMediaFilter@@UEAAJ_J@Z
xdata	ENDS
;	COMDAT xdata
xdata	SEGMENT
$stateUnwindMap$?Run@CBaseMediaFilter@@UEAAJ_J@Z DD 0ffffffffH
	DD	imagerel ?dtor$0@?0??Run@CBaseMediaFilter@@UEAAJ_J@Z@4HA
xdata	ENDS
;	COMDAT CONST
CONST	SEGMENT
?Run@CBaseMediaFilter@@UEAAJ_J@Z$rtcName$0 DB 063H	; CBaseMediaFilter::Run
	DB	04fH
	DB	062H
	DB	06aH
	DB	065H
	DB	063H
	DB	074H
	DB	04cH
	DB	06fH
	DB	063H
	DB	06bH
	DB	00H
	ORG $+4
?Run@CBaseMediaFilter@@UEAAJ_J@Z$rtcVarDesc DD 028H	; CBaseMediaFilter::Run
	DD	08H
	DQ	FLAT:?Run@CBaseMediaFilter@@UEAAJ_J@Z$rtcName$0
	ORG $+48
?Run@CBaseMediaFilter@@UEAAJ_J@Z$rtcFrameData DD 01H	; CBaseMediaFilter::Run
	DD	00H
	DQ	FLAT:?Run@CBaseMediaFilter@@UEAAJ_J@Z$rtcVarDesc
$cppxdata$?Run@CBaseMediaFilter@@UEAAJ_J@Z DD 019930522H
	DD	01H
	DD	imagerel $stateUnwindMap$?Run@CBaseMediaFilter@@UEAAJ_J@Z
	DD	00H
	DD	00H
	DD	05H
	DD	imagerel $ip2state$?Run@CBaseMediaFilter@@UEAAJ_J@Z
	DD	040H
	DD	00H
	DD	01H
; Function compile flags: /Odtp /RTCsu
CONST	ENDS
;	COMDAT ?Run@CBaseMediaFilter@@UEAAJ_J@Z
_TEXT	SEGMENT
cObjectLock$ = 40
hr$82359 = 52
$T87199 = 56
$T87200 = 60
$T87206 = 64
tv65 = 72
this$ = 96
tStart$ = 104
?Run@CBaseMediaFilter@@UEAAJ_J@Z PROC			; CBaseMediaFilter::Run, COMDAT
; Line 241
$LN6:
	mov	QWORD PTR [rsp+16], rdx
	mov	QWORD PTR [rsp+8], rcx
	push	rdi
	sub	rsp, 80					; 00000050H
	mov	rdi, rsp
	mov	ecx, 20
	mov	eax, -858993460				; ccccccccH
	rep stosd
	mov	rcx, QWORD PTR [rsp+96]
	mov	QWORD PTR $T87206[rsp], -2
; Line 242
	mov	rax, QWORD PTR this$[rsp]
	mov	rdx, QWORD PTR [rax+48]
	lea	rcx, QWORD PTR cObjectLock$[rsp]
	call	??0CAutoLock@@QEAA@PEAVCCritSec@@@Z	; CAutoLock::CAutoLock
	npad	1
; Line 245
	mov	rax, QWORD PTR this$[rsp]
	add	rax, 24
	mov	rdx, QWORD PTR tStart$[rsp]
	mov	rcx, rax
	call	??4CRefTime@@QEAAAEAV0@_J@Z		; CRefTime::operator=
; Line 247
	mov	rax, QWORD PTR this$[rsp]
	cmp	DWORD PTR [rax+8], 0
	jne	SHORT $LN2@Run
; Line 248
	mov	rax, QWORD PTR this$[rsp]
	mov	rcx, QWORD PTR this$[rsp]
	mov	rcx, QWORD PTR [rcx]
	mov	QWORD PTR tv65[rsp], rcx
	mov	rcx, rax
	mov	rax, QWORD PTR tv65[rsp]
	call	QWORD PTR [rax+40]
	mov	DWORD PTR hr$82359[rsp], eax
; Line 250
	cmp	DWORD PTR hr$82359[rsp], 0
	jge	SHORT $LN2@Run
; Line 251
	mov	eax, DWORD PTR hr$82359[rsp]
	mov	DWORD PTR $T87199[rsp], eax
	lea	rcx, QWORD PTR cObjectLock$[rsp]
	call	??1CAutoLock@@QEAA@XZ			; CAutoLock::~CAutoLock
	mov	eax, DWORD PTR $T87199[rsp]
	jmp	SHORT $LN3@Run
$LN2@Run:
; Line 254
	mov	rax, QWORD PTR this$[rsp]
	mov	DWORD PTR [rax+8], 2
; Line 255
	mov	DWORD PTR $T87200[rsp], 0
	lea	rcx, QWORD PTR cObjectLock$[rsp]
	call	??1CAutoLock@@QEAA@XZ			; CAutoLock::~CAutoLock
	mov	eax, DWORD PTR $T87200[rsp]
$LN3@Run:
; Line 256
	mov	rdi, rax
	mov	rcx, rsp
	lea	rdx, OFFSET FLAT:?Run@CBaseMediaFilter@@UEAAJ_J@Z$rtcFrameData
	call	_RTC_CheckStackVars
	mov	rax, rdi
	add	rsp, 80					; 00000050H
	pop	rdi
	ret	0
?Run@CBaseMediaFilter@@UEAAJ_J@Z ENDP			; CBaseMediaFilter::Run
; Function compile flags: /Odtp /RTCsu
_TEXT	ENDS
;	COMDAT text$x
text$x	SEGMENT
cObjectLock$ = 40
hr$82359 = 52
$T87199 = 56
$T87200 = 60
$T87206 = 64
tv65 = 72
this$ = 96
tStart$ = 104
?dtor$0@?0??Run@CBaseMediaFilter@@UEAAJ_J@Z@4HA PROC	; `CBaseMediaFilter::Run'::`1'::dtor$0
	mov	QWORD PTR [rsp+8], rcx
	mov	QWORD PTR [rsp+16], rdx
	push	rbp
	push	rdi
	sub	rsp, 40					; 00000028H
	mov	rbp, rdx
	lea	rcx, QWORD PTR cObjectLock$[rbp]
	call	??1CAutoLock@@QEAA@XZ			; CAutoLock::~CAutoLock
	add	rsp, 40					; 00000028H
	pop	rdi
	pop	rbp
	ret	0
?dtor$0@?0??Run@CBaseMediaFilter@@UEAAJ_J@Z@4HA ENDP	; `CBaseMediaFilter::Run'::`1'::dtor$0
text$x	ENDS
;	COMDAT pdata
; File c:\downloads\wpf mediakit - copy\src\filters\baseclasses\reftime.h
pdata	SEGMENT
$pdata$??4CRefTime@@QEAAAEAV0@_J@Z DD imagerel $LN3
	DD	imagerel $LN3+31
	DD	imagerel $unwind$??4CRefTime@@QEAAAEAV0@_J@Z
pdata	ENDS
;	COMDAT xdata
xdata	SEGMENT
$unwind$??4CRefTime@@QEAAAEAV0@_J@Z DD 010b01H
	DD	0700bH
; Function compile flags: /Odtp /RTCsu
xdata	ENDS
;	COMDAT ??4CRefTime@@QEAAAEAV0@_J@Z
_TEXT	SEGMENT
this$ = 16
ll$ = 24
??4CRefTime@@QEAAAEAV0@_J@Z PROC			; CRefTime::operator=, COMDAT
; Line 87
$LN3:
	mov	QWORD PTR [rsp+16], rdx
	mov	QWORD PTR [rsp+8], rcx
	push	rdi
; Line 88
	mov	rax, QWORD PTR this$[rsp]
	mov	rcx, QWORD PTR ll$[rsp]
	mov	QWORD PTR [rax], rcx
; Line 89
	mov	rax, QWORD PTR this$[rsp]
; Line 90
	pop	rdi
	ret	0
??4CRefTime@@QEAAAEAV0@_J@Z ENDP			; CRefTime::operator=
_TEXT	ENDS
PUBLIC	??ZCRefTime@@QEAAAEAV0@AEBV0@@Z			; CRefTime::operator-=
PUBLIC	?StreamTime@CBaseMediaFilter@@UEAAJAEAVCRefTime@@@Z ; CBaseMediaFilter::StreamTime
;	COMDAT pdata
; File c:\downloads\wpf mediakit - copy\src\filters\baseclasses\amfilter.cpp
pdata	SEGMENT
$pdata$?StreamTime@CBaseMediaFilter@@UEAAJAEAVCRefTime@@@Z DD imagerel $LN5
	DD	imagerel $LN5+130
	DD	imagerel $unwind$?StreamTime@CBaseMediaFilter@@UEAAJAEAVCRefTime@@@Z
pdata	ENDS
;	COMDAT xdata
xdata	SEGMENT
$unwind$?StreamTime@CBaseMediaFilter@@UEAAJAEAVCRefTime@@@Z DD 022301H
	DD	0700b520fH
; Function compile flags: /Odtp /RTCsu
xdata	ENDS
;	COMDAT ?StreamTime@CBaseMediaFilter@@UEAAJAEAVCRefTime@@@Z
_TEXT	SEGMENT
hr$ = 32
this$ = 64
rtStream$ = 72
?StreamTime@CBaseMediaFilter@@UEAAJAEAVCRefTime@@@Z PROC ; CBaseMediaFilter::StreamTime, COMDAT
; Line 264
$LN5:
	mov	QWORD PTR [rsp+16], rdx
	mov	QWORD PTR [rsp+8], rcx
	push	rdi
	sub	rsp, 48					; 00000030H
	mov	rdi, rsp
	mov	ecx, 12
	mov	eax, -858993460				; ccccccccH
	rep stosd
	mov	rcx, QWORD PTR [rsp+64]
; Line 269
	mov	rax, QWORD PTR this$[rsp]
	cmp	QWORD PTR [rax+48], 0
	jne	SHORT $LN2@StreamTime
; Line 270
	mov	eax, -2147220973			; ffffffff80040213H
	jmp	SHORT $LN3@StreamTime
$LN2@StreamTime:
; Line 274
	mov	rax, QWORD PTR this$[rsp]
	mov	rax, QWORD PTR [rax+48]
	mov	rcx, QWORD PTR this$[rsp]
	mov	rcx, QWORD PTR [rcx+48]
	mov	rax, QWORD PTR [rax]
	mov	rdx, QWORD PTR rtStream$[rsp]
	call	QWORD PTR [rax+24]
	mov	DWORD PTR hr$[rsp], eax
; Line 275
	cmp	DWORD PTR hr$[rsp], 0
	jge	SHORT $LN1@StreamTime
; Line 276
	mov	eax, DWORD PTR hr$[rsp]
	jmp	SHORT $LN3@StreamTime
$LN1@StreamTime:
; Line 280
	mov	rax, QWORD PTR this$[rsp]
	add	rax, 56					; 00000038H
	mov	rdx, rax
	mov	rcx, QWORD PTR rtStream$[rsp]
	call	??ZCRefTime@@QEAAAEAV0@AEBV0@@Z		; CRefTime::operator-=
; Line 282
	xor	eax, eax
$LN3@StreamTime:
; Line 283
	add	rsp, 48					; 00000030H
	pop	rdi
	ret	0
?StreamTime@CBaseMediaFilter@@UEAAJAEAVCRefTime@@@Z ENDP ; CBaseMediaFilter::StreamTime
_TEXT	ENDS
PUBLIC	??BCRefTime@@QEBA_JXZ				; CRefTime::operator __int64
;	COMDAT pdata
; File c:\downloads\wpf mediakit - copy\src\filters\baseclasses\reftime.h
pdata	SEGMENT
$pdata$??ZCRefTime@@QEAAAEAV0@AEBV0@@Z DD imagerel $LN3
	DD	imagerel $LN3+90
	DD	imagerel $unwind$??ZCRefTime@@QEAAAEAV0@AEBV0@@Z
pdata	ENDS
;	COMDAT xdata
xdata	SEGMENT
$unwind$??ZCRefTime@@QEAAAEAV0@AEBV0@@Z DD 022301H
	DD	0700b520fH
; Function compile flags: /Odtp /RTCsu
xdata	ENDS
;	COMDAT ??ZCRefTime@@QEAAAEAV0@AEBV0@@Z
_TEXT	SEGMENT
tv67 = 32
this$ = 64
rt$ = 72
??ZCRefTime@@QEAAAEAV0@AEBV0@@Z PROC			; CRefTime::operator-=, COMDAT
; Line 98
$LN3:
	mov	QWORD PTR [rsp+16], rdx
	mov	QWORD PTR [rsp+8], rcx
	push	rdi
	sub	rsp, 48					; 00000030H
	mov	rdi, rsp
	mov	ecx, 12
	mov	eax, -858993460				; ccccccccH
	rep stosd
	mov	rcx, QWORD PTR [rsp+64]
; Line 99
	mov	rcx, QWORD PTR this$[rsp]
	call	??BCRefTime@@QEBA_JXZ			; CRefTime::operator __int64
	mov	QWORD PTR tv67[rsp], rax
	mov	rcx, QWORD PTR rt$[rsp]
	call	??BCRefTime@@QEBA_JXZ			; CRefTime::operator __int64
	mov	rcx, QWORD PTR tv67[rsp]
	sub	rcx, rax
	mov	rax, rcx
	mov	rdx, rax
	mov	rcx, QWORD PTR this$[rsp]
	call	??4CRefTime@@QEAAAEAV0@_J@Z		; CRefTime::operator=
; Line 100
	add	rsp, 48					; 00000030H
	pop	rdi
	ret	0
??ZCRefTime@@QEAAAEAV0@AEBV0@@Z ENDP			; CRefTime::operator-=
_TEXT	ENDS
;	COMDAT pdata
pdata	SEGMENT
$pdata$??BCRefTime@@QEBA_JXZ DD imagerel $LN3
	DD	imagerel $LN3+16
	DD	imagerel $unwind$??BCRefTime@@QEBA_JXZ
pdata	ENDS
;	COMDAT xdata
xdata	SEGMENT
$unwind$??BCRefTime@@QEBA_JXZ DD 010601H
	DD	07006H
; Function compile flags: /Odtp /RTCsu
xdata	ENDS
;	COMDAT ??BCRefTime@@QEBA_JXZ
_TEXT	SEGMENT
this$ = 16
??BCRefTime@@QEBA_JXZ PROC				; CRefTime::operator __int64, COMDAT
; Line 76
$LN3:
	mov	QWORD PTR [rsp+8], rcx
	push	rdi
; Line 77
	mov	rax, QWORD PTR this$[rsp]
	mov	rax, QWORD PTR [rax]
; Line 78
	pop	rdi
	ret	0
??BCRefTime@@QEBA_JXZ ENDP				; CRefTime::operator __int64
_TEXT	ENDS
PUBLIC	?NonDelegatingQueryInterface@CBaseFilter@@UEAAJAEBU_GUID@@PEAPEAX@Z ; CBaseFilter::NonDelegatingQueryInterface
EXTRN	IID_IAMovieSetup:BYTE
EXTRN	IID_IBaseFilter:BYTE
;	COMDAT pdata
; File c:\downloads\wpf mediakit - copy\src\filters\baseclasses\amfilter.cpp
pdata	SEGMENT
$pdata$?NonDelegatingQueryInterface@CBaseFilter@@UEAAJAEBU_GUID@@PEAPEAX@Z DD imagerel $LN19
	DD	imagerel $LN19+370
	DD	imagerel $unwind$?NonDelegatingQueryInterface@CBaseFilter@@UEAAJAEBU_GUID@@PEAPEAX@Z
pdata	ENDS
;	COMDAT xdata
xdata	SEGMENT
$unwind$?NonDelegatingQueryInterface@CBaseFilter@@UEAAJAEBU_GUID@@PEAPEAX@Z DD 022801H
	DD	070107214H
; Function compile flags: /Odtp /RTCsu
xdata	ENDS
;	COMDAT ?NonDelegatingQueryInterface@CBaseFilter@@UEAAJAEBU_GUID@@PEAPEAX@Z
_TEXT	SEGMENT
tv77 = 32
tv94 = 40
tv143 = 48
tv160 = 56
this$ = 80
riid$ = 88
ppv$ = 96
?NonDelegatingQueryInterface@CBaseFilter@@UEAAJAEBU_GUID@@PEAPEAX@Z PROC ; CBaseFilter::NonDelegatingQueryInterface, COMDAT
; Line 297
$LN19:
	mov	QWORD PTR [rsp+24], r8
	mov	QWORD PTR [rsp+16], rdx
	mov	QWORD PTR [rsp+8], rcx
	push	rdi
	sub	rsp, 64					; 00000040H
	mov	rdi, rsp
	mov	ecx, 16
	mov	eax, -858993460				; ccccccccH
	rep stosd
	mov	rcx, QWORD PTR [rsp+80]
; Line 300
	lea	rdx, OFFSET FLAT:IID_IBaseFilter
	mov	rcx, QWORD PTR riid$[rsp]
	call	==
	test	eax, eax
	je	SHORT $LN8@NonDelegat@2
; Line 301
	cmp	QWORD PTR this$[rsp], 0
	je	SHORT $LN11@NonDelegat@2
	mov	rax, QWORD PTR this$[rsp]
	add	rax, 32					; 00000020H
	mov	QWORD PTR tv77[rsp], rax
	jmp	SHORT $LN12@NonDelegat@2
$LN11@NonDelegat@2:
	mov	QWORD PTR tv77[rsp], 0
$LN12@NonDelegat@2:
	mov	rdx, QWORD PTR ppv$[rsp]
	mov	rcx, QWORD PTR tv77[rsp]
	call	GetInterface
	jmp	$LN9@NonDelegat@2
	jmp	$LN7@NonDelegat@2
$LN8@NonDelegat@2:
; Line 302
	lea	rdx, OFFSET FLAT:IID_IMediaFilter
	mov	rcx, QWORD PTR riid$[rsp]
	call	==
	test	eax, eax
	je	SHORT $LN6@NonDelegat@2
; Line 303
	cmp	QWORD PTR this$[rsp], 0
	je	SHORT $LN13@NonDelegat@2
	mov	rax, QWORD PTR this$[rsp]
	add	rax, 32					; 00000020H
	mov	QWORD PTR tv94[rsp], rax
	jmp	SHORT $LN14@NonDelegat@2
$LN13@NonDelegat@2:
	mov	QWORD PTR tv94[rsp], 0
$LN14@NonDelegat@2:
	mov	rdx, QWORD PTR ppv$[rsp]
	mov	rcx, QWORD PTR tv94[rsp]
	call	GetInterface
	jmp	$LN9@NonDelegat@2
	jmp	$LN5@NonDelegat@2
$LN6@NonDelegat@2:
; Line 304
	lea	rdx, OFFSET FLAT:IID_IPersist
	mov	rcx, QWORD PTR riid$[rsp]
	call	==
	test	eax, eax
	je	SHORT $LN4@NonDelegat@2
; Line 305
	cmp	QWORD PTR this$[rsp], 0
	je	SHORT $LN15@NonDelegat@2
	mov	rax, QWORD PTR this$[rsp]
	add	rax, 32					; 00000020H
	mov	QWORD PTR tv143[rsp], rax
	jmp	SHORT $LN16@NonDelegat@2
$LN15@NonDelegat@2:
	mov	QWORD PTR tv143[rsp], 0
$LN16@NonDelegat@2:
	mov	rdx, QWORD PTR ppv$[rsp]
	mov	rcx, QWORD PTR tv143[rsp]
	call	GetInterface
	jmp	SHORT $LN9@NonDelegat@2
	jmp	SHORT $LN3@NonDelegat@2
$LN4@NonDelegat@2:
; Line 306
	lea	rdx, OFFSET FLAT:IID_IAMovieSetup
	mov	rcx, QWORD PTR riid$[rsp]
	call	==
	test	eax, eax
	je	SHORT $LN2@NonDelegat@2
; Line 307
	cmp	QWORD PTR this$[rsp], 0
	je	SHORT $LN17@NonDelegat@2
	mov	rax, QWORD PTR this$[rsp]
	add	rax, 40					; 00000028H
	mov	QWORD PTR tv160[rsp], rax
	jmp	SHORT $LN18@NonDelegat@2
$LN17@NonDelegat@2:
	mov	QWORD PTR tv160[rsp], 0
$LN18@NonDelegat@2:
	mov	rdx, QWORD PTR ppv$[rsp]
	mov	rcx, QWORD PTR tv160[rsp]
	call	GetInterface
	jmp	SHORT $LN9@NonDelegat@2
; Line 308
	jmp	SHORT $LN1@NonDelegat@2
$LN2@NonDelegat@2:
; Line 309
	mov	r8, QWORD PTR ppv$[rsp]
	mov	rdx, QWORD PTR riid$[rsp]
	mov	rcx, QWORD PTR this$[rsp]
	call	?NonDelegatingQueryInterface@CUnknown@@UEAAJAEBU_GUID@@PEAPEAX@Z ; CUnknown::NonDelegatingQueryInterface
$LN1@NonDelegat@2:
$LN3@NonDelegat@2:
$LN5@NonDelegat@2:
$LN7@NonDelegat@2:
$LN9@NonDelegat@2:
; Line 311
	add	rsp, 64					; 00000040H
	pop	rdi
	ret	0
?NonDelegatingQueryInterface@CBaseFilter@@UEAAJAEBU_GUID@@PEAPEAX@Z ENDP ; CBaseFilter::NonDelegatingQueryInterface
_TEXT	ENDS
PUBLIC	?NonDelegatingRelease@CBaseFilter@@UEAAKXZ	; CBaseFilter::NonDelegatingRelease
EXTRN	?NonDelegatingRelease@CUnknown@@UEAAKXZ:PROC	; CUnknown::NonDelegatingRelease
EXTRN	?DbgKernelAssert@@YAXPEB_W0H@Z:PROC		; DbgKernelAssert
;	COMDAT pdata
pdata	SEGMENT
$pdata$?NonDelegatingRelease@CBaseFilter@@UEAAKXZ DD imagerel $LN5
	DD	imagerel $LN5+96
	DD	imagerel $unwind$?NonDelegatingRelease@CBaseFilter@@UEAAKXZ
pdata	ENDS
;	COMDAT xdata
xdata	SEGMENT
$unwind$?NonDelegatingRelease@CBaseFilter@@UEAAKXZ DD 021e01H
	DD	07006320aH
; Function compile flags: /Odtp /RTCsu
xdata	ENDS
;	COMDAT ?NonDelegatingRelease@CBaseFilter@@UEAAKXZ
_TEXT	SEGMENT
this$ = 48
?NonDelegatingRelease@CBaseFilter@@UEAAKXZ PROC		; CBaseFilter::NonDelegatingRelease, COMDAT
; Line 315
$LN5:
	mov	QWORD PTR [rsp+8], rcx
	push	rdi
	sub	rsp, 32					; 00000020H
	mov	rdi, rsp
	mov	ecx, 8
	mov	eax, -858993460				; ccccccccH
	rep stosd
	mov	rcx, QWORD PTR [rsp+48]
; Line 316
	mov	rax, QWORD PTR this$[rsp]
	mov	eax, DWORD PTR [rax+24]
	cmp	eax, 1
	jne	SHORT $LN2@NonDelegat@3
; Line 317
	mov	rax, QWORD PTR this$[rsp]
	cmp	QWORD PTR [rax+104], 0
	je	SHORT $LN1@NonDelegat@3
	mov	r8d, 317				; 0000013dH
	lea	rdx, OFFSET FLAT:$SG82398
	lea	rcx, OFFSET FLAT:$SG82399
	call	?DbgKernelAssert@@YAXPEB_W0H@Z		; DbgKernelAssert
$LN1@NonDelegat@3:
$LN2@NonDelegat@3:
; Line 319
	mov	rcx, QWORD PTR this$[rsp]
	call	?NonDelegatingRelease@CUnknown@@UEAAKXZ	; CUnknown::NonDelegatingRelease
; Line 320
	add	rsp, 32					; 00000020H
	pop	rdi
	ret	0
?NonDelegatingRelease@CBaseFilter@@UEAAKXZ ENDP		; CBaseFilter::NonDelegatingRelease
_TEXT	ENDS
PUBLIC	$T87282
PUBLIC	??0IAMovieSetup@@QEAA@XZ			; IAMovieSetup::IAMovieSetup
PUBLIC	??0IBaseFilter@@QEAA@XZ				; IBaseFilter::IBaseFilter
PUBLIC	??0CBaseFilter@@QEAA@PEB_WPEAUIUnknown@@PEAVCCritSec@@AEBU_GUID@@@Z ; CBaseFilter::CBaseFilter
EXTRN	?DbgAssert@@YAXPEB_W0H@Z:PROC			; DbgAssert
;	COMDAT pdata
pdata	SEGMENT
$pdata$??0CBaseFilter@@QEAA@PEB_WPEAUIUnknown@@PEAVCCritSec@@AEBU_GUID@@@Z DD imagerel $LN5
	DD	imagerel $LN5+310
	DD	imagerel $unwind$??0CBaseFilter@@QEAA@PEB_WPEAUIUnknown@@PEAVCCritSec@@AEBU_GUID@@@Z
pdata	ENDS
;	COMDAT pdata
pdata	SEGMENT
$pdata$?dtor$0@?0???0CBaseFilter@@QEAA@PEB_WPEAUIUnknown@@PEAVCCritSec@@AEBU_GUID@@@Z@4HA DD imagerel ?dtor$0@?0???0CBaseFilter@@QEAA@PEB_WPEAUIUnknown@@PEAVCCritSec@@AEBU_GUID@@@Z@4HA
	DD	imagerel ?dtor$0@?0???0CBaseFilter@@QEAA@PEB_WPEAUIUnknown@@PEAVCCritSec@@AEBU_GUID@@@Z@4HA+35
	DD	imagerel $unwind$?dtor$0@?0???0CBaseFilter@@QEAA@PEB_WPEAUIUnknown@@PEAVCCritSec@@AEBU_GUID@@@Z@4HA
pdata	ENDS
;	COMDAT xdata
xdata	SEGMENT
$ip2state$??0CBaseFilter@@QEAA@PEB_WPEAUIUnknown@@PEAVCCritSec@@AEBU_GUID@@@Z DD imagerel ??0CBaseFilter@@QEAA@PEB_WPEAUIUnknown@@PEAVCCritSec@@AEBU_GUID@@@Z
	DD	0ffffffffH
	DD	imagerel ??0CBaseFilter@@QEAA@PEB_WPEAUIUnknown@@PEAVCCritSec@@AEBU_GUID@@@Z+76
	DD	00H
	DD	imagerel ??0CBaseFilter@@QEAA@PEB_WPEAUIUnknown@@PEAVCCritSec@@AEBU_GUID@@@Z+298
	DD	0ffffffffH
xdata	ENDS
;	COMDAT xdata
xdata	SEGMENT
$unwind$?dtor$0@?0???0CBaseFilter@@QEAA@PEB_WPEAUIUnknown@@PEAVCCritSec@@AEBU_GUID@@@Z@4HA DD 031001H
	DD	0700c4210H
	DD	0500bH
xdata	ENDS
;	COMDAT xdata
xdata	SEGMENT
$unwind$??0CBaseFilter@@QEAA@PEB_WPEAUIUnknown@@PEAVCCritSec@@AEBU_GUID@@@Z DD 033711H
	DD	07016821aH
	DD	06015H
	DD	imagerel __CxxFrameHandler3
	DD	imagerel $cppxdata$??0CBaseFilter@@QEAA@PEB_WPEAUIUnknown@@PEAVCCritSec@@AEBU_GUID@@@Z
xdata	ENDS
;	COMDAT CONST
CONST	SEGMENT
$cppxdata$??0CBaseFilter@@QEAA@PEB_WPEAUIUnknown@@PEAVCCritSec@@AEBU_GUID@@@Z DD 019930522H
	DD	01H
	DD	imagerel $stateUnwindMap$??0CBaseFilter@@QEAA@PEB_WPEAUIUnknown@@PEAVCCritSec@@AEBU_GUID@@@Z
	DD	00H
	DD	00H
	DD	03H
	DD	imagerel $ip2state$??0CBaseFilter@@QEAA@PEB_WPEAUIUnknown@@PEAVCCritSec@@AEBU_GUID@@@Z
	DD	030H
	DD	00H
	DD	01H
CONST	ENDS
;	COMDAT xdata
xdata	SEGMENT
$stateUnwindMap$??0CBaseFilter@@QEAA@PEB_WPEAUIUnknown@@PEAVCCritSec@@AEBU_GUID@@@Z DD 0ffffffffH
	DD	imagerel ?dtor$0@?0???0CBaseFilter@@QEAA@PEB_WPEAUIUnknown@@PEAVCCritSec@@AEBU_GUID@@@Z@4HA
; Function compile flags: /Odtp /RTCsu
xdata	ENDS
;	COMDAT ??0CBaseFilter@@QEAA@PEB_WPEAUIUnknown@@PEAVCCritSec@@AEBU_GUID@@@Z
_TEXT	SEGMENT
$T87282 = 32
$T87283 = 48
this$ = 96
pName$ = 104
pUnk$ = 112
pLock$ = 120
clsid$ = 128
??0CBaseFilter@@QEAA@PEB_WPEAUIUnknown@@PEAVCCritSec@@AEBU_GUID@@@Z PROC ; CBaseFilter::CBaseFilter, COMDAT
; Line 339
$LN5:
	mov	QWORD PTR [rsp+32], r9
	mov	QWORD PTR [rsp+24], r8
	mov	QWORD PTR [rsp+16], rdx
	mov	QWORD PTR [rsp+8], rcx
	push	rsi
	push	rdi
	sub	rsp, 72					; 00000048H
	mov	rdi, rsp
	mov	ecx, 18
	mov	eax, -858993460				; ccccccccH
	rep stosd
	mov	rcx, QWORD PTR [rsp+96]
	mov	QWORD PTR $T87283[rsp], -2
	mov	r8, QWORD PTR pUnk$[rsp]
	mov	rdx, QWORD PTR pName$[rsp]
	mov	rcx, QWORD PTR this$[rsp]
	call	??0CUnknown@@QEAA@PEB_WPEAUIUnknown@@@Z	; CUnknown::CUnknown
	npad	1
	mov	rax, QWORD PTR this$[rsp]
	add	rax, 32					; 00000020H
	mov	rcx, rax
	call	??0IBaseFilter@@QEAA@XZ
	mov	rax, QWORD PTR this$[rsp]
	add	rax, 40					; 00000028H
	mov	rcx, rax
	call	??0IAMovieSetup@@QEAA@XZ
	mov	rax, QWORD PTR this$[rsp]
	mov	DWORD PTR [rax+48], 0
	mov	rax, QWORD PTR this$[rsp]
	mov	QWORD PTR [rax+56], 0
	mov	rax, QWORD PTR this$[rsp]
	add	rax, 64					; 00000040H
	mov	rcx, rax
	call	??0CRefTime@@QEAA@XZ			; CRefTime::CRefTime
	lea	rax, QWORD PTR $T87282[rsp]
	mov	rdi, rax
	mov	rsi, QWORD PTR clsid$[rsp]
	mov	ecx, 16
	rep movsb
	mov	rax, QWORD PTR this$[rsp]
	lea	rcx, QWORD PTR $T87282[rsp]
	lea	rdi, QWORD PTR [rax+72]
	mov	rsi, rcx
	mov	ecx, 16
	rep movsb
	mov	rax, QWORD PTR this$[rsp]
	mov	rcx, QWORD PTR pLock$[rsp]
	mov	QWORD PTR [rax+88], rcx
	mov	rax, QWORD PTR this$[rsp]
	mov	QWORD PTR [rax+96], 0
	mov	rax, QWORD PTR this$[rsp]
	mov	QWORD PTR [rax+104], 0
	mov	rax, QWORD PTR this$[rsp]
	mov	QWORD PTR [rax+112], 0
	mov	rax, QWORD PTR this$[rsp]
	mov	DWORD PTR [rax+120], 1
; Line 341
	cmp	QWORD PTR pLock$[rsp], 0
	jne	SHORT $LN1@CBaseFilte
	mov	r8d, 341				; 00000155H
	lea	rdx, OFFSET FLAT:$SG82408
	lea	rcx, OFFSET FLAT:$SG82409
	call	?DbgAssert@@YAXPEB_W0H@Z		; DbgAssert
	npad	1
$LN1@CBaseFilte:
; Line 342
	mov	rax, QWORD PTR this$[rsp]
	add	rsp, 72					; 00000048H
	pop	rdi
	pop	rsi
	ret	0
??0CBaseFilter@@QEAA@PEB_WPEAUIUnknown@@PEAVCCritSec@@AEBU_GUID@@@Z ENDP ; CBaseFilter::CBaseFilter
; Function compile flags: /Odtp /RTCsu
_TEXT	ENDS
;	COMDAT text$x
text$x	SEGMENT
$T87282 = 32
$T87283 = 48
this$ = 96
pName$ = 104
pUnk$ = 112
pLock$ = 120
clsid$ = 128
?dtor$0@?0???0CBaseFilter@@QEAA@PEB_WPEAUIUnknown@@PEAVCCritSec@@AEBU_GUID@@@Z@4HA PROC ; `CBaseFilter::CBaseFilter'::`1'::dtor$0
	mov	QWORD PTR [rsp+8], rcx
	mov	QWORD PTR [rsp+16], rdx
	push	rbp
	push	rdi
	sub	rsp, 40					; 00000028H
	mov	rbp, rdx
	mov	rcx, QWORD PTR this$[rbp]
	call	??1CUnknown@@UEAA@XZ			; CUnknown::~CUnknown
	add	rsp, 40					; 00000028H
	pop	rdi
	pop	rbp
	ret	0
?dtor$0@?0???0CBaseFilter@@QEAA@PEB_WPEAUIUnknown@@PEAVCCritSec@@AEBU_GUID@@@Z@4HA ENDP ; `CBaseFilter::CBaseFilter'::`1'::dtor$0
text$x	ENDS
;	COMDAT pdata
pdata	SEGMENT
$pdata$??0IBaseFilter@@QEAA@XZ DD imagerel $LN3
	DD	imagerel $LN3+51
	DD	imagerel $unwind$??0IBaseFilter@@QEAA@XZ
pdata	ENDS
;	COMDAT xdata
xdata	SEGMENT
$unwind$??0IBaseFilter@@QEAA@XZ DD 021e01H
	DD	07006320aH
; Function compile flags: /Odtp /RTCsu
xdata	ENDS
;	COMDAT ??0IBaseFilter@@QEAA@XZ
_TEXT	SEGMENT
this$ = 48
??0IBaseFilter@@QEAA@XZ PROC				; IBaseFilter::IBaseFilter, COMDAT
$LN3:
	mov	QWORD PTR [rsp+8], rcx
	push	rdi
	sub	rsp, 32					; 00000020H
	mov	rdi, rsp
	mov	ecx, 8
	mov	eax, -858993460				; ccccccccH
	rep stosd
	mov	rcx, QWORD PTR [rsp+48]
	mov	rcx, QWORD PTR this$[rsp]
	call	??0IMediaFilter@@QEAA@XZ
	mov	rax, QWORD PTR this$[rsp]
	add	rsp, 32					; 00000020H
	pop	rdi
	ret	0
??0IBaseFilter@@QEAA@XZ ENDP				; IBaseFilter::IBaseFilter
_TEXT	ENDS
;	COMDAT pdata
pdata	SEGMENT
$pdata$??0IAMovieSetup@@QEAA@XZ DD imagerel $LN3
	DD	imagerel $LN3+51
	DD	imagerel $unwind$??0IAMovieSetup@@QEAA@XZ
pdata	ENDS
;	COMDAT xdata
xdata	SEGMENT
$unwind$??0IAMovieSetup@@QEAA@XZ DD 021e01H
	DD	07006320aH
; Function compile flags: /Odtp /RTCsu
xdata	ENDS
;	COMDAT ??0IAMovieSetup@@QEAA@XZ
_TEXT	SEGMENT
this$ = 48
??0IAMovieSetup@@QEAA@XZ PROC				; IAMovieSetup::IAMovieSetup, COMDAT
$LN3:
	mov	QWORD PTR [rsp+8], rcx
	push	rdi
	sub	rsp, 32					; 00000020H
	mov	rdi, rsp
	mov	ecx, 8
	mov	eax, -858993460				; ccccccccH
	rep stosd
	mov	rcx, QWORD PTR [rsp+48]
	mov	rcx, QWORD PTR this$[rsp]
	call	??0IUnknown@@QEAA@XZ
	mov	rax, QWORD PTR this$[rsp]
	add	rsp, 32					; 00000020H
	pop	rdi
	ret	0
??0IAMovieSetup@@QEAA@XZ ENDP				; IAMovieSetup::IAMovieSetup
_TEXT	ENDS
PUBLIC	$T87320
PUBLIC	??0CBaseFilter@@QEAA@PEA_WPEAUIUnknown@@PEAVCCritSec@@AEBU_GUID@@PEAJ@Z ; CBaseFilter::CBaseFilter
;	COMDAT pdata
pdata	SEGMENT
$pdata$??0CBaseFilter@@QEAA@PEA_WPEAUIUnknown@@PEAVCCritSec@@AEBU_GUID@@PEAJ@Z DD imagerel $LN5
	DD	imagerel $LN5+310
	DD	imagerel $unwind$??0CBaseFilter@@QEAA@PEA_WPEAUIUnknown@@PEAVCCritSec@@AEBU_GUID@@PEAJ@Z
pdata	ENDS
;	COMDAT pdata
pdata	SEGMENT
$pdata$?dtor$0@?0???0CBaseFilter@@QEAA@PEA_WPEAUIUnknown@@PEAVCCritSec@@AEBU_GUID@@PEAJ@Z@4HA DD imagerel ?dtor$0@?0???0CBaseFilter@@QEAA@PEA_WPEAUIUnknown@@PEAVCCritSec@@AEBU_GUID@@PEAJ@Z@4HA
	DD	imagerel ?dtor$0@?0???0CBaseFilter@@QEAA@PEA_WPEAUIUnknown@@PEAVCCritSec@@AEBU_GUID@@PEAJ@Z@4HA+35
	DD	imagerel $unwind$?dtor$0@?0???0CBaseFilter@@QEAA@PEA_WPEAUIUnknown@@PEAVCCritSec@@AEBU_GUID@@PEAJ@Z@4HA
pdata	ENDS
;	COMDAT xdata
xdata	SEGMENT
$ip2state$??0CBaseFilter@@QEAA@PEA_WPEAUIUnknown@@PEAVCCritSec@@AEBU_GUID@@PEAJ@Z DD imagerel ??0CBaseFilter@@QEAA@PEA_WPEAUIUnknown@@PEAVCCritSec@@AEBU_GUID@@PEAJ@Z
	DD	0ffffffffH
	DD	imagerel ??0CBaseFilter@@QEAA@PEA_WPEAUIUnknown@@PEAVCCritSec@@AEBU_GUID@@PEAJ@Z+76
	DD	00H
	DD	imagerel ??0CBaseFilter@@QEAA@PEA_WPEAUIUnknown@@PEAVCCritSec@@AEBU_GUID@@PEAJ@Z+298
	DD	0ffffffffH
xdata	ENDS
;	COMDAT xdata
xdata	SEGMENT
$unwind$?dtor$0@?0???0CBaseFilter@@QEAA@PEA_WPEAUIUnknown@@PEAVCCritSec@@AEBU_GUID@@PEAJ@Z@4HA DD 031001H
	DD	0700c4210H
	DD	0500bH
xdata	ENDS
;	COMDAT xdata
xdata	SEGMENT
$unwind$??0CBaseFilter@@QEAA@PEA_WPEAUIUnknown@@PEAVCCritSec@@AEBU_GUID@@PEAJ@Z DD 033711H
	DD	07016821aH
	DD	06015H
	DD	imagerel __CxxFrameHandler3
	DD	imagerel $cppxdata$??0CBaseFilter@@QEAA@PEA_WPEAUIUnknown@@PEAVCCritSec@@AEBU_GUID@@PEAJ@Z
xdata	ENDS
;	COMDAT CONST
CONST	SEGMENT
$cppxdata$??0CBaseFilter@@QEAA@PEA_WPEAUIUnknown@@PEAVCCritSec@@AEBU_GUID@@PEAJ@Z DD 019930522H
	DD	01H
	DD	imagerel $stateUnwindMap$??0CBaseFilter@@QEAA@PEA_WPEAUIUnknown@@PEAVCCritSec@@AEBU_GUID@@PEAJ@Z
	DD	00H
	DD	00H
	DD	03H
	DD	imagerel $ip2state$??0CBaseFilter@@QEAA@PEA_WPEAUIUnknown@@PEAVCCritSec@@AEBU_GUID@@PEAJ@Z
	DD	030H
	DD	00H
	DD	01H
CONST	ENDS
;	COMDAT xdata
xdata	SEGMENT
$stateUnwindMap$??0CBaseFilter@@QEAA@PEA_WPEAUIUnknown@@PEAVCCritSec@@AEBU_GUID@@PEAJ@Z DD 0ffffffffH
	DD	imagerel ?dtor$0@?0???0CBaseFilter@@QEAA@PEA_WPEAUIUnknown@@PEAVCCritSec@@AEBU_GUID@@PEAJ@Z@4HA
; Function compile flags: /Odtp /RTCsu
xdata	ENDS
;	COMDAT ??0CBaseFilter@@QEAA@PEA_WPEAUIUnknown@@PEAVCCritSec@@AEBU_GUID@@PEAJ@Z
_TEXT	SEGMENT
$T87320 = 32
$T87321 = 48
this$ = 96
pName$ = 104
pUnk$ = 112
pLock$ = 120
clsid$ = 128
phr$ = 136
??0CBaseFilter@@QEAA@PEA_WPEAUIUnknown@@PEAVCCritSec@@AEBU_GUID@@PEAJ@Z PROC ; CBaseFilter::CBaseFilter, COMDAT
; Line 360
$LN5:
	mov	QWORD PTR [rsp+32], r9
	mov	QWORD PTR [rsp+24], r8
	mov	QWORD PTR [rsp+16], rdx
	mov	QWORD PTR [rsp+8], rcx
	push	rsi
	push	rdi
	sub	rsp, 72					; 00000048H
	mov	rdi, rsp
	mov	ecx, 18
	mov	eax, -858993460				; ccccccccH
	rep stosd
	mov	rcx, QWORD PTR [rsp+96]
	mov	QWORD PTR $T87321[rsp], -2
	mov	r8, QWORD PTR pUnk$[rsp]
	mov	rdx, QWORD PTR pName$[rsp]
	mov	rcx, QWORD PTR this$[rsp]
	call	??0CUnknown@@QEAA@PEB_WPEAUIUnknown@@@Z	; CUnknown::CUnknown
	npad	1
	mov	rax, QWORD PTR this$[rsp]
	add	rax, 32					; 00000020H
	mov	rcx, rax
	call	??0IBaseFilter@@QEAA@XZ
	mov	rax, QWORD PTR this$[rsp]
	add	rax, 40					; 00000028H
	mov	rcx, rax
	call	??0IAMovieSetup@@QEAA@XZ
	mov	rax, QWORD PTR this$[rsp]
	mov	DWORD PTR [rax+48], 0
	mov	rax, QWORD PTR this$[rsp]
	mov	QWORD PTR [rax+56], 0
	mov	rax, QWORD PTR this$[rsp]
	add	rax, 64					; 00000040H
	mov	rcx, rax
	call	??0CRefTime@@QEAA@XZ			; CRefTime::CRefTime
	lea	rax, QWORD PTR $T87320[rsp]
	mov	rdi, rax
	mov	rsi, QWORD PTR clsid$[rsp]
	mov	ecx, 16
	rep movsb
	mov	rax, QWORD PTR this$[rsp]
	lea	rcx, QWORD PTR $T87320[rsp]
	lea	rdi, QWORD PTR [rax+72]
	mov	rsi, rcx
	mov	ecx, 16
	rep movsb
	mov	rax, QWORD PTR this$[rsp]
	mov	rcx, QWORD PTR pLock$[rsp]
	mov	QWORD PTR [rax+88], rcx
	mov	rax, QWORD PTR this$[rsp]
	mov	QWORD PTR [rax+96], 0
	mov	rax, QWORD PTR this$[rsp]
	mov	QWORD PTR [rax+104], 0
	mov	rax, QWORD PTR this$[rsp]
	mov	QWORD PTR [rax+112], 0
	mov	rax, QWORD PTR this$[rsp]
	mov	DWORD PTR [rax+120], 1
; Line 362
	cmp	QWORD PTR pLock$[rsp], 0
	jne	SHORT $LN1@CBaseFilte@2
	mov	r8d, 362				; 0000016aH
	lea	rdx, OFFSET FLAT:$SG82427
	lea	rcx, OFFSET FLAT:$SG82428
	call	?DbgAssert@@YAXPEB_W0H@Z		; DbgAssert
	npad	1
$LN1@CBaseFilte@2:
; Line 364
	mov	rax, QWORD PTR this$[rsp]
	add	rsp, 72					; 00000048H
	pop	rdi
	pop	rsi
	ret	0
??0CBaseFilter@@QEAA@PEA_WPEAUIUnknown@@PEAVCCritSec@@AEBU_GUID@@PEAJ@Z ENDP ; CBaseFilter::CBaseFilter
; Function compile flags: /Odtp /RTCsu
_TEXT	ENDS
;	COMDAT text$x
text$x	SEGMENT
$T87320 = 32
$T87321 = 48
this$ = 96
pName$ = 104
pUnk$ = 112
pLock$ = 120
clsid$ = 128
phr$ = 136
?dtor$0@?0???0CBaseFilter@@QEAA@PEA_WPEAUIUnknown@@PEAVCCritSec@@AEBU_GUID@@PEAJ@Z@4HA PROC ; `CBaseFilter::CBaseFilter'::`1'::dtor$0
	mov	QWORD PTR [rsp+8], rcx
	mov	QWORD PTR [rsp+16], rdx
	push	rbp
	push	rdi
	sub	rsp, 40					; 00000028H
	mov	rbp, rdx
	mov	rcx, QWORD PTR this$[rbp]
	call	??1CUnknown@@UEAA@XZ			; CUnknown::~CUnknown
	add	rsp, 40					; 00000028H
	pop	rdi
	pop	rbp
	ret	0
?dtor$0@?0???0CBaseFilter@@QEAA@PEA_WPEAUIUnknown@@PEAVCCritSec@@AEBU_GUID@@PEAJ@Z@4HA ENDP ; `CBaseFilter::CBaseFilter'::`1'::dtor$0
text$x	ENDS
PUBLIC	$T87344
PUBLIC	??0CBaseFilter@@QEAA@PEBDPEAUIUnknown@@PEAVCCritSec@@AEBU_GUID@@@Z ; CBaseFilter::CBaseFilter
EXTRN	??0CUnknown@@QEAA@PEBDPEAUIUnknown@@@Z:PROC	; CUnknown::CUnknown
;	COMDAT pdata
pdata	SEGMENT
$pdata$??0CBaseFilter@@QEAA@PEBDPEAUIUnknown@@PEAVCCritSec@@AEBU_GUID@@@Z DD imagerel $LN5
	DD	imagerel $LN5+310
	DD	imagerel $unwind$??0CBaseFilter@@QEAA@PEBDPEAUIUnknown@@PEAVCCritSec@@AEBU_GUID@@@Z
pdata	ENDS
;	COMDAT pdata
pdata	SEGMENT
$pdata$?dtor$0@?0???0CBaseFilter@@QEAA@PEBDPEAUIUnknown@@PEAVCCritSec@@AEBU_GUID@@@Z@4HA DD imagerel ?dtor$0@?0???0CBaseFilter@@QEAA@PEBDPEAUIUnknown@@PEAVCCritSec@@AEBU_GUID@@@Z@4HA
	DD	imagerel ?dtor$0@?0???0CBaseFilter@@QEAA@PEBDPEAUIUnknown@@PEAVCCritSec@@AEBU_GUID@@@Z@4HA+35
	DD	imagerel $unwind$?dtor$0@?0???0CBaseFilter@@QEAA@PEBDPEAUIUnknown@@PEAVCCritSec@@AEBU_GUID@@@Z@4HA
pdata	ENDS
;	COMDAT xdata
xdata	SEGMENT
$ip2state$??0CBaseFilter@@QEAA@PEBDPEAUIUnknown@@PEAVCCritSec@@AEBU_GUID@@@Z DD imagerel ??0CBaseFilter@@QEAA@PEBDPEAUIUnknown@@PEAVCCritSec@@AEBU_GUID@@@Z
	DD	0ffffffffH
	DD	imagerel ??0CBaseFilter@@QEAA@PEBDPEAUIUnknown@@PEAVCCritSec@@AEBU_GUID@@@Z+76
	DD	00H
	DD	imagerel ??0CBaseFilter@@QEAA@PEBDPEAUIUnknown@@PEAVCCritSec@@AEBU_GUID@@@Z+298
	DD	0ffffffffH
xdata	ENDS
;	COMDAT xdata
xdata	SEGMENT
$unwind$?dtor$0@?0???0CBaseFilter@@QEAA@PEBDPEAUIUnknown@@PEAVCCritSec@@AEBU_GUID@@@Z@4HA DD 031001H
	DD	0700c4210H
	DD	0500bH
xdata	ENDS
;	COMDAT xdata
xdata	SEGMENT
$unwind$??0CBaseFilter@@QEAA@PEBDPEAUIUnknown@@PEAVCCritSec@@AEBU_GUID@@@Z DD 033711H
	DD	07016821aH
	DD	06015H
	DD	imagerel __CxxFrameHandler3
	DD	imagerel $cppxdata$??0CBaseFilter@@QEAA@PEBDPEAUIUnknown@@PEAVCCritSec@@AEBU_GUID@@@Z
xdata	ENDS
;	COMDAT CONST
CONST	SEGMENT
$cppxdata$??0CBaseFilter@@QEAA@PEBDPEAUIUnknown@@PEAVCCritSec@@AEBU_GUID@@@Z DD 019930522H
	DD	01H
	DD	imagerel $stateUnwindMap$??0CBaseFilter@@QEAA@PEBDPEAUIUnknown@@PEAVCCritSec@@AEBU_GUID@@@Z
	DD	00H
	DD	00H
	DD	03H
	DD	imagerel $ip2state$??0CBaseFilter@@QEAA@PEBDPEAUIUnknown@@PEAVCCritSec@@AEBU_GUID@@@Z
	DD	030H
	DD	00H
	DD	01H
CONST	ENDS
;	COMDAT xdata
xdata	SEGMENT
$stateUnwindMap$??0CBaseFilter@@QEAA@PEBDPEAUIUnknown@@PEAVCCritSec@@AEBU_GUID@@@Z DD 0ffffffffH
	DD	imagerel ?dtor$0@?0???0CBaseFilter@@QEAA@PEBDPEAUIUnknown@@PEAVCCritSec@@AEBU_GUID@@@Z@4HA
; Function compile flags: /Odtp /RTCsu
xdata	ENDS
;	COMDAT ??0CBaseFilter@@QEAA@PEBDPEAUIUnknown@@PEAVCCritSec@@AEBU_GUID@@@Z
_TEXT	SEGMENT
$T87344 = 32
$T87345 = 48
this$ = 96
pName$ = 104
pUnk$ = 112
pLock$ = 120
clsid$ = 128
??0CBaseFilter@@QEAA@PEBDPEAUIUnknown@@PEAVCCritSec@@AEBU_GUID@@@Z PROC ; CBaseFilter::CBaseFilter, COMDAT
; Line 380
$LN5:
	mov	QWORD PTR [rsp+32], r9
	mov	QWORD PTR [rsp+24], r8
	mov	QWORD PTR [rsp+16], rdx
	mov	QWORD PTR [rsp+8], rcx
	push	rsi
	push	rdi
	sub	rsp, 72					; 00000048H
	mov	rdi, rsp
	mov	ecx, 18
	mov	eax, -858993460				; ccccccccH
	rep stosd
	mov	rcx, QWORD PTR [rsp+96]
	mov	QWORD PTR $T87345[rsp], -2
	mov	r8, QWORD PTR pUnk$[rsp]
	mov	rdx, QWORD PTR pName$[rsp]
	mov	rcx, QWORD PTR this$[rsp]
	call	??0CUnknown@@QEAA@PEBDPEAUIUnknown@@@Z	; CUnknown::CUnknown
	npad	1
	mov	rax, QWORD PTR this$[rsp]
	add	rax, 32					; 00000020H
	mov	rcx, rax
	call	??0IBaseFilter@@QEAA@XZ
	mov	rax, QWORD PTR this$[rsp]
	add	rax, 40					; 00000028H
	mov	rcx, rax
	call	??0IAMovieSetup@@QEAA@XZ
	mov	rax, QWORD PTR this$[rsp]
	mov	DWORD PTR [rax+48], 0
	mov	rax, QWORD PTR this$[rsp]
	mov	QWORD PTR [rax+56], 0
	mov	rax, QWORD PTR this$[rsp]
	add	rax, 64					; 00000040H
	mov	rcx, rax
	call	??0CRefTime@@QEAA@XZ			; CRefTime::CRefTime
	lea	rax, QWORD PTR $T87344[rsp]
	mov	rdi, rax
	mov	rsi, QWORD PTR clsid$[rsp]
	mov	ecx, 16
	rep movsb
	mov	rax, QWORD PTR this$[rsp]
	lea	rcx, QWORD PTR $T87344[rsp]
	lea	rdi, QWORD PTR [rax+72]
	mov	rsi, rcx
	mov	ecx, 16
	rep movsb
	mov	rax, QWORD PTR this$[rsp]
	mov	rcx, QWORD PTR pLock$[rsp]
	mov	QWORD PTR [rax+88], rcx
	mov	rax, QWORD PTR this$[rsp]
	mov	QWORD PTR [rax+96], 0
	mov	rax, QWORD PTR this$[rsp]
	mov	QWORD PTR [rax+104], 0
	mov	rax, QWORD PTR this$[rsp]
	mov	QWORD PTR [rax+112], 0
	mov	rax, QWORD PTR this$[rsp]
	mov	DWORD PTR [rax+120], 1
; Line 382
	cmp	QWORD PTR pLock$[rsp], 0
	jne	SHORT $LN1@CBaseFilte@3
	mov	r8d, 382				; 0000017eH
	lea	rdx, OFFSET FLAT:$SG82437
	lea	rcx, OFFSET FLAT:$SG82438
	call	?DbgAssert@@YAXPEB_W0H@Z		; DbgAssert
	npad	1
$LN1@CBaseFilte@3:
; Line 383
	mov	rax, QWORD PTR this$[rsp]
	add	rsp, 72					; 00000048H
	pop	rdi
	pop	rsi
	ret	0
??0CBaseFilter@@QEAA@PEBDPEAUIUnknown@@PEAVCCritSec@@AEBU_GUID@@@Z ENDP ; CBaseFilter::CBaseFilter
; Function compile flags: /Odtp /RTCsu
_TEXT	ENDS
;	COMDAT text$x
text$x	SEGMENT
$T87344 = 32
$T87345 = 48
this$ = 96
pName$ = 104
pUnk$ = 112
pLock$ = 120
clsid$ = 128
?dtor$0@?0???0CBaseFilter@@QEAA@PEBDPEAUIUnknown@@PEAVCCritSec@@AEBU_GUID@@@Z@4HA PROC ; `CBaseFilter::CBaseFilter'::`1'::dtor$0
	mov	QWORD PTR [rsp+8], rcx
	mov	QWORD PTR [rsp+16], rdx
	push	rbp
	push	rdi
	sub	rsp, 40					; 00000028H
	mov	rbp, rdx
	mov	rcx, QWORD PTR this$[rbp]
	call	??1CUnknown@@UEAA@XZ			; CUnknown::~CUnknown
	add	rsp, 40					; 00000028H
	pop	rdi
	pop	rbp
	ret	0
?dtor$0@?0???0CBaseFilter@@QEAA@PEBDPEAUIUnknown@@PEAVCCritSec@@AEBU_GUID@@@Z@4HA ENDP ; `CBaseFilter::CBaseFilter'::`1'::dtor$0
text$x	ENDS
PUBLIC	$T87368
PUBLIC	??0CBaseFilter@@QEAA@PEADPEAUIUnknown@@PEAVCCritSec@@AEBU_GUID@@PEAJ@Z ; CBaseFilter::CBaseFilter
;	COMDAT pdata
pdata	SEGMENT
$pdata$??0CBaseFilter@@QEAA@PEADPEAUIUnknown@@PEAVCCritSec@@AEBU_GUID@@PEAJ@Z DD imagerel $LN5
	DD	imagerel $LN5+310
	DD	imagerel $unwind$??0CBaseFilter@@QEAA@PEADPEAUIUnknown@@PEAVCCritSec@@AEBU_GUID@@PEAJ@Z
pdata	ENDS
;	COMDAT pdata
pdata	SEGMENT
$pdata$?dtor$0@?0???0CBaseFilter@@QEAA@PEADPEAUIUnknown@@PEAVCCritSec@@AEBU_GUID@@PEAJ@Z@4HA DD imagerel ?dtor$0@?0???0CBaseFilter@@QEAA@PEADPEAUIUnknown@@PEAVCCritSec@@AEBU_GUID@@PEAJ@Z@4HA
	DD	imagerel ?dtor$0@?0???0CBaseFilter@@QEAA@PEADPEAUIUnknown@@PEAVCCritSec@@AEBU_GUID@@PEAJ@Z@4HA+35
	DD	imagerel $unwind$?dtor$0@?0???0CBaseFilter@@QEAA@PEADPEAUIUnknown@@PEAVCCritSec@@AEBU_GUID@@PEAJ@Z@4HA
pdata	ENDS
;	COMDAT xdata
xdata	SEGMENT
$ip2state$??0CBaseFilter@@QEAA@PEADPEAUIUnknown@@PEAVCCritSec@@AEBU_GUID@@PEAJ@Z DD imagerel ??0CBaseFilter@@QEAA@PEADPEAUIUnknown@@PEAVCCritSec@@AEBU_GUID@@PEAJ@Z
	DD	0ffffffffH
	DD	imagerel ??0CBaseFilter@@QEAA@PEADPEAUIUnknown@@PEAVCCritSec@@AEBU_GUID@@PEAJ@Z+76
	DD	00H
	DD	imagerel ??0CBaseFilter@@QEAA@PEADPEAUIUnknown@@PEAVCCritSec@@AEBU_GUID@@PEAJ@Z+298
	DD	0ffffffffH
xdata	ENDS
;	COMDAT xdata
xdata	SEGMENT
$unwind$?dtor$0@?0???0CBaseFilter@@QEAA@PEADPEAUIUnknown@@PEAVCCritSec@@AEBU_GUID@@PEAJ@Z@4HA DD 031001H
	DD	0700c4210H
	DD	0500bH
xdata	ENDS
;	COMDAT xdata
xdata	SEGMENT
$unwind$??0CBaseFilter@@QEAA@PEADPEAUIUnknown@@PEAVCCritSec@@AEBU_GUID@@PEAJ@Z DD 033711H
	DD	07016821aH
	DD	06015H
	DD	imagerel __CxxFrameHandler3
	DD	imagerel $cppxdata$??0CBaseFilter@@QEAA@PEADPEAUIUnknown@@PEAVCCritSec@@AEBU_GUID@@PEAJ@Z
xdata	ENDS
;	COMDAT CONST
CONST	SEGMENT
$cppxdata$??0CBaseFilter@@QEAA@PEADPEAUIUnknown@@PEAVCCritSec@@AEBU_GUID@@PEAJ@Z DD 019930522H
	DD	01H
	DD	imagerel $stateUnwindMap$??0CBaseFilter@@QEAA@PEADPEAUIUnknown@@PEAVCCritSec@@AEBU_GUID@@PEAJ@Z
	DD	00H
	DD	00H
	DD	03H
	DD	imagerel $ip2state$??0CBaseFilter@@QEAA@PEADPEAUIUnknown@@PEAVCCritSec@@AEBU_GUID@@PEAJ@Z
	DD	030H
	DD	00H
	DD	01H
CONST	ENDS
;	COMDAT xdata
xdata	SEGMENT
$stateUnwindMap$??0CBaseFilter@@QEAA@PEADPEAUIUnknown@@PEAVCCritSec@@AEBU_GUID@@PEAJ@Z DD 0ffffffffH
	DD	imagerel ?dtor$0@?0???0CBaseFilter@@QEAA@PEADPEAUIUnknown@@PEAVCCritSec@@AEBU_GUID@@PEAJ@Z@4HA
; Function compile flags: /Odtp /RTCsu
xdata	ENDS
;	COMDAT ??0CBaseFilter@@QEAA@PEADPEAUIUnknown@@PEAVCCritSec@@AEBU_GUID@@PEAJ@Z
_TEXT	SEGMENT
$T87368 = 32
$T87369 = 48
this$ = 96
pName$ = 104
pUnk$ = 112
pLock$ = 120
clsid$ = 128
phr$ = 136
??0CBaseFilter@@QEAA@PEADPEAUIUnknown@@PEAVCCritSec@@AEBU_GUID@@PEAJ@Z PROC ; CBaseFilter::CBaseFilter, COMDAT
; Line 398
$LN5:
	mov	QWORD PTR [rsp+32], r9
	mov	QWORD PTR [rsp+24], r8
	mov	QWORD PTR [rsp+16], rdx
	mov	QWORD PTR [rsp+8], rcx
	push	rsi
	push	rdi
	sub	rsp, 72					; 00000048H
	mov	rdi, rsp
	mov	ecx, 18
	mov	eax, -858993460				; ccccccccH
	rep stosd
	mov	rcx, QWORD PTR [rsp+96]
	mov	QWORD PTR $T87369[rsp], -2
	mov	r8, QWORD PTR pUnk$[rsp]
	mov	rdx, QWORD PTR pName$[rsp]
	mov	rcx, QWORD PTR this$[rsp]
	call	??0CUnknown@@QEAA@PEBDPEAUIUnknown@@@Z	; CUnknown::CUnknown
	npad	1
	mov	rax, QWORD PTR this$[rsp]
	add	rax, 32					; 00000020H
	mov	rcx, rax
	call	??0IBaseFilter@@QEAA@XZ
	mov	rax, QWORD PTR this$[rsp]
	add	rax, 40					; 00000028H
	mov	rcx, rax
	call	??0IAMovieSetup@@QEAA@XZ
	mov	rax, QWORD PTR this$[rsp]
	mov	DWORD PTR [rax+48], 0
	mov	rax, QWORD PTR this$[rsp]
	mov	QWORD PTR [rax+56], 0
	mov	rax, QWORD PTR this$[rsp]
	add	rax, 64					; 00000040H
	mov	rcx, rax
	call	??0CRefTime@@QEAA@XZ			; CRefTime::CRefTime
	lea	rax, QWORD PTR $T87368[rsp]
	mov	rdi, rax
	mov	rsi, QWORD PTR clsid$[rsp]
	mov	ecx, 16
	rep movsb
	mov	rax, QWORD PTR this$[rsp]
	lea	rcx, QWORD PTR $T87368[rsp]
	lea	rdi, QWORD PTR [rax+72]
	mov	rsi, rcx
	mov	ecx, 16
	rep movsb
	mov	rax, QWORD PTR this$[rsp]
	mov	rcx, QWORD PTR pLock$[rsp]
	mov	QWORD PTR [rax+88], rcx
	mov	rax, QWORD PTR this$[rsp]
	mov	QWORD PTR [rax+96], 0
	mov	rax, QWORD PTR this$[rsp]
	mov	QWORD PTR [rax+104], 0
	mov	rax, QWORD PTR this$[rsp]
	mov	QWORD PTR [rax+112], 0
	mov	rax, QWORD PTR this$[rsp]
	mov	DWORD PTR [rax+120], 1
; Line 400
	cmp	QWORD PTR pLock$[rsp], 0
	jne	SHORT $LN1@CBaseFilte@4
	mov	r8d, 400				; 00000190H
	lea	rdx, OFFSET FLAT:$SG82448
	lea	rcx, OFFSET FLAT:$SG82449
	call	?DbgAssert@@YAXPEB_W0H@Z		; DbgAssert
	npad	1
$LN1@CBaseFilte@4:
; Line 402
	mov	rax, QWORD PTR this$[rsp]
	add	rsp, 72					; 00000048H
	pop	rdi
	pop	rsi
	ret	0
??0CBaseFilter@@QEAA@PEADPEAUIUnknown@@PEAVCCritSec@@AEBU_GUID@@PEAJ@Z ENDP ; CBaseFilter::CBaseFilter
; Function compile flags: /Odtp /RTCsu
_TEXT	ENDS
;	COMDAT text$x
text$x	SEGMENT
$T87368 = 32
$T87369 = 48
this$ = 96
pName$ = 104
pUnk$ = 112
pLock$ = 120
clsid$ = 128
phr$ = 136
?dtor$0@?0???0CBaseFilter@@QEAA@PEADPEAUIUnknown@@PEAVCCritSec@@AEBU_GUID@@PEAJ@Z@4HA PROC ; `CBaseFilter::CBaseFilter'::`1'::dtor$0
	mov	QWORD PTR [rsp+8], rcx
	mov	QWORD PTR [rsp+16], rdx
	push	rbp
	push	rdi
	sub	rsp, 40					; 00000028H
	mov	rbp, rdx
	mov	rcx, QWORD PTR this$[rbp]
	call	??1CUnknown@@UEAA@XZ			; CUnknown::~CUnknown
	add	rsp, 40					; 00000028H
	pop	rdi
	pop	rbp
	ret	0
?dtor$0@?0???0CBaseFilter@@QEAA@PEADPEAUIUnknown@@PEAVCCritSec@@AEBU_GUID@@PEAJ@Z@4HA ENDP ; `CBaseFilter::CBaseFilter'::`1'::dtor$0
text$x	ENDS
PUBLIC	??1CBaseFilter@@UEAA@XZ				; CBaseFilter::~CBaseFilter
EXTRN	??3@YAXPEAX@Z:PROC				; operator delete
;	COMDAT pdata
pdata	SEGMENT
$pdata$??1CBaseFilter@@UEAA@XZ DD imagerel $LN5
	DD	imagerel $LN5+128
	DD	imagerel $unwind$??1CBaseFilter@@UEAA@XZ
pdata	ENDS
;	COMDAT pdata
pdata	SEGMENT
$pdata$?dtor$0@?0???1CBaseFilter@@UEAA@XZ@4HA DD imagerel ?dtor$0@?0???1CBaseFilter@@UEAA@XZ@4HA
	DD	imagerel ?dtor$0@?0???1CBaseFilter@@UEAA@XZ@4HA+35
	DD	imagerel $unwind$?dtor$0@?0???1CBaseFilter@@UEAA@XZ@4HA
pdata	ENDS
;	COMDAT xdata
xdata	SEGMENT
$ip2state$??1CBaseFilter@@UEAA@XZ DD imagerel ??1CBaseFilter@@UEAA@XZ
	DD	0ffffffffH
	DD	imagerel ??1CBaseFilter@@UEAA@XZ+39
	DD	00H
	DD	imagerel ??1CBaseFilter@@UEAA@XZ+112
	DD	0ffffffffH
xdata	ENDS
;	COMDAT xdata
xdata	SEGMENT
$unwind$?dtor$0@?0???1CBaseFilter@@UEAA@XZ@4HA DD 031001H
	DD	0700c4210H
	DD	0500bH
xdata	ENDS
;	COMDAT xdata
xdata	SEGMENT
$unwind$??1CBaseFilter@@UEAA@XZ DD 022711H
	DD	07006520aH
	DD	imagerel __CxxFrameHandler3
	DD	imagerel $cppxdata$??1CBaseFilter@@UEAA@XZ
xdata	ENDS
;	COMDAT CONST
CONST	SEGMENT
$cppxdata$??1CBaseFilter@@UEAA@XZ DD 019930522H
	DD	01H
	DD	imagerel $stateUnwindMap$??1CBaseFilter@@UEAA@XZ
	DD	00H
	DD	00H
	DD	03H
	DD	imagerel $ip2state$??1CBaseFilter@@UEAA@XZ
	DD	028H
	DD	00H
	DD	01H
CONST	ENDS
;	COMDAT xdata
xdata	SEGMENT
$stateUnwindMap$??1CBaseFilter@@UEAA@XZ DD 0ffffffffH
	DD	imagerel ?dtor$0@?0???1CBaseFilter@@UEAA@XZ@4HA
; Function compile flags: /Odtp /RTCsu
xdata	ENDS
;	COMDAT ??1CBaseFilter@@UEAA@XZ
_TEXT	SEGMENT
$T87387 = 32
$T87393 = 40
this$ = 64
??1CBaseFilter@@UEAA@XZ PROC				; CBaseFilter::~CBaseFilter, COMDAT
; Line 408
$LN5:
	mov	QWORD PTR [rsp+8], rcx
	push	rdi
	sub	rsp, 48					; 00000030H
	mov	rdi, rsp
	mov	ecx, 12
	mov	eax, -858993460				; ccccccccH
	rep stosd
	mov	rcx, QWORD PTR [rsp+64]
	mov	QWORD PTR $T87393[rsp], -2
; Line 413
	mov	rax, QWORD PTR this$[rsp]
	mov	rax, QWORD PTR [rax+96]
	mov	QWORD PTR $T87387[rsp], rax
	mov	rcx, QWORD PTR $T87387[rsp]
	call	??3@YAXPEAX@Z				; operator delete
; Line 419
	mov	rax, QWORD PTR this$[rsp]
	cmp	QWORD PTR [rax+56], 0
	je	SHORT $LN1@CBaseFilte@5
; Line 420
	mov	rax, QWORD PTR this$[rsp]
	mov	rax, QWORD PTR [rax+56]
	mov	rcx, QWORD PTR this$[rsp]
	mov	rcx, QWORD PTR [rcx+56]
	mov	rax, QWORD PTR [rax]
	call	QWORD PTR [rax+16]
; Line 421
	mov	rax, QWORD PTR this$[rsp]
	mov	QWORD PTR [rax+56], 0
$LN1@CBaseFilte@5:
; Line 423
	mov	rcx, QWORD PTR this$[rsp]
	call	??1CUnknown@@UEAA@XZ			; CUnknown::~CUnknown
	add	rsp, 48					; 00000030H
	pop	rdi
	ret	0
??1CBaseFilter@@UEAA@XZ ENDP				; CBaseFilter::~CBaseFilter
; Function compile flags: /Odtp /RTCsu
_TEXT	ENDS
;	COMDAT text$x
text$x	SEGMENT
$T87387 = 32
$T87393 = 40
this$ = 64
?dtor$0@?0???1CBaseFilter@@UEAA@XZ@4HA PROC		; `CBaseFilter::~CBaseFilter'::`1'::dtor$0
	mov	QWORD PTR [rsp+8], rcx
	mov	QWORD PTR [rsp+16], rdx
	push	rbp
	push	rdi
	sub	rsp, 40					; 00000028H
	mov	rbp, rdx
	mov	rcx, QWORD PTR this$[rbp]
	call	??1CUnknown@@UEAA@XZ			; CUnknown::~CUnknown
	add	rsp, 40					; 00000028H
	pop	rdi
	pop	rbp
	ret	0
?dtor$0@?0???1CBaseFilter@@UEAA@XZ@4HA ENDP		; `CBaseFilter::~CBaseFilter'::`1'::dtor$0
text$x	ENDS
PUBLIC	$T87411
PUBLIC	?GetClassID@CBaseFilter@@UEAAJPEAU_GUID@@@Z	; CBaseFilter::GetClassID
;	COMDAT pdata
pdata	SEGMENT
$pdata$?GetClassID@CBaseFilter@@UEAAJPEAU_GUID@@@Z DD imagerel $LN6
	DD	imagerel $LN6+199
	DD	imagerel $unwind$?GetClassID@CBaseFilter@@UEAAJPEAU_GUID@@@Z
pdata	ENDS
;	COMDAT xdata
xdata	SEGMENT
$unwind$?GetClassID@CBaseFilter@@UEAAJPEAU_GUID@@@Z DD 032401H
	DD	0700c6210H
	DD	0600bH
; Function compile flags: /Odtp /RTCsu
xdata	ENDS
;	COMDAT ?GetClassID@CBaseFilter@@UEAAJPEAU_GUID@@@Z
_TEXT	SEGMENT
$T87411 = 32
this$ = 80
pClsID$ = 88
?GetClassID@CBaseFilter@@UEAAJPEAU_GUID@@@Z PROC	; CBaseFilter::GetClassID, COMDAT
; Line 428
$LN6:
	mov	QWORD PTR [rsp+16], rdx
	mov	QWORD PTR [rsp+8], rcx
	push	rsi
	push	rdi
	sub	rsp, 56					; 00000038H
	mov	rdi, rsp
	mov	ecx, 14
	mov	eax, -858993460				; ccccccccH
	rep stosd
	mov	rcx, QWORD PTR [rsp+80]
; Line 429
	cmp	QWORD PTR pClsID$[rsp], 0
	jne	SHORT $LN3@GetClassID@2
	mov	eax, -2147467261			; ffffffff80004003H
	jmp	$LN4@GetClassID@2
$LN3@GetClassID@2:
; Line 430
	mov	edx, 16
	mov	rcx, QWORD PTR pClsID$[rsp]
	call	QWORD PTR __imp_IsBadReadPtr
	cmp	eax, 1
	jne	SHORT $LN2@GetClassID@2
	mov	r8d, 430				; 000001aeH
	lea	rdx, OFFSET FLAT:$SG82464
	lea	rcx, OFFSET FLAT:$SG82465
	call	?DbgBreakPoint@@YAXPEB_W0H@Z		; DbgBreakPoint
$LN2@GetClassID@2:
	mov	edx, 16
	mov	rcx, QWORD PTR pClsID$[rsp]
	call	QWORD PTR __imp_IsBadWritePtr
	cmp	eax, 1
	jne	SHORT $LN1@GetClassID@2
	mov	r8d, 430				; 000001aeH
	lea	rdx, OFFSET FLAT:$SG82469
	lea	rcx, OFFSET FLAT:$SG82470
	call	?DbgBreakPoint@@YAXPEB_W0H@Z		; DbgBreakPoint
$LN1@GetClassID@2:
; Line 431
	lea	rax, QWORD PTR $T87411[rsp]
	mov	rcx, QWORD PTR this$[rsp]
	mov	rdi, rax
	lea	rsi, QWORD PTR [rcx+40]
	mov	ecx, 16
	rep movsb
	lea	rax, QWORD PTR $T87411[rsp]
	mov	rdi, QWORD PTR pClsID$[rsp]
	mov	rsi, rax
	mov	ecx, 16
	rep movsb
; Line 432
	xor	eax, eax
$LN4@GetClassID@2:
; Line 433
	add	rsp, 56					; 00000038H
	pop	rdi
	pop	rsi
	ret	0
?GetClassID@CBaseFilter@@UEAAJPEAU_GUID@@@Z ENDP	; CBaseFilter::GetClassID
_TEXT	ENDS
PUBLIC	?GetState@CBaseFilter@@UEAAJKPEAW4_FilterState@@@Z ; CBaseFilter::GetState
;	COMDAT pdata
pdata	SEGMENT
$pdata$?GetState@CBaseFilter@@UEAAJKPEAW4_FilterState@@@Z DD imagerel $LN6
	DD	imagerel $LN6+169
	DD	imagerel $unwind$?GetState@CBaseFilter@@UEAAJKPEAW4_FilterState@@@Z
pdata	ENDS
;	COMDAT xdata
xdata	SEGMENT
$unwind$?GetState@CBaseFilter@@UEAAJKPEAW4_FilterState@@@Z DD 022701H
	DD	0700f3213H
; Function compile flags: /Odtp /RTCsu
xdata	ENDS
;	COMDAT ?GetState@CBaseFilter@@UEAAJKPEAW4_FilterState@@@Z
_TEXT	SEGMENT
this$ = 48
dwMSecs$ = 56
State$ = 64
?GetState@CBaseFilter@@UEAAJKPEAW4_FilterState@@@Z PROC	; CBaseFilter::GetState, COMDAT
; Line 438
$LN6:
	mov	QWORD PTR [rsp+24], r8
	mov	DWORD PTR [rsp+16], edx
	mov	QWORD PTR [rsp+8], rcx
	push	rdi
	sub	rsp, 32					; 00000020H
	mov	rdi, rsp
	mov	ecx, 8
	mov	eax, -858993460				; ccccccccH
	rep stosd
	mov	rcx, QWORD PTR [rsp+48]
; Line 440
	cmp	QWORD PTR State$[rsp], 0
	jne	SHORT $LN3@GetState@2
	mov	eax, -2147467261			; ffffffff80004003H
	jmp	SHORT $LN4@GetState@2
$LN3@GetState@2:
; Line 441
	mov	edx, 4
	mov	rcx, QWORD PTR State$[rsp]
	call	QWORD PTR __imp_IsBadReadPtr
	cmp	eax, 1
	jne	SHORT $LN2@GetState@2
	mov	r8d, 441				; 000001b9H
	lea	rdx, OFFSET FLAT:$SG82481
	lea	rcx, OFFSET FLAT:$SG82482
	call	?DbgBreakPoint@@YAXPEB_W0H@Z		; DbgBreakPoint
$LN2@GetState@2:
	mov	edx, 4
	mov	rcx, QWORD PTR State$[rsp]
	call	QWORD PTR __imp_IsBadWritePtr
	cmp	eax, 1
	jne	SHORT $LN1@GetState@2
	mov	r8d, 441				; 000001b9H
	lea	rdx, OFFSET FLAT:$SG82486
	lea	rcx, OFFSET FLAT:$SG82487
	call	?DbgBreakPoint@@YAXPEB_W0H@Z		; DbgBreakPoint
$LN1@GetState@2:
; Line 443
	mov	rax, QWORD PTR State$[rsp]
	mov	rcx, QWORD PTR this$[rsp]
	mov	ecx, DWORD PTR [rcx+16]
	mov	DWORD PTR [rax], ecx
; Line 444
	xor	eax, eax
$LN4@GetState@2:
; Line 445
	add	rsp, 32					; 00000020H
	pop	rdi
	ret	0
?GetState@CBaseFilter@@UEAAJKPEAW4_FilterState@@@Z ENDP	; CBaseFilter::GetState
_TEXT	ENDS
PUBLIC	?SetSyncSource@CBaseFilter@@UEAAJPEAUIReferenceClock@@@Z ; CBaseFilter::SetSyncSource
;	COMDAT pdata
pdata	SEGMENT
$pdata$?SetSyncSource@CBaseFilter@@UEAAJPEAUIReferenceClock@@@Z DD imagerel $LN6
	DD	imagerel $LN6+185
	DD	imagerel $unwind$?SetSyncSource@CBaseFilter@@UEAAJPEAUIReferenceClock@@@Z
pdata	ENDS
;	COMDAT pdata
pdata	SEGMENT
$pdata$?dtor$0@?0??SetSyncSource@CBaseFilter@@UEAAJPEAUIReferenceClock@@@Z@4HA DD imagerel ?dtor$0@?0??SetSyncSource@CBaseFilter@@UEAAJPEAUIReferenceClock@@@Z@4HA
	DD	imagerel ?dtor$0@?0??SetSyncSource@CBaseFilter@@UEAAJPEAUIReferenceClock@@@Z@4HA+35
	DD	imagerel $unwind$?dtor$0@?0??SetSyncSource@CBaseFilter@@UEAAJPEAUIReferenceClock@@@Z@4HA
pdata	ENDS
;	COMDAT xdata
xdata	SEGMENT
$ip2state$?SetSyncSource@CBaseFilter@@UEAAJPEAUIReferenceClock@@@Z DD imagerel ?SetSyncSource@CBaseFilter@@UEAAJPEAUIReferenceClock@@@Z
	DD	0ffffffffH
	DD	imagerel ?SetSyncSource@CBaseFilter@@UEAAJPEAUIReferenceClock@@@Z+64
	DD	00H
	DD	imagerel ?SetSyncSource@CBaseFilter@@UEAAJPEAUIReferenceClock@@@Z+146
	DD	0ffffffffH
xdata	ENDS
;	COMDAT xdata
xdata	SEGMENT
$unwind$?dtor$0@?0??SetSyncSource@CBaseFilter@@UEAAJPEAUIReferenceClock@@@Z@4HA DD 031001H
	DD	0700c4210H
	DD	0500bH
xdata	ENDS
;	COMDAT xdata
xdata	SEGMENT
$unwind$?SetSyncSource@CBaseFilter@@UEAAJPEAUIReferenceClock@@@Z DD 022c11H
	DD	0700b720fH
	DD	imagerel __CxxFrameHandler3
	DD	imagerel $cppxdata$?SetSyncSource@CBaseFilter@@UEAAJPEAUIReferenceClock@@@Z
xdata	ENDS
;	COMDAT xdata
xdata	SEGMENT
$stateUnwindMap$?SetSyncSource@CBaseFilter@@UEAAJPEAUIReferenceClock@@@Z DD 0ffffffffH
	DD	imagerel ?dtor$0@?0??SetSyncSource@CBaseFilter@@UEAAJPEAUIReferenceClock@@@Z@4HA
xdata	ENDS
;	COMDAT CONST
CONST	SEGMENT
?SetSyncSource@CBaseFilter@@UEAAJPEAUIReferenceClock@@@Z$rtcName$0 DB 063H ; CBaseFilter::SetSyncSource
	DB	04fH
	DB	062H
	DB	06aH
	DB	065H
	DB	063H
	DB	074H
	DB	04cH
	DB	06fH
	DB	063H
	DB	06bH
	DB	00H
	ORG $+4
?SetSyncSource@CBaseFilter@@UEAAJPEAUIReferenceClock@@@Z$rtcVarDesc DD 028H ; CBaseFilter::SetSyncSource
	DD	08H
	DQ	FLAT:?SetSyncSource@CBaseFilter@@UEAAJPEAUIReferenceClock@@@Z$rtcName$0
	ORG $+48
?SetSyncSource@CBaseFilter@@UEAAJPEAUIReferenceClock@@@Z$rtcFrameData DD 01H ; CBaseFilter::SetSyncSource
	DD	00H
	DQ	FLAT:?SetSyncSource@CBaseFilter@@UEAAJPEAUIReferenceClock@@@Z$rtcVarDesc
$cppxdata$?SetSyncSource@CBaseFilter@@UEAAJPEAUIReferenceClock@@@Z DD 019930522H
	DD	01H
	DD	imagerel $stateUnwindMap$?SetSyncSource@CBaseFilter@@UEAAJPEAUIReferenceClock@@@Z
	DD	00H
	DD	00H
	DD	03H
	DD	imagerel $ip2state$?SetSyncSource@CBaseFilter@@UEAAJPEAUIReferenceClock@@@Z
	DD	038H
	DD	00H
	DD	01H
; Function compile flags: /Odtp /RTCsu
CONST	ENDS
;	COMDAT ?SetSyncSource@CBaseFilter@@UEAAJPEAUIReferenceClock@@@Z
_TEXT	SEGMENT
cObjectLock$ = 40
$T87426 = 52
$T87432 = 56
this$ = 80
pClock$ = 88
?SetSyncSource@CBaseFilter@@UEAAJPEAUIReferenceClock@@@Z PROC ; CBaseFilter::SetSyncSource, COMDAT
; Line 452
$LN6:
	mov	QWORD PTR [rsp+16], rdx
	mov	QWORD PTR [rsp+8], rcx
	push	rdi
	sub	rsp, 64					; 00000040H
	mov	rdi, rsp
	mov	ecx, 16
	mov	eax, -858993460				; ccccccccH
	rep stosd
	mov	rcx, QWORD PTR [rsp+80]
	mov	QWORD PTR $T87432[rsp], -2
; Line 453
	mov	rax, QWORD PTR this$[rsp]
	mov	rdx, QWORD PTR [rax+56]
	lea	rcx, QWORD PTR cObjectLock$[rsp]
	call	??0CAutoLock@@QEAA@PEAVCCritSec@@@Z	; CAutoLock::CAutoLock
	npad	1
; Line 456
	cmp	QWORD PTR pClock$[rsp], 0
	je	SHORT $LN2@SetSyncSou@2
; Line 457
	mov	rax, QWORD PTR pClock$[rsp]
	mov	rax, QWORD PTR [rax]
	mov	rcx, QWORD PTR pClock$[rsp]
	call	QWORD PTR [rax+8]
$LN2@SetSyncSou@2:
; Line 461
	mov	rax, QWORD PTR this$[rsp]
	cmp	QWORD PTR [rax+24], 0
	je	SHORT $LN1@SetSyncSou@2
; Line 462
	mov	rax, QWORD PTR this$[rsp]
	mov	rax, QWORD PTR [rax+24]
	mov	rcx, QWORD PTR this$[rsp]
	mov	rcx, QWORD PTR [rcx+24]
	mov	rax, QWORD PTR [rax]
	call	QWORD PTR [rax+16]
$LN1@SetSyncSou@2:
; Line 467
	mov	rax, QWORD PTR this$[rsp]
	mov	rcx, QWORD PTR pClock$[rsp]
	mov	QWORD PTR [rax+24], rcx
; Line 469
	mov	DWORD PTR $T87426[rsp], 0
	lea	rcx, QWORD PTR cObjectLock$[rsp]
	call	??1CAutoLock@@QEAA@XZ			; CAutoLock::~CAutoLock
	mov	eax, DWORD PTR $T87426[rsp]
; Line 470
	mov	edi, eax
	mov	rcx, rsp
	lea	rdx, OFFSET FLAT:?SetSyncSource@CBaseFilter@@UEAAJPEAUIReferenceClock@@@Z$rtcFrameData
	call	_RTC_CheckStackVars
	mov	eax, edi
	add	rsp, 64					; 00000040H
	pop	rdi
	ret	0
?SetSyncSource@CBaseFilter@@UEAAJPEAUIReferenceClock@@@Z ENDP ; CBaseFilter::SetSyncSource
; Function compile flags: /Odtp /RTCsu
_TEXT	ENDS
;	COMDAT text$x
text$x	SEGMENT
cObjectLock$ = 40
$T87426 = 52
$T87432 = 56
this$ = 80
pClock$ = 88
?dtor$0@?0??SetSyncSource@CBaseFilter@@UEAAJPEAUIReferenceClock@@@Z@4HA PROC ; `CBaseFilter::SetSyncSource'::`1'::dtor$0
	mov	QWORD PTR [rsp+8], rcx
	mov	QWORD PTR [rsp+16], rdx
	push	rbp
	push	rdi
	sub	rsp, 40					; 00000028H
	mov	rbp, rdx
	lea	rcx, QWORD PTR cObjectLock$[rbp]
	call	??1CAutoLock@@QEAA@XZ			; CAutoLock::~CAutoLock
	add	rsp, 40					; 00000028H
	pop	rdi
	pop	rbp
	ret	0
?dtor$0@?0??SetSyncSource@CBaseFilter@@UEAAJPEAUIReferenceClock@@@Z@4HA ENDP ; `CBaseFilter::SetSyncSource'::`1'::dtor$0
text$x	ENDS
PUBLIC	?GetSyncSource@CBaseFilter@@UEAAJPEAPEAUIReferenceClock@@@Z ; CBaseFilter::GetSyncSource
;	COMDAT pdata
pdata	SEGMENT
$pdata$?GetSyncSource@CBaseFilter@@UEAAJPEAPEAUIReferenceClock@@@Z DD imagerel $LN8
	DD	imagerel $LN8+276
	DD	imagerel $unwind$?GetSyncSource@CBaseFilter@@UEAAJPEAPEAUIReferenceClock@@@Z
pdata	ENDS
;	COMDAT pdata
pdata	SEGMENT
$pdata$?dtor$0@?0??GetSyncSource@CBaseFilter@@UEAAJPEAPEAUIReferenceClock@@@Z@4HA DD imagerel ?dtor$0@?0??GetSyncSource@CBaseFilter@@UEAAJPEAPEAUIReferenceClock@@@Z@4HA
	DD	imagerel ?dtor$0@?0??GetSyncSource@CBaseFilter@@UEAAJPEAPEAUIReferenceClock@@@Z@4HA+35
	DD	imagerel $unwind$?dtor$0@?0??GetSyncSource@CBaseFilter@@UEAAJPEAPEAUIReferenceClock@@@Z@4HA
pdata	ENDS
;	COMDAT xdata
xdata	SEGMENT
$ip2state$?GetSyncSource@CBaseFilter@@UEAAJPEAPEAUIReferenceClock@@@Z DD imagerel ?GetSyncSource@CBaseFilter@@UEAAJPEAPEAUIReferenceClock@@@Z
	DD	0ffffffffH
	DD	imagerel ?GetSyncSource@CBaseFilter@@UEAAJPEAPEAUIReferenceClock@@@Z+174
	DD	00H
	DD	imagerel ?GetSyncSource@CBaseFilter@@UEAAJPEAPEAUIReferenceClock@@@Z+235
	DD	0ffffffffH
xdata	ENDS
;	COMDAT xdata
xdata	SEGMENT
$unwind$?dtor$0@?0??GetSyncSource@CBaseFilter@@UEAAJPEAPEAUIReferenceClock@@@Z@4HA DD 031001H
	DD	0700c4210H
	DD	0500bH
xdata	ENDS
;	COMDAT xdata
xdata	SEGMENT
$unwind$?GetSyncSource@CBaseFilter@@UEAAJPEAPEAUIReferenceClock@@@Z DD 022c11H
	DD	0700b720fH
	DD	imagerel __CxxFrameHandler3
	DD	imagerel $cppxdata$?GetSyncSource@CBaseFilter@@UEAAJPEAPEAUIReferenceClock@@@Z
xdata	ENDS
;	COMDAT xdata
xdata	SEGMENT
$stateUnwindMap$?GetSyncSource@CBaseFilter@@UEAAJPEAPEAUIReferenceClock@@@Z DD 0ffffffffH
	DD	imagerel ?dtor$0@?0??GetSyncSource@CBaseFilter@@UEAAJPEAPEAUIReferenceClock@@@Z@4HA
xdata	ENDS
;	COMDAT CONST
CONST	SEGMENT
?GetSyncSource@CBaseFilter@@UEAAJPEAPEAUIReferenceClock@@@Z$rtcName$0 DB 063H ; CBaseFilter::GetSyncSource
	DB	04fH
	DB	062H
	DB	06aH
	DB	065H
	DB	063H
	DB	074H
	DB	04cH
	DB	06fH
	DB	063H
	DB	06bH
	DB	00H
	ORG $+4
?GetSyncSource@CBaseFilter@@UEAAJPEAPEAUIReferenceClock@@@Z$rtcVarDesc DD 028H ; CBaseFilter::GetSyncSource
	DD	08H
	DQ	FLAT:?GetSyncSource@CBaseFilter@@UEAAJPEAPEAUIReferenceClock@@@Z$rtcName$0
	ORG $+48
?GetSyncSource@CBaseFilter@@UEAAJPEAPEAUIReferenceClock@@@Z$rtcFrameData DD 01H ; CBaseFilter::GetSyncSource
	DD	00H
	DQ	FLAT:?GetSyncSource@CBaseFilter@@UEAAJPEAPEAUIReferenceClock@@@Z$rtcVarDesc
$cppxdata$?GetSyncSource@CBaseFilter@@UEAAJPEAPEAUIReferenceClock@@@Z DD 019930522H
	DD	01H
	DD	imagerel $stateUnwindMap$?GetSyncSource@CBaseFilter@@UEAAJPEAPEAUIReferenceClock@@@Z
	DD	00H
	DD	00H
	DD	03H
	DD	imagerel $ip2state$?GetSyncSource@CBaseFilter@@UEAAJPEAPEAUIReferenceClock@@@Z
	DD	038H
	DD	00H
	DD	01H
; Function compile flags: /Odtp /RTCsu
CONST	ENDS
;	COMDAT ?GetSyncSource@CBaseFilter@@UEAAJPEAPEAUIReferenceClock@@@Z
_TEXT	SEGMENT
cObjectLock$ = 40
$T87453 = 52
$T87459 = 56
this$ = 80
pClock$ = 88
?GetSyncSource@CBaseFilter@@UEAAJPEAPEAUIReferenceClock@@@Z PROC ; CBaseFilter::GetSyncSource, COMDAT
; Line 475
$LN8:
	mov	QWORD PTR [rsp+16], rdx
	mov	QWORD PTR [rsp+8], rcx
	push	rdi
	sub	rsp, 64					; 00000040H
	mov	rdi, rsp
	mov	ecx, 16
	mov	eax, -858993460				; ccccccccH
	rep stosd
	mov	rcx, QWORD PTR [rsp+80]
	mov	QWORD PTR $T87459[rsp], -2
; Line 476
	cmp	QWORD PTR pClock$[rsp], 0
	jne	SHORT $LN4@GetSyncSou@2
	mov	eax, -2147467261			; ffffffff80004003H
	jmp	$LN5@GetSyncSou@2
$LN4@GetSyncSou@2:
; Line 477
	mov	edx, 8
	mov	rcx, QWORD PTR pClock$[rsp]
	call	QWORD PTR __imp_IsBadReadPtr
	cmp	eax, 1
	jne	SHORT $LN3@GetSyncSou@2
	mov	r8d, 477				; 000001ddH
	lea	rdx, OFFSET FLAT:$SG82506
	lea	rcx, OFFSET FLAT:$SG82507
	call	?DbgBreakPoint@@YAXPEB_W0H@Z		; DbgBreakPoint
$LN3@GetSyncSou@2:
	mov	edx, 8
	mov	rcx, QWORD PTR pClock$[rsp]
	call	QWORD PTR __imp_IsBadWritePtr
	cmp	eax, 1
	jne	SHORT $LN2@GetSyncSou@2
	mov	r8d, 477				; 000001ddH
	lea	rdx, OFFSET FLAT:$SG82511
	lea	rcx, OFFSET FLAT:$SG82512
	call	?DbgBreakPoint@@YAXPEB_W0H@Z		; DbgBreakPoint
$LN2@GetSyncSou@2:
; Line 478
	mov	rax, QWORD PTR this$[rsp]
	mov	rdx, QWORD PTR [rax+56]
	lea	rcx, QWORD PTR cObjectLock$[rsp]
	call	??0CAutoLock@@QEAA@PEAVCCritSec@@@Z	; CAutoLock::CAutoLock
	npad	1
; Line 480
	mov	rax, QWORD PTR this$[rsp]
	cmp	QWORD PTR [rax+24], 0
	je	SHORT $LN1@GetSyncSou@2
; Line 482
	mov	rax, QWORD PTR this$[rsp]
	mov	rax, QWORD PTR [rax+24]
	mov	rcx, QWORD PTR this$[rsp]
	mov	rcx, QWORD PTR [rcx+24]
	mov	rax, QWORD PTR [rax]
	call	QWORD PTR [rax+8]
$LN1@GetSyncSou@2:
; Line 484
	mov	rax, QWORD PTR pClock$[rsp]
	mov	rcx, QWORD PTR this$[rsp]
	mov	rcx, QWORD PTR [rcx+24]
	mov	QWORD PTR [rax], rcx
; Line 485
	mov	DWORD PTR $T87453[rsp], 0
	lea	rcx, QWORD PTR cObjectLock$[rsp]
	call	??1CAutoLock@@QEAA@XZ			; CAutoLock::~CAutoLock
	mov	eax, DWORD PTR $T87453[rsp]
$LN5@GetSyncSou@2:
; Line 486
	mov	rdi, rax
	mov	rcx, rsp
	lea	rdx, OFFSET FLAT:?GetSyncSource@CBaseFilter@@UEAAJPEAPEAUIReferenceClock@@@Z$rtcFrameData
	call	_RTC_CheckStackVars
	mov	rax, rdi
	add	rsp, 64					; 00000040H
	pop	rdi
	ret	0
?GetSyncSource@CBaseFilter@@UEAAJPEAPEAUIReferenceClock@@@Z ENDP ; CBaseFilter::GetSyncSource
; Function compile flags: /Odtp /RTCsu
_TEXT	ENDS
;	COMDAT text$x
text$x	SEGMENT
cObjectLock$ = 40
$T87453 = 52
$T87459 = 56
this$ = 80
pClock$ = 88
?dtor$0@?0??GetSyncSource@CBaseFilter@@UEAAJPEAPEAUIReferenceClock@@@Z@4HA PROC ; `CBaseFilter::GetSyncSource'::`1'::dtor$0
	mov	QWORD PTR [rsp+8], rcx
	mov	QWORD PTR [rsp+16], rdx
	push	rbp
	push	rdi
	sub	rsp, 40					; 00000028H
	mov	rbp, rdx
	lea	rcx, QWORD PTR cObjectLock$[rbp]
	call	??1CAutoLock@@QEAA@XZ			; CAutoLock::~CAutoLock
	add	rsp, 40					; 00000028H
	pop	rdi
	pop	rbp
	ret	0
?dtor$0@?0??GetSyncSource@CBaseFilter@@UEAAJPEAPEAUIReferenceClock@@@Z@4HA ENDP ; `CBaseFilter::GetSyncSource'::`1'::dtor$0
text$x	ENDS
PUBLIC	?IsConnected@CBasePin@@QEAAHXZ			; CBasePin::IsConnected
PUBLIC	?Stop@CBaseFilter@@UEAAJXZ			; CBaseFilter::Stop
;	COMDAT pdata
pdata	SEGMENT
$pdata$?Stop@CBaseFilter@@UEAAJXZ DD imagerel $LN10
	DD	imagerel $LN10+334
	DD	imagerel $unwind$?Stop@CBaseFilter@@UEAAJXZ
pdata	ENDS
;	COMDAT pdata
pdata	SEGMENT
$pdata$?dtor$0@?0??Stop@CBaseFilter@@UEAAJXZ@4HA DD imagerel ?dtor$0@?0??Stop@CBaseFilter@@UEAAJXZ@4HA
	DD	imagerel ?dtor$0@?0??Stop@CBaseFilter@@UEAAJXZ@4HA+35
	DD	imagerel $unwind$?dtor$0@?0??Stop@CBaseFilter@@UEAAJXZ@4HA
pdata	ENDS
;	COMDAT xdata
xdata	SEGMENT
$ip2state$?Stop@CBaseFilter@@UEAAJXZ DD imagerel ?Stop@CBaseFilter@@UEAAJXZ
	DD	0ffffffffH
	DD	imagerel ?Stop@CBaseFilter@@UEAAJXZ+65
	DD	00H
	DD	imagerel ?Stop@CBaseFilter@@UEAAJXZ+295
	DD	0ffffffffH
xdata	ENDS
;	COMDAT xdata
xdata	SEGMENT
$unwind$?dtor$0@?0??Stop@CBaseFilter@@UEAAJXZ@4HA DD 031001H
	DD	0700c4210H
	DD	0500bH
xdata	ENDS
;	COMDAT xdata
xdata	SEGMENT
$unwind$?Stop@CBaseFilter@@UEAAJXZ DD 022a11H
	DD	07006d20aH
	DD	imagerel __CxxFrameHandler3
	DD	imagerel $cppxdata$?Stop@CBaseFilter@@UEAAJXZ
xdata	ENDS
;	COMDAT xdata
xdata	SEGMENT
$stateUnwindMap$?Stop@CBaseFilter@@UEAAJXZ DD 0ffffffffH
	DD	imagerel ?dtor$0@?0??Stop@CBaseFilter@@UEAAJXZ@4HA
xdata	ENDS
;	COMDAT CONST
CONST	SEGMENT
?Stop@CBaseFilter@@UEAAJXZ$rtcName$0 DB 063H		; CBaseFilter::Stop
	DB	04fH
	DB	062H
	DB	06aH
	DB	065H
	DB	063H
	DB	074H
	DB	04cH
	DB	06fH
	DB	063H
	DB	06bH
	DB	00H
	ORG $+4
?Stop@CBaseFilter@@UEAAJXZ$rtcVarDesc DD 028H		; CBaseFilter::Stop
	DD	08H
	DQ	FLAT:?Stop@CBaseFilter@@UEAAJXZ$rtcName$0
	ORG $+48
?Stop@CBaseFilter@@UEAAJXZ$rtcFrameData DD 01H		; CBaseFilter::Stop
	DD	00H
	DQ	FLAT:?Stop@CBaseFilter@@UEAAJXZ$rtcVarDesc
$cppxdata$?Stop@CBaseFilter@@UEAAJXZ DD 019930522H
	DD	01H
	DD	imagerel $stateUnwindMap$?Stop@CBaseFilter@@UEAAJXZ
	DD	00H
	DD	00H
	DD	03H
	DD	imagerel $ip2state$?Stop@CBaseFilter@@UEAAJXZ
	DD	050H
	DD	00H
	DD	01H
; Function compile flags: /Odtp /RTCsu
CONST	ENDS
;	COMDAT ?Stop@CBaseFilter@@UEAAJXZ
_TEXT	SEGMENT
cObjectLock$ = 40
hr$ = 52
cPins$82523 = 56
c$82524 = 60
pPin$82528 = 64
hrTmp$82530 = 72
$T87480 = 76
$T87486 = 80
tv134 = 88
tv133 = 96
this$ = 128
?Stop@CBaseFilter@@UEAAJXZ PROC				; CBaseFilter::Stop, COMDAT
; Line 494
$LN10:
	mov	QWORD PTR [rsp+8], rcx
	push	rdi
	sub	rsp, 112				; 00000070H
	mov	rdi, rsp
	mov	ecx, 28
	mov	eax, -858993460				; ccccccccH
	rep stosd
	mov	rcx, QWORD PTR [rsp+128]
	mov	QWORD PTR $T87486[rsp], -2
; Line 495
	mov	rax, QWORD PTR this$[rsp]
	mov	rdx, QWORD PTR [rax+56]
	lea	rcx, QWORD PTR cObjectLock$[rsp]
	call	??0CAutoLock@@QEAA@PEAVCCritSec@@@Z	; CAutoLock::CAutoLock
	npad	1
; Line 496
	mov	DWORD PTR hr$[rsp], 0
; Line 499
	mov	rax, QWORD PTR this$[rsp]
	cmp	DWORD PTR [rax+16], 0
	je	$LN6@Stop
; Line 500
	mov	rax, QWORD PTR this$[rsp]
	sub	rax, 32					; 00000020H
	mov	rcx, QWORD PTR this$[rsp]
	mov	rcx, QWORD PTR [rcx-32]
	mov	QWORD PTR tv134[rsp], rcx
	mov	rcx, rax
	mov	rax, QWORD PTR tv134[rsp]
	call	QWORD PTR [rax+48]
	mov	DWORD PTR cPins$82523[rsp], eax
; Line 501
	mov	DWORD PTR c$82524[rsp], 0
	jmp	SHORT $LN5@Stop
$LN4@Stop:
	mov	eax, DWORD PTR c$82524[rsp]
	inc	eax
	mov	DWORD PTR c$82524[rsp], eax
$LN5@Stop:
	mov	eax, DWORD PTR cPins$82523[rsp]
	cmp	DWORD PTR c$82524[rsp], eax
	jge	SHORT $LN6@Stop
; Line 503
	mov	rax, QWORD PTR this$[rsp]
	sub	rax, 32					; 00000020H
	mov	rcx, QWORD PTR this$[rsp]
	mov	rcx, QWORD PTR [rcx-32]
	mov	QWORD PTR tv133[rsp], rcx
	mov	edx, DWORD PTR c$82524[rsp]
	mov	rcx, rax
	mov	rax, QWORD PTR tv133[rsp]
	call	QWORD PTR [rax+56]
	mov	QWORD PTR pPin$82528[rsp], rax
; Line 511
	mov	rcx, QWORD PTR pPin$82528[rsp]
	call	?IsConnected@CBasePin@@QEAAHXZ		; CBasePin::IsConnected
	test	eax, eax
	je	SHORT $LN2@Stop
; Line 512
	mov	rax, QWORD PTR pPin$82528[rsp]
	mov	rax, QWORD PTR [rax]
	mov	rcx, QWORD PTR pPin$82528[rsp]
	call	QWORD PTR [rax+48]
	mov	DWORD PTR hrTmp$82530[rsp], eax
; Line 513
	cmp	DWORD PTR hrTmp$82530[rsp], 0
	jge	SHORT $LN2@Stop
	cmp	DWORD PTR hr$[rsp], 0
	jl	SHORT $LN2@Stop
; Line 514
	mov	eax, DWORD PTR hrTmp$82530[rsp]
	mov	DWORD PTR hr$[rsp], eax
$LN2@Stop:
; Line 517
	jmp	SHORT $LN4@Stop
$LN6@Stop:
; Line 521
	mov	rax, QWORD PTR this$[rsp]
	mov	DWORD PTR [rax+16], 0
; Line 522
	mov	eax, DWORD PTR hr$[rsp]
	mov	DWORD PTR $T87480[rsp], eax
	lea	rcx, QWORD PTR cObjectLock$[rsp]
	call	??1CAutoLock@@QEAA@XZ			; CAutoLock::~CAutoLock
	mov	eax, DWORD PTR $T87480[rsp]
; Line 523
	mov	edi, eax
	mov	rcx, rsp
	lea	rdx, OFFSET FLAT:?Stop@CBaseFilter@@UEAAJXZ$rtcFrameData
	call	_RTC_CheckStackVars
	mov	eax, edi
	add	rsp, 112				; 00000070H
	pop	rdi
	ret	0
?Stop@CBaseFilter@@UEAAJXZ ENDP				; CBaseFilter::Stop
; Function compile flags: /Odtp /RTCsu
_TEXT	ENDS
;	COMDAT text$x
text$x	SEGMENT
cObjectLock$ = 40
hr$ = 52
cPins$82523 = 56
c$82524 = 60
pPin$82528 = 64
hrTmp$82530 = 72
$T87480 = 76
$T87486 = 80
tv134 = 88
tv133 = 96
this$ = 128
?dtor$0@?0??Stop@CBaseFilter@@UEAAJXZ@4HA PROC		; `CBaseFilter::Stop'::`1'::dtor$0
	mov	QWORD PTR [rsp+8], rcx
	mov	QWORD PTR [rsp+16], rdx
	push	rbp
	push	rdi
	sub	rsp, 40					; 00000028H
	mov	rbp, rdx
	lea	rcx, QWORD PTR cObjectLock$[rbp]
	call	??1CAutoLock@@QEAA@XZ			; CAutoLock::~CAutoLock
	add	rsp, 40					; 00000028H
	pop	rdi
	pop	rbp
	ret	0
?dtor$0@?0??Stop@CBaseFilter@@UEAAJXZ@4HA ENDP		; `CBaseFilter::Stop'::`1'::dtor$0
text$x	ENDS
;	COMDAT pdata
; File c:\downloads\wpf mediakit - copy\src\filters\baseclasses\amfilter.h
pdata	SEGMENT
$pdata$?IsConnected@CBasePin@@QEAAHXZ DD imagerel $LN5
	DD	imagerel $LN5+67
	DD	imagerel $unwind$?IsConnected@CBasePin@@QEAAHXZ
pdata	ENDS
;	COMDAT xdata
xdata	SEGMENT
$unwind$?IsConnected@CBasePin@@QEAAHXZ DD 021e01H
	DD	07006120aH
; Function compile flags: /Odtp /RTCsu
xdata	ENDS
;	COMDAT ?IsConnected@CBasePin@@QEAAHXZ
_TEXT	SEGMENT
tv66 = 0
this$ = 32
?IsConnected@CBasePin@@QEAAHXZ PROC			; CBasePin::IsConnected, COMDAT
; Line 499
$LN5:
	mov	QWORD PTR [rsp+8], rcx
	push	rdi
	sub	rsp, 16
	mov	rdi, rsp
	mov	ecx, 4
	mov	eax, -858993460				; ccccccccH
	rep stosd
	mov	rcx, QWORD PTR [rsp+32]
	mov	rax, QWORD PTR this$[rsp]
	cmp	QWORD PTR [rax+56], 0
	je	SHORT $LN3@IsConnecte
	mov	DWORD PTR tv66[rsp], 1
	jmp	SHORT $LN4@IsConnecte
$LN3@IsConnecte:
	mov	DWORD PTR tv66[rsp], 0
$LN4@IsConnecte:
	mov	eax, DWORD PTR tv66[rsp]
	add	rsp, 16
	pop	rdi
	ret	0
?IsConnected@CBasePin@@QEAAHXZ ENDP			; CBasePin::IsConnected
_TEXT	ENDS
PUBLIC	?Pause@CBaseFilter@@UEAAJXZ			; CBaseFilter::Pause
;	COMDAT pdata
; File c:\downloads\wpf mediakit - copy\src\filters\baseclasses\amfilter.cpp
pdata	SEGMENT
$pdata$?Pause@CBaseFilter@@UEAAJXZ DD imagerel $LN10
	DD	imagerel $LN10+340
	DD	imagerel $unwind$?Pause@CBaseFilter@@UEAAJXZ
pdata	ENDS
;	COMDAT pdata
pdata	SEGMENT
$pdata$?dtor$0@?0??Pause@CBaseFilter@@UEAAJXZ@4HA DD imagerel ?dtor$0@?0??Pause@CBaseFilter@@UEAAJXZ@4HA
	DD	imagerel ?dtor$0@?0??Pause@CBaseFilter@@UEAAJXZ@4HA+35
	DD	imagerel $unwind$?dtor$0@?0??Pause@CBaseFilter@@UEAAJXZ@4HA
pdata	ENDS
;	COMDAT xdata
xdata	SEGMENT
$ip2state$?Pause@CBaseFilter@@UEAAJXZ DD imagerel ?Pause@CBaseFilter@@UEAAJXZ
	DD	0ffffffffH
	DD	imagerel ?Pause@CBaseFilter@@UEAAJXZ+65
	DD	00H
	DD	imagerel ?Pause@CBaseFilter@@UEAAJXZ+255
	DD	0ffffffffH
	DD	imagerel ?Pause@CBaseFilter@@UEAAJXZ+271
	DD	00H
	DD	imagerel ?Pause@CBaseFilter@@UEAAJXZ+299
	DD	0ffffffffH
xdata	ENDS
;	COMDAT xdata
xdata	SEGMENT
$unwind$?dtor$0@?0??Pause@CBaseFilter@@UEAAJXZ@4HA DD 031001H
	DD	0700c4210H
	DD	0500bH
xdata	ENDS
;	COMDAT xdata
xdata	SEGMENT
$unwind$?Pause@CBaseFilter@@UEAAJXZ DD 022a11H
	DD	07006d20aH
	DD	imagerel __CxxFrameHandler3
	DD	imagerel $cppxdata$?Pause@CBaseFilter@@UEAAJXZ
xdata	ENDS
;	COMDAT xdata
xdata	SEGMENT
$stateUnwindMap$?Pause@CBaseFilter@@UEAAJXZ DD 0ffffffffH
	DD	imagerel ?dtor$0@?0??Pause@CBaseFilter@@UEAAJXZ@4HA
xdata	ENDS
;	COMDAT CONST
CONST	SEGMENT
?Pause@CBaseFilter@@UEAAJXZ$rtcName$0 DB 063H		; CBaseFilter::Pause
	DB	04fH
	DB	062H
	DB	06aH
	DB	065H
	DB	063H
	DB	074H
	DB	04cH
	DB	06fH
	DB	063H
	DB	06bH
	DB	00H
	ORG $+4
?Pause@CBaseFilter@@UEAAJXZ$rtcVarDesc DD 028H		; CBaseFilter::Pause
	DD	08H
	DQ	FLAT:?Pause@CBaseFilter@@UEAAJXZ$rtcName$0
	ORG $+48
?Pause@CBaseFilter@@UEAAJXZ$rtcFrameData DD 01H		; CBaseFilter::Pause
	DD	00H
	DQ	FLAT:?Pause@CBaseFilter@@UEAAJXZ$rtcVarDesc
$cppxdata$?Pause@CBaseFilter@@UEAAJXZ DD 019930522H
	DD	01H
	DD	imagerel $stateUnwindMap$?Pause@CBaseFilter@@UEAAJXZ
	DD	00H
	DD	00H
	DD	05H
	DD	imagerel $ip2state$?Pause@CBaseFilter@@UEAAJXZ
	DD	058H
	DD	00H
	DD	01H
; Function compile flags: /Odtp /RTCsu
CONST	ENDS
;	COMDAT ?Pause@CBaseFilter@@UEAAJXZ
_TEXT	SEGMENT
cObjectLock$ = 40
cPins$82540 = 52
c$82541 = 56
pPin$82545 = 64
hr$82547 = 72
$T87516 = 76
$T87517 = 80
$T87523 = 88
tv134 = 96
tv133 = 104
this$ = 128
?Pause@CBaseFilter@@UEAAJXZ PROC			; CBaseFilter::Pause, COMDAT
; Line 531
$LN10:
	mov	QWORD PTR [rsp+8], rcx
	push	rdi
	sub	rsp, 112				; 00000070H
	mov	rdi, rsp
	mov	ecx, 28
	mov	eax, -858993460				; ccccccccH
	rep stosd
	mov	rcx, QWORD PTR [rsp+128]
	mov	QWORD PTR $T87523[rsp], -2
; Line 532
	mov	rax, QWORD PTR this$[rsp]
	mov	rdx, QWORD PTR [rax+56]
	lea	rcx, QWORD PTR cObjectLock$[rsp]
	call	??0CAutoLock@@QEAA@PEAVCCritSec@@@Z	; CAutoLock::CAutoLock
	npad	1
; Line 535
	mov	rax, QWORD PTR this$[rsp]
	cmp	DWORD PTR [rax+16], 0
	jne	$LN6@Pause
; Line 536
	mov	rax, QWORD PTR this$[rsp]
	sub	rax, 32					; 00000020H
	mov	rcx, QWORD PTR this$[rsp]
	mov	rcx, QWORD PTR [rcx-32]
	mov	QWORD PTR tv134[rsp], rcx
	mov	rcx, rax
	mov	rax, QWORD PTR tv134[rsp]
	call	QWORD PTR [rax+48]
	mov	DWORD PTR cPins$82540[rsp], eax
; Line 537
	mov	DWORD PTR c$82541[rsp], 0
	jmp	SHORT $LN5@Pause
$LN4@Pause:
	mov	eax, DWORD PTR c$82541[rsp]
	inc	eax
	mov	DWORD PTR c$82541[rsp], eax
$LN5@Pause:
	mov	eax, DWORD PTR cPins$82540[rsp]
	cmp	DWORD PTR c$82541[rsp], eax
	jge	SHORT $LN6@Pause
; Line 539
	mov	rax, QWORD PTR this$[rsp]
	sub	rax, 32					; 00000020H
	mov	rcx, QWORD PTR this$[rsp]
	mov	rcx, QWORD PTR [rcx-32]
	mov	QWORD PTR tv133[rsp], rcx
	mov	edx, DWORD PTR c$82541[rsp]
	mov	rcx, rax
	mov	rax, QWORD PTR tv133[rsp]
	call	QWORD PTR [rax+56]
	mov	QWORD PTR pPin$82545[rsp], rax
; Line 544
	mov	rcx, QWORD PTR pPin$82545[rsp]
	call	?IsConnected@CBasePin@@QEAAHXZ		; CBasePin::IsConnected
	test	eax, eax
	je	SHORT $LN2@Pause
; Line 545
	mov	rax, QWORD PTR pPin$82545[rsp]
	mov	rax, QWORD PTR [rax]
	mov	rcx, QWORD PTR pPin$82545[rsp]
	call	QWORD PTR [rax+40]
	mov	DWORD PTR hr$82547[rsp], eax
; Line 546
	cmp	DWORD PTR hr$82547[rsp], 0
	jge	SHORT $LN2@Pause
; Line 547
	mov	eax, DWORD PTR hr$82547[rsp]
	mov	DWORD PTR $T87516[rsp], eax
	lea	rcx, QWORD PTR cObjectLock$[rsp]
	call	??1CAutoLock@@QEAA@XZ			; CAutoLock::~CAutoLock
	mov	eax, DWORD PTR $T87516[rsp]
	jmp	SHORT $LN7@Pause
$LN2@Pause:
; Line 550
	jmp	$LN4@Pause
$LN6@Pause:
; Line 555
	mov	rax, QWORD PTR this$[rsp]
	mov	DWORD PTR [rax+16], 1
; Line 556
	mov	DWORD PTR $T87517[rsp], 0
	lea	rcx, QWORD PTR cObjectLock$[rsp]
	call	??1CAutoLock@@QEAA@XZ			; CAutoLock::~CAutoLock
	mov	eax, DWORD PTR $T87517[rsp]
$LN7@Pause:
; Line 557
	mov	rdi, rax
	mov	rcx, rsp
	lea	rdx, OFFSET FLAT:?Pause@CBaseFilter@@UEAAJXZ$rtcFrameData
	call	_RTC_CheckStackVars
	mov	rax, rdi
	add	rsp, 112				; 00000070H
	pop	rdi
	ret	0
?Pause@CBaseFilter@@UEAAJXZ ENDP			; CBaseFilter::Pause
; Function compile flags: /Odtp /RTCsu
_TEXT	ENDS
;	COMDAT text$x
text$x	SEGMENT
cObjectLock$ = 40
cPins$82540 = 52
c$82541 = 56
pPin$82545 = 64
hr$82547 = 72
$T87516 = 76
$T87517 = 80
$T87523 = 88
tv134 = 96
tv133 = 104
this$ = 128
?dtor$0@?0??Pause@CBaseFilter@@UEAAJXZ@4HA PROC		; `CBaseFilter::Pause'::`1'::dtor$0
	mov	QWORD PTR [rsp+8], rcx
	mov	QWORD PTR [rsp+16], rdx
	push	rbp
	push	rdi
	sub	rsp, 40					; 00000028H
	mov	rbp, rdx
	lea	rcx, QWORD PTR cObjectLock$[rbp]
	call	??1CAutoLock@@QEAA@XZ			; CAutoLock::~CAutoLock
	add	rsp, 40					; 00000028H
	pop	rdi
	pop	rbp
	ret	0
?dtor$0@?0??Pause@CBaseFilter@@UEAAJXZ@4HA ENDP		; `CBaseFilter::Pause'::`1'::dtor$0
text$x	ENDS
PUBLIC	?Run@CBaseFilter@@UEAAJ_J@Z			; CBaseFilter::Run
;	COMDAT pdata
pdata	SEGMENT
$pdata$?Run@CBaseFilter@@UEAAJ_J@Z DD imagerel $LN12
	DD	imagerel $LN12+474
	DD	imagerel $unwind$?Run@CBaseFilter@@UEAAJ_J@Z
pdata	ENDS
;	COMDAT pdata
pdata	SEGMENT
$pdata$?dtor$0@?0??Run@CBaseFilter@@UEAAJ_J@Z@4HA DD imagerel ?dtor$0@?0??Run@CBaseFilter@@UEAAJ_J@Z@4HA
	DD	imagerel ?dtor$0@?0??Run@CBaseFilter@@UEAAJ_J@Z@4HA+35
	DD	imagerel $unwind$?dtor$0@?0??Run@CBaseFilter@@UEAAJ_J@Z@4HA
pdata	ENDS
;	COMDAT xdata
xdata	SEGMENT
$ip2state$?Run@CBaseFilter@@UEAAJ_J@Z DD imagerel ?Run@CBaseFilter@@UEAAJ_J@Z
	DD	0ffffffffH
	DD	imagerel ?Run@CBaseFilter@@UEAAJ_J@Z+73
	DD	00H
	DD	imagerel ?Run@CBaseFilter@@UEAAJ_J@Z+169
	DD	0ffffffffH
	DD	imagerel ?Run@CBaseFilter@@UEAAJ_J@Z+188
	DD	00H
	DD	imagerel ?Run@CBaseFilter@@UEAAJ_J@Z+386
	DD	0ffffffffH
	DD	imagerel ?Run@CBaseFilter@@UEAAJ_J@Z+402
	DD	00H
	DD	imagerel ?Run@CBaseFilter@@UEAAJ_J@Z+430
	DD	0ffffffffH
xdata	ENDS
;	COMDAT xdata
xdata	SEGMENT
$unwind$?dtor$0@?0??Run@CBaseFilter@@UEAAJ_J@Z@4HA DD 031001H
	DD	0700c4210H
	DD	0500bH
xdata	ENDS
;	COMDAT xdata
xdata	SEGMENT
$unwind$?Run@CBaseFilter@@UEAAJ_J@Z DD 023211H
	DD	0700bf212H
	DD	imagerel __CxxFrameHandler3
	DD	imagerel $cppxdata$?Run@CBaseFilter@@UEAAJ_J@Z
xdata	ENDS
;	COMDAT xdata
xdata	SEGMENT
$stateUnwindMap$?Run@CBaseFilter@@UEAAJ_J@Z DD 0ffffffffH
	DD	imagerel ?dtor$0@?0??Run@CBaseFilter@@UEAAJ_J@Z@4HA
xdata	ENDS
;	COMDAT CONST
CONST	SEGMENT
?Run@CBaseFilter@@UEAAJ_J@Z$rtcName$0 DB 063H		; CBaseFilter::Run
	DB	04fH
	DB	062H
	DB	06aH
	DB	065H
	DB	063H
	DB	074H
	DB	04cH
	DB	06fH
	DB	063H
	DB	06bH
	DB	00H
	ORG $+4
?Run@CBaseFilter@@UEAAJ_J@Z$rtcVarDesc DD 028H		; CBaseFilter::Run
	DD	08H
	DQ	FLAT:?Run@CBaseFilter@@UEAAJ_J@Z$rtcName$0
	ORG $+48
?Run@CBaseFilter@@UEAAJ_J@Z$rtcFrameData DD 01H		; CBaseFilter::Run
	DD	00H
	DQ	FLAT:?Run@CBaseFilter@@UEAAJ_J@Z$rtcVarDesc
$cppxdata$?Run@CBaseFilter@@UEAAJ_J@Z DD 019930522H
	DD	01H
	DD	imagerel $stateUnwindMap$?Run@CBaseFilter@@UEAAJ_J@Z
	DD	00H
	DD	00H
	DD	07H
	DD	imagerel $ip2state$?Run@CBaseFilter@@UEAAJ_J@Z
	DD	058H
	DD	00H
	DD	01H
; Function compile flags: /Odtp /RTCsu
CONST	ENDS
;	COMDAT ?Run@CBaseFilter@@UEAAJ_J@Z
_TEXT	SEGMENT
cObjectLock$ = 40
hr$82559 = 52
cPins$82564 = 56
c$82565 = 60
pPin$82569 = 64
hr$82571 = 72
$T87544 = 76
$T87545 = 80
$T87546 = 84
$T87552 = 88
tv156 = 96
tv155 = 104
tv154 = 112
this$ = 144
tStart$ = 152
?Run@CBaseFilter@@UEAAJ_J@Z PROC			; CBaseFilter::Run, COMDAT
; Line 570
$LN12:
	mov	QWORD PTR [rsp+16], rdx
	mov	QWORD PTR [rsp+8], rcx
	push	rdi
	sub	rsp, 128				; 00000080H
	mov	rdi, rsp
	mov	ecx, 32					; 00000020H
	mov	eax, -858993460				; ccccccccH
	rep stosd
	mov	rcx, QWORD PTR [rsp+144]
	mov	QWORD PTR $T87552[rsp], -2
; Line 571
	mov	rax, QWORD PTR this$[rsp]
	mov	rdx, QWORD PTR [rax+56]
	lea	rcx, QWORD PTR cObjectLock$[rsp]
	call	??0CAutoLock@@QEAA@PEAVCCritSec@@@Z	; CAutoLock::CAutoLock
	npad	1
; Line 574
	mov	rax, QWORD PTR this$[rsp]
	add	rax, 32					; 00000020H
	mov	rdx, QWORD PTR tStart$[rsp]
	mov	rcx, rax
	call	??4CRefTime@@QEAAAEAV0@_J@Z		; CRefTime::operator=
; Line 576
	mov	rax, QWORD PTR this$[rsp]
	cmp	DWORD PTR [rax+16], 0
	jne	SHORT $LN8@Run@2
; Line 577
	mov	rax, QWORD PTR this$[rsp]
	mov	rcx, QWORD PTR this$[rsp]
	mov	rcx, QWORD PTR [rcx]
	mov	QWORD PTR tv156[rsp], rcx
	mov	rcx, rax
	mov	rax, QWORD PTR tv156[rsp]
	call	QWORD PTR [rax+40]
	mov	DWORD PTR hr$82559[rsp], eax
; Line 579
	cmp	DWORD PTR hr$82559[rsp], 0
	jge	SHORT $LN8@Run@2
; Line 580
	mov	eax, DWORD PTR hr$82559[rsp]
	mov	DWORD PTR $T87544[rsp], eax
	lea	rcx, QWORD PTR cObjectLock$[rsp]
	call	??1CAutoLock@@QEAA@XZ			; CAutoLock::~CAutoLock
	mov	eax, DWORD PTR $T87544[rsp]
	jmp	$LN9@Run@2
$LN8@Run@2:
; Line 584
	mov	rax, QWORD PTR this$[rsp]
	cmp	DWORD PTR [rax+16], 2
	je	$LN6@Run@2
; Line 585
	mov	rax, QWORD PTR this$[rsp]
	sub	rax, 32					; 00000020H
	mov	rcx, QWORD PTR this$[rsp]
	mov	rcx, QWORD PTR [rcx-32]
	mov	QWORD PTR tv155[rsp], rcx
	mov	rcx, rax
	mov	rax, QWORD PTR tv155[rsp]
	call	QWORD PTR [rax+48]
	mov	DWORD PTR cPins$82564[rsp], eax
; Line 586
	mov	DWORD PTR c$82565[rsp], 0
	jmp	SHORT $LN5@Run@2
$LN4@Run@2:
	mov	eax, DWORD PTR c$82565[rsp]
	inc	eax
	mov	DWORD PTR c$82565[rsp], eax
$LN5@Run@2:
	mov	eax, DWORD PTR cPins$82564[rsp]
	cmp	DWORD PTR c$82565[rsp], eax
	jge	SHORT $LN6@Run@2
; Line 588
	mov	rax, QWORD PTR this$[rsp]
	sub	rax, 32					; 00000020H
	mov	rcx, QWORD PTR this$[rsp]
	mov	rcx, QWORD PTR [rcx-32]
	mov	QWORD PTR tv154[rsp], rcx
	mov	edx, DWORD PTR c$82565[rsp]
	mov	rcx, rax
	mov	rax, QWORD PTR tv154[rsp]
	call	QWORD PTR [rax+56]
	mov	QWORD PTR pPin$82569[rsp], rax
; Line 593
	mov	rcx, QWORD PTR pPin$82569[rsp]
	call	?IsConnected@CBasePin@@QEAAHXZ		; CBasePin::IsConnected
	test	eax, eax
	je	SHORT $LN2@Run@2
; Line 594
	mov	rax, QWORD PTR pPin$82569[rsp]
	mov	rax, QWORD PTR [rax]
	mov	rdx, QWORD PTR tStart$[rsp]
	mov	rcx, QWORD PTR pPin$82569[rsp]
	call	QWORD PTR [rax+56]
	mov	DWORD PTR hr$82571[rsp], eax
; Line 595
	cmp	DWORD PTR hr$82571[rsp], 0
	jge	SHORT $LN2@Run@2
; Line 596
	mov	eax, DWORD PTR hr$82571[rsp]
	mov	DWORD PTR $T87545[rsp], eax
	lea	rcx, QWORD PTR cObjectLock$[rsp]
	call	??1CAutoLock@@QEAA@XZ			; CAutoLock::~CAutoLock
	mov	eax, DWORD PTR $T87545[rsp]
	jmp	SHORT $LN9@Run@2
$LN2@Run@2:
; Line 599
	jmp	$LN4@Run@2
$LN6@Run@2:
; Line 603
	mov	rax, QWORD PTR this$[rsp]
	mov	DWORD PTR [rax+16], 2
; Line 604
	mov	DWORD PTR $T87546[rsp], 0
	lea	rcx, QWORD PTR cObjectLock$[rsp]
	call	??1CAutoLock@@QEAA@XZ			; CAutoLock::~CAutoLock
	mov	eax, DWORD PTR $T87546[rsp]
$LN9@Run@2:
; Line 605
	mov	rdi, rax
	mov	rcx, rsp
	lea	rdx, OFFSET FLAT:?Run@CBaseFilter@@UEAAJ_J@Z$rtcFrameData
	call	_RTC_CheckStackVars
	mov	rax, rdi
	add	rsp, 128				; 00000080H
	pop	rdi
	ret	0
?Run@CBaseFilter@@UEAAJ_J@Z ENDP			; CBaseFilter::Run
; Function compile flags: /Odtp /RTCsu
_TEXT	ENDS
;	COMDAT text$x
text$x	SEGMENT
cObjectLock$ = 40
hr$82559 = 52
cPins$82564 = 56
c$82565 = 60
pPin$82569 = 64
hr$82571 = 72
$T87544 = 76
$T87545 = 80
$T87546 = 84
$T87552 = 88
tv156 = 96
tv155 = 104
tv154 = 112
this$ = 144
tStart$ = 152
?dtor$0@?0??Run@CBaseFilter@@UEAAJ_J@Z@4HA PROC		; `CBaseFilter::Run'::`1'::dtor$0
	mov	QWORD PTR [rsp+8], rcx
	mov	QWORD PTR [rsp+16], rdx
	push	rbp
	push	rdi
	sub	rsp, 40					; 00000028H
	mov	rbp, rdx
	lea	rcx, QWORD PTR cObjectLock$[rbp]
	call	??1CAutoLock@@QEAA@XZ			; CAutoLock::~CAutoLock
	add	rsp, 40					; 00000028H
	pop	rdi
	pop	rbp
	ret	0
?dtor$0@?0??Run@CBaseFilter@@UEAAJ_J@Z@4HA ENDP		; `CBaseFilter::Run'::`1'::dtor$0
text$x	ENDS
PUBLIC	?StreamTime@CBaseFilter@@UEAAJAEAVCRefTime@@@Z	; CBaseFilter::StreamTime
;	COMDAT pdata
pdata	SEGMENT
$pdata$?StreamTime@CBaseFilter@@UEAAJAEAVCRefTime@@@Z DD imagerel $LN5
	DD	imagerel $LN5+130
	DD	imagerel $unwind$?StreamTime@CBaseFilter@@UEAAJAEAVCRefTime@@@Z
pdata	ENDS
;	COMDAT xdata
xdata	SEGMENT
$unwind$?StreamTime@CBaseFilter@@UEAAJAEAVCRefTime@@@Z DD 022301H
	DD	0700b520fH
; Function compile flags: /Odtp /RTCsu
xdata	ENDS
;	COMDAT ?StreamTime@CBaseFilter@@UEAAJAEAVCRefTime@@@Z
_TEXT	SEGMENT
hr$ = 32
this$ = 64
rtStream$ = 72
?StreamTime@CBaseFilter@@UEAAJAEAVCRefTime@@@Z PROC	; CBaseFilter::StreamTime, COMDAT
; Line 612
$LN5:
	mov	QWORD PTR [rsp+16], rdx
	mov	QWORD PTR [rsp+8], rcx
	push	rdi
	sub	rsp, 48					; 00000030H
	mov	rdi, rsp
	mov	ecx, 12
	mov	eax, -858993460				; ccccccccH
	rep stosd
	mov	rcx, QWORD PTR [rsp+64]
; Line 617
	mov	rax, QWORD PTR this$[rsp]
	cmp	QWORD PTR [rax+56], 0
	jne	SHORT $LN2@StreamTime@2
; Line 618
	mov	eax, -2147220973			; ffffffff80040213H
	jmp	SHORT $LN3@StreamTime@2
$LN2@StreamTime@2:
; Line 622
	mov	rax, QWORD PTR this$[rsp]
	mov	rax, QWORD PTR [rax+56]
	mov	rcx, QWORD PTR this$[rsp]
	mov	rcx, QWORD PTR [rcx+56]
	mov	rax, QWORD PTR [rax]
	mov	rdx, QWORD PTR rtStream$[rsp]
	call	QWORD PTR [rax+24]
	mov	DWORD PTR hr$[rsp], eax
; Line 623
	cmp	DWORD PTR hr$[rsp], 0
	jge	SHORT $LN1@StreamTime@2
; Line 624
	mov	eax, DWORD PTR hr$[rsp]
	jmp	SHORT $LN3@StreamTime@2
$LN1@StreamTime@2:
; Line 628
	mov	rax, QWORD PTR this$[rsp]
	add	rax, 64					; 00000040H
	mov	rdx, rax
	mov	rcx, QWORD PTR rtStream$[rsp]
	call	??ZCRefTime@@QEAAAEAV0@AEBV0@@Z		; CRefTime::operator-=
; Line 630
	xor	eax, eax
$LN3@StreamTime@2:
; Line 631
	add	rsp, 48					; 00000030H
	pop	rdi
	ret	0
?StreamTime@CBaseFilter@@UEAAJAEAVCRefTime@@@Z ENDP	; CBaseFilter::StreamTime
_TEXT	ENDS
PUBLIC	??0CEnumPins@@QEAA@PEAVCBaseFilter@@PEAV0@@Z	; CEnumPins::CEnumPins
PUBLIC	?EnumPins@CBaseFilter@@UEAAJPEAPEAUIEnumPins@@@Z ; CBaseFilter::EnumPins
EXTRN	??2@YAPEAX_K@Z:PROC				; operator new
;	COMDAT pdata
pdata	SEGMENT
$pdata$?EnumPins@CBaseFilter@@UEAAJPEAPEAUIEnumPins@@@Z DD imagerel $LN11
	DD	imagerel $LN11+280
	DD	imagerel $unwind$?EnumPins@CBaseFilter@@UEAAJPEAPEAUIEnumPins@@@Z
pdata	ENDS
;	COMDAT pdata
pdata	SEGMENT
$pdata$?dtor$0@?0??EnumPins@CBaseFilter@@UEAAJPEAPEAUIEnumPins@@@Z@4HA DD imagerel ?dtor$0@?0??EnumPins@CBaseFilter@@UEAAJPEAPEAUIEnumPins@@@Z@4HA
	DD	imagerel ?dtor$0@?0??EnumPins@CBaseFilter@@UEAAJPEAPEAUIEnumPins@@@Z@4HA+35
	DD	imagerel $unwind$?dtor$0@?0??EnumPins@CBaseFilter@@UEAAJPEAPEAUIEnumPins@@@Z@4HA
pdata	ENDS
;	COMDAT xdata
xdata	SEGMENT
$ip2state$?EnumPins@CBaseFilter@@UEAAJPEAPEAUIEnumPins@@@Z DD imagerel ?EnumPins@CBaseFilter@@UEAAJPEAPEAUIEnumPins@@@Z
	DD	0ffffffffH
	DD	imagerel ?EnumPins@CBaseFilter@@UEAAJPEAPEAUIEnumPins@@@Z+169
	DD	00H
	DD	imagerel ?EnumPins@CBaseFilter@@UEAAJPEAPEAUIEnumPins@@@Z+228
	DD	0ffffffffH
xdata	ENDS
;	COMDAT xdata
xdata	SEGMENT
$unwind$?dtor$0@?0??EnumPins@CBaseFilter@@UEAAJPEAPEAUIEnumPins@@@Z@4HA DD 031001H
	DD	0700c4210H
	DD	0500bH
xdata	ENDS
;	COMDAT xdata
xdata	SEGMENT
$unwind$?EnumPins@CBaseFilter@@UEAAJPEAPEAUIEnumPins@@@Z DD 022c11H
	DD	0700b920fH
	DD	imagerel __CxxFrameHandler3
	DD	imagerel $cppxdata$?EnumPins@CBaseFilter@@UEAAJPEAPEAUIEnumPins@@@Z
xdata	ENDS
;	COMDAT CONST
CONST	SEGMENT
$cppxdata$?EnumPins@CBaseFilter@@UEAAJPEAPEAUIEnumPins@@@Z DD 019930522H
	DD	01H
	DD	imagerel $stateUnwindMap$?EnumPins@CBaseFilter@@UEAAJPEAPEAUIEnumPins@@@Z
	DD	00H
	DD	00H
	DD	03H
	DD	imagerel $ip2state$?EnumPins@CBaseFilter@@UEAAJPEAPEAUIEnumPins@@@Z
	DD	030H
	DD	00H
	DD	01H
CONST	ENDS
;	COMDAT xdata
xdata	SEGMENT
$stateUnwindMap$?EnumPins@CBaseFilter@@UEAAJPEAPEAUIEnumPins@@@Z DD 0ffffffffH
	DD	imagerel ?dtor$0@?0??EnumPins@CBaseFilter@@UEAAJPEAPEAUIEnumPins@@@Z@4HA
; Function compile flags: /Odtp /RTCsu
xdata	ENDS
;	COMDAT ?EnumPins@CBaseFilter@@UEAAJPEAPEAUIEnumPins@@@Z
_TEXT	SEGMENT
$T87580 = 32
$T87581 = 40
$T87591 = 48
tv92 = 56
tv94 = 64
this$ = 96
ppEnum$ = 104
?EnumPins@CBaseFilter@@UEAAJPEAPEAUIEnumPins@@@Z PROC	; CBaseFilter::EnumPins, COMDAT
; Line 638
$LN11:
	mov	QWORD PTR [rsp+16], rdx
	mov	QWORD PTR [rsp+8], rcx
	push	rdi
	sub	rsp, 80					; 00000050H
	mov	rdi, rsp
	mov	ecx, 20
	mov	eax, -858993460				; ccccccccH
	rep stosd
	mov	rcx, QWORD PTR [rsp+96]
	mov	QWORD PTR $T87591[rsp], -2
; Line 639
	cmp	QWORD PTR ppEnum$[rsp], 0
	jne	SHORT $LN3@EnumPins
	mov	eax, -2147467261			; ffffffff80004003H
	jmp	$LN4@EnumPins
$LN3@EnumPins:
; Line 640
	mov	edx, 8
	mov	rcx, QWORD PTR ppEnum$[rsp]
	call	QWORD PTR __imp_IsBadReadPtr
	cmp	eax, 1
	jne	SHORT $LN2@EnumPins
	mov	r8d, 640				; 00000280H
	lea	rdx, OFFSET FLAT:$SG82597
	lea	rcx, OFFSET FLAT:$SG82598
	call	?DbgBreakPoint@@YAXPEB_W0H@Z		; DbgBreakPoint
$LN2@EnumPins:
	mov	edx, 8
	mov	rcx, QWORD PTR ppEnum$[rsp]
	call	QWORD PTR __imp_IsBadWritePtr
	cmp	eax, 1
	jne	SHORT $LN1@EnumPins
	mov	r8d, 640				; 00000280H
	lea	rdx, OFFSET FLAT:$SG82602
	lea	rcx, OFFSET FLAT:$SG82603
	call	?DbgBreakPoint@@YAXPEB_W0H@Z		; DbgBreakPoint
$LN1@EnumPins:
; Line 645
	mov	ecx, 88					; 00000058H
	call	??2@YAPEAX_K@Z				; operator new
	mov	QWORD PTR $T87581[rsp], rax
	cmp	QWORD PTR $T87581[rsp], 0
	je	SHORT $LN6@EnumPins
	mov	rax, QWORD PTR this$[rsp]
	sub	rax, 32					; 00000020H
	xor	r8d, r8d
	mov	rdx, rax
	mov	rcx, QWORD PTR $T87581[rsp]
	call	??0CEnumPins@@QEAA@PEAVCBaseFilter@@PEAV0@@Z ; CEnumPins::CEnumPins
	mov	QWORD PTR tv92[rsp], rax
	jmp	SHORT $LN7@EnumPins
$LN6@EnumPins:
	mov	QWORD PTR tv92[rsp], 0
$LN7@EnumPins:
	mov	rax, QWORD PTR tv92[rsp]
	mov	QWORD PTR $T87580[rsp], rax
	mov	rax, QWORD PTR ppEnum$[rsp]
	mov	rcx, QWORD PTR $T87580[rsp]
	mov	QWORD PTR [rax], rcx
; Line 647
	mov	rax, QWORD PTR ppEnum$[rsp]
	cmp	QWORD PTR [rax], 0
	jne	SHORT $LN8@EnumPins
	mov	DWORD PTR tv94[rsp], -2147024882	; ffffffff8007000eH
	jmp	SHORT $LN9@EnumPins
$LN8@EnumPins:
	mov	DWORD PTR tv94[rsp], 0
$LN9@EnumPins:
	mov	eax, DWORD PTR tv94[rsp]
$LN4@EnumPins:
; Line 648
	add	rsp, 80					; 00000050H
	pop	rdi
	ret	0
?EnumPins@CBaseFilter@@UEAAJPEAPEAUIEnumPins@@@Z ENDP	; CBaseFilter::EnumPins
; Function compile flags: /Odtp /RTCsu
_TEXT	ENDS
;	COMDAT text$x
text$x	SEGMENT
$T87580 = 32
$T87581 = 40
$T87591 = 48
tv92 = 56
tv94 = 64
this$ = 96
ppEnum$ = 104
?dtor$0@?0??EnumPins@CBaseFilter@@UEAAJPEAPEAUIEnumPins@@@Z@4HA PROC ; `CBaseFilter::EnumPins'::`1'::dtor$0
	mov	QWORD PTR [rsp+8], rcx
	mov	QWORD PTR [rsp+16], rdx
	push	rbp
	push	rdi
	sub	rsp, 40					; 00000028H
	mov	rbp, rdx
	mov	rcx, QWORD PTR $T87581[rbp]
	call	??3@YAXPEAX@Z				; operator delete
	add	rsp, 40					; 00000028H
	pop	rdi
	pop	rbp
	ret	0
?dtor$0@?0??EnumPins@CBaseFilter@@UEAAJPEAPEAUIEnumPins@@@Z@4HA ENDP ; `CBaseFilter::EnumPins'::`1'::dtor$0
text$x	ENDS
PUBLIC	?Name@CBasePin@@QEAAPEA_WXZ			; CBasePin::Name
PUBLIC	?FindPin@CBaseFilter@@UEAAJPEB_WPEAPEAUIPin@@@Z	; CBaseFilter::FindPin
EXTRN	__imp_lstrcmpW:PROC
;	COMDAT pdata
pdata	SEGMENT
$pdata$?FindPin@CBaseFilter@@UEAAJPEB_WPEAPEAUIPin@@@Z DD imagerel $LN14
	DD	imagerel $LN14+567
	DD	imagerel $unwind$?FindPin@CBaseFilter@@UEAAJPEB_WPEAPEAUIPin@@@Z
pdata	ENDS
;	COMDAT pdata
pdata	SEGMENT
$pdata$?dtor$0@?0??FindPin@CBaseFilter@@UEAAJPEB_WPEAPEAUIPin@@@Z@4HA DD imagerel ?dtor$0@?0??FindPin@CBaseFilter@@UEAAJPEB_WPEAPEAUIPin@@@Z@4HA
	DD	imagerel ?dtor$0@?0??FindPin@CBaseFilter@@UEAAJPEB_WPEAPEAUIPin@@@Z@4HA+35
	DD	imagerel $unwind$?dtor$0@?0??FindPin@CBaseFilter@@UEAAJPEB_WPEAPEAUIPin@@@Z@4HA
pdata	ENDS
;	COMDAT xdata
xdata	SEGMENT
$ip2state$?FindPin@CBaseFilter@@UEAAJPEB_WPEAPEAUIPin@@@Z DD imagerel ?FindPin@CBaseFilter@@UEAAJPEB_WPEAPEAUIPin@@@Z
	DD	0ffffffffH
	DD	imagerel ?FindPin@CBaseFilter@@UEAAJPEB_WPEAPEAUIPin@@@Z+197
	DD	00H
	DD	imagerel ?FindPin@CBaseFilter@@UEAAJPEB_WPEAPEAUIPin@@@Z+479
	DD	0ffffffffH
	DD	imagerel ?FindPin@CBaseFilter@@UEAAJPEB_WPEAPEAUIPin@@@Z+495
	DD	00H
	DD	imagerel ?FindPin@CBaseFilter@@UEAAJPEB_WPEAPEAUIPin@@@Z+523
	DD	0ffffffffH
xdata	ENDS
;	COMDAT xdata
xdata	SEGMENT
$unwind$?dtor$0@?0??FindPin@CBaseFilter@@UEAAJPEB_WPEAPEAUIPin@@@Z@4HA DD 031001H
	DD	0700c4210H
	DD	0500bH
xdata	ENDS
;	COMDAT xdata
xdata	SEGMENT
$unwind$?FindPin@CBaseFilter@@UEAAJPEB_WPEAPEAUIPin@@@Z DD 023711H
	DD	07010f217H
	DD	imagerel __CxxFrameHandler3
	DD	imagerel $cppxdata$?FindPin@CBaseFilter@@UEAAJPEB_WPEAPEAUIPin@@@Z
xdata	ENDS
;	COMDAT xdata
xdata	SEGMENT
$stateUnwindMap$?FindPin@CBaseFilter@@UEAAJPEB_WPEAPEAUIPin@@@Z DD 0ffffffffH
	DD	imagerel ?dtor$0@?0??FindPin@CBaseFilter@@UEAAJPEB_WPEAPEAUIPin@@@Z@4HA
xdata	ENDS
;	COMDAT CONST
CONST	SEGMENT
?FindPin@CBaseFilter@@UEAAJPEB_WPEAPEAUIPin@@@Z$rtcName$0 DB 06cH ; CBaseFilter::FindPin
	DB	063H
	DB	06bH
	DB	00H
	ORG $+12
?FindPin@CBaseFilter@@UEAAJPEB_WPEAPEAUIPin@@@Z$rtcVarDesc DD 028H ; CBaseFilter::FindPin
	DD	08H
	DQ	FLAT:?FindPin@CBaseFilter@@UEAAJPEB_WPEAPEAUIPin@@@Z$rtcName$0
	ORG $+48
?FindPin@CBaseFilter@@UEAAJPEB_WPEAPEAUIPin@@@Z$rtcFrameData DD 01H ; CBaseFilter::FindPin
	DD	00H
	DQ	FLAT:?FindPin@CBaseFilter@@UEAAJPEB_WPEAPEAUIPin@@@Z$rtcVarDesc
$cppxdata$?FindPin@CBaseFilter@@UEAAJPEB_WPEAPEAUIPin@@@Z DD 019930522H
	DD	01H
	DD	imagerel $stateUnwindMap$?FindPin@CBaseFilter@@UEAAJPEB_WPEAPEAUIPin@@@Z
	DD	00H
	DD	00H
	DD	05H
	DD	imagerel $ip2state$?FindPin@CBaseFilter@@UEAAJPEB_WPEAPEAUIPin@@@Z
	DD	050H
	DD	00H
	DD	01H
; Function compile flags: /Odtp /RTCsu
CONST	ENDS
;	COMDAT ?FindPin@CBaseFilter@@UEAAJPEB_WPEAPEAUIPin@@@Z
_TEXT	SEGMENT
lck$ = 40
iCount$ = 52
i$82628 = 56
pPin$82632 = 64
$T87611 = 72
$T87612 = 76
$T87618 = 80
tv160 = 88
tv159 = 96
tv146 = 104
tv80 = 112
this$ = 144
Id$ = 152
ppPin$ = 160
?FindPin@CBaseFilter@@UEAAJPEB_WPEAPEAUIPin@@@Z PROC	; CBaseFilter::FindPin, COMDAT
; Line 658
$LN14:
	mov	QWORD PTR [rsp+24], r8
	mov	QWORD PTR [rsp+16], rdx
	mov	QWORD PTR [rsp+8], rcx
	push	rdi
	sub	rsp, 128				; 00000080H
	mov	rdi, rsp
	mov	ecx, 32					; 00000020H
	mov	eax, -858993460				; ccccccccH
	rep stosd
	mov	rcx, QWORD PTR [rsp+144]
	mov	QWORD PTR $T87618[rsp], -2
; Line 659
	cmp	QWORD PTR ppPin$[rsp], 0
	jne	SHORT $LN8@FindPin
	mov	eax, -2147467261			; ffffffff80004003H
	jmp	$LN9@FindPin
$LN8@FindPin:
; Line 660
	mov	edx, 8
	mov	rcx, QWORD PTR ppPin$[rsp]
	call	QWORD PTR __imp_IsBadReadPtr
	cmp	eax, 1
	jne	SHORT $LN7@FindPin
	mov	r8d, 660				; 00000294H
	lea	rdx, OFFSET FLAT:$SG82619
	lea	rcx, OFFSET FLAT:$SG82620
	call	?DbgBreakPoint@@YAXPEB_W0H@Z		; DbgBreakPoint
$LN7@FindPin:
	mov	edx, 8
	mov	rcx, QWORD PTR ppPin$[rsp]
	call	QWORD PTR __imp_IsBadWritePtr
	cmp	eax, 1
	jne	SHORT $LN6@FindPin
	mov	r8d, 660				; 00000294H
	lea	rdx, OFFSET FLAT:$SG82624
	lea	rcx, OFFSET FLAT:$SG82625
	call	?DbgBreakPoint@@YAXPEB_W0H@Z		; DbgBreakPoint
$LN6@FindPin:
; Line 663
	mov	rax, QWORD PTR this$[rsp]
	mov	rdx, QWORD PTR [rax+56]
	lea	rcx, QWORD PTR lck$[rsp]
	call	??0CAutoLock@@QEAA@PEAVCCritSec@@@Z	; CAutoLock::CAutoLock
	npad	1
; Line 664
	mov	rax, QWORD PTR this$[rsp]
	sub	rax, 32					; 00000020H
	mov	rcx, QWORD PTR this$[rsp]
	mov	rcx, QWORD PTR [rcx-32]
	mov	QWORD PTR tv160[rsp], rcx
	mov	rcx, rax
	mov	rax, QWORD PTR tv160[rsp]
	call	QWORD PTR [rax+48]
	mov	DWORD PTR iCount$[rsp], eax
; Line 665
	mov	DWORD PTR i$82628[rsp], 0
	jmp	SHORT $LN5@FindPin
$LN4@FindPin:
	mov	eax, DWORD PTR i$82628[rsp]
	inc	eax
	mov	DWORD PTR i$82628[rsp], eax
$LN5@FindPin:
	mov	eax, DWORD PTR iCount$[rsp]
	cmp	DWORD PTR i$82628[rsp], eax
	jge	$LN3@FindPin
; Line 666
	mov	rax, QWORD PTR this$[rsp]
	sub	rax, 32					; 00000020H
	mov	rcx, QWORD PTR this$[rsp]
	mov	rcx, QWORD PTR [rcx-32]
	mov	QWORD PTR tv159[rsp], rcx
	mov	edx, DWORD PTR i$82628[rsp]
	mov	rcx, rax
	mov	rax, QWORD PTR tv159[rsp]
	call	QWORD PTR [rax+56]
	mov	QWORD PTR pPin$82632[rsp], rax
; Line 667
	cmp	QWORD PTR pPin$82632[rsp], 0
	jne	SHORT $LN2@FindPin
	mov	r8d, 667				; 0000029bH
	lea	rdx, OFFSET FLAT:$SG82634
	lea	rcx, OFFSET FLAT:$SG82635
	call	?DbgAssert@@YAXPEB_W0H@Z		; DbgAssert
$LN2@FindPin:
; Line 669
	mov	rcx, QWORD PTR pPin$82632[rsp]
	call	?Name@CBasePin@@QEAAPEA_WXZ		; CBasePin::Name
	mov	rdx, QWORD PTR Id$[rsp]
	mov	rcx, rax
	call	QWORD PTR __imp_lstrcmpW
	test	eax, eax
	jne	SHORT $LN1@FindPin
; Line 673
	cmp	QWORD PTR pPin$82632[rsp], 0
	je	SHORT $LN11@FindPin
	mov	rax, QWORD PTR pPin$82632[rsp]
	add	rax, 32					; 00000020H
	mov	QWORD PTR tv146[rsp], rax
	jmp	SHORT $LN12@FindPin
$LN11@FindPin:
	mov	QWORD PTR tv146[rsp], 0
$LN12@FindPin:
	mov	rax, QWORD PTR ppPin$[rsp]
	mov	rcx, QWORD PTR tv146[rsp]
	mov	QWORD PTR [rax], rcx
; Line 674
	mov	rax, QWORD PTR pPin$82632[rsp]
	add	rax, 32					; 00000020H
	mov	rcx, QWORD PTR pPin$82632[rsp]
	mov	rcx, QWORD PTR [rcx+32]
	mov	QWORD PTR tv80[rsp], rcx
	mov	rcx, rax
	mov	rax, QWORD PTR tv80[rsp]
	call	QWORD PTR [rax+8]
; Line 675
	mov	DWORD PTR $T87611[rsp], 0
	lea	rcx, QWORD PTR lck$[rsp]
	call	??1CAutoLock@@QEAA@XZ			; CAutoLock::~CAutoLock
	mov	eax, DWORD PTR $T87611[rsp]
	jmp	SHORT $LN9@FindPin
$LN1@FindPin:
; Line 677
	jmp	$LN4@FindPin
$LN3@FindPin:
; Line 678
	mov	rax, QWORD PTR ppPin$[rsp]
	mov	QWORD PTR [rax], 0
; Line 679
	mov	DWORD PTR $T87612[rsp], -2147220970	; ffffffff80040216H
	lea	rcx, QWORD PTR lck$[rsp]
	call	??1CAutoLock@@QEAA@XZ			; CAutoLock::~CAutoLock
	mov	eax, DWORD PTR $T87612[rsp]
$LN9@FindPin:
; Line 680
	mov	rdi, rax
	mov	rcx, rsp
	lea	rdx, OFFSET FLAT:?FindPin@CBaseFilter@@UEAAJPEB_WPEAPEAUIPin@@@Z$rtcFrameData
	call	_RTC_CheckStackVars
	mov	rax, rdi
	add	rsp, 128				; 00000080H
	pop	rdi
	ret	0
?FindPin@CBaseFilter@@UEAAJPEB_WPEAPEAUIPin@@@Z ENDP	; CBaseFilter::FindPin
; Function compile flags: /Odtp /RTCsu
_TEXT	ENDS
;	COMDAT text$x
text$x	SEGMENT
lck$ = 40
iCount$ = 52
i$82628 = 56
pPin$82632 = 64
$T87611 = 72
$T87612 = 76
$T87618 = 80
tv160 = 88
tv159 = 96
tv146 = 104
tv80 = 112
this$ = 144
Id$ = 152
ppPin$ = 160
?dtor$0@?0??FindPin@CBaseFilter@@UEAAJPEB_WPEAPEAUIPin@@@Z@4HA PROC ; `CBaseFilter::FindPin'::`1'::dtor$0
	mov	QWORD PTR [rsp+8], rcx
	mov	QWORD PTR [rsp+16], rdx
	push	rbp
	push	rdi
	sub	rsp, 40					; 00000028H
	mov	rbp, rdx
	lea	rcx, QWORD PTR lck$[rbp]
	call	??1CAutoLock@@QEAA@XZ			; CAutoLock::~CAutoLock
	add	rsp, 40					; 00000028H
	pop	rdi
	pop	rbp
	ret	0
?dtor$0@?0??FindPin@CBaseFilter@@UEAAJPEB_WPEAPEAUIPin@@@Z@4HA ENDP ; `CBaseFilter::FindPin'::`1'::dtor$0
text$x	ENDS
;	COMDAT pdata
; File c:\downloads\wpf mediakit - copy\src\filters\baseclasses\amfilter.h
pdata	SEGMENT
$pdata$?Name@CBasePin@@QEAAPEA_WXZ DD imagerel $LN3
	DD	imagerel $LN3+17
	DD	imagerel $unwind$?Name@CBasePin@@QEAAPEA_WXZ
pdata	ENDS
;	COMDAT xdata
xdata	SEGMENT
$unwind$?Name@CBasePin@@QEAAPEA_WXZ DD 010601H
	DD	07006H
; Function compile flags: /Odtp /RTCsu
xdata	ENDS
;	COMDAT ?Name@CBasePin@@QEAAPEA_WXZ
_TEXT	SEGMENT
this$ = 16
?Name@CBasePin@@QEAAPEA_WXZ PROC			; CBasePin::Name, COMDAT
; Line 551
$LN3:
	mov	QWORD PTR [rsp+8], rcx
	push	rdi
	mov	rax, QWORD PTR this$[rsp]
	mov	rax, QWORD PTR [rax+48]
	pop	rdi
	ret	0
?Name@CBasePin@@QEAAPEA_WXZ ENDP			; CBasePin::Name
_TEXT	ENDS
PUBLIC	?QueryFilterInfo@CBaseFilter@@UEAAJPEAU_FilterInfo@@@Z ; CBaseFilter::QueryFilterInfo
EXTRN	__imp_lstrcpynW:PROC
;	COMDAT pdata
; File c:\downloads\wpf mediakit - copy\src\filters\baseclasses\amfilter.cpp
pdata	SEGMENT
$pdata$?QueryFilterInfo@CBaseFilter@@UEAAJPEAU_FilterInfo@@@Z DD imagerel $LN9
	DD	imagerel $LN9+260
	DD	imagerel $unwind$?QueryFilterInfo@CBaseFilter@@UEAAJPEAU_FilterInfo@@@Z
pdata	ENDS
;	COMDAT xdata
xdata	SEGMENT
$unwind$?QueryFilterInfo@CBaseFilter@@UEAAJPEAU_FilterInfo@@@Z DD 022301H
	DD	0700b320fH
; Function compile flags: /Odtp /RTCsu
xdata	ENDS
;	COMDAT ?QueryFilterInfo@CBaseFilter@@UEAAJPEAU_FilterInfo@@@Z
_TEXT	SEGMENT
this$ = 48
pInfo$ = 56
?QueryFilterInfo@CBaseFilter@@UEAAJPEAU_FilterInfo@@@Z PROC ; CBaseFilter::QueryFilterInfo, COMDAT
; Line 686
$LN9:
	mov	QWORD PTR [rsp+16], rdx
	mov	QWORD PTR [rsp+8], rcx
	push	rdi
	sub	rsp, 32					; 00000020H
	mov	rdi, rsp
	mov	ecx, 8
	mov	eax, -858993460				; ccccccccH
	rep stosd
	mov	rcx, QWORD PTR [rsp+48]
; Line 687
	cmp	QWORD PTR pInfo$[rsp], 0
	jne	SHORT $LN6@QueryFilte
	mov	eax, -2147467261			; ffffffff80004003H
	jmp	$LN7@QueryFilte
$LN6@QueryFilte:
; Line 688
	mov	edx, 264				; 00000108H
	mov	rcx, QWORD PTR pInfo$[rsp]
	call	QWORD PTR __imp_IsBadReadPtr
	cmp	eax, 1
	jne	SHORT $LN5@QueryFilte
	mov	r8d, 688				; 000002b0H
	lea	rdx, OFFSET FLAT:$SG82650
	lea	rcx, OFFSET FLAT:$SG82651
	call	?DbgBreakPoint@@YAXPEB_W0H@Z		; DbgBreakPoint
$LN5@QueryFilte:
	mov	edx, 264				; 00000108H
	mov	rcx, QWORD PTR pInfo$[rsp]
	call	QWORD PTR __imp_IsBadWritePtr
	cmp	eax, 1
	jne	SHORT $LN4@QueryFilte
	mov	r8d, 688				; 000002b0H
	lea	rdx, OFFSET FLAT:$SG82655
	lea	rcx, OFFSET FLAT:$SG82656
	call	?DbgBreakPoint@@YAXPEB_W0H@Z		; DbgBreakPoint
$LN4@QueryFilte:
; Line 690
	mov	rax, QWORD PTR this$[rsp]
	cmp	QWORD PTR [rax+64], 0
	je	SHORT $LN3@QueryFilte
; Line 691
	mov	r8d, 128				; 00000080H
	mov	rax, QWORD PTR this$[rsp]
	mov	rdx, QWORD PTR [rax+64]
	mov	rcx, QWORD PTR pInfo$[rsp]
	call	QWORD PTR __imp_lstrcpynW
; Line 692
	jmp	SHORT $LN2@QueryFilte
$LN3@QueryFilte:
; Line 693
	xor	eax, eax
	mov	rcx, QWORD PTR pInfo$[rsp]
	mov	WORD PTR [rcx], ax
$LN2@QueryFilte:
; Line 695
	mov	rax, QWORD PTR pInfo$[rsp]
	mov	rcx, QWORD PTR this$[rsp]
	mov	rcx, QWORD PTR [rcx+72]
	mov	QWORD PTR [rax+256], rcx
; Line 696
	mov	rax, QWORD PTR this$[rsp]
	cmp	QWORD PTR [rax+72], 0
	je	SHORT $LN1@QueryFilte
; Line 697
	mov	rax, QWORD PTR this$[rsp]
	mov	rax, QWORD PTR [rax+72]
	mov	rcx, QWORD PTR this$[rsp]
	mov	rcx, QWORD PTR [rcx+72]
	mov	rax, QWORD PTR [rax]
	call	QWORD PTR [rax+8]
$LN1@QueryFilte:
; Line 698
	xor	eax, eax
$LN7@QueryFilte:
; Line 699
	add	rsp, 32					; 00000020H
	pop	rdi
	ret	0
?QueryFilterInfo@CBaseFilter@@UEAAJPEAU_FilterInfo@@@Z ENDP ; CBaseFilter::QueryFilterInfo
_TEXT	ENDS
PUBLIC	?JoinFilterGraph@CBaseFilter@@UEAAJPEAUIFilterGraph@@PEB_W@Z ; CBaseFilter::JoinFilterGraph
EXTRN	memcpy:PROC
EXTRN	__imp_lstrlenW:PROC
EXTRN	IID_IMediaEventSink:BYTE
;	COMDAT pdata
pdata	SEGMENT
$pdata$?JoinFilterGraph@CBaseFilter@@UEAAJPEAUIFilterGraph@@PEB_W@Z DD imagerel $LN14
	DD	imagerel $LN14+582
	DD	imagerel $unwind$?JoinFilterGraph@CBaseFilter@@UEAAJPEAUIFilterGraph@@PEB_W@Z
pdata	ENDS
;	COMDAT pdata
pdata	SEGMENT
$pdata$?dtor$0@?0??JoinFilterGraph@CBaseFilter@@UEAAJPEAUIFilterGraph@@PEB_W@Z@4HA DD imagerel ?dtor$0@?0??JoinFilterGraph@CBaseFilter@@UEAAJPEAUIFilterGraph@@PEB_W@Z@4HA
	DD	imagerel ?dtor$0@?0??JoinFilterGraph@CBaseFilter@@UEAAJPEAUIFilterGraph@@PEB_W@Z@4HA+35
	DD	imagerel $unwind$?dtor$0@?0??JoinFilterGraph@CBaseFilter@@UEAAJPEAUIFilterGraph@@PEB_W@Z@4HA
pdata	ENDS
;	COMDAT xdata
xdata	SEGMENT
$ip2state$?JoinFilterGraph@CBaseFilter@@UEAAJPEAUIFilterGraph@@PEB_W@Z DD imagerel ?JoinFilterGraph@CBaseFilter@@UEAAJPEAUIFilterGraph@@PEB_W@Z
	DD	0ffffffffH
	DD	imagerel ?JoinFilterGraph@CBaseFilter@@UEAAJPEAUIFilterGraph@@PEB_W@Z+78
	DD	00H
	DD	imagerel ?JoinFilterGraph@CBaseFilter@@UEAAJPEAUIFilterGraph@@PEB_W@Z+540
	DD	0ffffffffH
xdata	ENDS
;	COMDAT xdata
xdata	SEGMENT
$unwind$?dtor$0@?0??JoinFilterGraph@CBaseFilter@@UEAAJPEAUIFilterGraph@@PEB_W@Z@4HA DD 031001H
	DD	0700c4210H
	DD	0500bH
xdata	ENDS
;	COMDAT xdata
xdata	SEGMENT
$unwind$?JoinFilterGraph@CBaseFilter@@UEAAJPEAUIFilterGraph@@PEB_W@Z DD 023711H
	DD	07010f217H
	DD	imagerel __CxxFrameHandler3
	DD	imagerel $cppxdata$?JoinFilterGraph@CBaseFilter@@UEAAJPEAUIFilterGraph@@PEB_W@Z
xdata	ENDS
;	COMDAT xdata
xdata	SEGMENT
$stateUnwindMap$?JoinFilterGraph@CBaseFilter@@UEAAJPEAUIFilterGraph@@PEB_W@Z DD 0ffffffffH
	DD	imagerel ?dtor$0@?0??JoinFilterGraph@CBaseFilter@@UEAAJPEAUIFilterGraph@@PEB_W@Z@4HA
xdata	ENDS
;	COMDAT CONST
CONST	SEGMENT
?JoinFilterGraph@CBaseFilter@@UEAAJPEAUIFilterGraph@@PEB_W@Z$rtcName$0 DB 063H ; CBaseFilter::JoinFilterGraph
	DB	04fH
	DB	062H
	DB	06aH
	DB	065H
	DB	063H
	DB	074H
	DB	04cH
	DB	06fH
	DB	063H
	DB	06bH
	DB	00H
	ORG $+4
?JoinFilterGraph@CBaseFilter@@UEAAJPEAUIFilterGraph@@PEB_W@Z$rtcVarDesc DD 028H ; CBaseFilter::JoinFilterGraph
	DD	08H
	DQ	FLAT:?JoinFilterGraph@CBaseFilter@@UEAAJPEAUIFilterGraph@@PEB_W@Z$rtcName$0
	ORG $+48
?JoinFilterGraph@CBaseFilter@@UEAAJPEAUIFilterGraph@@PEB_W@Z$rtcFrameData DD 01H ; CBaseFilter::JoinFilterGraph
	DD	00H
	DQ	FLAT:?JoinFilterGraph@CBaseFilter@@UEAAJPEAUIFilterGraph@@PEB_W@Z$rtcVarDesc
$cppxdata$?JoinFilterGraph@CBaseFilter@@UEAAJPEAUIFilterGraph@@PEB_W@Z DD 019930522H
	DD	01H
	DD	imagerel $stateUnwindMap$?JoinFilterGraph@CBaseFilter@@UEAAJPEAUIFilterGraph@@PEB_W@Z
	DD	00H
	DD	00H
	DD	03H
	DD	imagerel $ip2state$?JoinFilterGraph@CBaseFilter@@UEAAJPEAUIFilterGraph@@PEB_W@Z
	DD	058H
	DD	00H
	DD	01H
; Function compile flags: /Odtp /RTCsu
CONST	ENDS
;	COMDAT ?JoinFilterGraph@CBaseFilter@@UEAAJPEAUIFilterGraph@@PEB_W@Z
_TEXT	SEGMENT
cObjectLock$ = 40
hr$82668 = 52
nameLen$82680 = 56
$T87653 = 64
$T87654 = 72
$T87655 = 80
$T87661 = 88
tv85 = 96
tv86 = 104
tv162 = 112
this$ = 144
pGraph$ = 152
pName$ = 160
?JoinFilterGraph@CBaseFilter@@UEAAJPEAUIFilterGraph@@PEB_W@Z PROC ; CBaseFilter::JoinFilterGraph, COMDAT
; Line 708
$LN14:
	mov	QWORD PTR [rsp+24], r8
	mov	QWORD PTR [rsp+16], rdx
	mov	QWORD PTR [rsp+8], rcx
	push	rdi
	sub	rsp, 128				; 00000080H
	mov	rdi, rsp
	mov	ecx, 32					; 00000020H
	mov	eax, -858993460				; ccccccccH
	rep stosd
	mov	rcx, QWORD PTR [rsp+144]
	mov	QWORD PTR $T87661[rsp], -2
; Line 709
	mov	rax, QWORD PTR this$[rsp]
	mov	rdx, QWORD PTR [rax+56]
	lea	rcx, QWORD PTR cObjectLock$[rsp]
	call	??0CAutoLock@@QEAA@PEAVCCritSec@@@Z	; CAutoLock::CAutoLock
	npad	1
; Line 713
	mov	rax, QWORD PTR this$[rsp]
	mov	rcx, QWORD PTR pGraph$[rsp]
	mov	QWORD PTR [rax+72], rcx
; Line 714
	mov	rax, QWORD PTR this$[rsp]
	cmp	QWORD PTR [rax+72], 0
	je	$LN10@JoinFilter
; Line 716
	mov	rax, QWORD PTR this$[rsp]
	add	rax, 80					; 00000050H
	mov	rcx, QWORD PTR this$[rsp]
	mov	rcx, QWORD PTR [rcx+72]
	mov	rdx, QWORD PTR this$[rsp]
	mov	rdx, QWORD PTR [rdx+72]
	mov	QWORD PTR tv85[rsp], rdx
	mov	rcx, QWORD PTR [rcx]
	mov	QWORD PTR tv86[rsp], rcx
	mov	r8, rax
	lea	rdx, OFFSET FLAT:IID_IMediaEventSink
	mov	rax, QWORD PTR tv85[rsp]
	mov	rcx, rax
	mov	rax, QWORD PTR tv86[rsp]
	call	QWORD PTR [rax]
	mov	DWORD PTR hr$82668[rsp], eax
; Line 717
	cmp	DWORD PTR hr$82668[rsp], 0
	jge	SHORT $LN9@JoinFilter
; Line 718
	mov	rax, QWORD PTR this$[rsp]
	cmp	QWORD PTR [rax+80], 0
	je	SHORT $LN8@JoinFilter
	mov	r8d, 718				; 000002ceH
	lea	rdx, OFFSET FLAT:$SG82673
	lea	rcx, OFFSET FLAT:$SG82674
	call	?DbgAssert@@YAXPEB_W0H@Z		; DbgAssert
$LN8@JoinFilter:
; Line 719
	jmp	SHORT $LN7@JoinFilter
$LN9@JoinFilter:
; Line 720
	mov	rax, QWORD PTR this$[rsp]
	mov	rax, QWORD PTR [rax+80]
	mov	rcx, QWORD PTR this$[rsp]
	mov	rcx, QWORD PTR [rcx+80]
	mov	rax, QWORD PTR [rax]
	call	QWORD PTR [rax+16]
$LN7@JoinFilter:
; Line 721
	jmp	SHORT $LN6@JoinFilter
$LN10@JoinFilter:
; Line 725
	mov	rax, QWORD PTR this$[rsp]
	mov	QWORD PTR [rax+80], 0
$LN6@JoinFilter:
; Line 729
	mov	rax, QWORD PTR this$[rsp]
	cmp	QWORD PTR [rax+64], 0
	je	SHORT $LN5@JoinFilter
; Line 730
	mov	rax, QWORD PTR this$[rsp]
	mov	rax, QWORD PTR [rax+64]
	mov	QWORD PTR $T87653[rsp], rax
	mov	rcx, QWORD PTR $T87653[rsp]
	call	??3@YAXPEAX@Z				; operator delete
; Line 731
	mov	rax, QWORD PTR this$[rsp]
	mov	QWORD PTR [rax+64], 0
$LN5@JoinFilter:
; Line 734
	cmp	QWORD PTR pName$[rsp], 0
	je	$LN4@JoinFilter
; Line 735
	mov	rcx, QWORD PTR pName$[rsp]
	call	QWORD PTR __imp_lstrlenW
	inc	eax
	mov	DWORD PTR nameLen$82680[rsp], eax
; Line 736
	mov	eax, DWORD PTR nameLen$82680[rsp]
	mov	QWORD PTR tv162[rsp], rax
	mov	eax, 2
	mov	rcx, QWORD PTR tv162[rsp]
	mul	rcx
	mov	rcx, -1
	cmovo	rax, rcx
	mov	rcx, rax
	call	??2@YAPEAX_K@Z				; operator new
	mov	QWORD PTR $T87654[rsp], rax
	mov	rax, QWORD PTR this$[rsp]
	mov	rcx, QWORD PTR $T87654[rsp]
	mov	QWORD PTR [rax+64], rcx
; Line 737
	mov	rax, QWORD PTR this$[rsp]
	cmp	QWORD PTR [rax+64], 0
	je	SHORT $LN3@JoinFilter
; Line 738
	mov	eax, DWORD PTR nameLen$82680[rsp]
	shl	rax, 1
	mov	r8, rax
	mov	rdx, QWORD PTR pName$[rsp]
	mov	rax, QWORD PTR this$[rsp]
	mov	rcx, QWORD PTR [rax+64]
	call	memcpy
; Line 739
	jmp	SHORT $LN4@JoinFilter
$LN3@JoinFilter:
; Line 741
	xor	eax, eax
	cmp	eax, 1
	je	SHORT $LN4@JoinFilter
	mov	r8d, 741				; 000002e5H
	lea	rdx, OFFSET FLAT:$SG82687
	lea	rcx, OFFSET FLAT:$SG82688
	call	?DbgAssert@@YAXPEB_W0H@Z		; DbgAssert
$LN4@JoinFilter:
; Line 746
	mov	DWORD PTR $T87655[rsp], 0
	lea	rcx, QWORD PTR cObjectLock$[rsp]
	call	??1CAutoLock@@QEAA@XZ			; CAutoLock::~CAutoLock
	mov	eax, DWORD PTR $T87655[rsp]
; Line 747
	mov	edi, eax
	mov	rcx, rsp
	lea	rdx, OFFSET FLAT:?JoinFilterGraph@CBaseFilter@@UEAAJPEAUIFilterGraph@@PEB_W@Z$rtcFrameData
	call	_RTC_CheckStackVars
	mov	eax, edi
	add	rsp, 128				; 00000080H
	pop	rdi
	ret	0
?JoinFilterGraph@CBaseFilter@@UEAAJPEAUIFilterGraph@@PEB_W@Z ENDP ; CBaseFilter::JoinFilterGraph
; Function compile flags: /Odtp /RTCsu
_TEXT	ENDS
;	COMDAT text$x
text$x	SEGMENT
cObjectLock$ = 40
hr$82668 = 52
nameLen$82680 = 56
$T87653 = 64
$T87654 = 72
$T87655 = 80
$T87661 = 88
tv85 = 96
tv86 = 104
tv162 = 112
this$ = 144
pGraph$ = 152
pName$ = 160
?dtor$0@?0??JoinFilterGraph@CBaseFilter@@UEAAJPEAUIFilterGraph@@PEB_W@Z@4HA PROC ; `CBaseFilter::JoinFilterGraph'::`1'::dtor$0
	mov	QWORD PTR [rsp+8], rcx
	mov	QWORD PTR [rsp+16], rdx
	push	rbp
	push	rdi
	sub	rsp, 40					; 00000028H
	mov	rbp, rdx
	lea	rcx, QWORD PTR cObjectLock$[rbp]
	call	??1CAutoLock@@QEAA@XZ			; CAutoLock::~CAutoLock
	add	rsp, 40					; 00000028H
	pop	rdi
	pop	rbp
	ret	0
?dtor$0@?0??JoinFilterGraph@CBaseFilter@@UEAAJPEAUIFilterGraph@@PEB_W@Z@4HA ENDP ; `CBaseFilter::JoinFilterGraph'::`1'::dtor$0
text$x	ENDS
PUBLIC	?QueryVendorInfo@CBaseFilter@@UEAAJPEAPEA_W@Z	; CBaseFilter::QueryVendorInfo
;	COMDAT pdata
pdata	SEGMENT
$pdata$?QueryVendorInfo@CBaseFilter@@UEAAJPEAPEA_W@Z DD imagerel $LN3
	DD	imagerel $LN3+18
	DD	imagerel $unwind$?QueryVendorInfo@CBaseFilter@@UEAAJPEAPEA_W@Z
pdata	ENDS
;	COMDAT xdata
xdata	SEGMENT
$unwind$?QueryVendorInfo@CBaseFilter@@UEAAJPEAPEA_W@Z DD 010b01H
	DD	0700bH
; Function compile flags: /Odtp /RTCsu
xdata	ENDS
;	COMDAT ?QueryVendorInfo@CBaseFilter@@UEAAJPEAPEA_W@Z
_TEXT	SEGMENT
this$ = 16
pVendorInfo$ = 24
?QueryVendorInfo@CBaseFilter@@UEAAJPEAPEA_W@Z PROC	; CBaseFilter::QueryVendorInfo, COMDAT
; Line 756
$LN3:
	mov	QWORD PTR [rsp+16], rdx
	mov	QWORD PTR [rsp+8], rcx
	push	rdi
; Line 758
	mov	eax, -2147467263			; ffffffff80004001H
; Line 759
	pop	rdi
	ret	0
?QueryVendorInfo@CBaseFilter@@UEAAJPEAPEA_W@Z ENDP	; CBaseFilter::QueryVendorInfo
_TEXT	ENDS
PUBLIC	?NotifyEvent@CBaseFilter@@QEAAJJ_J0@Z		; CBaseFilter::NotifyEvent
;	COMDAT pdata
pdata	SEGMENT
$pdata$?NotifyEvent@CBaseFilter@@QEAAJJ_J0@Z DD imagerel $LN8
	DD	imagerel $LN8+161
	DD	imagerel $unwind$?NotifyEvent@CBaseFilter@@QEAAJJ_J0@Z
pdata	ENDS
;	COMDAT xdata
xdata	SEGMENT
$unwind$?NotifyEvent@CBaseFilter@@QEAAJJ_J0@Z DD 022c01H
	DD	070145218H
; Function compile flags: /Odtp /RTCsu
xdata	ENDS
;	COMDAT ?NotifyEvent@CBaseFilter@@QEAAJJ_J0@Z
_TEXT	SEGMENT
pSink$ = 32
tv71 = 40
this$ = 64
EventCode$ = 72
EventParam1$ = 80
EventParam2$ = 88
?NotifyEvent@CBaseFilter@@QEAAJJ_J0@Z PROC		; CBaseFilter::NotifyEvent, COMDAT
; Line 770
$LN8:
	mov	QWORD PTR [rsp+32], r9
	mov	QWORD PTR [rsp+24], r8
	mov	DWORD PTR [rsp+16], edx
	mov	QWORD PTR [rsp+8], rcx
	push	rdi
	sub	rsp, 48					; 00000030H
	mov	rdi, rsp
	mov	ecx, 12
	mov	eax, -858993460				; ccccccccH
	rep stosd
	mov	rcx, QWORD PTR [rsp+64]
; Line 772
	mov	rax, QWORD PTR this$[rsp]
	mov	rax, QWORD PTR [rax+112]
	mov	QWORD PTR pSink$[rsp], rax
; Line 773
	cmp	QWORD PTR pSink$[rsp], 0
	je	SHORT $LN3@NotifyEven
; Line 774
	cmp	DWORD PTR EventCode$[rsp], 1
	jne	SHORT $LN2@NotifyEven
; Line 775
	cmp	QWORD PTR this$[rsp], 0
	je	SHORT $LN6@NotifyEven
	mov	rax, QWORD PTR this$[rsp]
	add	rax, 32					; 00000020H
	mov	QWORD PTR tv71[rsp], rax
	jmp	SHORT $LN7@NotifyEven
$LN6@NotifyEven:
	mov	QWORD PTR tv71[rsp], 0
$LN7@NotifyEven:
	mov	rax, QWORD PTR tv71[rsp]
	mov	QWORD PTR EventParam2$[rsp], rax
$LN2@NotifyEven:
; Line 778
	mov	rax, QWORD PTR pSink$[rsp]
	mov	rax, QWORD PTR [rax]
	mov	r9, QWORD PTR EventParam2$[rsp]
	mov	r8, QWORD PTR EventParam1$[rsp]
	mov	edx, DWORD PTR EventCode$[rsp]
	mov	rcx, QWORD PTR pSink$[rsp]
	call	QWORD PTR [rax+24]
	jmp	SHORT $LN4@NotifyEven
; Line 779
	jmp	SHORT $LN1@NotifyEven
$LN3@NotifyEven:
; Line 780
	mov	eax, -2147467263			; ffffffff80004001H
$LN1@NotifyEven:
$LN4@NotifyEven:
; Line 782
	add	rsp, 48					; 00000030H
	pop	rdi
	ret	0
?NotifyEvent@CBaseFilter@@QEAAJJ_J0@Z ENDP		; CBaseFilter::NotifyEvent
_TEXT	ENDS
PUBLIC	?ReconnectPin@CBaseFilter@@QEAAJPEAUIPin@@PEBU_AMMediaType@@@Z ; CBaseFilter::ReconnectPin
EXTRN	IID_IFilterGraph2:BYTE
;	COMDAT pdata
pdata	SEGMENT
$pdata$?ReconnectPin@CBaseFilter@@QEAAJPEAUIPin@@PEBU_AMMediaType@@@Z DD imagerel $LN7
	DD	imagerel $LN7+224
	DD	imagerel $unwind$?ReconnectPin@CBaseFilter@@QEAAJPEAUIPin@@PEBU_AMMediaType@@@Z
pdata	ENDS
;	COMDAT xdata
xdata	SEGMENT
$unwind$?ReconnectPin@CBaseFilter@@QEAAJPEAUIPin@@PEBU_AMMediaType@@@Z DD 022801H
	DD	070107214H
xdata	ENDS
;	COMDAT CONST
CONST	SEGMENT
?ReconnectPin@CBaseFilter@@QEAAJPEAUIPin@@PEBU_AMMediaType@@@Z$rtcName$0 DB 070H ; CBaseFilter::ReconnectPin
	DB	047H
	DB	072H
	DB	061H
	DB	070H
	DB	068H
	DB	032H
	DB	00H
	ORG $+8
?ReconnectPin@CBaseFilter@@QEAAJPEAUIPin@@PEBU_AMMediaType@@@Z$rtcVarDesc DD 028H ; CBaseFilter::ReconnectPin
	DD	08H
	DQ	FLAT:?ReconnectPin@CBaseFilter@@QEAAJPEAUIPin@@PEBU_AMMediaType@@@Z$rtcName$0
	ORG $+48
?ReconnectPin@CBaseFilter@@QEAAJPEAUIPin@@PEBU_AMMediaType@@@Z$rtcFrameData DD 01H ; CBaseFilter::ReconnectPin
	DD	00H
	DQ	FLAT:?ReconnectPin@CBaseFilter@@QEAAJPEAUIPin@@PEBU_AMMediaType@@@Z$rtcVarDesc
; Function compile flags: /Odtp /RTCsu
CONST	ENDS
;	COMDAT ?ReconnectPin@CBaseFilter@@QEAAJPEAUIPin@@PEBU_AMMediaType@@@Z
_TEXT	SEGMENT
pGraph2$ = 40
hr$82715 = 52
this$ = 80
pPin$ = 88
pmt$ = 96
?ReconnectPin@CBaseFilter@@QEAAJPEAUIPin@@PEBU_AMMediaType@@@Z PROC ; CBaseFilter::ReconnectPin, COMDAT
; Line 793
$LN7:
	mov	QWORD PTR [rsp+24], r8
	mov	QWORD PTR [rsp+16], rdx
	mov	QWORD PTR [rsp+8], rcx
	push	rdi
	sub	rsp, 64					; 00000040H
	mov	rdi, rsp
	mov	ecx, 16
	mov	eax, -858993460				; ccccccccH
	rep stosd
	mov	rcx, QWORD PTR [rsp+80]
; Line 795
	mov	rax, QWORD PTR this$[rsp]
	cmp	QWORD PTR [rax+104], 0
	je	$LN4@ReconnectP
; Line 796
	mov	rax, QWORD PTR this$[rsp]
	mov	rax, QWORD PTR [rax+104]
	mov	rcx, QWORD PTR this$[rsp]
	mov	rcx, QWORD PTR [rcx+104]
	mov	rax, QWORD PTR [rax]
	lea	r8, QWORD PTR pGraph2$[rsp]
	lea	rdx, OFFSET FLAT:IID_IFilterGraph2
	call	QWORD PTR [rax]
	mov	DWORD PTR hr$82715[rsp], eax
; Line 797
	cmp	DWORD PTR hr$82715[rsp], 0
	jl	SHORT $LN3@ReconnectP
; Line 798
	mov	rax, QWORD PTR pGraph2$[rsp]
	mov	rax, QWORD PTR [rax]
	mov	r8, QWORD PTR pmt$[rsp]
	mov	rdx, QWORD PTR pPin$[rsp]
	mov	rcx, QWORD PTR pGraph2$[rsp]
	call	QWORD PTR [rax+152]
	mov	DWORD PTR hr$82715[rsp], eax
; Line 799
	mov	rax, QWORD PTR pGraph2$[rsp]
	mov	rax, QWORD PTR [rax]
	mov	rcx, QWORD PTR pGraph2$[rsp]
	call	QWORD PTR [rax+16]
; Line 800
	mov	eax, DWORD PTR hr$82715[rsp]
	jmp	SHORT $LN5@ReconnectP
; Line 801
	jmp	SHORT $LN2@ReconnectP
$LN3@ReconnectP:
; Line 802
	mov	rax, QWORD PTR this$[rsp]
	mov	rax, QWORD PTR [rax+104]
	mov	rcx, QWORD PTR this$[rsp]
	mov	rcx, QWORD PTR [rcx+104]
	mov	rax, QWORD PTR [rax]
	mov	rdx, QWORD PTR pPin$[rsp]
	call	QWORD PTR [rax+64]
	jmp	SHORT $LN5@ReconnectP
$LN2@ReconnectP:
; Line 804
	jmp	SHORT $LN1@ReconnectP
$LN4@ReconnectP:
; Line 805
	mov	eax, -2147467262			; ffffffff80004002H
$LN1@ReconnectP:
$LN5@ReconnectP:
; Line 807
	mov	rdi, rax
	mov	rcx, rsp
	lea	rdx, OFFSET FLAT:?ReconnectPin@CBaseFilter@@QEAAJPEAUIPin@@PEBU_AMMediaType@@@Z$rtcFrameData
	call	_RTC_CheckStackVars
	mov	rax, rdi
	add	rsp, 64					; 00000040H
	pop	rdi
	ret	0
?ReconnectPin@CBaseFilter@@QEAAJPEAUIPin@@PEBU_AMMediaType@@@Z ENDP ; CBaseFilter::ReconnectPin
_TEXT	ENDS
PUBLIC	?GetPinVersion@CBaseFilter@@UEAAJXZ		; CBaseFilter::GetPinVersion
;	COMDAT pdata
pdata	SEGMENT
$pdata$?GetPinVersion@CBaseFilter@@UEAAJXZ DD imagerel $LN3
	DD	imagerel $LN3+16
	DD	imagerel $unwind$?GetPinVersion@CBaseFilter@@UEAAJXZ
pdata	ENDS
;	COMDAT xdata
xdata	SEGMENT
$unwind$?GetPinVersion@CBaseFilter@@UEAAJXZ DD 010601H
	DD	07006H
; Function compile flags: /Odtp /RTCsu
xdata	ENDS
;	COMDAT ?GetPinVersion@CBaseFilter@@UEAAJXZ
_TEXT	SEGMENT
this$ = 16
?GetPinVersion@CBaseFilter@@UEAAJXZ PROC		; CBaseFilter::GetPinVersion, COMDAT
; Line 817
$LN3:
	mov	QWORD PTR [rsp+8], rcx
	push	rdi
; Line 818
	mov	rax, QWORD PTR this$[rsp]
	mov	eax, DWORD PTR [rax+120]
; Line 819
	pop	rdi
	ret	0
?GetPinVersion@CBaseFilter@@UEAAJXZ ENDP		; CBaseFilter::GetPinVersion
_TEXT	ENDS
PUBLIC	?IncrementPinVersion@CBaseFilter@@QEAAXXZ	; CBaseFilter::IncrementPinVersion
;	COMDAT pdata
pdata	SEGMENT
$pdata$?IncrementPinVersion@CBaseFilter@@QEAAXXZ DD imagerel $LN3
	DD	imagerel $LN3+20
	DD	imagerel $unwind$?IncrementPinVersion@CBaseFilter@@QEAAXXZ
pdata	ENDS
;	COMDAT xdata
xdata	SEGMENT
$unwind$?IncrementPinVersion@CBaseFilter@@QEAAXXZ DD 010601H
	DD	07006H
; Function compile flags: /Odtp /RTCsu
xdata	ENDS
;	COMDAT ?IncrementPinVersion@CBaseFilter@@QEAAXXZ
_TEXT	SEGMENT
this$ = 16
?IncrementPinVersion@CBaseFilter@@QEAAXXZ PROC		; CBaseFilter::IncrementPinVersion, COMDAT
; Line 825
$LN3:
	mov	QWORD PTR [rsp+8], rcx
	push	rdi
; Line 826
	mov	rax, QWORD PTR this$[rsp]
	add	rax, 120				; 00000078H
	lock inc DWORD PTR [rax]
; Line 827
	pop	rdi
	ret	0
