; Listing generated by Microsoft (R) Optimizing Compiler Version 16.00.30319.01 

	TITLE	C:\Downloads\MediaPoint\src\filters\BaseClasses\cprop.cpp
	.686P
	.XMM
	include listing.inc
	.model	flat

INCLUDELIB LIBCMTD
INCLUDELIB OLDNAMES

PUBLIC	_IID_IAMFilterGraphCallback
CONST	SEGMENT
$SG81576 DB	'.', 00H, '.', 00H, '\', 00H, 'c', 00H, 'p', 00H, 'r', 00H
	DB	'o', 00H, 'p', 00H, '.', 00H, 'c', 00H, 'p', 00H, 'p', 00H, 00H
	DB	00H
	ORG $+2
$SG81577 DB	'l', 00H, 'R', 00H, 'e', 00H, 'f', 00H, ' ', 00H, '>', 00H
	DB	' ', 00H, '0', 00H, 00H, 00H
	ORG $+2
$SG81604 DB	'N', 00H, 'o', 00H, ' ', 00H, 'c', 00H, 'a', 00H, 'p', 00H
	DB	't', 00H, 'i', 00H, 'o', 00H, 'n', 00H, ' ', 00H, 'm', 00H, 'e'
	DB	00H, 'm', 00H, 'o', 00H, 'r', 00H, 'y', 00H, 00H, 00H
$SG81639 DB	'.', 00H, '.', 00H, '\', 00H, 'c', 00H, 'p', 00H, 'r', 00H
	DB	'o', 00H, 'p', 00H, '.', 00H, 'c', 00H, 'p', 00H, 'p', 00H, 00H
	DB	00H
	ORG $+2
$SG81640 DB	'"', 00H, 'N', 00H, 'o', 00H, ' ', 00H, 's', 00H, 'u', 00H
	DB	'p', 00H, 'p', 00H, 'o', 00H, 'r', 00H, 't', 00H, ' ', 00H, 'f'
	DB	00H, 'o', 00H, 'r', 00H, ' ', 00H, 'm', 00H, 'o', 00H, 'r', 00H
	DB	'e', 00H, ' ', 00H, 't', 00H, 'h', 00H, 'a', 00H, 'n', 00H, ' '
	DB	00H, 'o', 00H, 'n', 00H, 'e', 00H, ' ', 00H, 'o', 00H, 'b', 00H
	DB	'j', 00H, 'e', 00H, 'c', 00H, 't', 00H, '"', 00H, 00H, 00H
CONST	ENDS
;	COMDAT _IID_IAMFilterGraphCallback
CONST	SEGMENT
_IID_IAMFilterGraphCallback DD 056a868fdH
	DW	0ad4H
	DW	011ceH
	DB	0b0H
	DB	0a3H
	DB	00H
	DB	020H
	DB	0afH
	DB	0bH
	DB	0a7H
	DB	070H
CONST	ENDS
PUBLIC	??0IPropertyPage@@QAE@XZ			; IPropertyPage::IPropertyPage
PUBLIC	??0CBasePropertyPage@@QAE@PA_WPAUIUnknown@@HH@Z	; CBasePropertyPage::CBasePropertyPage
EXTRN	??0CUnknown@@QAE@PB_WPAUIUnknown@@@Z:PROC	; CUnknown::CUnknown
EXTRN	__RTC_CheckEsp:PROC
EXTRN	__RTC_Shutdown:PROC
EXTRN	__RTC_InitBase:PROC
;	COMDAT rtc$TMZ
; File c:\downloads\mediapoint\src\filters\baseclasses\cprop.cpp
rtc$TMZ	SEGMENT
__RTC_Shutdown.rtc$TMZ DD FLAT:__RTC_Shutdown
rtc$TMZ	ENDS
;	COMDAT rtc$IMZ
rtc$IMZ	SEGMENT
__RTC_InitBase.rtc$IMZ DD FLAT:__RTC_InitBase
; Function compile flags: /Odtp /RTCsu
rtc$IMZ	ENDS
;	COMDAT ??0CBasePropertyPage@@QAE@PA_WPAUIUnknown@@HH@Z
_TEXT	SEGMENT
_this$ = -4						; size = 4
_pName$ = 8						; size = 4
_pUnk$ = 12						; size = 4
_DialogId$ = 16						; size = 4
_TitleId$ = 20						; size = 4
??0CBasePropertyPage@@QAE@PA_WPAUIUnknown@@HH@Z PROC	; CBasePropertyPage::CBasePropertyPage, COMDAT
; _this$ = ecx
; Line 31
	push	ebp
	mov	ebp, esp
	push	ecx
	mov	DWORD PTR [ebp-4], -858993460		; ccccccccH
	mov	DWORD PTR _this$[ebp], ecx
	mov	ecx, DWORD PTR _this$[ebp]
	call	??0IPropertyPage@@QAE@XZ
	mov	eax, DWORD PTR _pUnk$[ebp]
	push	eax
	mov	ecx, DWORD PTR _pName$[ebp]
	push	ecx
	mov	ecx, DWORD PTR _this$[ebp]
	add	ecx, 4
	call	??0CUnknown@@QAE@PB_WPAUIUnknown@@@Z	; CUnknown::CUnknown
	mov	edx, DWORD PTR _this$[ebp]
	mov	DWORD PTR [edx+20], 0
	mov	eax, DWORD PTR _this$[ebp]
	mov	DWORD PTR [eax+24], 0
	mov	ecx, DWORD PTR _this$[ebp]
	mov	DWORD PTR [ecx+28], 0
	mov	edx, DWORD PTR _this$[ebp]
	mov	DWORD PTR [edx+32], 0
	mov	eax, DWORD PTR _this$[ebp]
	mov	ecx, DWORD PTR _TitleId$[ebp]
	mov	DWORD PTR [eax+36], ecx
	mov	edx, DWORD PTR _this$[ebp]
	mov	eax, DWORD PTR _DialogId$[ebp]
	mov	DWORD PTR [edx+40], eax
	mov	ecx, DWORD PTR _this$[ebp]
	mov	DWORD PTR [ecx+44], 0
; Line 32
	mov	eax, DWORD PTR _this$[ebp]
	add	esp, 4
	cmp	ebp, esp
	call	__RTC_CheckEsp
	mov	esp, ebp
	pop	ebp
	ret	16					; 00000010H
??0CBasePropertyPage@@QAE@PA_WPAUIUnknown@@HH@Z ENDP	; CBasePropertyPage::CBasePropertyPage
_TEXT	ENDS
PUBLIC	??0IUnknown@@QAE@XZ				; IUnknown::IUnknown
; Function compile flags: /Odtp /RTCsu
;	COMDAT ??0IPropertyPage@@QAE@XZ
_TEXT	SEGMENT
_this$ = -4						; size = 4
??0IPropertyPage@@QAE@XZ PROC				; IPropertyPage::IPropertyPage, COMDAT
; _this$ = ecx
	push	ebp
	mov	ebp, esp
	push	ecx
	mov	DWORD PTR [ebp-4], -858993460		; ccccccccH
	mov	DWORD PTR _this$[ebp], ecx
	mov	ecx, DWORD PTR _this$[ebp]
	call	??0IUnknown@@QAE@XZ
	mov	eax, DWORD PTR _this$[ebp]
	add	esp, 4
	cmp	ebp, esp
	call	__RTC_CheckEsp
	mov	esp, ebp
	pop	ebp
	ret	0
??0IPropertyPage@@QAE@XZ ENDP				; IPropertyPage::IPropertyPage
; Function compile flags: /Odtp /RTCsu
_TEXT	ENDS
;	COMDAT ??0IUnknown@@QAE@XZ
_TEXT	SEGMENT
_this$ = -4						; size = 4
??0IUnknown@@QAE@XZ PROC				; IUnknown::IUnknown, COMDAT
; _this$ = ecx
	push	ebp
	mov	ebp, esp
	push	ecx
	mov	DWORD PTR [ebp-4], -858993460		; ccccccccH
	mov	DWORD PTR _this$[ebp], ecx
	mov	eax, DWORD PTR _this$[ebp]
	mov	esp, ebp
	pop	ebp
	ret	0
??0IUnknown@@QAE@XZ ENDP				; IUnknown::IUnknown
_TEXT	ENDS
PUBLIC	??0CBasePropertyPage@@QAE@PADPAUIUnknown@@HH@Z	; CBasePropertyPage::CBasePropertyPage
EXTRN	??0CUnknown@@QAE@PBDPAUIUnknown@@@Z:PROC	; CUnknown::CUnknown
; Function compile flags: /Odtp /RTCsu
;	COMDAT ??0CBasePropertyPage@@QAE@PADPAUIUnknown@@HH@Z
_TEXT	SEGMENT
_this$ = -4						; size = 4
_pName$ = 8						; size = 4
_pUnk$ = 12						; size = 4
_DialogId$ = 16						; size = 4
_TitleId$ = 20						; size = 4
??0CBasePropertyPage@@QAE@PADPAUIUnknown@@HH@Z PROC	; CBasePropertyPage::CBasePropertyPage, COMDAT
; _this$ = ecx
; Line 47
	push	ebp
	mov	ebp, esp
	push	ecx
	mov	DWORD PTR [ebp-4], -858993460		; ccccccccH
	mov	DWORD PTR _this$[ebp], ecx
	mov	ecx, DWORD PTR _this$[ebp]
	call	??0IPropertyPage@@QAE@XZ
	mov	eax, DWORD PTR _pUnk$[ebp]
	push	eax
	mov	ecx, DWORD PTR _pName$[ebp]
	push	ecx
	mov	ecx, DWORD PTR _this$[ebp]
	add	ecx, 4
	call	??0CUnknown@@QAE@PBDPAUIUnknown@@@Z	; CUnknown::CUnknown
	mov	edx, DWORD PTR _this$[ebp]
	mov	DWORD PTR [edx+20], 0
	mov	eax, DWORD PTR _this$[ebp]
	mov	DWORD PTR [eax+24], 0
	mov	ecx, DWORD PTR _this$[ebp]
	mov	DWORD PTR [ecx+28], 0
	mov	edx, DWORD PTR _this$[ebp]
	mov	DWORD PTR [edx+32], 0
	mov	eax, DWORD PTR _this$[ebp]
	mov	ecx, DWORD PTR _TitleId$[ebp]
	mov	DWORD PTR [eax+36], ecx
	mov	edx, DWORD PTR _this$[ebp]
	mov	eax, DWORD PTR _DialogId$[ebp]
	mov	DWORD PTR [edx+40], eax
	mov	ecx, DWORD PTR _this$[ebp]
	mov	DWORD PTR [ecx+44], 0
; Line 48
	mov	eax, DWORD PTR _this$[ebp]
	add	esp, 4
	cmp	ebp, esp
	call	__RTC_CheckEsp
	mov	esp, ebp
	pop	ebp
	ret	16					; 00000010H
??0CBasePropertyPage@@QAE@PADPAUIUnknown@@HH@Z ENDP	; CBasePropertyPage::CBasePropertyPage
_TEXT	ENDS
PUBLIC	?NonDelegatingAddRef@CBasePropertyPage@@UAGKXZ	; CBasePropertyPage::NonDelegatingAddRef
EXTRN	?DbgAssert@@YGXPB_W0H@Z:PROC			; DbgAssert
EXTRN	__imp__InterlockedIncrement@4:PROC
; Function compile flags: /Odtp /RTCsu
;	COMDAT ?NonDelegatingAddRef@CBasePropertyPage@@UAGKXZ
_TEXT	SEGMENT
tv91 = -8						; size = 4
_lRef$ = -4						; size = 4
_this$ = 8						; size = 4
?NonDelegatingAddRef@CBasePropertyPage@@UAGKXZ PROC	; CBasePropertyPage::NonDelegatingAddRef, COMDAT
; Line 54
	push	ebp
	mov	ebp, esp
	sub	esp, 8
	push	esi
	mov	DWORD PTR [ebp-8], -858993460		; ccccccccH
	mov	DWORD PTR [ebp-4], -858993460		; ccccccccH
; Line 55
	mov	eax, DWORD PTR _this$[ebp]
	add	eax, 12					; 0000000cH
	mov	esi, esp
	push	eax
	call	DWORD PTR __imp__InterlockedIncrement@4
	cmp	esi, esp
	call	__RTC_CheckEsp
	mov	DWORD PTR _lRef$[ebp], eax
; Line 56
	cmp	DWORD PTR _lRef$[ebp], 0
	jg	SHORT $LN1@NonDelegat
	push	56					; 00000038H
	push	OFFSET $SG81576
	push	OFFSET $SG81577
	call	?DbgAssert@@YGXPB_W0H@Z			; DbgAssert
$LN1@NonDelegat:
; Line 57
	mov	ecx, DWORD PTR _this$[ebp]
	cmp	DWORD PTR [ecx+12], 1
	jbe	SHORT $LN4@NonDelegat
	mov	edx, DWORD PTR _this$[ebp]
	mov	eax, DWORD PTR [edx+12]
	mov	DWORD PTR tv91[ebp], eax
	jmp	SHORT $LN5@NonDelegat
$LN4@NonDelegat:
	mov	DWORD PTR tv91[ebp], 1
$LN5@NonDelegat:
	mov	eax, DWORD PTR tv91[ebp]
; Line 58
	pop	esi
	add	esp, 8
	cmp	ebp, esp
	call	__RTC_CheckEsp
	mov	esp, ebp
	pop	ebp
	ret	4
?NonDelegatingAddRef@CBasePropertyPage@@UAGKXZ ENDP	; CBasePropertyPage::NonDelegatingAddRef
_TEXT	ENDS
PUBLIC	?NonDelegatingRelease@CBasePropertyPage@@UAGKXZ	; CBasePropertyPage::NonDelegatingRelease
EXTRN	__imp__InterlockedDecrement@4:PROC
; Function compile flags: /Odtp /RTCsu
;	COMDAT ?NonDelegatingRelease@CBasePropertyPage@@UAGKXZ
_TEXT	SEGMENT
tv166 = -16						; size = 4
tv150 = -12						; size = 4
$T82045 = -8						; size = 4
$T82044 = -4						; size = 4
_this$ = 8						; size = 4
?NonDelegatingRelease@CBasePropertyPage@@UAGKXZ PROC	; CBasePropertyPage::NonDelegatingRelease, COMDAT
; Line 64
	push	ebp
	mov	ebp, esp
	sub	esp, 16					; 00000010H
	push	esi
	mov	eax, -858993460				; ccccccccH
	mov	DWORD PTR [ebp-16], eax
	mov	DWORD PTR [ebp-12], eax
	mov	DWORD PTR [ebp-8], eax
	mov	DWORD PTR [ebp-4], eax
; Line 67
	mov	eax, DWORD PTR _this$[ebp]
	add	eax, 12					; 0000000cH
	mov	esi, esp
	push	eax
	call	DWORD PTR __imp__InterlockedDecrement@4
	cmp	esi, esp
	call	__RTC_CheckEsp
	test	eax, eax
	jne	$LN2@NonDelegat@2
; Line 68
	mov	ecx, DWORD PTR _this$[ebp]
	mov	edx, DWORD PTR [ecx+12]
	add	edx, 1
	mov	eax, DWORD PTR _this$[ebp]
	mov	DWORD PTR [eax+12], edx
; Line 69
	mov	esi, esp
	push	0
	mov	ecx, DWORD PTR _this$[ebp]
	sub	ecx, 4
	mov	edx, DWORD PTR _this$[ebp]
	mov	eax, DWORD PTR [edx-4]
	push	ecx
	mov	ecx, DWORD PTR [eax+12]
	call	ecx
	cmp	esi, esp
	call	__RTC_CheckEsp
; Line 70
	mov	esi, esp
	push	0
	push	0
	mov	edx, DWORD PTR _this$[ebp]
	sub	edx, 4
	mov	eax, DWORD PTR _this$[ebp]
	mov	ecx, DWORD PTR [eax-4]
	push	edx
	mov	edx, DWORD PTR [ecx+28]
	call	edx
	cmp	esi, esp
	call	__RTC_CheckEsp
; Line 71
	mov	eax, DWORD PTR _this$[ebp]
	sub	eax, 4
	mov	DWORD PTR $T82045[ebp], eax
	mov	ecx, DWORD PTR $T82045[ebp]
	mov	DWORD PTR $T82044[ebp], ecx
	cmp	DWORD PTR $T82044[ebp], 0
	je	SHORT $LN5@NonDelegat@2
	mov	esi, esp
	push	1
	mov	ecx, DWORD PTR $T82044[ebp]
	add	ecx, 4
	mov	edx, DWORD PTR $T82044[ebp]
	mov	eax, DWORD PTR [edx+4]
	mov	edx, DWORD PTR [eax+12]
	call	edx
	cmp	esi, esp
	call	__RTC_CheckEsp
	mov	DWORD PTR tv150[ebp], eax
	jmp	SHORT $LN6@NonDelegat@2
$LN5@NonDelegat@2:
	mov	DWORD PTR tv150[ebp], 0
$LN6@NonDelegat@2:
; Line 72
	xor	eax, eax
	jmp	SHORT $LN3@NonDelegat@2
; Line 73
	jmp	SHORT $LN3@NonDelegat@2
$LN2@NonDelegat@2:
; Line 74
	mov	eax, DWORD PTR _this$[ebp]
	cmp	DWORD PTR [eax+12], 1
	jbe	SHORT $LN7@NonDelegat@2
	mov	ecx, DWORD PTR _this$[ebp]
	mov	edx, DWORD PTR [ecx+12]
	mov	DWORD PTR tv166[ebp], edx
	jmp	SHORT $LN8@NonDelegat@2
$LN7@NonDelegat@2:
	mov	DWORD PTR tv166[ebp], 1
$LN8@NonDelegat@2:
	mov	eax, DWORD PTR tv166[ebp]
$LN3@NonDelegat@2:
; Line 76
	pop	esi
	add	esp, 16					; 00000010H
	cmp	ebp, esp
	call	__RTC_CheckEsp
	mov	esp, ebp
	pop	ebp
	ret	4
?NonDelegatingRelease@CBasePropertyPage@@UAGKXZ ENDP	; CBasePropertyPage::NonDelegatingRelease
_TEXT	ENDS
PUBLIC	_==@8
PUBLIC	?NonDelegatingQueryInterface@CBasePropertyPage@@UAGJABU_GUID@@PAPAX@Z ; CBasePropertyPage::NonDelegatingQueryInterface
EXTRN	?NonDelegatingQueryInterface@CUnknown@@UAGJABU_GUID@@PAPAX@Z:PROC ; CUnknown::NonDelegatingQueryInterface
EXTRN	_GetInterface@8:PROC
EXTRN	_IID_IPropertyPage:BYTE
; Function compile flags: /Odtp /RTCsu
;	COMDAT ?NonDelegatingQueryInterface@CBasePropertyPage@@UAGJABU_GUID@@PAPAX@Z
_TEXT	SEGMENT
_this$ = 8						; size = 4
_riid$ = 12						; size = 4
_ppv$ = 16						; size = 4
?NonDelegatingQueryInterface@CBasePropertyPage@@UAGJABU_GUID@@PAPAX@Z PROC ; CBasePropertyPage::NonDelegatingQueryInterface, COMDAT
; Line 83
	push	ebp
	mov	ebp, esp
; Line 84
	push	OFFSET _IID_IPropertyPage
	mov	eax, DWORD PTR _riid$[ebp]
	push	eax
	call	_==@8
	test	eax, eax
	je	SHORT $LN2@NonDelegat@3
; Line 85
	mov	ecx, DWORD PTR _ppv$[ebp]
	push	ecx
	mov	edx, DWORD PTR _this$[ebp]
	sub	edx, 4
	push	edx
	call	_GetInterface@8
	jmp	SHORT $LN3@NonDelegat@3
; Line 86
	jmp	SHORT $LN3@NonDelegat@3
$LN2@NonDelegat@3:
; Line 87
	mov	eax, DWORD PTR _ppv$[ebp]
	push	eax
	mov	ecx, DWORD PTR _riid$[ebp]
	push	ecx
	mov	edx, DWORD PTR _this$[ebp]
	push	edx
	call	?NonDelegatingQueryInterface@CUnknown@@UAGJABU_GUID@@PAPAX@Z ; CUnknown::NonDelegatingQueryInterface
$LN3@NonDelegat@3:
; Line 89
	cmp	ebp, esp
	call	__RTC_CheckEsp
	pop	ebp
	ret	12					; 0000000cH
?NonDelegatingQueryInterface@CBasePropertyPage@@UAGJABU_GUID@@PAPAX@Z ENDP ; CBasePropertyPage::NonDelegatingQueryInterface
_TEXT	ENDS
PUBLIC	_IsEqualGUID@8
; Function compile flags: /Odtp /RTCsu
;	COMDAT _==@8
_TEXT	SEGMENT
_guidOne$ = 8						; size = 4
_guidOther$ = 12					; size = 4
_==@8	PROC						; COMDAT
; File c:\program files (x86)\microsoft sdks\windows\v7.0a\include\guiddef.h
; Line 193
	push	ebp
	mov	ebp, esp
; Line 194
	mov	eax, DWORD PTR _guidOther$[ebp]
	push	eax
	mov	ecx, DWORD PTR _guidOne$[ebp]
	push	ecx
	call	_IsEqualGUID@8
; Line 195
	cmp	ebp, esp
	call	__RTC_CheckEsp
	pop	ebp
	ret	8
_==@8	ENDP
_TEXT	ENDS
EXTRN	_memcmp:PROC
; Function compile flags: /Odtp /RTCsu
;	COMDAT _IsEqualGUID@8
_TEXT	SEGMENT
_rguid1$ = 8						; size = 4
_rguid2$ = 12						; size = 4
_IsEqualGUID@8 PROC					; COMDAT
; Line 160
	push	ebp
	mov	ebp, esp
; Line 161
	push	16					; 00000010H
	mov	eax, DWORD PTR _rguid2$[ebp]
	push	eax
	mov	ecx, DWORD PTR _rguid1$[ebp]
	push	ecx
	call	_memcmp
	add	esp, 12					; 0000000cH
	neg	eax
	sbb	eax, eax
	add	eax, 1
; Line 162
	cmp	ebp, esp
	call	__RTC_CheckEsp
	pop	ebp
	ret	8
_IsEqualGUID@8 ENDP
_TEXT	ENDS
PUBLIC	?DialogProc@CBasePropertyPage@@KGHPAUHWND__@@IIJ@Z ; CBasePropertyPage::DialogProc
PUBLIC	__$ArrayPad$
PUBLIC	?GetPageInfo@CBasePropertyPage@@UAGJPAUtagPROPPAGEINFO@@@Z ; CBasePropertyPage::GetPageInfo
EXTRN	?GetDialogSize@@YGHHP6GHPAUHWND__@@IIJ@ZJPAUtagSIZE@@@Z:PROC ; GetDialogSize
EXTRN	?DbgLogInfo@@YAXKKPB_WZZ:PROC			; DbgLogInfo
EXTRN	_AMGetWideString@8:PROC
EXTRN	?StringFromResource@@YGPA_WPA_WH@Z:PROC		; StringFromResource
EXTRN	___security_cookie:DWORD
EXTRN	@__security_check_cookie@4:PROC
EXTRN	@_RTC_CheckStackVars@8:PROC
; Function compile flags: /Odtp /RTCsu
;	COMDAT ?GetPageInfo@CBasePropertyPage@@UAGJPAUtagPROPPAGEINFO@@@Z
_TEXT	SEGMENT
_hr$ = -540						; size = 4
_pszTitle$ = -532					; size = 4
_wszTitle$ = -520					; size = 512
__$ArrayPad$ = -4					; size = 4
_this$ = 8						; size = 4
_pPageInfo$ = 12					; size = 4
?GetPageInfo@CBasePropertyPage@@UAGJPAUtagPROPPAGEINFO@@@Z PROC ; CBasePropertyPage::GetPageInfo, COMDAT
; File c:\downloads\mediapoint\src\filters\baseclasses\cprop.cpp
; Line 95
	push	ebp
	mov	ebp, esp
	sub	esp, 540				; 0000021cH
	push	edi
	lea	edi, DWORD PTR [ebp-540]
	mov	ecx, 135				; 00000087H
	mov	eax, -858993460				; ccccccccH
	rep stosd
	mov	eax, DWORD PTR ___security_cookie
	xor	eax, ebp
	mov	DWORD PTR __$ArrayPad$[ebp], eax
; Line 96
	cmp	DWORD PTR _pPageInfo$[ebp], 0
	jne	SHORT $LN2@GetPageInf
	mov	eax, -2147467261			; 80004003H
	jmp	$LN3@GetPageInf
$LN2@GetPageInf:
; Line 98
	mov	eax, DWORD PTR _this$[ebp]
	mov	ecx, DWORD PTR [eax+36]
	push	ecx
	lea	edx, DWORD PTR _wszTitle$[ebp]
	push	edx
	call	?StringFromResource@@YGPA_WPA_WH@Z	; StringFromResource
; Line 103
	lea	eax, DWORD PTR _pszTitle$[ebp]
	push	eax
	lea	ecx, DWORD PTR _wszTitle$[ebp]
	push	ecx
	call	_AMGetWideString@8
	mov	DWORD PTR _hr$[ebp], eax
; Line 104
	cmp	DWORD PTR _hr$[ebp], 0
	jge	SHORT $LN1@GetPageInf
; Line 105
	push	OFFSET $SG81604
	push	5
	push	2
	call	?DbgLogInfo@@YAXKKPB_WZZ		; DbgLogInfo
	add	esp, 12					; 0000000cH
; Line 106
	mov	eax, DWORD PTR _hr$[ebp]
	jmp	SHORT $LN3@GetPageInf
$LN1@GetPageInf:
; Line 109
	mov	edx, DWORD PTR _pPageInfo$[ebp]
	mov	DWORD PTR [edx], 28			; 0000001cH
; Line 110
	mov	eax, DWORD PTR _pPageInfo$[ebp]
	mov	ecx, DWORD PTR _pszTitle$[ebp]
	mov	DWORD PTR [eax+4], ecx
; Line 111
	mov	edx, DWORD PTR _pPageInfo$[ebp]
	mov	DWORD PTR [edx+16], 0
; Line 112
	mov	eax, DWORD PTR _pPageInfo$[ebp]
	mov	DWORD PTR [eax+20], 0
; Line 113
	mov	ecx, DWORD PTR _pPageInfo$[ebp]
	mov	DWORD PTR [ecx+24], 0
; Line 116
	mov	edx, DWORD PTR _pPageInfo$[ebp]
	mov	DWORD PTR [edx+8], 340			; 00000154H
; Line 117
	mov	eax, DWORD PTR _pPageInfo$[ebp]
	mov	DWORD PTR [eax+12], 150			; 00000096H
; Line 119
	mov	ecx, DWORD PTR _pPageInfo$[ebp]
	add	ecx, 8
	push	ecx
	push	0
	push	OFFSET ?DialogProc@CBasePropertyPage@@KGHPAUHWND__@@IIJ@Z ; CBasePropertyPage::DialogProc
	mov	edx, DWORD PTR _this$[ebp]
	mov	eax, DWORD PTR [edx+40]
	push	eax
	call	?GetDialogSize@@YGHHP6GHPAUHWND__@@IIJ@ZJPAUtagSIZE@@@Z ; GetDialogSize
; Line 120
	xor	eax, eax
$LN3@GetPageInf:
; Line 121
	push	edx
	mov	ecx, ebp
	push	eax
	lea	edx, DWORD PTR $LN8@GetPageInf
	call	@_RTC_CheckStackVars@8
	pop	eax
	pop	edx
	pop	edi
	mov	ecx, DWORD PTR __$ArrayPad$[ebp]
	xor	ecx, ebp
	call	@__security_check_cookie@4
	add	esp, 540				; 0000021cH
	cmp	ebp, esp
	call	__RTC_CheckEsp
	mov	esp, ebp
	pop	ebp
	ret	8
	npad	2
$LN8@GetPageInf:
	DD	2
	DD	$LN7@GetPageInf
$LN7@GetPageInf:
	DD	-520					; fffffdf8H
	DD	512					; 00000200H
	DD	$LN5@GetPageInf
	DD	-532					; fffffdecH
	DD	4
	DD	$LN6@GetPageInf
$LN6@GetPageInf:
	DB	112					; 00000070H
	DB	115					; 00000073H
	DB	122					; 0000007aH
	DB	84					; 00000054H
	DB	105					; 00000069H
	DB	116					; 00000074H
	DB	108					; 0000006cH
	DB	101					; 00000065H
	DB	0
$LN5@GetPageInf:
	DB	119					; 00000077H
	DB	115					; 00000073H
	DB	122					; 0000007aH
	DB	84					; 00000054H
	DB	105					; 00000069H
	DB	116					; 00000074H
	DB	108					; 0000006cH
	DB	101					; 00000065H
	DB	0
?GetPageInfo@CBasePropertyPage@@UAGJPAUtagPROPPAGEINFO@@@Z ENDP ; CBasePropertyPage::GetPageInfo
_TEXT	ENDS
EXTRN	__imp__GetWindowLongW@8:PROC
EXTRN	__imp__SetWindowLongW@12:PROC
; Function compile flags: /Odtp /RTCsu
;	COMDAT ?DialogProc@CBasePropertyPage@@KGHPAUHWND__@@IIJ@Z
_TEXT	SEGMENT
tv64 = -8						; size = 4
_pPropertyPage$ = -4					; size = 4
_hwnd$ = 8						; size = 4
_uMsg$ = 12						; size = 4
_wParam$ = 16						; size = 4
_lParam$ = 20						; size = 4
?DialogProc@CBasePropertyPage@@KGHPAUHWND__@@IIJ@Z PROC	; CBasePropertyPage::DialogProc, COMDAT
; Line 130
	push	ebp
	mov	ebp, esp
	sub	esp, 8
	push	esi
	mov	DWORD PTR [ebp-8], -858993460		; ccccccccH
	mov	DWORD PTR [ebp-4], -858993460		; ccccccccH
; Line 133
	mov	eax, DWORD PTR _uMsg$[ebp]
	mov	DWORD PTR tv64[ebp], eax
	cmp	DWORD PTR tv64[ebp], 272		; 00000110H
	je	SHORT $LN3@DialogProc
	jmp	SHORT $LN4@DialogProc
$LN3@DialogProc:
; Line 137
	mov	esi, esp
	mov	ecx, DWORD PTR _lParam$[ebp]
	push	ecx
	push	8
	mov	edx, DWORD PTR _hwnd$[ebp]
	push	edx
	call	DWORD PTR __imp__SetWindowLongW@12
	cmp	esi, esp
	call	__RTC_CheckEsp
; Line 141
	mov	eax, DWORD PTR _lParam$[ebp]
	mov	DWORD PTR _pPropertyPage$[ebp], eax
; Line 142
	cmp	DWORD PTR _pPropertyPage$[ebp], 0
	jne	SHORT $LN2@DialogProc
; Line 143
	mov	eax, 1
	jmp	SHORT $LN6@DialogProc
$LN2@DialogProc:
; Line 145
	mov	ecx, DWORD PTR _pPropertyPage$[ebp]
	mov	edx, DWORD PTR _hwnd$[ebp]
	mov	DWORD PTR [ecx+28], edx
$LN4@DialogProc:
; Line 150
	mov	esi, esp
	push	8
	mov	eax, DWORD PTR _hwnd$[ebp]
	push	eax
	call	DWORD PTR __imp__GetWindowLongW@8
	cmp	esi, esp
	call	__RTC_CheckEsp
	mov	DWORD PTR _pPropertyPage$[ebp], eax
; Line 151
	cmp	DWORD PTR _pPropertyPage$[ebp], 0
	jne	SHORT $LN1@DialogProc
; Line 152
	mov	eax, 1
	jmp	SHORT $LN6@DialogProc
$LN1@DialogProc:
; Line 154
	mov	esi, esp
	mov	ecx, DWORD PTR _lParam$[ebp]
	push	ecx
	mov	edx, DWORD PTR _wParam$[ebp]
	push	edx
	mov	eax, DWORD PTR _uMsg$[ebp]
	push	eax
	mov	ecx, DWORD PTR _hwnd$[ebp]
	push	ecx
	mov	edx, DWORD PTR _pPropertyPage$[ebp]
	mov	eax, DWORD PTR [edx]
	mov	ecx, DWORD PTR _pPropertyPage$[ebp]
	mov	edx, DWORD PTR [eax+76]
	call	edx
	cmp	esi, esp
	call	__RTC_CheckEsp
$LN6@DialogProc:
; Line 155
	pop	esi
	add	esp, 8
	cmp	ebp, esp
	call	__RTC_CheckEsp
	mov	esp, ebp
	pop	ebp
	ret	16					; 00000010H
?DialogProc@CBasePropertyPage@@KGHPAUHWND__@@IIJ@Z ENDP	; CBasePropertyPage::DialogProc
_TEXT	ENDS
PUBLIC	?SetObjects@CBasePropertyPage@@UAGJKPAPAUIUnknown@@@Z ; CBasePropertyPage::SetObjects
EXTRN	?DbgBreakPoint@@YGXPB_W0H@Z:PROC		; DbgBreakPoint
; Function compile flags: /Odtp /RTCsu
;	COMDAT ?SetObjects@CBasePropertyPage@@UAGJKPAPAUIUnknown@@@Z
_TEXT	SEGMENT
_this$ = 8						; size = 4
_cObjects$ = 12						; size = 4
_ppUnk$ = 16						; size = 4
?SetObjects@CBasePropertyPage@@UAGJKPAPAUIUnknown@@@Z PROC ; CBasePropertyPage::SetObjects, COMDAT
; Line 161
	push	ebp
	mov	ebp, esp
	push	esi
; Line 162
	cmp	DWORD PTR _cObjects$[ebp], 1
	jne	SHORT $LN5@SetObjects
; Line 164
	cmp	DWORD PTR _ppUnk$[ebp], 0
	je	SHORT $LN3@SetObjects
	mov	eax, DWORD PTR _ppUnk$[ebp]
	cmp	DWORD PTR [eax], 0
	jne	SHORT $LN4@SetObjects
$LN3@SetObjects:
; Line 165
	mov	eax, -2147467261			; 80004003H
	jmp	SHORT $LN6@SetObjects
$LN4@SetObjects:
; Line 169
	mov	ecx, DWORD PTR _this$[ebp]
	mov	DWORD PTR [ecx+44], 1
; Line 170
	mov	esi, esp
	mov	edx, DWORD PTR _ppUnk$[ebp]
	mov	eax, DWORD PTR [edx]
	push	eax
	mov	ecx, DWORD PTR _this$[ebp]
	mov	edx, DWORD PTR [ecx]
	mov	ecx, DWORD PTR _this$[ebp]
	mov	eax, DWORD PTR [edx+56]
	call	eax
	cmp	esi, esp
	call	__RTC_CheckEsp
	jmp	SHORT $LN6@SetObjects
	jmp	SHORT $LN2@SetObjects
$LN5@SetObjects:
; Line 172
	cmp	DWORD PTR _cObjects$[ebp], 0
	jne	SHORT $LN2@SetObjects
; Line 175
	mov	ecx, DWORD PTR _this$[ebp]
	mov	DWORD PTR [ecx+44], 0
; Line 176
	mov	edx, DWORD PTR _this$[ebp]
	mov	eax, DWORD PTR [edx]
	mov	esi, esp
	mov	ecx, DWORD PTR _this$[ebp]
	mov	edx, DWORD PTR [eax+60]
	call	edx
	cmp	esi, esp
	call	__RTC_CheckEsp
	jmp	SHORT $LN6@SetObjects
$LN2@SetObjects:
; Line 179
	push	179					; 000000b3H
	push	OFFSET $SG81639
	push	OFFSET $SG81640
	call	?DbgBreakPoint@@YGXPB_W0H@Z		; DbgBreakPoint
; Line 180
	mov	eax, -2147418113			; 8000ffffH
$LN6@SetObjects:
; Line 181
	pop	esi
	cmp	ebp, esp
	call	__RTC_CheckEsp
	pop	ebp
	ret	12					; 0000000cH
?SetObjects@CBasePropertyPage@@UAGJKPAPAUIUnknown@@@Z ENDP ; CBasePropertyPage::SetObjects
_TEXT	ENDS
PUBLIC	?Activate@CBasePropertyPage@@UAGJPAUHWND__@@PBUtagRECT@@H@Z ; CBasePropertyPage::Activate
EXTRN	__imp__CreateDialogParamW@20:PROC
EXTRN	?g_hInst@@3PAUHINSTANCE__@@A:DWORD		; g_hInst
; Function compile flags: /Odtp /RTCsu
;	COMDAT ?Activate@CBasePropertyPage@@UAGJPAUHWND__@@PBUtagRECT@@H@Z
_TEXT	SEGMENT
_this$ = 8						; size = 4
_hwndParent$ = 12					; size = 4
_pRect$ = 16						; size = 4
_fModal$ = 20						; size = 4
?Activate@CBasePropertyPage@@UAGJPAUHWND__@@PBUtagRECT@@H@Z PROC ; CBasePropertyPage::Activate, COMDAT
; Line 189
	push	ebp
	mov	ebp, esp
	push	esi
; Line 190
	cmp	DWORD PTR _pRect$[ebp], 0
	jne	SHORT $LN4@Activate
	mov	eax, -2147467261			; 80004003H
	jmp	$LN5@Activate
$LN4@Activate:
; Line 193
	mov	eax, DWORD PTR _this$[ebp]
	cmp	DWORD PTR [eax+44], 0
	jne	SHORT $LN3@Activate
; Line 194
	mov	eax, -2147418113			; 8000ffffH
	jmp	$LN5@Activate
$LN3@Activate:
; Line 197
	mov	ecx, DWORD PTR _this$[ebp]
	cmp	DWORD PTR [ecx+24], 0
	je	SHORT $LN2@Activate
; Line 198
	mov	eax, -2147418113			; 8000ffffH
	jmp	$LN5@Activate
$LN2@Activate:
; Line 205
	mov	esi, esp
	mov	edx, DWORD PTR _this$[ebp]
	push	edx
	push	OFFSET ?DialogProc@CBasePropertyPage@@KGHPAUHWND__@@IIJ@Z ; CBasePropertyPage::DialogProc
	mov	eax, DWORD PTR _hwndParent$[ebp]
	push	eax
	mov	ecx, DWORD PTR _this$[ebp]
	movzx	edx, WORD PTR [ecx+40]
	push	edx
	mov	eax, DWORD PTR ?g_hInst@@3PAUHINSTANCE__@@A ; g_hInst
	push	eax
	call	DWORD PTR __imp__CreateDialogParamW@20
	cmp	esi, esp
	call	__RTC_CheckEsp
	mov	ecx, DWORD PTR _this$[ebp]
	mov	DWORD PTR [ecx+24], eax
; Line 206
	mov	edx, DWORD PTR _this$[ebp]
	cmp	DWORD PTR [edx+24], 0
	jne	SHORT $LN1@Activate
; Line 207
	mov	eax, -2147024882			; 8007000eH
	jmp	SHORT $LN5@Activate
$LN1@Activate:
; Line 210
	mov	eax, DWORD PTR _this$[ebp]
	mov	edx, DWORD PTR [eax]
	mov	esi, esp
	mov	ecx, DWORD PTR _this$[ebp]
	mov	eax, DWORD PTR [edx+64]
	call	eax
	cmp	esi, esp
	call	__RTC_CheckEsp
; Line 211
	mov	esi, esp
	mov	ecx, DWORD PTR _pRect$[ebp]
	push	ecx
	mov	edx, DWORD PTR _this$[ebp]
	mov	eax, DWORD PTR [edx]
	mov	ecx, DWORD PTR _this$[ebp]
	push	ecx
	mov	edx, DWORD PTR [eax+36]
	call	edx
	cmp	esi, esp
	call	__RTC_CheckEsp
; Line 212
	mov	esi, esp
	push	1
	mov	eax, DWORD PTR _this$[ebp]
	mov	ecx, DWORD PTR [eax]
	mov	edx, DWORD PTR _this$[ebp]
	push	edx
	mov	eax, DWORD PTR [ecx+32]
	call	eax
	cmp	esi, esp
	call	__RTC_CheckEsp
$LN5@Activate:
; Line 213
	pop	esi
	cmp	ebp, esp
	call	__RTC_CheckEsp
	pop	ebp
	ret	16					; 00000010H
?Activate@CBasePropertyPage@@UAGJPAUHWND__@@PBUtagRECT@@H@Z ENDP ; CBasePropertyPage::Activate
_TEXT	ENDS
PUBLIC	?Move@CBasePropertyPage@@UAGJPBUtagRECT@@@Z	; CBasePropertyPage::Move
EXTRN	__imp__MoveWindow@24:PROC
; Function compile flags: /Odtp /RTCsu
;	COMDAT ?Move@CBasePropertyPage@@UAGJPBUtagRECT@@@Z
_TEXT	SEGMENT
_this$ = 8						; size = 4
_pRect$ = 12						; size = 4
?Move@CBasePropertyPage@@UAGJPBUtagRECT@@@Z PROC	; CBasePropertyPage::Move, COMDAT
; Line 219
	push	ebp
	mov	ebp, esp
	push	esi
; Line 220
	cmp	DWORD PTR _pRect$[ebp], 0
	jne	SHORT $LN2@Move
	mov	eax, -2147467261			; 80004003H
	jmp	SHORT $LN3@Move
$LN2@Move:
; Line 222
	mov	eax, DWORD PTR _this$[ebp]
	cmp	DWORD PTR [eax+24], 0
	jne	SHORT $LN1@Move
; Line 223
	mov	eax, -2147418113			; 8000ffffH
	jmp	SHORT $LN3@Move
$LN1@Move:
; Line 231
	mov	esi, esp
	push	1
	mov	ecx, DWORD PTR _pRect$[ebp]
	mov	edx, DWORD PTR _pRect$[ebp]
	mov	eax, DWORD PTR [ecx+12]
	sub	eax, DWORD PTR [edx+4]
	push	eax
	mov	ecx, DWORD PTR _pRect$[ebp]
	mov	edx, DWORD PTR _pRect$[ebp]
	mov	eax, DWORD PTR [ecx+8]
	sub	eax, DWORD PTR [edx]
	push	eax
	mov	ecx, DWORD PTR _pRect$[ebp]
	mov	edx, DWORD PTR [ecx+4]
	push	edx
	mov	eax, DWORD PTR _pRect$[ebp]
	mov	ecx, DWORD PTR [eax]
	push	ecx
	mov	edx, DWORD PTR _this$[ebp]
	mov	eax, DWORD PTR [edx+24]
	push	eax
	call	DWORD PTR __imp__MoveWindow@24
	cmp	esi, esp
	call	__RTC_CheckEsp
; Line 233
	xor	eax, eax
$LN3@Move:
; Line 234
	pop	esi
	cmp	ebp, esp
	call	__RTC_CheckEsp
	pop	ebp
	ret	8
?Move@CBasePropertyPage@@UAGJPBUtagRECT@@@Z ENDP	; CBasePropertyPage::Move
_TEXT	ENDS
PUBLIC	?Show@CBasePropertyPage@@UAGJI@Z		; CBasePropertyPage::Show
EXTRN	__imp__InvalidateRect@12:PROC
EXTRN	__imp__ShowWindow@8:PROC
; Function compile flags: /Odtp /RTCsu
;	COMDAT ?Show@CBasePropertyPage@@UAGJI@Z
_TEXT	SEGMENT
_this$ = 8						; size = 4
_nCmdShow$ = 12						; size = 4
?Show@CBasePropertyPage@@UAGJI@Z PROC			; CBasePropertyPage::Show, COMDAT
; Line 240
	push	ebp
	mov	ebp, esp
	push	esi
; Line 243
	mov	eax, DWORD PTR _this$[ebp]
	cmp	DWORD PTR [eax+24], 0
	jne	SHORT $LN2@Show
; Line 244
	mov	eax, -2147418113			; 8000ffffH
	jmp	SHORT $LN3@Show
$LN2@Show:
; Line 249
	cmp	DWORD PTR _nCmdShow$[ebp], 5
	je	SHORT $LN1@Show
	cmp	DWORD PTR _nCmdShow$[ebp], 1
	je	SHORT $LN1@Show
	cmp	DWORD PTR _nCmdShow$[ebp], 0
	je	SHORT $LN1@Show
; Line 250
	mov	eax, -2147024809			; 80070057H
	jmp	SHORT $LN3@Show
$LN1@Show:
; Line 253
	mov	esi, esp
	mov	ecx, DWORD PTR _nCmdShow$[ebp]
	push	ecx
	mov	edx, DWORD PTR _this$[ebp]
	mov	eax, DWORD PTR [edx+24]
	push	eax
	call	DWORD PTR __imp__ShowWindow@8
	cmp	esi, esp
	call	__RTC_CheckEsp
; Line 254
	mov	esi, esp
	push	1
	push	0
	mov	ecx, DWORD PTR _this$[ebp]
	mov	edx, DWORD PTR [ecx+24]
	push	edx
	call	DWORD PTR __imp__InvalidateRect@12
	cmp	esi, esp
	call	__RTC_CheckEsp
; Line 255
	xor	eax, eax
$LN3@Show:
; Line 256
	pop	esi
	cmp	ebp, esp
	call	__RTC_CheckEsp
	pop	ebp
	ret	8
?Show@CBasePropertyPage@@UAGJI@Z ENDP			; CBasePropertyPage::Show
_TEXT	ENDS
PUBLIC	?Deactivate@CBasePropertyPage@@UAGJXZ		; CBasePropertyPage::Deactivate
EXTRN	__imp__DestroyWindow@4:PROC
; Function compile flags: /Odtp /RTCsu
;	COMDAT ?Deactivate@CBasePropertyPage@@UAGJXZ
_TEXT	SEGMENT
_hwnd$ = -8						; size = 4
_dwStyle$ = -4						; size = 4
_this$ = 8						; size = 4
?Deactivate@CBasePropertyPage@@UAGJXZ PROC		; CBasePropertyPage::Deactivate, COMDAT
; Line 262
	push	ebp
	mov	ebp, esp
	sub	esp, 8
	push	esi
	mov	DWORD PTR [ebp-8], -858993460		; ccccccccH
	mov	DWORD PTR [ebp-4], -858993460		; ccccccccH
; Line 263
	mov	eax, DWORD PTR _this$[ebp]
	cmp	DWORD PTR [eax+24], 0
	jne	SHORT $LN1@Deactivate
; Line 264
	mov	eax, -2147418113			; 8000ffffH
	jmp	$LN2@Deactivate
$LN1@Deactivate:
; Line 269
	mov	esi, esp
	push	-20					; ffffffecH
	mov	ecx, DWORD PTR _this$[ebp]
	mov	edx, DWORD PTR [ecx+24]
	push	edx
	call	DWORD PTR __imp__GetWindowLongW@8
	cmp	esi, esp
	call	__RTC_CheckEsp
	mov	DWORD PTR _dwStyle$[ebp], eax
; Line 270
	mov	eax, DWORD PTR _dwStyle$[ebp]
	and	eax, -65537				; fffeffffH
	mov	DWORD PTR _dwStyle$[ebp], eax
; Line 275
	mov	ecx, DWORD PTR _this$[ebp]
	mov	edx, DWORD PTR [ecx+24]
	mov	DWORD PTR _hwnd$[ebp], edx
; Line 276
	mov	eax, DWORD PTR _this$[ebp]
	mov	DWORD PTR [eax+24], 0
; Line 277
	mov	esi, esp
	mov	ecx, DWORD PTR _dwStyle$[ebp]
	push	ecx
	push	-20					; ffffffecH
	mov	edx, DWORD PTR _hwnd$[ebp]
	push	edx
	call	DWORD PTR __imp__SetWindowLongW@12
	cmp	esi, esp
	call	__RTC_CheckEsp
; Line 278
	mov	eax, DWORD PTR _this$[ebp]
	mov	ecx, DWORD PTR _hwnd$[ebp]
	mov	DWORD PTR [eax+24], ecx
; Line 280
	mov	edx, DWORD PTR _this$[ebp]
	mov	eax, DWORD PTR [edx]
	mov	esi, esp
	mov	ecx, DWORD PTR _this$[ebp]
	mov	edx, DWORD PTR [eax+68]
	call	edx
	cmp	esi, esp
	call	__RTC_CheckEsp
; Line 284
	mov	esi, esp
	mov	eax, DWORD PTR _this$[ebp]
	mov	ecx, DWORD PTR [eax+24]
	push	ecx
	call	DWORD PTR __imp__DestroyWindow@4
	cmp	esi, esp
	call	__RTC_CheckEsp
; Line 285
	mov	edx, DWORD PTR _this$[ebp]
	mov	DWORD PTR [edx+24], 0
; Line 286
	xor	eax, eax
$LN2@Deactivate:
; Line 287
	pop	esi
	add	esp, 8
	cmp	ebp, esp
	call	__RTC_CheckEsp
	mov	esp, ebp
	pop	ebp
	ret	4
?Deactivate@CBasePropertyPage@@UAGJXZ ENDP		; CBasePropertyPage::Deactivate
_TEXT	ENDS
PUBLIC	?SetPageSite@CBasePropertyPage@@UAGJPAUIPropertyPageSite@@@Z ; CBasePropertyPage::SetPageSite
; Function compile flags: /Odtp /RTCsu
;	COMDAT ?SetPageSite@CBasePropertyPage@@UAGJPAUIPropertyPageSite@@@Z
_TEXT	SEGMENT
_this$ = 8						; size = 4
_pPageSite$ = 12					; size = 4
?SetPageSite@CBasePropertyPage@@UAGJPAUIPropertyPageSite@@@Z PROC ; CBasePropertyPage::SetPageSite, COMDAT
; Line 293
	push	ebp
	mov	ebp, esp
	push	esi
; Line 294
	cmp	DWORD PTR _pPageSite$[ebp], 0
	je	SHORT $LN4@SetPageSit
; Line 296
	mov	eax, DWORD PTR _this$[ebp]
	cmp	DWORD PTR [eax+20], 0
	je	SHORT $LN3@SetPageSit
; Line 297
	mov	eax, -2147418113			; 8000ffffH
	jmp	SHORT $LN5@SetPageSit
$LN3@SetPageSit:
; Line 300
	mov	ecx, DWORD PTR _this$[ebp]
	mov	edx, DWORD PTR _pPageSite$[ebp]
	mov	DWORD PTR [ecx+20], edx
; Line 301
	mov	eax, DWORD PTR _this$[ebp]
	mov	ecx, DWORD PTR [eax+20]
	mov	edx, DWORD PTR _this$[ebp]
	mov	eax, DWORD PTR [edx+20]
	mov	ecx, DWORD PTR [ecx]
	mov	esi, esp
	push	eax
	mov	edx, DWORD PTR [ecx+4]
	call	edx
	cmp	esi, esp
	call	__RTC_CheckEsp
; Line 303
	jmp	SHORT $LN2@SetPageSit
$LN4@SetPageSit:
; Line 305
	mov	eax, DWORD PTR _this$[ebp]
	cmp	DWORD PTR [eax+20], 0
	jne	SHORT $LN1@SetPageSit
; Line 306
	mov	eax, -2147418113			; 8000ffffH
	jmp	SHORT $LN5@SetPageSit
$LN1@SetPageSit:
; Line 309
	mov	ecx, DWORD PTR _this$[ebp]
	mov	edx, DWORD PTR [ecx+20]
	mov	eax, DWORD PTR _this$[ebp]
	mov	ecx, DWORD PTR [eax+20]
	mov	edx, DWORD PTR [edx]
	mov	esi, esp
	push	ecx
	mov	eax, DWORD PTR [edx+8]
	call	eax
	cmp	esi, esp
	call	__RTC_CheckEsp
; Line 310
	mov	ecx, DWORD PTR _this$[ebp]
	mov	DWORD PTR [ecx+20], 0
$LN2@SetPageSit:
; Line 312
	xor	eax, eax
$LN5@SetPageSit:
; Line 313
	pop	esi
	cmp	ebp, esp
	call	__RTC_CheckEsp
	pop	ebp
	ret	8
?SetPageSite@CBasePropertyPage@@UAGJPAUIPropertyPageSite@@@Z ENDP ; CBasePropertyPage::SetPageSite
_TEXT	ENDS
PUBLIC	?Apply@CBasePropertyPage@@UAGJXZ		; CBasePropertyPage::Apply
; Function compile flags: /Odtp /RTCsu
;	COMDAT ?Apply@CBasePropertyPage@@UAGJXZ
_TEXT	SEGMENT
_hr$ = -4						; size = 4
_this$ = 8						; size = 4
?Apply@CBasePropertyPage@@UAGJXZ PROC			; CBasePropertyPage::Apply, COMDAT
; Line 319
	push	ebp
	mov	ebp, esp
	push	ecx
	push	esi
	mov	DWORD PTR [ebp-4], -858993460		; ccccccccH
; Line 326
	mov	eax, DWORD PTR _this$[ebp]
	cmp	DWORD PTR [eax+44], 0
	jne	SHORT $LN4@Apply
; Line 327
	mov	eax, -2147418113			; 8000ffffH
	jmp	SHORT $LN5@Apply
$LN4@Apply:
; Line 332
	mov	ecx, DWORD PTR _this$[ebp]
	cmp	DWORD PTR [ecx+20], 0
	jne	SHORT $LN3@Apply
; Line 333
	mov	eax, -2147418113			; 8000ffffH
	jmp	SHORT $LN5@Apply
$LN3@Apply:
; Line 338
	mov	edx, DWORD PTR _this$[ebp]
	cmp	DWORD PTR [edx+32], 0
	jne	SHORT $LN2@Apply
; Line 339
	xor	eax, eax
	jmp	SHORT $LN5@Apply
$LN2@Apply:
; Line 344
	mov	eax, DWORD PTR _this$[ebp]
	mov	edx, DWORD PTR [eax]
	mov	esi, esp
	mov	ecx, DWORD PTR _this$[ebp]
	mov	eax, DWORD PTR [edx+72]
	call	eax
	cmp	esi, esp
	call	__RTC_CheckEsp
	mov	DWORD PTR _hr$[ebp], eax
; Line 345
	cmp	DWORD PTR _hr$[ebp], 0
	jl	SHORT $LN1@Apply
; Line 346
	mov	ecx, DWORD PTR _this$[ebp]
	mov	DWORD PTR [ecx+32], 0
$LN1@Apply:
; Line 348
	mov	eax, DWORD PTR _hr$[ebp]
$LN5@Apply:
; Line 349
	pop	esi
	add	esp, 4
	cmp	ebp, esp
	call	__RTC_CheckEsp
	mov	esp, ebp
	pop	ebp
	ret	4
?Apply@CBasePropertyPage@@UAGJXZ ENDP			; CBasePropertyPage::Apply
_TEXT	ENDS
PUBLIC	?OnReceiveMessage@CBasePropertyPage@@UAEHPAUHWND__@@IIJ@Z ; CBasePropertyPage::OnReceiveMessage
EXTRN	__imp__DefWindowProcW@16:PROC
; Function compile flags: /Odtp /RTCsu
;	COMDAT ?OnReceiveMessage@CBasePropertyPage@@UAEHPAUHWND__@@IIJ@Z
_TEXT	SEGMENT
tv69 = -16						; size = 4
_lpss$81723 = -12					; size = 4
_pPropertyPage$ = -8					; size = 4
_this$ = -4						; size = 4
_hwnd$ = 8						; size = 4
_uMsg$ = 12						; size = 4
_wParam$ = 16						; size = 4
_lParam$ = 20						; size = 4
?OnReceiveMessage@CBasePropertyPage@@UAEHPAUHWND__@@IIJ@Z PROC ; CBasePropertyPage::OnReceiveMessage, COMDAT
; _this$ = ecx
; Line 355
	push	ebp
	mov	ebp, esp
	sub	esp, 16					; 00000010H
	push	esi
	mov	eax, -858993460				; ccccccccH
	mov	DWORD PTR [ebp-16], eax
	mov	DWORD PTR [ebp-12], eax
	mov	DWORD PTR [ebp-8], eax
	mov	DWORD PTR [ebp-4], eax
	mov	DWORD PTR _this$[ebp], ecx
; Line 364
	mov	esi, esp
	push	8
	mov	eax, DWORD PTR _hwnd$[ebp]
	push	eax
	call	DWORD PTR __imp__GetWindowLongW@8
	cmp	esi, esp
	call	__RTC_CheckEsp
	mov	DWORD PTR _pPropertyPage$[ebp], eax
; Line 365
	mov	ecx, DWORD PTR _pPropertyPage$[ebp]
	cmp	DWORD PTR [ecx+24], 0
	jne	SHORT $LN5@OnReceiveM
; Line 366
	xor	eax, eax
	jmp	SHORT $LN6@OnReceiveM
$LN5@OnReceiveM:
; Line 368
	mov	edx, DWORD PTR _uMsg$[ebp]
	mov	DWORD PTR tv69[ebp], edx
	cmp	DWORD PTR tv69[ebp], 124		; 0000007cH
	je	SHORT $LN2@OnReceiveM
	jmp	SHORT $LN3@OnReceiveM
$LN2@OnReceiveM:
; Line 370
	cmp	DWORD PTR _wParam$[ebp], -20		; ffffffecH
	jne	SHORT $LN3@OnReceiveM
; Line 371
	mov	eax, DWORD PTR _lParam$[ebp]
	mov	DWORD PTR _lpss$81723[ebp], eax
; Line 372
	mov	ecx, DWORD PTR _lpss$81723[ebp]
	mov	edx, DWORD PTR [ecx+4]
	or	edx, 65536				; 00010000H
	mov	eax, DWORD PTR _lpss$81723[ebp]
	mov	DWORD PTR [eax+4], edx
; Line 373
	xor	eax, eax
	jmp	SHORT $LN6@OnReceiveM
$LN3@OnReceiveM:
; Line 378
	mov	esi, esp
	mov	ecx, DWORD PTR _lParam$[ebp]
	push	ecx
	mov	edx, DWORD PTR _wParam$[ebp]
	push	edx
	mov	eax, DWORD PTR _uMsg$[ebp]
	push	eax
	mov	ecx, DWORD PTR _hwnd$[ebp]
	push	ecx
	call	DWORD PTR __imp__DefWindowProcW@16
	cmp	esi, esp
	call	__RTC_CheckEsp
$LN6@OnReceiveM:
; Line 379
	pop	esi
	add	esp, 16					; 00000010H
	cmp	ebp, esp
	call	__RTC_CheckEsp
	mov	esp, ebp
	pop	ebp
	ret	16					; 00000010H
?OnReceiveMessage@CBasePropertyPage@@UAEHPAUHWND__@@IIJ@Z ENDP ; CBasePropertyPage::OnReceiveMessage
_TEXT	ENDS
END
