; Listing generated by Microsoft (R) Optimizing Compiler Version 16.00.30319.01 

include listing.inc

INCLUDELIB LIBCMTD
INCLUDELIB OLDNAMES

PUBLIC	IID_IAMFilterGraphCallback
CONST	SEGMENT
$SG82280 DB	'.', 00H, '.', 00H, '\', 00H, 'c', 00H, 't', 00H, 'l', 00H
	DB	'u', 00H, 't', 00H, 'i', 00H, 'l', 00H, '.', 00H, 'c', 00H, 'p'
	DB	00H, 'p', 00H, 00H, 00H
	ORG $+2
$SG82281 DB	'"', 00H, 'I', 00H, 'n', 00H, 'v', 00H, 'a', 00H, 'l', 00H
	DB	'i', 00H, 'd', 00H, ' ', 00H, 'r', 00H, 'e', 00H, 'a', 00H, 'd'
	DB	00H, ' ', 00H, 'p', 00H, 'o', 00H, 'i', 00H, 'n', 00H, 't', 00H
	DB	'e', 00H, 'r', 00H, '"', 00H, 00H, 00H
	ORG $+2
$SG82285 DB	'.', 00H, '.', 00H, '\', 00H, 'c', 00H, 't', 00H, 'l', 00H
	DB	'u', 00H, 't', 00H, 'i', 00H, 'l', 00H, '.', 00H, 'c', 00H, 'p'
	DB	00H, 'p', 00H, 00H, 00H
	ORG $+2
$SG82286 DB	'"', 00H, 'I', 00H, 'n', 00H, 'v', 00H, 'a', 00H, 'l', 00H
	DB	'i', 00H, 'd', 00H, ' ', 00H, 'w', 00H, 'r', 00H, 'i', 00H, 't'
	DB	00H, 'e', 00H, ' ', 00H, 'p', 00H, 'o', 00H, 'i', 00H, 'n', 00H
	DB	't', 00H, 'e', 00H, 'r', 00H, '"', 00H, 00H, 00H
$SG82309 DB	'.', 00H, '.', 00H, '\', 00H, 'c', 00H, 't', 00H, 'l', 00H
	DB	'u', 00H, 't', 00H, 'i', 00H, 'l', 00H, '.', 00H, 'c', 00H, 'p'
	DB	00H, 'p', 00H, 00H, 00H
	ORG $+2
$SG82310 DB	'"', 00H, 'I', 00H, 'n', 00H, 'v', 00H, 'a', 00H, 'l', 00H
	DB	'i', 00H, 'd', 00H, ' ', 00H, 'r', 00H, 'e', 00H, 'a', 00H, 'd'
	DB	00H, ' ', 00H, 'p', 00H, 'o', 00H, 'i', 00H, 'n', 00H, 't', 00H
	DB	'e', 00H, 'r', 00H, '"', 00H, 00H, 00H
	ORG $+2
$SG82314 DB	'.', 00H, '.', 00H, '\', 00H, 'c', 00H, 't', 00H, 'l', 00H
	DB	'u', 00H, 't', 00H, 'i', 00H, 'l', 00H, '.', 00H, 'c', 00H, 'p'
	DB	00H, 'p', 00H, 00H, 00H
	ORG $+2
$SG82315 DB	'"', 00H, 'I', 00H, 'n', 00H, 'v', 00H, 'a', 00H, 'l', 00H
	DB	'i', 00H, 'd', 00H, ' ', 00H, 'w', 00H, 'r', 00H, 'i', 00H, 't'
	DB	00H, 'e', 00H, ' ', 00H, 'p', 00H, 'o', 00H, 'i', 00H, 'n', 00H
	DB	't', 00H, 'e', 00H, 'r', 00H, '"', 00H, 00H, 00H
$SG82394 DB	'.', 00H, '.', 00H, '\', 00H, 'c', 00H, 't', 00H, 'l', 00H
	DB	'u', 00H, 't', 00H, 'i', 00H, 'l', 00H, '.', 00H, 'c', 00H, 'p'
	DB	00H, 'p', 00H, 00H, 00H
	ORG $+2
$SG82395 DB	'"', 00H, 'I', 00H, 'n', 00H, 'v', 00H, 'a', 00H, 'l', 00H
	DB	'i', 00H, 'd', 00H, ' ', 00H, 'r', 00H, 'e', 00H, 'a', 00H, 'd'
	DB	00H, ' ', 00H, 'p', 00H, 'o', 00H, 'i', 00H, 'n', 00H, 't', 00H
	DB	'e', 00H, 'r', 00H, '"', 00H, 00H, 00H
	ORG $+2
$SG82399 DB	'.', 00H, '.', 00H, '\', 00H, 'c', 00H, 't', 00H, 'l', 00H
	DB	'u', 00H, 't', 00H, 'i', 00H, 'l', 00H, '.', 00H, 'c', 00H, 'p'
	DB	00H, 'p', 00H, 00H, 00H
	ORG $+2
$SG82400 DB	'"', 00H, 'I', 00H, 'n', 00H, 'v', 00H, 'a', 00H, 'l', 00H
	DB	'i', 00H, 'd', 00H, ' ', 00H, 'w', 00H, 'r', 00H, 'i', 00H, 't'
	DB	00H, 'e', 00H, ' ', 00H, 'p', 00H, 'o', 00H, 'i', 00H, 'n', 00H
	DB	't', 00H, 'e', 00H, 'r', 00H, '"', 00H, 00H, 00H
$SG82463 DB	'.', 00H, '.', 00H, '\', 00H, 'c', 00H, 't', 00H, 'l', 00H
	DB	'u', 00H, 't', 00H, 'i', 00H, 'l', 00H, '.', 00H, 'c', 00H, 'p'
	DB	00H, 'p', 00H, 00H, 00H
	ORG $+2
$SG82464 DB	'"', 00H, 'I', 00H, 'n', 00H, 'v', 00H, 'a', 00H, 'l', 00H
	DB	'i', 00H, 'd', 00H, ' ', 00H, 'r', 00H, 'e', 00H, 'a', 00H, 'd'
	DB	00H, ' ', 00H, 'p', 00H, 'o', 00H, 'i', 00H, 'n', 00H, 't', 00H
	DB	'e', 00H, 'r', 00H, '"', 00H, 00H, 00H
	ORG $+2
$SG82468 DB	'.', 00H, '.', 00H, '\', 00H, 'c', 00H, 't', 00H, 'l', 00H
	DB	'u', 00H, 't', 00H, 'i', 00H, 'l', 00H, '.', 00H, 'c', 00H, 'p'
	DB	00H, 'p', 00H, 00H, 00H
	ORG $+2
$SG82469 DB	'"', 00H, 'I', 00H, 'n', 00H, 'v', 00H, 'a', 00H, 'l', 00H
	DB	'i', 00H, 'd', 00H, ' ', 00H, 'w', 00H, 'r', 00H, 'i', 00H, 't'
	DB	00H, 'e', 00H, ' ', 00H, 'p', 00H, 'o', 00H, 'i', 00H, 'n', 00H
	DB	't', 00H, 'e', 00H, 'r', 00H, '"', 00H, 00H, 00H
$SG82537 DB	'.', 00H, '.', 00H, '\', 00H, 'c', 00H, 't', 00H, 'l', 00H
	DB	'u', 00H, 't', 00H, 'i', 00H, 'l', 00H, '.', 00H, 'c', 00H, 'p'
	DB	00H, 'p', 00H, 00H, 00H
	ORG $+2
$SG82538 DB	'"', 00H, 'I', 00H, 'n', 00H, 'v', 00H, 'a', 00H, 'l', 00H
	DB	'i', 00H, 'd', 00H, ' ', 00H, 'r', 00H, 'e', 00H, 'a', 00H, 'd'
	DB	00H, ' ', 00H, 'p', 00H, 'o', 00H, 'i', 00H, 'n', 00H, 't', 00H
	DB	'e', 00H, 'r', 00H, '"', 00H, 00H, 00H
	ORG $+2
$SG82542 DB	'.', 00H, '.', 00H, '\', 00H, 'c', 00H, 't', 00H, 'l', 00H
	DB	'u', 00H, 't', 00H, 'i', 00H, 'l', 00H, '.', 00H, 'c', 00H, 'p'
	DB	00H, 'p', 00H, 00H, 00H
	ORG $+2
$SG82543 DB	'"', 00H, 'I', 00H, 'n', 00H, 'v', 00H, 'a', 00H, 'l', 00H
	DB	'i', 00H, 'd', 00H, ' ', 00H, 'w', 00H, 'r', 00H, 'i', 00H, 't'
	DB	00H, 'e', 00H, ' ', 00H, 'p', 00H, 'o', 00H, 'i', 00H, 'n', 00H
	DB	't', 00H, 'e', 00H, 'r', 00H, '"', 00H, 00H, 00H
$SG82895 DB	'.', 00H, '.', 00H, '\', 00H, 'c', 00H, 't', 00H, 'l', 00H
	DB	'u', 00H, 't', 00H, 'i', 00H, 'l', 00H, '.', 00H, 'c', 00H, 'p'
	DB	00H, 'p', 00H, 00H, 00H
	ORG $+2
$SG82896 DB	'p', 00H, 'M', 00H, 'e', 00H, 'd', 00H, 'i', 00H, 'a', 00H
	DB	'S', 00H, 'a', 00H, 'm', 00H, 'p', 00H, 'l', 00H, 'e', 00H, 00H
	DB	00H
	ORG $+2
$SG83517 DB	'0', 00H, 00H, 00H
$SG82905 DB	'.', 00H, '.', 00H, '\', 00H, 'c', 00H, 't', 00H, 'l', 00H
	DB	'u', 00H, 't', 00H, 'i', 00H, 'l', 00H, '.', 00H, 'c', 00H, 'p'
	DB	00H, 'p', 00H, 00H, 00H
	ORG $+2
$SG82906 DB	'h', 00H, 'r', 00H, ' ', 00H, '=', 00H, '=', 00H, ' ', 00H
	DB	'V', 00H, 'F', 00H, 'W', 00H, '_', 00H, 'E', 00H, '_', 00H, 'S'
	DB	00H, 'A', 00H, 'M', 00H, 'P', 00H, 'L', 00H, 'E', 00H, '_', 00H
	DB	'T', 00H, 'I', 00H, 'M', 00H, 'E', 00H, '_', 00H, 'N', 00H, 'O'
	DB	00H, 'T', 00H, '_', 00H, 'S', 00H, 'E', 00H, 'T', 00H, 00H, 00H
$SG82922 DB	'.', 00H, '.', 00H, '\', 00H, 'c', 00H, 't', 00H, 'l', 00H
	DB	'u', 00H, 't', 00H, 'i', 00H, 'l', 00H, '.', 00H, 'c', 00H, 'p'
	DB	00H, 'p', 00H, 00H, 00H
	ORG $+2
$SG82923 DB	'p', 00H, 'S', 00H, 't', 00H, 'a', 00H, 'r', 00H, 't', 00H
	DB	'T', 00H, 'i', 00H, 'm', 00H, 'e', 00H, 00H, 00H
	ORG $+2
$SG83160 DB	'.', 00H, '.', 00H, '\', 00H, 'c', 00H, 't', 00H, 'l', 00H
	DB	'u', 00H, 't', 00H, 'i', 00H, 'l', 00H, '.', 00H, 'c', 00H, 'p'
	DB	00H, 'p', 00H, 00H, 00H
	ORG $+2
$SG83161 DB	'"', 00H, 'I', 00H, 'n', 00H, 'v', 00H, 'a', 00H, 'l', 00H
	DB	'i', 00H, 'd', 00H, ' ', 00H, 'r', 00H, 'e', 00H, 'a', 00H, 'd'
	DB	00H, ' ', 00H, 'p', 00H, 'o', 00H, 'i', 00H, 'n', 00H, 't', 00H
	DB	'e', 00H, 'r', 00H, '"', 00H, 00H, 00H
	ORG $+2
$SG83165 DB	'.', 00H, '.', 00H, '\', 00H, 'c', 00H, 't', 00H, 'l', 00H
	DB	'u', 00H, 't', 00H, 'i', 00H, 'l', 00H, '.', 00H, 'c', 00H, 'p'
	DB	00H, 'p', 00H, 00H, 00H
	ORG $+2
$SG83166 DB	'"', 00H, 'I', 00H, 'n', 00H, 'v', 00H, 'a', 00H, 'l', 00H
	DB	'i', 00H, 'd', 00H, ' ', 00H, 'w', 00H, 'r', 00H, 'i', 00H, 't'
	DB	00H, 'e', 00H, ' ', 00H, 'p', 00H, 'o', 00H, 'i', 00H, 'n', 00H
	DB	't', 00H, 'e', 00H, 'r', 00H, '"', 00H, 00H, 00H
$SG83183 DB	'.', 00H, '.', 00H, '\', 00H, 'c', 00H, 't', 00H, 'l', 00H
	DB	'u', 00H, 't', 00H, 'i', 00H, 'l', 00H, '.', 00H, 'c', 00H, 'p'
	DB	00H, 'p', 00H, 00H, 00H
	ORG $+2
$SG83184 DB	'"', 00H, 'I', 00H, 'n', 00H, 'v', 00H, 'a', 00H, 'l', 00H
	DB	'i', 00H, 'd', 00H, ' ', 00H, 'r', 00H, 'e', 00H, 'a', 00H, 'd'
	DB	00H, ' ', 00H, 'p', 00H, 'o', 00H, 'i', 00H, 'n', 00H, 't', 00H
	DB	'e', 00H, 'r', 00H, '"', 00H, 00H, 00H
	ORG $+2
$SG83188 DB	'.', 00H, '.', 00H, '\', 00H, 'c', 00H, 't', 00H, 'l', 00H
	DB	'u', 00H, 't', 00H, 'i', 00H, 'l', 00H, '.', 00H, 'c', 00H, 'p'
	DB	00H, 'p', 00H, 00H, 00H
	ORG $+2
$SG83189 DB	'"', 00H, 'I', 00H, 'n', 00H, 'v', 00H, 'a', 00H, 'l', 00H
	DB	'i', 00H, 'd', 00H, ' ', 00H, 'w', 00H, 'r', 00H, 'i', 00H, 't'
	DB	00H, 'e', 00H, ' ', 00H, 'p', 00H, 'o', 00H, 'i', 00H, 'n', 00H
	DB	't', 00H, 'e', 00H, 'r', 00H, '"', 00H, 00H, 00H
$SG83206 DB	'.', 00H, '.', 00H, '\', 00H, 'c', 00H, 't', 00H, 'l', 00H
	DB	'u', 00H, 't', 00H, 'i', 00H, 'l', 00H, '.', 00H, 'c', 00H, 'p'
	DB	00H, 'p', 00H, 00H, 00H
	ORG $+2
$SG83207 DB	'"', 00H, 'I', 00H, 'n', 00H, 'v', 00H, 'a', 00H, 'l', 00H
	DB	'i', 00H, 'd', 00H, ' ', 00H, 'r', 00H, 'e', 00H, 'a', 00H, 'd'
	DB	00H, ' ', 00H, 'p', 00H, 'o', 00H, 'i', 00H, 'n', 00H, 't', 00H
	DB	'e', 00H, 'r', 00H, '"', 00H, 00H, 00H
	ORG $+2
$SG83211 DB	'.', 00H, '.', 00H, '\', 00H, 'c', 00H, 't', 00H, 'l', 00H
	DB	'u', 00H, 't', 00H, 'i', 00H, 'l', 00H, '.', 00H, 'c', 00H, 'p'
	DB	00H, 'p', 00H, 00H, 00H
	ORG $+2
$SG83212 DB	'"', 00H, 'I', 00H, 'n', 00H, 'v', 00H, 'a', 00H, 'l', 00H
	DB	'i', 00H, 'd', 00H, ' ', 00H, 'w', 00H, 'r', 00H, 'i', 00H, 't'
	DB	00H, 'e', 00H, ' ', 00H, 'p', 00H, 'o', 00H, 'i', 00H, 'n', 00H
	DB	't', 00H, 'e', 00H, 'r', 00H, '"', 00H, 00H, 00H
$SG83228 DB	'.', 00H, '.', 00H, '\', 00H, 'c', 00H, 't', 00H, 'l', 00H
	DB	'u', 00H, 't', 00H, 'i', 00H, 'l', 00H, '.', 00H, 'c', 00H, 'p'
	DB	00H, 'p', 00H, 00H, 00H
	ORG $+2
$SG83229 DB	'"', 00H, 'I', 00H, 'n', 00H, 'v', 00H, 'a', 00H, 'l', 00H
	DB	'i', 00H, 'd', 00H, ' ', 00H, 'r', 00H, 'e', 00H, 'a', 00H, 'd'
	DB	00H, ' ', 00H, 'p', 00H, 'o', 00H, 'i', 00H, 'n', 00H, 't', 00H
	DB	'e', 00H, 'r', 00H, '"', 00H, 00H, 00H
	ORG $+2
$SG83233 DB	'.', 00H, '.', 00H, '\', 00H, 'c', 00H, 't', 00H, 'l', 00H
	DB	'u', 00H, 't', 00H, 'i', 00H, 'l', 00H, '.', 00H, 'c', 00H, 'p'
	DB	00H, 'p', 00H, 00H, 00H
	ORG $+2
$SG83234 DB	'"', 00H, 'I', 00H, 'n', 00H, 'v', 00H, 'a', 00H, 'l', 00H
	DB	'i', 00H, 'd', 00H, ' ', 00H, 'w', 00H, 'r', 00H, 'i', 00H, 't'
	DB	00H, 'e', 00H, ' ', 00H, 'p', 00H, 'o', 00H, 'i', 00H, 'n', 00H
	DB	't', 00H, 'e', 00H, 'r', 00H, '"', 00H, 00H, 00H
$SG83277 DB	'.', 00H, '.', 00H, '\', 00H, 'c', 00H, 't', 00H, 'l', 00H
	DB	'u', 00H, 't', 00H, 'i', 00H, 'l', 00H, '.', 00H, 'c', 00H, 'p'
	DB	00H, 'p', 00H, 00H, 00H
	ORG $+2
$SG83278 DB	'"', 00H, 'I', 00H, 'n', 00H, 'v', 00H, 'a', 00H, 'l', 00H
	DB	'i', 00H, 'd', 00H, ' ', 00H, 'r', 00H, 'e', 00H, 'a', 00H, 'd'
	DB	00H, ' ', 00H, 'p', 00H, 'o', 00H, 'i', 00H, 'n', 00H, 't', 00H
	DB	'e', 00H, 'r', 00H, '"', 00H, 00H, 00H
	ORG $+2
$SG83282 DB	'.', 00H, '.', 00H, '\', 00H, 'c', 00H, 't', 00H, 'l', 00H
	DB	'u', 00H, 't', 00H, 'i', 00H, 'l', 00H, '.', 00H, 'c', 00H, 'p'
	DB	00H, 'p', 00H, 00H, 00H
	ORG $+2
$SG83283 DB	'"', 00H, 'I', 00H, 'n', 00H, 'v', 00H, 'a', 00H, 'l', 00H
	DB	'i', 00H, 'd', 00H, ' ', 00H, 'w', 00H, 'r', 00H, 'i', 00H, 't'
	DB	00H, 'e', 00H, ' ', 00H, 'p', 00H, 'o', 00H, 'i', 00H, 'n', 00H
	DB	't', 00H, 'e', 00H, 'r', 00H, '"', 00H, 00H, 00H
$SG83344 DB	'.', 00H, '.', 00H, '\', 00H, 'c', 00H, 't', 00H, 'l', 00H
	DB	'u', 00H, 't', 00H, 'i', 00H, 'l', 00H, '.', 00H, 'c', 00H, 'p'
	DB	00H, 'p', 00H, 00H, 00H
	ORG $+2
$SG83345 DB	'"', 00H, 'I', 00H, 'n', 00H, 'v', 00H, 'a', 00H, 'l', 00H
	DB	'i', 00H, 'd', 00H, ' ', 00H, 'r', 00H, 'e', 00H, 'a', 00H, 'd'
	DB	00H, ' ', 00H, 'p', 00H, 'o', 00H, 'i', 00H, 'n', 00H, 't', 00H
	DB	'e', 00H, 'r', 00H, '"', 00H, 00H, 00H
	ORG $+2
$SG83349 DB	'.', 00H, '.', 00H, '\', 00H, 'c', 00H, 't', 00H, 'l', 00H
	DB	'u', 00H, 't', 00H, 'i', 00H, 'l', 00H, '.', 00H, 'c', 00H, 'p'
	DB	00H, 'p', 00H, 00H, 00H
	ORG $+2
$SG83350 DB	'"', 00H, 'I', 00H, 'n', 00H, 'v', 00H, 'a', 00H, 'l', 00H
	DB	'i', 00H, 'd', 00H, ' ', 00H, 'w', 00H, 'r', 00H, 'i', 00H, 't'
	DB	00H, 'e', 00H, ' ', 00H, 'p', 00H, 'o', 00H, 'i', 00H, 'n', 00H
	DB	't', 00H, 'e', 00H, 'r', 00H, '"', 00H, 00H, 00H
$SG83413 DB	'.', 00H, '.', 00H, '\', 00H, 'c', 00H, 't', 00H, 'l', 00H
	DB	'u', 00H, 't', 00H, 'i', 00H, 'l', 00H, '.', 00H, 'c', 00H, 'p'
	DB	00H, 'p', 00H, 00H, 00H
	ORG $+2
$SG83414 DB	'"', 00H, 'I', 00H, 'n', 00H, 'v', 00H, 'a', 00H, 'l', 00H
	DB	'i', 00H, 'd', 00H, ' ', 00H, 'r', 00H, 'e', 00H, 'a', 00H, 'd'
	DB	00H, ' ', 00H, 'p', 00H, 'o', 00H, 'i', 00H, 'n', 00H, 't', 00H
	DB	'e', 00H, 'r', 00H, '"', 00H, 00H, 00H
	ORG $+2
$SG83418 DB	'.', 00H, '.', 00H, '\', 00H, 'c', 00H, 't', 00H, 'l', 00H
	DB	'u', 00H, 't', 00H, 'i', 00H, 'l', 00H, '.', 00H, 'c', 00H, 'p'
	DB	00H, 'p', 00H, 00H, 00H
	ORG $+2
$SG83419 DB	'"', 00H, 'I', 00H, 'n', 00H, 'v', 00H, 'a', 00H, 'l', 00H
	DB	'i', 00H, 'd', 00H, ' ', 00H, 'w', 00H, 'r', 00H, 'i', 00H, 't'
	DB	00H, 'e', 00H, ' ', 00H, 'p', 00H, 'o', 00H, 'i', 00H, 'n', 00H
	DB	't', 00H, 'e', 00H, 'r', 00H, '"', 00H, 00H, 00H
$SG83516 DB	'.', 00H, '.', 00H, '\', 00H, 'c', 00H, 't', 00H, 'l', 00H
	DB	'u', 00H, 't', 00H, 'i', 00H, 'l', 00H, '.', 00H, 'c', 00H, 'p'
	DB	00H, 'p', 00H, 00H, 00H
	ORG $+2
$SG83556 DB	'D', 00H, 'e', 00H, 'f', 00H, 'e', 00H, 'r', 00H, 'r', 00H
	DB	'e', 00H, 'd', 00H, 'C', 00H, 'o', 00H, 'm', 00H, 'm', 00H, 'a'
	DB	00H, 'n', 00H, 'd', 00H, 00H, 00H
$SG83585 DB	'.', 00H, '.', 00H, '\', 00H, 'c', 00H, 't', 00H, 'l', 00H
	DB	'u', 00H, 't', 00H, 'i', 00H, 'l', 00H, '.', 00H, 'c', 00H, 'p'
	DB	00H, 'p', 00H, 00H, 00H
	ORG $+2
$SG83586 DB	'"', 00H, 'I', 00H, 'n', 00H, 'v', 00H, 'a', 00H, 'l', 00H
	DB	'i', 00H, 'd', 00H, ' ', 00H, 'r', 00H, 'e', 00H, 'a', 00H, 'd'
	DB	00H, ' ', 00H, 'p', 00H, 'o', 00H, 'i', 00H, 'n', 00H, 't', 00H
	DB	'e', 00H, 'r', 00H, '"', 00H, 00H, 00H
	ORG $+2
$SG83590 DB	'.', 00H, '.', 00H, '\', 00H, 'c', 00H, 't', 00H, 'l', 00H
	DB	'u', 00H, 't', 00H, 'i', 00H, 'l', 00H, '.', 00H, 'c', 00H, 'p'
	DB	00H, 'p', 00H, 00H, 00H
	ORG $+2
$SG83591 DB	'"', 00H, 'I', 00H, 'n', 00H, 'v', 00H, 'a', 00H, 'l', 00H
	DB	'i', 00H, 'd', 00H, ' ', 00H, 'w', 00H, 'r', 00H, 'i', 00H, 't'
	DB	00H, 'e', 00H, ' ', 00H, 'p', 00H, 'o', 00H, 'i', 00H, 'n', 00H
	DB	't', 00H, 'e', 00H, 'r', 00H, '"', 00H, 00H, 00H
$SG83618 DB	'.', 00H, '.', 00H, '\', 00H, 'c', 00H, 't', 00H, 'l', 00H
	DB	'u', 00H, 't', 00H, 'i', 00H, 'l', 00H, '.', 00H, 'c', 00H, 'p'
	DB	00H, 'p', 00H, 00H, 00H
	ORG $+2
$SG83619 DB	'"', 00H, 'I', 00H, 'n', 00H, 'v', 00H, 'a', 00H, 'l', 00H
	DB	'i', 00H, 'd', 00H, ' ', 00H, 'r', 00H, 'e', 00H, 'a', 00H, 'd'
	DB	00H, ' ', 00H, 'p', 00H, 'o', 00H, 'i', 00H, 'n', 00H, 't', 00H
	DB	'e', 00H, 'r', 00H, '"', 00H, 00H, 00H
	ORG $+2
$SG83623 DB	'.', 00H, '.', 00H, '\', 00H, 'c', 00H, 't', 00H, 'l', 00H
	DB	'u', 00H, 't', 00H, 'i', 00H, 'l', 00H, '.', 00H, 'c', 00H, 'p'
	DB	00H, 'p', 00H, 00H, 00H
	ORG $+2
$SG83624 DB	'"', 00H, 'I', 00H, 'n', 00H, 'v', 00H, 'a', 00H, 'l', 00H
	DB	'i', 00H, 'd', 00H, ' ', 00H, 'w', 00H, 'r', 00H, 'i', 00H, 't'
	DB	00H, 'e', 00H, ' ', 00H, 'p', 00H, 'o', 00H, 'i', 00H, 'n', 00H
	DB	't', 00H, 'e', 00H, 'r', 00H, '"', 00H, 00H, 00H
$SG83657 DB	'P', 00H, 'r', 00H, 'e', 00H, 's', 00H, 'e', 00H, 'n', 00H
	DB	't', 00H, 'a', 00H, 't', 00H, 'i', 00H, 'o', 00H, 'n', 00H, ' '
	DB	00H, 't', 00H, 'i', 00H, 'm', 00H, 'e', 00H, ' ', 00H, 'c', 00H
	DB	'o', 00H, 'm', 00H, 'm', 00H, 'a', 00H, 'n', 00H, 'd', 00H, ' '
	DB	00H, 'l', 00H, 'i', 00H, 's', 00H, 't', 00H, 00H, 00H
	ORG $+2
$SG83658 DB	'S', 00H, 't', 00H, 'r', 00H, 'e', 00H, 'a', 00H, 'm', 00H
	DB	' ', 00H, 't', 00H, 'i', 00H, 'm', 00H, 'e', 00H, ' ', 00H, 'c'
	DB	00H, 'o', 00H, 'm', 00H, 'm', 00H, 'a', 00H, 'n', 00H, 'd', 00H
	DB	' ', 00H, 'l', 00H, 'i', 00H, 's', 00H, 't', 00H, 00H, 00H
	ORG $+6
$SG83776 DB	'.', 00H, '.', 00H, '\', 00H, 'c', 00H, 't', 00H, 'l', 00H
	DB	'u', 00H, 't', 00H, 'i', 00H, 'l', 00H, '.', 00H, 'c', 00H, 'p'
	DB	00H, 'p', 00H, 00H, 00H
	ORG $+2
$SG83777 DB	'S', 00H, 'U', 00H, 'C', 00H, 'C', 00H, 'E', 00H, 'E', 00H
	DB	'D', 00H, 'E', 00H, 'D', 00H, '(', 00H, 'h', 00H, 'r', 00H, ')'
	DB	00H, 00H, 00H
CONST	ENDS
;	COMDAT IID_IAMFilterGraphCallback
CONST	SEGMENT
IID_IAMFilterGraphCallback DD 056a868fdH
	DW	0ad4H
	DW	011ceH
	DB	0b0H
	DB	0a3H
	DB	00H
	DB	020H
	DB	0afH
	DB	0bH
	DB	0a7H
	DB	070H
CONST	ENDS
PUBLIC	??1CBaseDispatch@@QEAA@XZ			; CBaseDispatch::~CBaseDispatch
EXTRN	_RTC_Shutdown:PROC
EXTRN	_RTC_InitBase:PROC
;	COMDAT pdata
; File c:\downloads\wpf mediakit - copy\src\filters\baseclasses\ctlutil.cpp
pdata	SEGMENT
$pdata$??1CBaseDispatch@@QEAA@XZ DD imagerel $LN4
	DD	imagerel $LN4+69
	DD	imagerel $unwind$??1CBaseDispatch@@QEAA@XZ
pdata	ENDS
;	COMDAT xdata
xdata	SEGMENT
$unwind$??1CBaseDispatch@@QEAA@XZ DD 021e01H
	DD	07006320aH
xdata	ENDS
;	COMDAT rtc$TMZ
rtc$TMZ	SEGMENT
_RTC_Shutdown.rtc$TMZ DQ FLAT:_RTC_Shutdown
rtc$TMZ	ENDS
;	COMDAT rtc$IMZ
rtc$IMZ	SEGMENT
_RTC_InitBase.rtc$IMZ DQ FLAT:_RTC_InitBase
; Function compile flags: /Odtp /RTCsu
rtc$IMZ	ENDS
;	COMDAT ??1CBaseDispatch@@QEAA@XZ
_TEXT	SEGMENT
this$ = 48
??1CBaseDispatch@@QEAA@XZ PROC				; CBaseDispatch::~CBaseDispatch, COMDAT
; Line 26
$LN4:
	mov	QWORD PTR [rsp+8], rcx
	push	rdi
	sub	rsp, 32					; 00000020H
	mov	rdi, rsp
	mov	ecx, 8
	mov	eax, -858993460				; ccccccccH
	rep stosd
	mov	rcx, QWORD PTR [rsp+48]
; Line 27
	mov	rax, QWORD PTR this$[rsp]
	cmp	QWORD PTR [rax], 0
	je	SHORT $LN1@CBaseDispa
; Line 28
	mov	rax, QWORD PTR this$[rsp]
	mov	rax, QWORD PTR [rax]
	mov	rcx, QWORD PTR this$[rsp]
	mov	rcx, QWORD PTR [rcx]
	mov	rax, QWORD PTR [rax]
	call	QWORD PTR [rax+16]
$LN1@CBaseDispa:
; Line 30
	add	rsp, 32					; 00000020H
	pop	rdi
	ret	0
??1CBaseDispatch@@QEAA@XZ ENDP				; CBaseDispatch::~CBaseDispatch
_TEXT	ENDS
PUBLIC	?GetTypeInfoCount@CBaseDispatch@@QEAAJPEAI@Z	; CBaseDispatch::GetTypeInfoCount
EXTRN	__imp_IsBadWritePtr:PROC
EXTRN	?DbgBreakPoint@@YAXPEB_W0H@Z:PROC		; DbgBreakPoint
EXTRN	__imp_IsBadReadPtr:PROC
;	COMDAT pdata
pdata	SEGMENT
$pdata$?GetTypeInfoCount@CBaseDispatch@@QEAAJPEAI@Z DD imagerel $LN6
	DD	imagerel $LN6+161
	DD	imagerel $unwind$?GetTypeInfoCount@CBaseDispatch@@QEAAJPEAI@Z
pdata	ENDS
;	COMDAT xdata
xdata	SEGMENT
$unwind$?GetTypeInfoCount@CBaseDispatch@@QEAAJPEAI@Z DD 022301H
	DD	0700b320fH
; Function compile flags: /Odtp /RTCsu
xdata	ENDS
;	COMDAT ?GetTypeInfoCount@CBaseDispatch@@QEAAJPEAI@Z
_TEXT	SEGMENT
this$ = 48
pctinfo$ = 56
?GetTypeInfoCount@CBaseDispatch@@QEAAJPEAI@Z PROC	; CBaseDispatch::GetTypeInfoCount, COMDAT
; Line 37
$LN6:
	mov	QWORD PTR [rsp+16], rdx
	mov	QWORD PTR [rsp+8], rcx
	push	rdi
	sub	rsp, 32					; 00000020H
	mov	rdi, rsp
	mov	ecx, 8
	mov	eax, -858993460				; ccccccccH
	rep stosd
	mov	rcx, QWORD PTR [rsp+48]
; Line 38
	cmp	QWORD PTR pctinfo$[rsp], 0
	jne	SHORT $LN3@GetTypeInf
	mov	eax, -2147467261			; ffffffff80004003H
	jmp	SHORT $LN4@GetTypeInf
$LN3@GetTypeInf:
; Line 39
	mov	edx, 8
	mov	rcx, QWORD PTR pctinfo$[rsp]
	call	QWORD PTR __imp_IsBadReadPtr
	cmp	eax, 1
	jne	SHORT $LN2@GetTypeInf
	mov	r8d, 39					; 00000027H
	lea	rdx, OFFSET FLAT:$SG82280
	lea	rcx, OFFSET FLAT:$SG82281
	call	?DbgBreakPoint@@YAXPEB_W0H@Z		; DbgBreakPoint
$LN2@GetTypeInf:
	mov	edx, 8
	mov	rcx, QWORD PTR pctinfo$[rsp]
	call	QWORD PTR __imp_IsBadWritePtr
	cmp	eax, 1
	jne	SHORT $LN1@GetTypeInf
	mov	r8d, 39					; 00000027H
	lea	rdx, OFFSET FLAT:$SG82285
	lea	rcx, OFFSET FLAT:$SG82286
	call	?DbgBreakPoint@@YAXPEB_W0H@Z		; DbgBreakPoint
$LN1@GetTypeInf:
; Line 40
	mov	rax, QWORD PTR pctinfo$[rsp]
	mov	DWORD PTR [rax], 1
; Line 41
	xor	eax, eax
$LN4@GetTypeInf:
; Line 42
	add	rsp, 32					; 00000020H
	pop	rdi
	ret	0
?GetTypeInfoCount@CBaseDispatch@@QEAAJPEAI@Z ENDP	; CBaseDispatch::GetTypeInfoCount
_TEXT	ENDS
PUBLIC	?GetTypeInfo@CBaseDispatch@@QEAAJAEBU_GUID@@IKPEAPEAUITypeInfo@@@Z ; CBaseDispatch::GetTypeInfo
EXTRN	LIBID_QuartzTypeLib:BYTE
EXTRN	__imp_GetProcAddress:PROC
EXTRN	__imp_GetLastError:PROC
EXTRN	?LoadOLEAut32@@YAPEAUHINSTANCE__@@XZ:PROC	; LoadOLEAut32
EXTRN	_RTC_CheckStackVars:PROC
;	COMDAT pdata
pdata	SEGMENT
$pdata$?GetTypeInfo@CBaseDispatch@@QEAAJAEBU_GUID@@IKPEAPEAUITypeInfo@@@Z DD imagerel $LN15
	DD	imagerel $LN15+623
	DD	imagerel $unwind$?GetTypeInfo@CBaseDispatch@@QEAAJAEBU_GUID@@IKPEAPEAUITypeInfo@@@Z
pdata	ENDS
;	COMDAT xdata
xdata	SEGMENT
$unwind$?GetTypeInfo@CBaseDispatch@@QEAAJAEBU_GUID@@IKPEAPEAUITypeInfo@@@Z DD 023301H
	DD	07015f21cH
xdata	ENDS
;	COMDAT ?szControl@?BF@??GetTypeInfo@CBaseDispatch@@QEAAJAEBU_GUID@@IKPEAPEAUITypeInfo@@@Z@4QB_WB
CONST	SEGMENT
?szControl@?BF@??GetTypeInfo@CBaseDispatch@@QEAAJAEBU_GUID@@IKPEAPEAUITypeInfo@@@Z@4QB_WB DB 'c'
	DB	00H, 'o', 00H, 'n', 00H, 't', 00H, 'r', 00H, 'o', 00H, 'l', 00H
	DB	'.', 00H, 't', 00H, 'l', 00H, 'b', 00H, 00H, 00H ; `CBaseDispatch::GetTypeInfo'::`21'::szControl
CONST	ENDS
;	COMDAT ?szTypeLib@?BF@??GetTypeInfo@CBaseDispatch@@QEAAJAEBU_GUID@@IKPEAPEAUITypeInfo@@@Z@4QBDB
CONST	SEGMENT
?szTypeLib@?BF@??GetTypeInfo@CBaseDispatch@@QEAAJAEBU_GUID@@IKPEAPEAUITypeInfo@@@Z@4QBDB DB 'L'
	DB	'oadTypeLib', 00H				; `CBaseDispatch::GetTypeInfo'::`21'::szTypeLib
CONST	ENDS
;	COMDAT ?szRegTypeLib@?BF@??GetTypeInfo@CBaseDispatch@@QEAAJAEBU_GUID@@IKPEAPEAUITypeInfo@@@Z@4QBDB
CONST	SEGMENT
?szRegTypeLib@?BF@??GetTypeInfo@CBaseDispatch@@QEAAJAEBU_GUID@@IKPEAPEAUITypeInfo@@@Z@4QBDB DB 'L'
	DB	'oadRegTypeLib', 00H				; `CBaseDispatch::GetTypeInfo'::`21'::szRegTypeLib
CONST	ENDS
;	COMDAT CONST
CONST	SEGMENT
?GetTypeInfo@CBaseDispatch@@QEAAJAEBU_GUID@@IKPEAPEAUITypeInfo@@@Z$rtcName$0 DB 070H ; CBaseDispatch::GetTypeInfo
	DB	074H
	DB	06cH
	DB	069H
	DB	062H
	DB	00H
	ORG $+10
?GetTypeInfo@CBaseDispatch@@QEAAJAEBU_GUID@@IKPEAPEAUITypeInfo@@@Z$rtcVarDesc DD 058H ; CBaseDispatch::GetTypeInfo
	DD	08H
	DQ	FLAT:?GetTypeInfo@CBaseDispatch@@QEAAJAEBU_GUID@@IKPEAPEAUITypeInfo@@@Z$rtcName$0
	ORG $+48
?GetTypeInfo@CBaseDispatch@@QEAAJAEBU_GUID@@IKPEAPEAUITypeInfo@@@Z$rtcFrameData DD 01H ; CBaseDispatch::GetTypeInfo
	DD	00H
	DQ	FLAT:?GetTypeInfo@CBaseDispatch@@QEAAJAEBU_GUID@@IKPEAPEAUITypeInfo@@@Z$rtcVarDesc
; Function compile flags: /Odtp /RTCsu
CONST	ENDS
;	COMDAT ?GetTypeInfo@CBaseDispatch@@QEAAJAEBU_GUID@@IKPEAPEAUITypeInfo@@@Z
_TEXT	SEGMENT
hr$ = 48
lpfnLoadTypeLib$82322 = 56
lpfnLoadRegTypeLib$82323 = 64
ptlib$82324 = 88
hInst$82325 = 104
dwError$82333 = 112
dwError$82340 = 116
dwError$82349 = 120
this$ = 144
riid$ = 152
itinfo$ = 160
lcid$ = 168
pptinfo$ = 176
?GetTypeInfo@CBaseDispatch@@QEAAJAEBU_GUID@@IKPEAPEAUITypeInfo@@@Z PROC ; CBaseDispatch::GetTypeInfo, COMDAT
; Line 63
$LN15:
	mov	DWORD PTR [rsp+32], r9d
	mov	DWORD PTR [rsp+24], r8d
	mov	QWORD PTR [rsp+16], rdx
	mov	QWORD PTR [rsp+8], rcx
	push	rdi
	sub	rsp, 128				; 00000080H
	mov	rdi, rsp
	mov	ecx, 32					; 00000020H
	mov	eax, -858993460				; ccccccccH
	rep stosd
	mov	rcx, QWORD PTR [rsp+144]
; Line 64
	cmp	QWORD PTR pptinfo$[rsp], 0
	jne	SHORT $LN12@GetTypeInf@2
	mov	eax, -2147467261			; ffffffff80004003H
	jmp	$LN13@GetTypeInf@2
$LN12@GetTypeInf@2:
; Line 65
	mov	edx, 8
	mov	rcx, QWORD PTR pptinfo$[rsp]
	call	QWORD PTR __imp_IsBadReadPtr
	cmp	eax, 1
	jne	SHORT $LN11@GetTypeInf@2
	mov	r8d, 65					; 00000041H
	lea	rdx, OFFSET FLAT:$SG82309
	lea	rcx, OFFSET FLAT:$SG82310
	call	?DbgBreakPoint@@YAXPEB_W0H@Z		; DbgBreakPoint
$LN11@GetTypeInf@2:
	mov	edx, 8
	mov	rcx, QWORD PTR pptinfo$[rsp]
	call	QWORD PTR __imp_IsBadWritePtr
	cmp	eax, 1
	jne	SHORT $LN10@GetTypeInf@2
	mov	r8d, 65					; 00000041H
	lea	rdx, OFFSET FLAT:$SG82314
	lea	rcx, OFFSET FLAT:$SG82315
	call	?DbgBreakPoint@@YAXPEB_W0H@Z		; DbgBreakPoint
$LN10@GetTypeInf@2:
; Line 68
	mov	rax, QWORD PTR pptinfo$[rsp]
	mov	QWORD PTR [rax], 0
; Line 71
	cmp	DWORD PTR itinfo$[rsp], 0
	je	SHORT $LN9@GetTypeInf@2
; Line 72
	mov	eax, -2147319765			; ffffffff8002802bH
	jmp	$LN13@GetTypeInf@2
$LN9@GetTypeInf@2:
; Line 75
	cmp	QWORD PTR pptinfo$[rsp], 0
	jne	SHORT $LN8@GetTypeInf@2
; Line 76
	mov	eax, -2147467261			; ffffffff80004003H
	jmp	$LN13@GetTypeInf@2
$LN8@GetTypeInf@2:
; Line 80
	mov	rax, QWORD PTR this$[rsp]
	cmp	QWORD PTR [rax], 0
	jne	$LN7@GetTypeInf@2
; Line 95
	call	?LoadOLEAut32@@YAPEAUHINSTANCE__@@XZ	; LoadOLEAut32
	mov	QWORD PTR hInst$82325[rsp], rax
; Line 96
	cmp	QWORD PTR hInst$82325[rsp], 0
	jne	SHORT $LN6@GetTypeInf@2
; Line 97
	call	QWORD PTR __imp_GetLastError
	mov	DWORD PTR dwError$82333[rsp], eax
; Line 98
	mov	eax, DWORD PTR dwError$82333[rsp]
	or	eax, -2147024896			; 80070000H
	jmp	$LN13@GetTypeInf@2
$LN6@GetTypeInf@2:
; Line 101
	lea	rdx, OFFSET FLAT:?szRegTypeLib@?BF@??GetTypeInfo@CBaseDispatch@@QEAAJAEBU_GUID@@IKPEAPEAUITypeInfo@@@Z@4QBDB
	mov	rcx, QWORD PTR hInst$82325[rsp]
	call	QWORD PTR __imp_GetProcAddress
	mov	QWORD PTR lpfnLoadRegTypeLib$82323[rsp], rax
; Line 102
	cmp	QWORD PTR lpfnLoadRegTypeLib$82323[rsp], 0
	jne	SHORT $LN5@GetTypeInf@2
; Line 103
	call	QWORD PTR __imp_GetLastError
	mov	DWORD PTR dwError$82340[rsp], eax
; Line 104
	mov	eax, DWORD PTR dwError$82340[rsp]
	or	eax, -2147024896			; 80070000H
	jmp	$LN13@GetTypeInf@2
$LN5@GetTypeInf@2:
; Line 108
	lea	rax, QWORD PTR ptlib$82324[rsp]
	mov	QWORD PTR [rsp+32], rax
	mov	r9d, DWORD PTR lcid$[rsp]
	xor	r8d, r8d
	mov	dx, 1
	lea	rcx, OFFSET FLAT:LIBID_QuartzTypeLib
	call	QWORD PTR lpfnLoadRegTypeLib$82323[rsp]
	mov	DWORD PTR hr$[rsp], eax
; Line 110
	cmp	DWORD PTR hr$[rsp], 0
	jge	SHORT $LN4@GetTypeInf@2
; Line 115
	lea	rdx, OFFSET FLAT:?szTypeLib@?BF@??GetTypeInfo@CBaseDispatch@@QEAAJAEBU_GUID@@IKPEAPEAUITypeInfo@@@Z@4QBDB
	mov	rcx, QWORD PTR hInst$82325[rsp]
	call	QWORD PTR __imp_GetProcAddress
	mov	QWORD PTR lpfnLoadTypeLib$82322[rsp], rax
; Line 116
	cmp	QWORD PTR lpfnLoadTypeLib$82322[rsp], 0
	jne	SHORT $LN3@GetTypeInf@2
; Line 117
	call	QWORD PTR __imp_GetLastError
	mov	DWORD PTR dwError$82349[rsp], eax
; Line 118
	mov	eax, DWORD PTR dwError$82349[rsp]
	or	eax, -2147024896			; 80070000H
	jmp	$LN13@GetTypeInf@2
$LN3@GetTypeInf@2:
; Line 121
	lea	rdx, QWORD PTR ptlib$82324[rsp]
	lea	rcx, OFFSET FLAT:?szControl@?BF@??GetTypeInfo@CBaseDispatch@@QEAAJAEBU_GUID@@IKPEAPEAUITypeInfo@@@Z@4QB_WB
	call	QWORD PTR lpfnLoadTypeLib$82322[rsp]
	mov	DWORD PTR hr$[rsp], eax
; Line 122
	cmp	DWORD PTR hr$[rsp], 0
	jge	SHORT $LN2@GetTypeInf@2
; Line 123
	mov	eax, DWORD PTR hr$[rsp]
	jmp	SHORT $LN13@GetTypeInf@2
$LN2@GetTypeInf@2:
$LN4@GetTypeInf@2:
; Line 129
	mov	rax, QWORD PTR ptlib$82324[rsp]
	mov	rax, QWORD PTR [rax]
	mov	r8, QWORD PTR this$[rsp]
	mov	rdx, QWORD PTR riid$[rsp]
	mov	rcx, QWORD PTR ptlib$82324[rsp]
	call	QWORD PTR [rax+48]
	mov	DWORD PTR hr$[rsp], eax
; Line 131
	mov	rax, QWORD PTR ptlib$82324[rsp]
	mov	rax, QWORD PTR [rax]
	mov	rcx, QWORD PTR ptlib$82324[rsp]
	call	QWORD PTR [rax+16]
; Line 133
	cmp	DWORD PTR hr$[rsp], 0
	jge	SHORT $LN1@GetTypeInf@2
; Line 134
	mov	eax, DWORD PTR hr$[rsp]
	jmp	SHORT $LN13@GetTypeInf@2
$LN1@GetTypeInf@2:
$LN7@GetTypeInf@2:
; Line 138
	mov	rax, QWORD PTR pptinfo$[rsp]
	mov	rcx, QWORD PTR this$[rsp]
	mov	rcx, QWORD PTR [rcx]
	mov	QWORD PTR [rax], rcx
; Line 139
	mov	rax, QWORD PTR this$[rsp]
	mov	rax, QWORD PTR [rax]
	mov	rcx, QWORD PTR this$[rsp]
	mov	rcx, QWORD PTR [rcx]
	mov	rax, QWORD PTR [rax]
	call	QWORD PTR [rax+8]
; Line 140
	xor	eax, eax
$LN13@GetTypeInf@2:
; Line 141
	mov	rdi, rax
	mov	rcx, rsp
	lea	rdx, OFFSET FLAT:?GetTypeInfo@CBaseDispatch@@QEAAJAEBU_GUID@@IKPEAPEAUITypeInfo@@@Z$rtcFrameData
	call	_RTC_CheckStackVars
	mov	rax, rdi
	add	rsp, 128				; 00000080H
	pop	rdi
	ret	0
?GetTypeInfo@CBaseDispatch@@QEAAJAEBU_GUID@@IKPEAPEAUITypeInfo@@@Z ENDP ; CBaseDispatch::GetTypeInfo
_TEXT	ENDS
PUBLIC	?GetIDsOfNames@CBaseDispatch@@QEAAJAEBU_GUID@@PEAPEA_WIKPEAJ@Z ; CBaseDispatch::GetIDsOfNames
;	COMDAT pdata
pdata	SEGMENT
$pdata$?GetIDsOfNames@CBaseDispatch@@QEAAJAEBU_GUID@@PEAPEA_WIKPEAJ@Z DD imagerel $LN4
	DD	imagerel $LN4+175
	DD	imagerel $unwind$?GetIDsOfNames@CBaseDispatch@@QEAAJAEBU_GUID@@PEAPEA_WIKPEAJ@Z
pdata	ENDS
;	COMDAT xdata
xdata	SEGMENT
$unwind$?GetIDsOfNames@CBaseDispatch@@QEAAJAEBU_GUID@@PEAPEA_WIKPEAJ@Z DD 022d01H
	DD	070159219H
xdata	ENDS
;	COMDAT CONST
CONST	SEGMENT
?GetIDsOfNames@CBaseDispatch@@QEAAJAEBU_GUID@@PEAPEA_WIKPEAJ@Z$rtcName$0 DB 070H ; CBaseDispatch::GetIDsOfNames
	DB	074H
	DB	069H
	DB	00H
	ORG $+12
?GetIDsOfNames@CBaseDispatch@@QEAAJAEBU_GUID@@PEAPEA_WIKPEAJ@Z$rtcVarDesc DD 038H ; CBaseDispatch::GetIDsOfNames
	DD	08H
	DQ	FLAT:?GetIDsOfNames@CBaseDispatch@@QEAAJAEBU_GUID@@PEAPEA_WIKPEAJ@Z$rtcName$0
	ORG $+48
?GetIDsOfNames@CBaseDispatch@@QEAAJAEBU_GUID@@PEAPEA_WIKPEAJ@Z$rtcFrameData DD 01H ; CBaseDispatch::GetIDsOfNames
	DD	00H
	DQ	FLAT:?GetIDsOfNames@CBaseDispatch@@QEAAJAEBU_GUID@@PEAPEA_WIKPEAJ@Z$rtcVarDesc
; Function compile flags: /Odtp /RTCsu
CONST	ENDS
;	COMDAT ?GetIDsOfNames@CBaseDispatch@@QEAAJAEBU_GUID@@PEAPEA_WIKPEAJ@Z
_TEXT	SEGMENT
pti$ = 56
hr$ = 68
this$ = 96
riid$ = 104
rgszNames$ = 112
cNames$ = 120
lcid$ = 128
rgdispid$ = 136
?GetIDsOfNames@CBaseDispatch@@QEAAJAEBU_GUID@@PEAPEA_WIKPEAJ@Z PROC ; CBaseDispatch::GetIDsOfNames, COMDAT
; Line 151
$LN4:
	mov	DWORD PTR [rsp+32], r9d
	mov	QWORD PTR [rsp+24], r8
	mov	QWORD PTR [rsp+16], rdx
	mov	QWORD PTR [rsp+8], rcx
	push	rdi
	sub	rsp, 80					; 00000050H
	mov	rdi, rsp
	mov	ecx, 20
	mov	eax, -858993460				; ccccccccH
	rep stosd
	mov	rcx, QWORD PTR [rsp+96]
; Line 156
	lea	rax, QWORD PTR pti$[rsp]
	mov	QWORD PTR [rsp+32], rax
	mov	r9d, DWORD PTR lcid$[rsp]
	xor	r8d, r8d
	mov	rdx, QWORD PTR riid$[rsp]
	mov	rcx, QWORD PTR this$[rsp]
	call	?GetTypeInfo@CBaseDispatch@@QEAAJAEBU_GUID@@IKPEAPEAUITypeInfo@@@Z ; CBaseDispatch::GetTypeInfo
	mov	DWORD PTR hr$[rsp], eax
; Line 158
	cmp	DWORD PTR hr$[rsp], 0
	jl	SHORT $LN1@GetIDsOfNa
; Line 159
	mov	rax, QWORD PTR pti$[rsp]
	mov	rax, QWORD PTR [rax]
	mov	r9, QWORD PTR rgdispid$[rsp]
	mov	r8d, DWORD PTR cNames$[rsp]
	mov	rdx, QWORD PTR rgszNames$[rsp]
	mov	rcx, QWORD PTR pti$[rsp]
	call	QWORD PTR [rax+80]
	mov	DWORD PTR hr$[rsp], eax
; Line 161
	mov	rax, QWORD PTR pti$[rsp]
	mov	rax, QWORD PTR [rax]
	mov	rcx, QWORD PTR pti$[rsp]
	call	QWORD PTR [rax+16]
$LN1@GetIDsOfNa:
; Line 163
	mov	eax, DWORD PTR hr$[rsp]
; Line 164
	mov	edi, eax
	mov	rcx, rsp
	lea	rdx, OFFSET FLAT:?GetIDsOfNames@CBaseDispatch@@QEAAJAEBU_GUID@@PEAPEA_WIKPEAJ@Z$rtcFrameData
	call	_RTC_CheckStackVars
	mov	eax, edi
	add	rsp, 80					; 00000050H
	pop	rdi
	ret	0
?GetIDsOfNames@CBaseDispatch@@QEAAJAEBU_GUID@@PEAPEA_WIKPEAJ@Z ENDP ; CBaseDispatch::GetIDsOfNames
_TEXT	ENDS
PUBLIC	??1CUnknown@@UEAA@XZ				; CUnknown::~CUnknown
PUBLIC	??0CBaseDispatch@@QEAA@XZ			; CBaseDispatch::CBaseDispatch
PUBLIC	??0IMediaControl@@QEAA@XZ			; IMediaControl::IMediaControl
PUBLIC	??0CMediaControl@@QEAA@PEB_WPEAUIUnknown@@@Z	; CMediaControl::CMediaControl
EXTRN	__CxxFrameHandler3:PROC
EXTRN	??0CUnknown@@QEAA@PEB_WPEAUIUnknown@@@Z:PROC	; CUnknown::CUnknown
;	COMDAT pdata
pdata	SEGMENT
$pdata$??0CMediaControl@@QEAA@PEB_WPEAUIUnknown@@@Z DD imagerel $LN5
	DD	imagerel $LN5+116
	DD	imagerel $unwind$??0CMediaControl@@QEAA@PEB_WPEAUIUnknown@@@Z
pdata	ENDS
;	COMDAT pdata
pdata	SEGMENT
$pdata$?dtor$0@?0???0CMediaControl@@QEAA@PEB_WPEAUIUnknown@@@Z@4HA DD imagerel ?dtor$0@?0???0CMediaControl@@QEAA@PEB_WPEAUIUnknown@@@Z@4HA
	DD	imagerel ?dtor$0@?0???0CMediaControl@@QEAA@PEB_WPEAUIUnknown@@@Z@4HA+39
	DD	imagerel $unwind$?dtor$0@?0???0CMediaControl@@QEAA@PEB_WPEAUIUnknown@@@Z@4HA
pdata	ENDS
;	COMDAT xdata
xdata	SEGMENT
$ip2state$??0CMediaControl@@QEAA@PEB_WPEAUIUnknown@@@Z DD imagerel ??0CMediaControl@@QEAA@PEB_WPEAUIUnknown@@@Z
	DD	0ffffffffH
	DD	imagerel ??0CMediaControl@@QEAA@PEB_WPEAUIUnknown@@@Z+87
	DD	00H
	DD	imagerel ??0CMediaControl@@QEAA@PEB_WPEAUIUnknown@@@Z+105
	DD	0ffffffffH
xdata	ENDS
;	COMDAT xdata
xdata	SEGMENT
$unwind$?dtor$0@?0???0CMediaControl@@QEAA@PEB_WPEAUIUnknown@@@Z@4HA DD 031001H
	DD	0700c4210H
	DD	0500bH
xdata	ENDS
;	COMDAT xdata
xdata	SEGMENT
$unwind$??0CMediaControl@@QEAA@PEB_WPEAUIUnknown@@@Z DD 023111H
	DD	070105214H
	DD	imagerel __CxxFrameHandler3
	DD	imagerel $cppxdata$??0CMediaControl@@QEAA@PEB_WPEAUIUnknown@@@Z
xdata	ENDS
;	COMDAT CONST
CONST	SEGMENT
$cppxdata$??0CMediaControl@@QEAA@PEB_WPEAUIUnknown@@@Z DD 019930522H
	DD	01H
	DD	imagerel $stateUnwindMap$??0CMediaControl@@QEAA@PEB_WPEAUIUnknown@@@Z
	DD	00H
	DD	00H
	DD	03H
	DD	imagerel $ip2state$??0CMediaControl@@QEAA@PEB_WPEAUIUnknown@@@Z
	DD	020H
	DD	00H
	DD	01H
CONST	ENDS
;	COMDAT xdata
xdata	SEGMENT
$stateUnwindMap$??0CMediaControl@@QEAA@PEB_WPEAUIUnknown@@@Z DD 0ffffffffH
	DD	imagerel ?dtor$0@?0???0CMediaControl@@QEAA@PEB_WPEAUIUnknown@@@Z@4HA
; Function compile flags: /Odtp /RTCsu
xdata	ENDS
;	COMDAT ??0CMediaControl@@QEAA@PEB_WPEAUIUnknown@@@Z
_TEXT	SEGMENT
$T85391 = 32
this$ = 64
name$ = 72
pUnk$ = 80
??0CMediaControl@@QEAA@PEB_WPEAUIUnknown@@@Z PROC	; CMediaControl::CMediaControl, COMDAT
; Line 171
$LN5:
	mov	QWORD PTR [rsp+24], r8
	mov	QWORD PTR [rsp+16], rdx
	mov	QWORD PTR [rsp+8], rcx
	push	rdi
	sub	rsp, 48					; 00000030H
	mov	rdi, rsp
	mov	ecx, 12
	mov	eax, -858993460				; ccccccccH
	rep stosd
	mov	rcx, QWORD PTR [rsp+64]
	mov	QWORD PTR $T85391[rsp], -2
	mov	rcx, QWORD PTR this$[rsp]
	call	??0IMediaControl@@QEAA@XZ
	mov	rax, QWORD PTR this$[rsp]
	add	rax, 8
	mov	r8, QWORD PTR pUnk$[rsp]
	mov	rdx, QWORD PTR name$[rsp]
	mov	rcx, rax
	call	??0CUnknown@@QEAA@PEB_WPEAUIUnknown@@@Z	; CUnknown::CUnknown
	npad	1
	mov	rax, QWORD PTR this$[rsp]
	add	rax, 40					; 00000028H
	mov	rcx, rax
	call	??0CBaseDispatch@@QEAA@XZ		; CBaseDispatch::CBaseDispatch
	npad	1
; Line 172
	mov	rax, QWORD PTR this$[rsp]
	add	rsp, 48					; 00000030H
	pop	rdi
	ret	0
??0CMediaControl@@QEAA@PEB_WPEAUIUnknown@@@Z ENDP	; CMediaControl::CMediaControl
; Function compile flags: /Odtp /RTCsu
_TEXT	ENDS
;	COMDAT text$x
text$x	SEGMENT
$T85391 = 32
this$ = 64
name$ = 72
pUnk$ = 80
?dtor$0@?0???0CMediaControl@@QEAA@PEB_WPEAUIUnknown@@@Z@4HA PROC ; `CMediaControl::CMediaControl'::`1'::dtor$0
	mov	QWORD PTR [rsp+8], rcx
	mov	QWORD PTR [rsp+16], rdx
	push	rbp
	push	rdi
	sub	rsp, 40					; 00000028H
	mov	rbp, rdx
	mov	rcx, QWORD PTR this$[rbp]
	add	rcx, 8
	call	??1CUnknown@@UEAA@XZ			; CUnknown::~CUnknown
	add	rsp, 40					; 00000028H
	pop	rdi
	pop	rbp
	ret	0
?dtor$0@?0???0CMediaControl@@QEAA@PEB_WPEAUIUnknown@@@Z@4HA ENDP ; `CMediaControl::CMediaControl'::`1'::dtor$0
text$x	ENDS
EXTRN	??1CBaseObject@@QEAA@XZ:PROC			; CBaseObject::~CBaseObject
;	COMDAT pdata
; File c:\downloads\wpf mediakit - copy\src\filters\baseclasses\combase.h
pdata	SEGMENT
$pdata$??1CUnknown@@UEAA@XZ DD imagerel $LN4
	DD	imagerel $LN4+53
	DD	imagerel $unwind$??1CUnknown@@UEAA@XZ
pdata	ENDS
;	COMDAT xdata
xdata	SEGMENT
$unwind$??1CUnknown@@UEAA@XZ DD 021e01H
	DD	07006320aH
; Function compile flags: /Odtp /RTCsu
xdata	ENDS
;	COMDAT ??1CUnknown@@UEAA@XZ
_TEXT	SEGMENT
this$ = 48
??1CUnknown@@UEAA@XZ PROC				; CUnknown::~CUnknown, COMDAT
; Line 212
$LN4:
	mov	QWORD PTR [rsp+8], rcx
	push	rdi
	sub	rsp, 32					; 00000020H
	mov	rdi, rsp
	mov	ecx, 8
	mov	eax, -858993460				; ccccccccH
	rep stosd
	mov	rcx, QWORD PTR [rsp+48]
	mov	rax, QWORD PTR this$[rsp]
	add	rax, 8
	mov	rcx, rax
	call	??1CBaseObject@@QEAA@XZ			; CBaseObject::~CBaseObject
	add	rsp, 32					; 00000020H
	pop	rdi
	ret	0
??1CUnknown@@UEAA@XZ ENDP				; CUnknown::~CUnknown
_TEXT	ENDS
;	COMDAT pdata
; File c:\downloads\wpf mediakit - copy\src\filters\baseclasses\ctlutil.h
pdata	SEGMENT
$pdata$??0CBaseDispatch@@QEAA@XZ DD imagerel $LN3
	DD	imagerel $LN3+25
	DD	imagerel $unwind$??0CBaseDispatch@@QEAA@XZ
pdata	ENDS
;	COMDAT xdata
xdata	SEGMENT
$unwind$??0CBaseDispatch@@QEAA@XZ DD 010601H
	DD	07006H
; Function compile flags: /Odtp /RTCsu
xdata	ENDS
;	COMDAT ??0CBaseDispatch@@QEAA@XZ
_TEXT	SEGMENT
this$ = 16
??0CBaseDispatch@@QEAA@XZ PROC				; CBaseDispatch::CBaseDispatch, COMDAT
; Line 32
$LN3:
	mov	QWORD PTR [rsp+8], rcx
	push	rdi
	mov	rax, QWORD PTR this$[rsp]
	mov	QWORD PTR [rax], 0
	mov	rax, QWORD PTR this$[rsp]
	pop	rdi
	ret	0
??0CBaseDispatch@@QEAA@XZ ENDP				; CBaseDispatch::CBaseDispatch
_TEXT	ENDS
PUBLIC	??0IDispatch@@QEAA@XZ				; IDispatch::IDispatch
;	COMDAT pdata
pdata	SEGMENT
$pdata$??0IMediaControl@@QEAA@XZ DD imagerel $LN3
	DD	imagerel $LN3+51
	DD	imagerel $unwind$??0IMediaControl@@QEAA@XZ
pdata	ENDS
;	COMDAT xdata
xdata	SEGMENT
$unwind$??0IMediaControl@@QEAA@XZ DD 021e01H
	DD	07006320aH
; Function compile flags: /Odtp /RTCsu
xdata	ENDS
;	COMDAT ??0IMediaControl@@QEAA@XZ
_TEXT	SEGMENT
this$ = 48
??0IMediaControl@@QEAA@XZ PROC				; IMediaControl::IMediaControl, COMDAT
$LN3:
	mov	QWORD PTR [rsp+8], rcx
	push	rdi
	sub	rsp, 32					; 00000020H
	mov	rdi, rsp
	mov	ecx, 8
	mov	eax, -858993460				; ccccccccH
	rep stosd
	mov	rcx, QWORD PTR [rsp+48]
	mov	rcx, QWORD PTR this$[rsp]
	call	??0IDispatch@@QEAA@XZ
	mov	rax, QWORD PTR this$[rsp]
	add	rsp, 32					; 00000020H
	pop	rdi
	ret	0
??0IMediaControl@@QEAA@XZ ENDP				; IMediaControl::IMediaControl
_TEXT	ENDS
PUBLIC	??0IUnknown@@QEAA@XZ				; IUnknown::IUnknown
;	COMDAT pdata
pdata	SEGMENT
$pdata$??0IDispatch@@QEAA@XZ DD imagerel $LN3
	DD	imagerel $LN3+51
	DD	imagerel $unwind$??0IDispatch@@QEAA@XZ
pdata	ENDS
;	COMDAT xdata
xdata	SEGMENT
$unwind$??0IDispatch@@QEAA@XZ DD 021e01H
	DD	07006320aH
; Function compile flags: /Odtp /RTCsu
xdata	ENDS
;	COMDAT ??0IDispatch@@QEAA@XZ
_TEXT	SEGMENT
this$ = 48
??0IDispatch@@QEAA@XZ PROC				; IDispatch::IDispatch, COMDAT
$LN3:
	mov	QWORD PTR [rsp+8], rcx
	push	rdi
	sub	rsp, 32					; 00000020H
	mov	rdi, rsp
	mov	ecx, 8
	mov	eax, -858993460				; ccccccccH
	rep stosd
	mov	rcx, QWORD PTR [rsp+48]
	mov	rcx, QWORD PTR this$[rsp]
	call	??0IUnknown@@QEAA@XZ
	mov	rax, QWORD PTR this$[rsp]
	add	rsp, 32					; 00000020H
	pop	rdi
	ret	0
??0IDispatch@@QEAA@XZ ENDP				; IDispatch::IDispatch
_TEXT	ENDS
;	COMDAT pdata
pdata	SEGMENT
$pdata$??0IUnknown@@QEAA@XZ DD imagerel $LN3
	DD	imagerel $LN3+13
	DD	imagerel $unwind$??0IUnknown@@QEAA@XZ
pdata	ENDS
;	COMDAT xdata
xdata	SEGMENT
$unwind$??0IUnknown@@QEAA@XZ DD 010601H
	DD	07006H
; Function compile flags: /Odtp /RTCsu
xdata	ENDS
;	COMDAT ??0IUnknown@@QEAA@XZ
_TEXT	SEGMENT
this$ = 16
??0IUnknown@@QEAA@XZ PROC				; IUnknown::IUnknown, COMDAT
$LN3:
	mov	QWORD PTR [rsp+8], rcx
	push	rdi
	mov	rax, QWORD PTR this$[rsp]
	pop	rdi
	ret	0
??0IUnknown@@QEAA@XZ ENDP				; IUnknown::IUnknown
_TEXT	ENDS
PUBLIC	==
PUBLIC	?NonDelegatingQueryInterface@CMediaControl@@UEAAJAEBU_GUID@@PEAPEAX@Z ; CMediaControl::NonDelegatingQueryInterface
EXTRN	?NonDelegatingQueryInterface@CUnknown@@UEAAJAEBU_GUID@@PEAPEAX@Z:PROC ; CUnknown::NonDelegatingQueryInterface
EXTRN	GetInterface:PROC
EXTRN	IID_IMediaControl:BYTE
;	COMDAT pdata
; File c:\downloads\wpf mediakit - copy\src\filters\baseclasses\ctlutil.cpp
pdata	SEGMENT
$pdata$?NonDelegatingQueryInterface@CMediaControl@@UEAAJAEBU_GUID@@PEAPEAX@Z DD imagerel $LN7
	DD	imagerel $LN7+208
	DD	imagerel $unwind$?NonDelegatingQueryInterface@CMediaControl@@UEAAJAEBU_GUID@@PEAPEAX@Z
pdata	ENDS
;	COMDAT xdata
xdata	SEGMENT
$unwind$?NonDelegatingQueryInterface@CMediaControl@@UEAAJAEBU_GUID@@PEAPEAX@Z DD 022801H
	DD	070103214H
; Function compile flags: /Odtp /RTCsu
xdata	ENDS
;	COMDAT ?NonDelegatingQueryInterface@CMediaControl@@UEAAJAEBU_GUID@@PEAPEAX@Z
_TEXT	SEGMENT
this$ = 48
riid$ = 56
ppv$ = 64
?NonDelegatingQueryInterface@CMediaControl@@UEAAJAEBU_GUID@@PEAPEAX@Z PROC ; CMediaControl::NonDelegatingQueryInterface, COMDAT
; Line 178
$LN7:
	mov	QWORD PTR [rsp+24], r8
	mov	QWORD PTR [rsp+16], rdx
	mov	QWORD PTR [rsp+8], rcx
	push	rdi
	sub	rsp, 32					; 00000020H
	mov	rdi, rsp
	mov	ecx, 8
	mov	eax, -858993460				; ccccccccH
	rep stosd
	mov	rcx, QWORD PTR [rsp+48]
; Line 179
	mov	edx, 8
	mov	rcx, QWORD PTR ppv$[rsp]
	call	QWORD PTR __imp_IsBadReadPtr
	cmp	eax, 1
	jne	SHORT $LN4@NonDelegat
	mov	r8d, 179				; 000000b3H
	lea	rdx, OFFSET FLAT:$SG82394
	lea	rcx, OFFSET FLAT:$SG82395
	call	?DbgBreakPoint@@YAXPEB_W0H@Z		; DbgBreakPoint
$LN4@NonDelegat:
	mov	edx, 8
	mov	rcx, QWORD PTR ppv$[rsp]
	call	QWORD PTR __imp_IsBadWritePtr
	cmp	eax, 1
	jne	SHORT $LN3@NonDelegat
	mov	r8d, 179				; 000000b3H
	lea	rdx, OFFSET FLAT:$SG82399
	lea	rcx, OFFSET FLAT:$SG82400
	call	?DbgBreakPoint@@YAXPEB_W0H@Z		; DbgBreakPoint
$LN3@NonDelegat:
; Line 180
	lea	rdx, OFFSET FLAT:IID_IMediaControl
	mov	rcx, QWORD PTR riid$[rsp]
	call	==
	test	eax, eax
	je	SHORT $LN2@NonDelegat
; Line 181
	mov	rax, QWORD PTR this$[rsp]
	sub	rax, 8
	mov	rdx, QWORD PTR ppv$[rsp]
	mov	rcx, rax
	call	GetInterface
	jmp	SHORT $LN5@NonDelegat
; Line 182
	jmp	SHORT $LN1@NonDelegat
$LN2@NonDelegat:
; Line 183
	mov	rax, QWORD PTR this$[rsp]
	mov	r8, QWORD PTR ppv$[rsp]
	mov	rdx, QWORD PTR riid$[rsp]
	mov	rcx, rax
	call	?NonDelegatingQueryInterface@CUnknown@@UEAAJAEBU_GUID@@PEAPEAX@Z ; CUnknown::NonDelegatingQueryInterface
$LN1@NonDelegat:
$LN5@NonDelegat:
; Line 185
	add	rsp, 32					; 00000020H
	pop	rdi
	ret	0
?NonDelegatingQueryInterface@CMediaControl@@UEAAJAEBU_GUID@@PEAPEAX@Z ENDP ; CMediaControl::NonDelegatingQueryInterface
_TEXT	ENDS
PUBLIC	IsEqualGUID
;	COMDAT pdata
; File c:\program files (x86)\microsoft sdks\windows\v7.0a\include\guiddef.h
pdata	SEGMENT
$pdata$== DD	imagerel $LN3
	DD	imagerel $LN3+56
	DD	imagerel $unwind$==
pdata	ENDS
;	COMDAT xdata
xdata	SEGMENT
$unwind$== DD	022301H
	DD	0700b320fH
; Function compile flags: /Odtp /RTCsu
xdata	ENDS
;	COMDAT ==
_TEXT	SEGMENT
guidOne$ = 48
guidOther$ = 56
==	PROC						; COMDAT
; Line 193
$LN3:
	mov	QWORD PTR [rsp+16], rdx
	mov	QWORD PTR [rsp+8], rcx
	push	rdi
	sub	rsp, 32					; 00000020H
	mov	rdi, rsp
	mov	ecx, 8
	mov	eax, -858993460				; ccccccccH
	rep stosd
	mov	rcx, QWORD PTR [rsp+48]
; Line 194
	mov	rdx, QWORD PTR guidOther$[rsp]
	mov	rcx, QWORD PTR guidOne$[rsp]
	call	IsEqualGUID
; Line 195
	add	rsp, 32					; 00000020H
	pop	rdi
	ret	0
==	ENDP
_TEXT	ENDS
EXTRN	memcmp:PROC
;	COMDAT pdata
pdata	SEGMENT
$pdata$IsEqualGUID DD imagerel $LN5
	DD	imagerel $LN5+88
	DD	imagerel $unwind$IsEqualGUID
pdata	ENDS
;	COMDAT xdata
xdata	SEGMENT
$unwind$IsEqualGUID DD 022301H
	DD	0700b520fH
; Function compile flags: /Odtp /RTCsu
xdata	ENDS
;	COMDAT IsEqualGUID
_TEXT	SEGMENT
tv69 = 32
rguid1$ = 64
rguid2$ = 72
IsEqualGUID PROC					; COMDAT
; Line 160
$LN5:
	mov	QWORD PTR [rsp+16], rdx
	mov	QWORD PTR [rsp+8], rcx
	push	rdi
	sub	rsp, 48					; 00000030H
	mov	rdi, rsp
	mov	ecx, 12
	mov	eax, -858993460				; ccccccccH
	rep stosd
	mov	rcx, QWORD PTR [rsp+64]
; Line 161
	mov	r8d, 16
	mov	rdx, QWORD PTR rguid2$[rsp]
	mov	rcx, QWORD PTR rguid1$[rsp]
	call	memcmp
	test	eax, eax
	jne	SHORT $LN3@IsEqualGUI
	mov	DWORD PTR tv69[rsp], 1
	jmp	SHORT $LN4@IsEqualGUI
$LN3@IsEqualGUI:
	mov	DWORD PTR tv69[rsp], 0
$LN4@IsEqualGUI:
	mov	eax, DWORD PTR tv69[rsp]
; Line 162
	add	rsp, 48					; 00000030H
	pop	rdi
	ret	0
IsEqualGUID ENDP
_TEXT	ENDS
PUBLIC	?GetTypeInfoCount@CMediaControl@@UEAAJPEAI@Z	; CMediaControl::GetTypeInfoCount
;	COMDAT pdata
; File c:\downloads\wpf mediakit - copy\src\filters\baseclasses\ctlutil.cpp
pdata	SEGMENT
$pdata$?GetTypeInfoCount@CMediaControl@@UEAAJPEAI@Z DD imagerel $LN3
	DD	imagerel $LN3+63
	DD	imagerel $unwind$?GetTypeInfoCount@CMediaControl@@UEAAJPEAI@Z
pdata	ENDS
;	COMDAT xdata
xdata	SEGMENT
$unwind$?GetTypeInfoCount@CMediaControl@@UEAAJPEAI@Z DD 022301H
	DD	0700b320fH
; Function compile flags: /Odtp /RTCsu
xdata	ENDS
;	COMDAT ?GetTypeInfoCount@CMediaControl@@UEAAJPEAI@Z
_TEXT	SEGMENT
this$ = 48
pctinfo$ = 56
?GetTypeInfoCount@CMediaControl@@UEAAJPEAI@Z PROC	; CMediaControl::GetTypeInfoCount, COMDAT
; Line 192
$LN3:
	mov	QWORD PTR [rsp+16], rdx
	mov	QWORD PTR [rsp+8], rcx
	push	rdi
	sub	rsp, 32					; 00000020H
	mov	rdi, rsp
	mov	ecx, 8
	mov	eax, -858993460				; ccccccccH
	rep stosd
	mov	rcx, QWORD PTR [rsp+48]
; Line 193
	mov	rax, QWORD PTR this$[rsp]
	add	rax, 40					; 00000028H
	mov	rdx, QWORD PTR pctinfo$[rsp]
	mov	rcx, rax
	call	?GetTypeInfoCount@CBaseDispatch@@QEAAJPEAI@Z ; CBaseDispatch::GetTypeInfoCount
; Line 194
	add	rsp, 32					; 00000020H
	pop	rdi
	ret	0
?GetTypeInfoCount@CMediaControl@@UEAAJPEAI@Z ENDP	; CMediaControl::GetTypeInfoCount
_TEXT	ENDS
PUBLIC	?GetTypeInfo@CMediaControl@@UEAAJIKPEAPEAUITypeInfo@@@Z ; CMediaControl::GetTypeInfo
;	COMDAT pdata
pdata	SEGMENT
$pdata$?GetTypeInfo@CMediaControl@@UEAAJIKPEAPEAUITypeInfo@@@Z DD imagerel $LN3
	DD	imagerel $LN3+94
	DD	imagerel $unwind$?GetTypeInfo@CMediaControl@@UEAAJIKPEAPEAUITypeInfo@@@Z
pdata	ENDS
;	COMDAT xdata
xdata	SEGMENT
$unwind$?GetTypeInfo@CMediaControl@@UEAAJIKPEAPEAUITypeInfo@@@Z DD 022c01H
	DD	070145218H
; Function compile flags: /Odtp /RTCsu
xdata	ENDS
;	COMDAT ?GetTypeInfo@CMediaControl@@UEAAJIKPEAPEAUITypeInfo@@@Z
_TEXT	SEGMENT
this$ = 64
itinfo$ = 72
lcid$ = 80
pptinfo$ = 88
?GetTypeInfo@CMediaControl@@UEAAJIKPEAPEAUITypeInfo@@@Z PROC ; CMediaControl::GetTypeInfo, COMDAT
; Line 204
$LN3:
	mov	QWORD PTR [rsp+32], r9
	mov	DWORD PTR [rsp+24], r8d
	mov	DWORD PTR [rsp+16], edx
	mov	QWORD PTR [rsp+8], rcx
	push	rdi
	sub	rsp, 48					; 00000030H
	mov	rdi, rsp
	mov	ecx, 12
	mov	eax, -858993460				; ccccccccH
	rep stosd
	mov	rcx, QWORD PTR [rsp+64]
; Line 209
	mov	rax, QWORD PTR this$[rsp]
	add	rax, 40					; 00000028H
	mov	rcx, QWORD PTR pptinfo$[rsp]
	mov	QWORD PTR [rsp+32], rcx
	mov	r9d, DWORD PTR lcid$[rsp]
	mov	r8d, DWORD PTR itinfo$[rsp]
	lea	rdx, OFFSET FLAT:IID_IMediaControl
	mov	rcx, rax
	call	?GetTypeInfo@CBaseDispatch@@QEAAJAEBU_GUID@@IKPEAPEAUITypeInfo@@@Z ; CBaseDispatch::GetTypeInfo
; Line 210
	add	rsp, 48					; 00000030H
	pop	rdi
	ret	0
?GetTypeInfo@CMediaControl@@UEAAJIKPEAPEAUITypeInfo@@@Z ENDP ; CMediaControl::GetTypeInfo
_TEXT	ENDS
PUBLIC	?GetIDsOfNames@CMediaControl@@UEAAJAEBU_GUID@@PEAPEA_WIKPEAJ@Z ; CMediaControl::GetIDsOfNames
;	COMDAT pdata
pdata	SEGMENT
$pdata$?GetIDsOfNames@CMediaControl@@UEAAJAEBU_GUID@@PEAPEA_WIKPEAJ@Z DD imagerel $LN3
	DD	imagerel $LN3+103
	DD	imagerel $unwind$?GetIDsOfNames@CMediaControl@@UEAAJAEBU_GUID@@PEAPEA_WIKPEAJ@Z
pdata	ENDS
;	COMDAT xdata
xdata	SEGMENT
$unwind$?GetIDsOfNames@CMediaControl@@UEAAJAEBU_GUID@@PEAPEA_WIKPEAJ@Z DD 022d01H
	DD	070155219H
; Function compile flags: /Odtp /RTCsu
xdata	ENDS
;	COMDAT ?GetIDsOfNames@CMediaControl@@UEAAJAEBU_GUID@@PEAPEA_WIKPEAJ@Z
_TEXT	SEGMENT
this$ = 64
riid$ = 72
rgszNames$ = 80
cNames$ = 88
lcid$ = 96
rgdispid$ = 104
?GetIDsOfNames@CMediaControl@@UEAAJAEBU_GUID@@PEAPEA_WIKPEAJ@Z PROC ; CMediaControl::GetIDsOfNames, COMDAT
; Line 220
$LN3:
	mov	DWORD PTR [rsp+32], r9d
	mov	QWORD PTR [rsp+24], r8
	mov	QWORD PTR [rsp+16], rdx
	mov	QWORD PTR [rsp+8], rcx
	push	rdi
	sub	rsp, 48					; 00000030H
	mov	rdi, rsp
	mov	ecx, 12
	mov	eax, -858993460				; ccccccccH
	rep stosd
	mov	rcx, QWORD PTR [rsp+64]
; Line 226
	mov	rax, QWORD PTR this$[rsp]
	add	rax, 40					; 00000028H
	mov	rcx, QWORD PTR rgdispid$[rsp]
	mov	QWORD PTR [rsp+40], rcx
	mov	ecx, DWORD PTR lcid$[rsp]
	mov	DWORD PTR [rsp+32], ecx
	mov	r9d, DWORD PTR cNames$[rsp]
	mov	r8, QWORD PTR rgszNames$[rsp]
	lea	rdx, OFFSET FLAT:IID_IMediaControl
	mov	rcx, rax
	call	?GetIDsOfNames@CBaseDispatch@@QEAAJAEBU_GUID@@PEAPEA_WIKPEAJ@Z ; CBaseDispatch::GetIDsOfNames
; Line 227
	add	rsp, 48					; 00000030H
	pop	rdi
	ret	0
?GetIDsOfNames@CMediaControl@@UEAAJAEBU_GUID@@PEAPEA_WIKPEAJ@Z ENDP ; CMediaControl::GetIDsOfNames
_TEXT	ENDS
PUBLIC	!=
PUBLIC	?Invoke@CMediaControl@@UEAAJJAEBU_GUID@@KGPEAUtagDISPPARAMS@@PEAUtagVARIANT@@PEAUtagEXCEPINFO@@PEAI@Z ; CMediaControl::Invoke
EXTRN	GUID_NULL:BYTE
;	COMDAT pdata
pdata	SEGMENT
$pdata$?Invoke@CMediaControl@@UEAAJJAEBU_GUID@@KGPEAUtagDISPPARAMS@@PEAUtagVARIANT@@PEAUtagEXCEPINFO@@PEAI@Z DD imagerel $LN5
	DD	imagerel $LN5+264
	DD	imagerel $unwind$?Invoke@CMediaControl@@UEAAJJAEBU_GUID@@KGPEAUtagDISPPARAMS@@PEAUtagVARIANT@@PEAUtagEXCEPINFO@@PEAI@Z
pdata	ENDS
;	COMDAT xdata
xdata	SEGMENT
$unwind$?Invoke@CMediaControl@@UEAAJJAEBU_GUID@@KGPEAUtagDISPPARAMS@@PEAUtagVARIANT@@PEAUtagEXCEPINFO@@PEAI@Z DD 022c01H
	DD	07014b218H
xdata	ENDS
;	COMDAT CONST
CONST	SEGMENT
?Invoke@CMediaControl@@UEAAJJAEBU_GUID@@KGPEAUtagDISPPARAMS@@PEAUtagVARIANT@@PEAUtagEXCEPINFO@@PEAI@Z$rtcName$0 DB 070H ; CMediaControl::Invoke
	DB	074H
	DB	069H
	DB	00H
	ORG $+12
?Invoke@CMediaControl@@UEAAJJAEBU_GUID@@KGPEAUtagDISPPARAMS@@PEAUtagVARIANT@@PEAUtagEXCEPINFO@@PEAI@Z$rtcVarDesc DD 048H ; CMediaControl::Invoke
	DD	08H
	DQ	FLAT:?Invoke@CMediaControl@@UEAAJJAEBU_GUID@@KGPEAUtagDISPPARAMS@@PEAUtagVARIANT@@PEAUtagEXCEPINFO@@PEAI@Z$rtcName$0
	ORG $+48
?Invoke@CMediaControl@@UEAAJJAEBU_GUID@@KGPEAUtagDISPPARAMS@@PEAUtagVARIANT@@PEAUtagEXCEPINFO@@PEAI@Z$rtcFrameData DD 01H ; CMediaControl::Invoke
	DD	00H
	DQ	FLAT:?Invoke@CMediaControl@@UEAAJJAEBU_GUID@@KGPEAUtagDISPPARAMS@@PEAUtagVARIANT@@PEAUtagEXCEPINFO@@PEAI@Z$rtcVarDesc
; Function compile flags: /Odtp /RTCsu
CONST	ENDS
;	COMDAT ?Invoke@CMediaControl@@UEAAJJAEBU_GUID@@KGPEAUtagDISPPARAMS@@PEAUtagVARIANT@@PEAUtagEXCEPINFO@@PEAI@Z
_TEXT	SEGMENT
pti$ = 72
hr$ = 84
this$ = 112
dispidMember$ = 120
riid$ = 128
lcid$ = 136
wFlags$ = 144
pdispparams$ = 152
pvarResult$ = 160
pexcepinfo$ = 168
puArgErr$ = 176
?Invoke@CMediaControl@@UEAAJJAEBU_GUID@@KGPEAUtagDISPPARAMS@@PEAUtagVARIANT@@PEAUtagEXCEPINFO@@PEAI@Z PROC ; CMediaControl::Invoke, COMDAT
; Line 240
$LN5:
	mov	DWORD PTR [rsp+32], r9d
	mov	QWORD PTR [rsp+24], r8
	mov	DWORD PTR [rsp+16], edx
	mov	QWORD PTR [rsp+8], rcx
	push	rdi
	sub	rsp, 96					; 00000060H
	mov	rdi, rsp
	mov	ecx, 24
	mov	eax, -858993460				; ccccccccH
	rep stosd
	mov	rcx, QWORD PTR [rsp+112]
; Line 242
	mov	rdx, QWORD PTR riid$[rsp]
	lea	rcx, OFFSET FLAT:GUID_NULL
	call	!=
	test	eax, eax
	je	SHORT $LN2@Invoke
; Line 243
	mov	eax, -2147352575			; ffffffff80020001H
	jmp	$LN3@Invoke
$LN2@Invoke:
; Line 247
	mov	rax, QWORD PTR this$[rsp]
	mov	rax, QWORD PTR [rax]
	lea	r9, QWORD PTR pti$[rsp]
	mov	r8d, DWORD PTR lcid$[rsp]
	xor	edx, edx
	mov	rcx, QWORD PTR this$[rsp]
	call	QWORD PTR [rax+32]
	mov	DWORD PTR hr$[rsp], eax
; Line 249
	cmp	DWORD PTR hr$[rsp], 0
	jge	SHORT $LN1@Invoke
; Line 250
	mov	eax, DWORD PTR hr$[rsp]
	jmp	SHORT $LN3@Invoke
$LN1@Invoke:
; Line 260
	mov	rax, QWORD PTR pti$[rsp]
	mov	rax, QWORD PTR [rax]
	mov	rcx, QWORD PTR puArgErr$[rsp]
	mov	QWORD PTR [rsp+56], rcx
	mov	rcx, QWORD PTR pexcepinfo$[rsp]
	mov	QWORD PTR [rsp+48], rcx
	mov	rcx, QWORD PTR pvarResult$[rsp]
	mov	QWORD PTR [rsp+40], rcx
	mov	rcx, QWORD PTR pdispparams$[rsp]
	mov	QWORD PTR [rsp+32], rcx
	movzx	r9d, WORD PTR wFlags$[rsp]
	mov	r8d, DWORD PTR dispidMember$[rsp]
	mov	rdx, QWORD PTR this$[rsp]
	mov	rcx, QWORD PTR pti$[rsp]
	call	QWORD PTR [rax+88]
	mov	DWORD PTR hr$[rsp], eax
; Line 262
	mov	rax, QWORD PTR pti$[rsp]
	mov	rax, QWORD PTR [rax]
	mov	rcx, QWORD PTR pti$[rsp]
	call	QWORD PTR [rax+16]
; Line 263
	mov	eax, DWORD PTR hr$[rsp]
$LN3@Invoke:
; Line 264
	mov	rdi, rax
	mov	rcx, rsp
	lea	rdx, OFFSET FLAT:?Invoke@CMediaControl@@UEAAJJAEBU_GUID@@KGPEAUtagDISPPARAMS@@PEAUtagVARIANT@@PEAUtagEXCEPINFO@@PEAI@Z$rtcFrameData
	call	_RTC_CheckStackVars
	mov	rax, rdi
	add	rsp, 96					; 00000060H
	pop	rdi
	ret	0
?Invoke@CMediaControl@@UEAAJJAEBU_GUID@@KGPEAUtagDISPPARAMS@@PEAUtagVARIANT@@PEAUtagEXCEPINFO@@PEAI@Z ENDP ; CMediaControl::Invoke
_TEXT	ENDS
;	COMDAT pdata
; File c:\program files (x86)\microsoft sdks\windows\v7.0a\include\guiddef.h
pdata	SEGMENT
$pdata$!= DD	imagerel $LN5
	DD	imagerel $LN5+82
	DD	imagerel $unwind$!=
pdata	ENDS
;	COMDAT xdata
xdata	SEGMENT
$unwind$!= DD	022301H
	DD	0700b520fH
; Function compile flags: /Odtp /RTCsu
xdata	ENDS
;	COMDAT !=
_TEXT	SEGMENT
tv68 = 32
guidOne$ = 64
guidOther$ = 72
!=	PROC						; COMDAT
; Line 198
$LN5:
	mov	QWORD PTR [rsp+16], rdx
	mov	QWORD PTR [rsp+8], rcx
	push	rdi
	sub	rsp, 48					; 00000030H
	mov	rdi, rsp
	mov	ecx, 12
	mov	eax, -858993460				; ccccccccH
	rep stosd
	mov	rcx, QWORD PTR [rsp+64]
; Line 199
	mov	rdx, QWORD PTR guidOther$[rsp]
	mov	rcx, QWORD PTR guidOne$[rsp]
	call	==
	test	eax, eax
	jne	SHORT $LN3@
	mov	DWORD PTR tv68[rsp], 1
	jmp	SHORT $LN4@
$LN3@:
	mov	DWORD PTR tv68[rsp], 0
$LN4@:
	mov	eax, DWORD PTR tv68[rsp]
; Line 200
	add	rsp, 48					; 00000030H
	pop	rdi
	ret	0
!=	ENDP
_TEXT	ENDS
PUBLIC	??0IMediaEventEx@@QEAA@XZ			; IMediaEventEx::IMediaEventEx
PUBLIC	??0CMediaEvent@@QEAA@PEB_WPEAUIUnknown@@@Z	; CMediaEvent::CMediaEvent
;	COMDAT pdata
; File c:\downloads\wpf mediakit - copy\src\filters\baseclasses\ctlutil.cpp
pdata	SEGMENT
$pdata$??0CMediaEvent@@QEAA@PEB_WPEAUIUnknown@@@Z DD imagerel $LN5
	DD	imagerel $LN5+116
	DD	imagerel $unwind$??0CMediaEvent@@QEAA@PEB_WPEAUIUnknown@@@Z
pdata	ENDS
;	COMDAT pdata
pdata	SEGMENT
$pdata$?dtor$0@?0???0CMediaEvent@@QEAA@PEB_WPEAUIUnknown@@@Z@4HA DD imagerel ?dtor$0@?0???0CMediaEvent@@QEAA@PEB_WPEAUIUnknown@@@Z@4HA
	DD	imagerel ?dtor$0@?0???0CMediaEvent@@QEAA@PEB_WPEAUIUnknown@@@Z@4HA+39
	DD	imagerel $unwind$?dtor$0@?0???0CMediaEvent@@QEAA@PEB_WPEAUIUnknown@@@Z@4HA
pdata	ENDS
;	COMDAT xdata
xdata	SEGMENT
$ip2state$??0CMediaEvent@@QEAA@PEB_WPEAUIUnknown@@@Z DD imagerel ??0CMediaEvent@@QEAA@PEB_WPEAUIUnknown@@@Z
	DD	0ffffffffH
	DD	imagerel ??0CMediaEvent@@QEAA@PEB_WPEAUIUnknown@@@Z+87
	DD	00H
	DD	imagerel ??0CMediaEvent@@QEAA@PEB_WPEAUIUnknown@@@Z+105
	DD	0ffffffffH
xdata	ENDS
;	COMDAT xdata
xdata	SEGMENT
$unwind$?dtor$0@?0???0CMediaEvent@@QEAA@PEB_WPEAUIUnknown@@@Z@4HA DD 031001H
	DD	0700c4210H
	DD	0500bH
xdata	ENDS
;	COMDAT xdata
xdata	SEGMENT
$unwind$??0CMediaEvent@@QEAA@PEB_WPEAUIUnknown@@@Z DD 023111H
	DD	070105214H
	DD	imagerel __CxxFrameHandler3
	DD	imagerel $cppxdata$??0CMediaEvent@@QEAA@PEB_WPEAUIUnknown@@@Z
xdata	ENDS
;	COMDAT CONST
CONST	SEGMENT
$cppxdata$??0CMediaEvent@@QEAA@PEB_WPEAUIUnknown@@@Z DD 019930522H
	DD	01H
	DD	imagerel $stateUnwindMap$??0CMediaEvent@@QEAA@PEB_WPEAUIUnknown@@@Z
	DD	00H
	DD	00H
	DD	03H
	DD	imagerel $ip2state$??0CMediaEvent@@QEAA@PEB_WPEAUIUnknown@@@Z
	DD	020H
	DD	00H
	DD	01H
CONST	ENDS
;	COMDAT xdata
xdata	SEGMENT
$stateUnwindMap$??0CMediaEvent@@QEAA@PEB_WPEAUIUnknown@@@Z DD 0ffffffffH
	DD	imagerel ?dtor$0@?0???0CMediaEvent@@QEAA@PEB_WPEAUIUnknown@@@Z@4HA
; Function compile flags: /Odtp /RTCsu
xdata	ENDS
;	COMDAT ??0CMediaEvent@@QEAA@PEB_WPEAUIUnknown@@@Z
_TEXT	SEGMENT
$T85520 = 32
this$ = 64
name$ = 72
pUnk$ = 80
??0CMediaEvent@@QEAA@PEB_WPEAUIUnknown@@@Z PROC		; CMediaEvent::CMediaEvent, COMDAT
; Line 272
$LN5:
	mov	QWORD PTR [rsp+24], r8
	mov	QWORD PTR [rsp+16], rdx
	mov	QWORD PTR [rsp+8], rcx
	push	rdi
	sub	rsp, 48					; 00000030H
	mov	rdi, rsp
	mov	ecx, 12
	mov	eax, -858993460				; ccccccccH
	rep stosd
	mov	rcx, QWORD PTR [rsp+64]
	mov	QWORD PTR $T85520[rsp], -2
	mov	rcx, QWORD PTR this$[rsp]
	call	??0IMediaEventEx@@QEAA@XZ
	mov	rax, QWORD PTR this$[rsp]
	add	rax, 8
	mov	r8, QWORD PTR pUnk$[rsp]
	mov	rdx, QWORD PTR name$[rsp]
	mov	rcx, rax
	call	??0CUnknown@@QEAA@PEB_WPEAUIUnknown@@@Z	; CUnknown::CUnknown
	npad	1
	mov	rax, QWORD PTR this$[rsp]
	add	rax, 40					; 00000028H
	mov	rcx, rax
	call	??0CBaseDispatch@@QEAA@XZ		; CBaseDispatch::CBaseDispatch
	npad	1
; Line 273
	mov	rax, QWORD PTR this$[rsp]
	add	rsp, 48					; 00000030H
	pop	rdi
	ret	0
??0CMediaEvent@@QEAA@PEB_WPEAUIUnknown@@@Z ENDP		; CMediaEvent::CMediaEvent
; Function compile flags: /Odtp /RTCsu
_TEXT	ENDS
;	COMDAT text$x
text$x	SEGMENT
$T85520 = 32
this$ = 64
name$ = 72
pUnk$ = 80
?dtor$0@?0???0CMediaEvent@@QEAA@PEB_WPEAUIUnknown@@@Z@4HA PROC ; `CMediaEvent::CMediaEvent'::`1'::dtor$0
	mov	QWORD PTR [rsp+8], rcx
	mov	QWORD PTR [rsp+16], rdx
	push	rbp
	push	rdi
	sub	rsp, 40					; 00000028H
	mov	rbp, rdx
	mov	rcx, QWORD PTR this$[rbp]
	add	rcx, 8
	call	??1CUnknown@@UEAA@XZ			; CUnknown::~CUnknown
	add	rsp, 40					; 00000028H
	pop	rdi
	pop	rbp
	ret	0
?dtor$0@?0???0CMediaEvent@@QEAA@PEB_WPEAUIUnknown@@@Z@4HA ENDP ; `CMediaEvent::CMediaEvent'::`1'::dtor$0
text$x	ENDS
PUBLIC	??0IMediaEvent@@QEAA@XZ				; IMediaEvent::IMediaEvent
;	COMDAT pdata
pdata	SEGMENT
$pdata$??0IMediaEventEx@@QEAA@XZ DD imagerel $LN3
	DD	imagerel $LN3+51
	DD	imagerel $unwind$??0IMediaEventEx@@QEAA@XZ
pdata	ENDS
;	COMDAT xdata
xdata	SEGMENT
$unwind$??0IMediaEventEx@@QEAA@XZ DD 021e01H
	DD	07006320aH
; Function compile flags: /Odtp /RTCsu
xdata	ENDS
;	COMDAT ??0IMediaEventEx@@QEAA@XZ
_TEXT	SEGMENT
this$ = 48
??0IMediaEventEx@@QEAA@XZ PROC				; IMediaEventEx::IMediaEventEx, COMDAT
$LN3:
	mov	QWORD PTR [rsp+8], rcx
	push	rdi
	sub	rsp, 32					; 00000020H
	mov	rdi, rsp
	mov	ecx, 8
	mov	eax, -858993460				; ccccccccH
	rep stosd
	mov	rcx, QWORD PTR [rsp+48]
	mov	rcx, QWORD PTR this$[rsp]
	call	??0IMediaEvent@@QEAA@XZ
	mov	rax, QWORD PTR this$[rsp]
	add	rsp, 32					; 00000020H
	pop	rdi
	ret	0
??0IMediaEventEx@@QEAA@XZ ENDP				; IMediaEventEx::IMediaEventEx
_TEXT	ENDS
;	COMDAT pdata
pdata	SEGMENT
$pdata$??0IMediaEvent@@QEAA@XZ DD imagerel $LN3
	DD	imagerel $LN3+51
	DD	imagerel $unwind$??0IMediaEvent@@QEAA@XZ
pdata	ENDS
;	COMDAT xdata
xdata	SEGMENT
$unwind$??0IMediaEvent@@QEAA@XZ DD 021e01H
	DD	07006320aH
; Function compile flags: /Odtp /RTCsu
xdata	ENDS
;	COMDAT ??0IMediaEvent@@QEAA@XZ
_TEXT	SEGMENT
this$ = 48
??0IMediaEvent@@QEAA@XZ PROC				; IMediaEvent::IMediaEvent, COMDAT
$LN3:
	mov	QWORD PTR [rsp+8], rcx
	push	rdi
	sub	rsp, 32					; 00000020H
	mov	rdi, rsp
	mov	ecx, 8
	mov	eax, -858993460				; ccccccccH
	rep stosd
	mov	rcx, QWORD PTR [rsp+48]
	mov	rcx, QWORD PTR this$[rsp]
	call	??0IDispatch@@QEAA@XZ
	mov	rax, QWORD PTR this$[rsp]
	add	rsp, 32					; 00000020H
	pop	rdi
	ret	0
??0IMediaEvent@@QEAA@XZ ENDP				; IMediaEvent::IMediaEvent
_TEXT	ENDS
PUBLIC	?NonDelegatingQueryInterface@CMediaEvent@@UEAAJAEBU_GUID@@PEAPEAX@Z ; CMediaEvent::NonDelegatingQueryInterface
EXTRN	IID_IMediaEventEx:BYTE
EXTRN	IID_IMediaEvent:BYTE
;	COMDAT pdata
pdata	SEGMENT
$pdata$?NonDelegatingQueryInterface@CMediaEvent@@UEAAJAEBU_GUID@@PEAPEAX@Z DD imagerel $LN8
	DD	imagerel $LN8+229
	DD	imagerel $unwind$?NonDelegatingQueryInterface@CMediaEvent@@UEAAJAEBU_GUID@@PEAPEAX@Z
pdata	ENDS
;	COMDAT xdata
xdata	SEGMENT
$unwind$?NonDelegatingQueryInterface@CMediaEvent@@UEAAJAEBU_GUID@@PEAPEAX@Z DD 022801H
	DD	070103214H
; Function compile flags: /Odtp /RTCsu
xdata	ENDS
;	COMDAT ?NonDelegatingQueryInterface@CMediaEvent@@UEAAJAEBU_GUID@@PEAPEAX@Z
_TEXT	SEGMENT
this$ = 48
riid$ = 56
ppv$ = 64
?NonDelegatingQueryInterface@CMediaEvent@@UEAAJAEBU_GUID@@PEAPEAX@Z PROC ; CMediaEvent::NonDelegatingQueryInterface, COMDAT
; Line 280
$LN8:
	mov	QWORD PTR [rsp+24], r8
	mov	QWORD PTR [rsp+16], rdx
	mov	QWORD PTR [rsp+8], rcx
	push	rdi
	sub	rsp, 32					; 00000020H
	mov	rdi, rsp
	mov	ecx, 8
	mov	eax, -858993460				; ccccccccH
	rep stosd
	mov	rcx, QWORD PTR [rsp+48]
; Line 281
	mov	edx, 8
	mov	rcx, QWORD PTR ppv$[rsp]
	call	QWORD PTR __imp_IsBadReadPtr
	cmp	eax, 1
	jne	SHORT $LN5@NonDelegat@2
	mov	r8d, 281				; 00000119H
	lea	rdx, OFFSET FLAT:$SG82463
	lea	rcx, OFFSET FLAT:$SG82464
	call	?DbgBreakPoint@@YAXPEB_W0H@Z		; DbgBreakPoint
$LN5@NonDelegat@2:
	mov	edx, 8
	mov	rcx, QWORD PTR ppv$[rsp]
	call	QWORD PTR __imp_IsBadWritePtr
	cmp	eax, 1
	jne	SHORT $LN4@NonDelegat@2
	mov	r8d, 281				; 00000119H
	lea	rdx, OFFSET FLAT:$SG82468
	lea	rcx, OFFSET FLAT:$SG82469
	call	?DbgBreakPoint@@YAXPEB_W0H@Z		; DbgBreakPoint
$LN4@NonDelegat@2:
; Line 282
	lea	rdx, OFFSET FLAT:IID_IMediaEvent
	mov	rcx, QWORD PTR riid$[rsp]
	call	==
	test	eax, eax
	jne	SHORT $LN2@NonDelegat@2
	lea	rdx, OFFSET FLAT:IID_IMediaEventEx
	mov	rcx, QWORD PTR riid$[rsp]
	call	==
	test	eax, eax
	je	SHORT $LN3@NonDelegat@2
$LN2@NonDelegat@2:
; Line 283
	mov	rax, QWORD PTR this$[rsp]
	sub	rax, 8
	mov	rdx, QWORD PTR ppv$[rsp]
	mov	rcx, rax
	call	GetInterface
	jmp	SHORT $LN6@NonDelegat@2
; Line 284
	jmp	SHORT $LN1@NonDelegat@2
$LN3@NonDelegat@2:
; Line 285
	mov	rax, QWORD PTR this$[rsp]
	mov	r8, QWORD PTR ppv$[rsp]
	mov	rdx, QWORD PTR riid$[rsp]
	mov	rcx, rax
	call	?NonDelegatingQueryInterface@CUnknown@@UEAAJAEBU_GUID@@PEAPEAX@Z ; CUnknown::NonDelegatingQueryInterface
$LN1@NonDelegat@2:
$LN6@NonDelegat@2:
; Line 287
	add	rsp, 32					; 00000020H
	pop	rdi
	ret	0
?NonDelegatingQueryInterface@CMediaEvent@@UEAAJAEBU_GUID@@PEAPEAX@Z ENDP ; CMediaEvent::NonDelegatingQueryInterface
_TEXT	ENDS
PUBLIC	?GetTypeInfoCount@CMediaEvent@@UEAAJPEAI@Z	; CMediaEvent::GetTypeInfoCount
;	COMDAT pdata
pdata	SEGMENT
$pdata$?GetTypeInfoCount@CMediaEvent@@UEAAJPEAI@Z DD imagerel $LN3
	DD	imagerel $LN3+63
	DD	imagerel $unwind$?GetTypeInfoCount@CMediaEvent@@UEAAJPEAI@Z
pdata	ENDS
;	COMDAT xdata
xdata	SEGMENT
$unwind$?GetTypeInfoCount@CMediaEvent@@UEAAJPEAI@Z DD 022301H
	DD	0700b320fH
; Function compile flags: /Odtp /RTCsu
xdata	ENDS
;	COMDAT ?GetTypeInfoCount@CMediaEvent@@UEAAJPEAI@Z
_TEXT	SEGMENT
this$ = 48
pctinfo$ = 56
?GetTypeInfoCount@CMediaEvent@@UEAAJPEAI@Z PROC		; CMediaEvent::GetTypeInfoCount, COMDAT
; Line 294
$LN3:
	mov	QWORD PTR [rsp+16], rdx
	mov	QWORD PTR [rsp+8], rcx
	push	rdi
	sub	rsp, 32					; 00000020H
	mov	rdi, rsp
	mov	ecx, 8
	mov	eax, -858993460				; ccccccccH
	rep stosd
	mov	rcx, QWORD PTR [rsp+48]
; Line 295
	mov	rax, QWORD PTR this$[rsp]
	add	rax, 40					; 00000028H
	mov	rdx, QWORD PTR pctinfo$[rsp]
	mov	rcx, rax
	call	?GetTypeInfoCount@CBaseDispatch@@QEAAJPEAI@Z ; CBaseDispatch::GetTypeInfoCount
; Line 296
	add	rsp, 32					; 00000020H
	pop	rdi
	ret	0
?GetTypeInfoCount@CMediaEvent@@UEAAJPEAI@Z ENDP		; CMediaEvent::GetTypeInfoCount
_TEXT	ENDS
PUBLIC	?GetTypeInfo@CMediaEvent@@UEAAJIKPEAPEAUITypeInfo@@@Z ; CMediaEvent::GetTypeInfo
;	COMDAT pdata
pdata	SEGMENT
$pdata$?GetTypeInfo@CMediaEvent@@UEAAJIKPEAPEAUITypeInfo@@@Z DD imagerel $LN3
	DD	imagerel $LN3+94
	DD	imagerel $unwind$?GetTypeInfo@CMediaEvent@@UEAAJIKPEAPEAUITypeInfo@@@Z
pdata	ENDS
;	COMDAT xdata
xdata	SEGMENT
$unwind$?GetTypeInfo@CMediaEvent@@UEAAJIKPEAPEAUITypeInfo@@@Z DD 022c01H
	DD	070145218H
; Function compile flags: /Odtp /RTCsu
xdata	ENDS
;	COMDAT ?GetTypeInfo@CMediaEvent@@UEAAJIKPEAPEAUITypeInfo@@@Z
_TEXT	SEGMENT
this$ = 64
itinfo$ = 72
lcid$ = 80
pptinfo$ = 88
?GetTypeInfo@CMediaEvent@@UEAAJIKPEAPEAUITypeInfo@@@Z PROC ; CMediaEvent::GetTypeInfo, COMDAT
; Line 306
$LN3:
	mov	QWORD PTR [rsp+32], r9
	mov	DWORD PTR [rsp+24], r8d
	mov	DWORD PTR [rsp+16], edx
	mov	QWORD PTR [rsp+8], rcx
	push	rdi
	sub	rsp, 48					; 00000030H
	mov	rdi, rsp
	mov	ecx, 12
	mov	eax, -858993460				; ccccccccH
	rep stosd
	mov	rcx, QWORD PTR [rsp+64]
; Line 311
	mov	rax, QWORD PTR this$[rsp]
	add	rax, 40					; 00000028H
	mov	rcx, QWORD PTR pptinfo$[rsp]
	mov	QWORD PTR [rsp+32], rcx
	mov	r9d, DWORD PTR lcid$[rsp]
	mov	r8d, DWORD PTR itinfo$[rsp]
	lea	rdx, OFFSET FLAT:IID_IMediaEvent
	mov	rcx, rax
	call	?GetTypeInfo@CBaseDispatch@@QEAAJAEBU_GUID@@IKPEAPEAUITypeInfo@@@Z ; CBaseDispatch::GetTypeInfo
; Line 312
	add	rsp, 48					; 00000030H
	pop	rdi
	ret	0
?GetTypeInfo@CMediaEvent@@UEAAJIKPEAPEAUITypeInfo@@@Z ENDP ; CMediaEvent::GetTypeInfo
_TEXT	ENDS
PUBLIC	?GetIDsOfNames@CMediaEvent@@UEAAJAEBU_GUID@@PEAPEA_WIKPEAJ@Z ; CMediaEvent::GetIDsOfNames
;	COMDAT pdata
pdata	SEGMENT
$pdata$?GetIDsOfNames@CMediaEvent@@UEAAJAEBU_GUID@@PEAPEA_WIKPEAJ@Z DD imagerel $LN3
	DD	imagerel $LN3+103
	DD	imagerel $unwind$?GetIDsOfNames@CMediaEvent@@UEAAJAEBU_GUID@@PEAPEA_WIKPEAJ@Z
pdata	ENDS
;	COMDAT xdata
xdata	SEGMENT
$unwind$?GetIDsOfNames@CMediaEvent@@UEAAJAEBU_GUID@@PEAPEA_WIKPEAJ@Z DD 022d01H
	DD	070155219H
; Function compile flags: /Odtp /RTCsu
xdata	ENDS
;	COMDAT ?GetIDsOfNames@CMediaEvent@@UEAAJAEBU_GUID@@PEAPEA_WIKPEAJ@Z
_TEXT	SEGMENT
this$ = 64
riid$ = 72
rgszNames$ = 80
cNames$ = 88
lcid$ = 96
rgdispid$ = 104
?GetIDsOfNames@CMediaEvent@@UEAAJAEBU_GUID@@PEAPEA_WIKPEAJ@Z PROC ; CMediaEvent::GetIDsOfNames, COMDAT
; Line 322
$LN3:
	mov	DWORD PTR [rsp+32], r9d
	mov	QWORD PTR [rsp+24], r8
	mov	QWORD PTR [rsp+16], rdx
	mov	QWORD PTR [rsp+8], rcx
	push	rdi
	sub	rsp, 48					; 00000030H
	mov	rdi, rsp
	mov	ecx, 12
	mov	eax, -858993460				; ccccccccH
	rep stosd
	mov	rcx, QWORD PTR [rsp+64]
; Line 328
	mov	rax, QWORD PTR this$[rsp]
	add	rax, 40					; 00000028H
	mov	rcx, QWORD PTR rgdispid$[rsp]
	mov	QWORD PTR [rsp+40], rcx
	mov	ecx, DWORD PTR lcid$[rsp]
	mov	DWORD PTR [rsp+32], ecx
	mov	r9d, DWORD PTR cNames$[rsp]
	mov	r8, QWORD PTR rgszNames$[rsp]
	lea	rdx, OFFSET FLAT:IID_IMediaEvent
	mov	rcx, rax
	call	?GetIDsOfNames@CBaseDispatch@@QEAAJAEBU_GUID@@PEAPEA_WIKPEAJ@Z ; CBaseDispatch::GetIDsOfNames
; Line 329
	add	rsp, 48					; 00000030H
	pop	rdi
	ret	0
?GetIDsOfNames@CMediaEvent@@UEAAJAEBU_GUID@@PEAPEA_WIKPEAJ@Z ENDP ; CMediaEvent::GetIDsOfNames
_TEXT	ENDS
PUBLIC	?Invoke@CMediaEvent@@UEAAJJAEBU_GUID@@KGPEAUtagDISPPARAMS@@PEAUtagVARIANT@@PEAUtagEXCEPINFO@@PEAI@Z ; CMediaEvent::Invoke
;	COMDAT pdata
pdata	SEGMENT
$pdata$?Invoke@CMediaEvent@@UEAAJJAEBU_GUID@@KGPEAUtagDISPPARAMS@@PEAUtagVARIANT@@PEAUtagEXCEPINFO@@PEAI@Z DD imagerel $LN5
	DD	imagerel $LN5+264
	DD	imagerel $unwind$?Invoke@CMediaEvent@@UEAAJJAEBU_GUID@@KGPEAUtagDISPPARAMS@@PEAUtagVARIANT@@PEAUtagEXCEPINFO@@PEAI@Z
pdata	ENDS
;	COMDAT xdata
xdata	SEGMENT
$unwind$?Invoke@CMediaEvent@@UEAAJJAEBU_GUID@@KGPEAUtagDISPPARAMS@@PEAUtagVARIANT@@PEAUtagEXCEPINFO@@PEAI@Z DD 022c01H
	DD	07014b218H
xdata	ENDS
;	COMDAT CONST
CONST	SEGMENT
?Invoke@CMediaEvent@@UEAAJJAEBU_GUID@@KGPEAUtagDISPPARAMS@@PEAUtagVARIANT@@PEAUtagEXCEPINFO@@PEAI@Z$rtcName$0 DB 070H ; CMediaEvent::Invoke
	DB	074H
	DB	069H
	DB	00H
	ORG $+12
?Invoke@CMediaEvent@@UEAAJJAEBU_GUID@@KGPEAUtagDISPPARAMS@@PEAUtagVARIANT@@PEAUtagEXCEPINFO@@PEAI@Z$rtcVarDesc DD 048H ; CMediaEvent::Invoke
	DD	08H
	DQ	FLAT:?Invoke@CMediaEvent@@UEAAJJAEBU_GUID@@KGPEAUtagDISPPARAMS@@PEAUtagVARIANT@@PEAUtagEXCEPINFO@@PEAI@Z$rtcName$0
	ORG $+48
?Invoke@CMediaEvent@@UEAAJJAEBU_GUID@@KGPEAUtagDISPPARAMS@@PEAUtagVARIANT@@PEAUtagEXCEPINFO@@PEAI@Z$rtcFrameData DD 01H ; CMediaEvent::Invoke
	DD	00H
	DQ	FLAT:?Invoke@CMediaEvent@@UEAAJJAEBU_GUID@@KGPEAUtagDISPPARAMS@@PEAUtagVARIANT@@PEAUtagEXCEPINFO@@PEAI@Z$rtcVarDesc
; Function compile flags: /Odtp /RTCsu
CONST	ENDS
;	COMDAT ?Invoke@CMediaEvent@@UEAAJJAEBU_GUID@@KGPEAUtagDISPPARAMS@@PEAUtagVARIANT@@PEAUtagEXCEPINFO@@PEAI@Z
_TEXT	SEGMENT
pti$ = 72
hr$ = 84
this$ = 112
dispidMember$ = 120
riid$ = 128
lcid$ = 136
wFlags$ = 144
pdispparams$ = 152
pvarResult$ = 160
pexcepinfo$ = 168
puArgErr$ = 176
?Invoke@CMediaEvent@@UEAAJJAEBU_GUID@@KGPEAUtagDISPPARAMS@@PEAUtagVARIANT@@PEAUtagEXCEPINFO@@PEAI@Z PROC ; CMediaEvent::Invoke, COMDAT
; Line 342
$LN5:
	mov	DWORD PTR [rsp+32], r9d
	mov	QWORD PTR [rsp+24], r8
	mov	DWORD PTR [rsp+16], edx
	mov	QWORD PTR [rsp+8], rcx
	push	rdi
	sub	rsp, 96					; 00000060H
	mov	rdi, rsp
	mov	ecx, 24
	mov	eax, -858993460				; ccccccccH
	rep stosd
	mov	rcx, QWORD PTR [rsp+112]
; Line 344
	mov	rdx, QWORD PTR riid$[rsp]
	lea	rcx, OFFSET FLAT:GUID_NULL
	call	!=
	test	eax, eax
	je	SHORT $LN2@Invoke@2
; Line 345
	mov	eax, -2147352575			; ffffffff80020001H
	jmp	$LN3@Invoke@2
$LN2@Invoke@2:
; Line 349
	mov	rax, QWORD PTR this$[rsp]
	mov	rax, QWORD PTR [rax]
	lea	r9, QWORD PTR pti$[rsp]
	mov	r8d, DWORD PTR lcid$[rsp]
	xor	edx, edx
	mov	rcx, QWORD PTR this$[rsp]
	call	QWORD PTR [rax+32]
	mov	DWORD PTR hr$[rsp], eax
; Line 351
	cmp	DWORD PTR hr$[rsp], 0
	jge	SHORT $LN1@Invoke@2
; Line 352
	mov	eax, DWORD PTR hr$[rsp]
	jmp	SHORT $LN3@Invoke@2
$LN1@Invoke@2:
; Line 362
	mov	rax, QWORD PTR pti$[rsp]
	mov	rax, QWORD PTR [rax]
	mov	rcx, QWORD PTR puArgErr$[rsp]
	mov	QWORD PTR [rsp+56], rcx
	mov	rcx, QWORD PTR pexcepinfo$[rsp]
	mov	QWORD PTR [rsp+48], rcx
	mov	rcx, QWORD PTR pvarResult$[rsp]
	mov	QWORD PTR [rsp+40], rcx
	mov	rcx, QWORD PTR pdispparams$[rsp]
	mov	QWORD PTR [rsp+32], rcx
	movzx	r9d, WORD PTR wFlags$[rsp]
	mov	r8d, DWORD PTR dispidMember$[rsp]
	mov	rdx, QWORD PTR this$[rsp]
	mov	rcx, QWORD PTR pti$[rsp]
	call	QWORD PTR [rax+88]
	mov	DWORD PTR hr$[rsp], eax
; Line 364
	mov	rax, QWORD PTR pti$[rsp]
	mov	rax, QWORD PTR [rax]
	mov	rcx, QWORD PTR pti$[rsp]
	call	QWORD PTR [rax+16]
; Line 365
	mov	eax, DWORD PTR hr$[rsp]
$LN3@Invoke@2:
; Line 366
	mov	rdi, rax
	mov	rcx, rsp
	lea	rdx, OFFSET FLAT:?Invoke@CMediaEvent@@UEAAJJAEBU_GUID@@KGPEAUtagDISPPARAMS@@PEAUtagVARIANT@@PEAUtagEXCEPINFO@@PEAI@Z$rtcFrameData
	call	_RTC_CheckStackVars
	mov	rax, rdi
	add	rsp, 96					; 00000060H
	pop	rdi
	ret	0
?Invoke@CMediaEvent@@UEAAJJAEBU_GUID@@KGPEAUtagDISPPARAMS@@PEAUtagVARIANT@@PEAUtagEXCEPINFO@@PEAI@Z ENDP ; CMediaEvent::Invoke
_TEXT	ENDS
PUBLIC	??0IMediaPosition@@QEAA@XZ			; IMediaPosition::IMediaPosition
PUBLIC	??0CMediaPosition@@QEAA@PEB_WPEAUIUnknown@@@Z	; CMediaPosition::CMediaPosition
;	COMDAT pdata
pdata	SEGMENT
$pdata$??0CMediaPosition@@QEAA@PEB_WPEAUIUnknown@@@Z DD imagerel $LN5
	DD	imagerel $LN5+116
	DD	imagerel $unwind$??0CMediaPosition@@QEAA@PEB_WPEAUIUnknown@@@Z
pdata	ENDS
;	COMDAT pdata
pdata	SEGMENT
$pdata$?dtor$0@?0???0CMediaPosition@@QEAA@PEB_WPEAUIUnknown@@@Z@4HA DD imagerel ?dtor$0@?0???0CMediaPosition@@QEAA@PEB_WPEAUIUnknown@@@Z@4HA
	DD	imagerel ?dtor$0@?0???0CMediaPosition@@QEAA@PEB_WPEAUIUnknown@@@Z@4HA+39
	DD	imagerel $unwind$?dtor$0@?0???0CMediaPosition@@QEAA@PEB_WPEAUIUnknown@@@Z@4HA
pdata	ENDS
;	COMDAT xdata
xdata	SEGMENT
$ip2state$??0CMediaPosition@@QEAA@PEB_WPEAUIUnknown@@@Z DD imagerel ??0CMediaPosition@@QEAA@PEB_WPEAUIUnknown@@@Z
	DD	0ffffffffH
	DD	imagerel ??0CMediaPosition@@QEAA@PEB_WPEAUIUnknown@@@Z+87
	DD	00H
	DD	imagerel ??0CMediaPosition@@QEAA@PEB_WPEAUIUnknown@@@Z+105
	DD	0ffffffffH
xdata	ENDS
;	COMDAT xdata
xdata	SEGMENT
$unwind$?dtor$0@?0???0CMediaPosition@@QEAA@PEB_WPEAUIUnknown@@@Z@4HA DD 031001H
	DD	0700c4210H
	DD	0500bH
xdata	ENDS
;	COMDAT xdata
xdata	SEGMENT
$unwind$??0CMediaPosition@@QEAA@PEB_WPEAUIUnknown@@@Z DD 023111H
	DD	070105214H
	DD	imagerel __CxxFrameHandler3
	DD	imagerel $cppxdata$??0CMediaPosition@@QEAA@PEB_WPEAUIUnknown@@@Z
xdata	ENDS
;	COMDAT CONST
CONST	SEGMENT
$cppxdata$??0CMediaPosition@@QEAA@PEB_WPEAUIUnknown@@@Z DD 019930522H
	DD	01H
	DD	imagerel $stateUnwindMap$??0CMediaPosition@@QEAA@PEB_WPEAUIUnknown@@@Z
	DD	00H
	DD	00H
	DD	03H
	DD	imagerel $ip2state$??0CMediaPosition@@QEAA@PEB_WPEAUIUnknown@@@Z
	DD	020H
	DD	00H
	DD	01H
CONST	ENDS
;	COMDAT xdata
xdata	SEGMENT
$stateUnwindMap$??0CMediaPosition@@QEAA@PEB_WPEAUIUnknown@@@Z DD 0ffffffffH
	DD	imagerel ?dtor$0@?0???0CMediaPosition@@QEAA@PEB_WPEAUIUnknown@@@Z@4HA
; Function compile flags: /Odtp /RTCsu
xdata	ENDS
;	COMDAT ??0CMediaPosition@@QEAA@PEB_WPEAUIUnknown@@@Z
_TEXT	SEGMENT
$T85598 = 32
this$ = 64
name$ = 72
pUnk$ = 80
??0CMediaPosition@@QEAA@PEB_WPEAUIUnknown@@@Z PROC	; CMediaPosition::CMediaPosition, COMDAT
; Line 374
$LN5:
	mov	QWORD PTR [rsp+24], r8
	mov	QWORD PTR [rsp+16], rdx
	mov	QWORD PTR [rsp+8], rcx
	push	rdi
	sub	rsp, 48					; 00000030H
	mov	rdi, rsp
	mov	ecx, 12
	mov	eax, -858993460				; ccccccccH
	rep stosd
	mov	rcx, QWORD PTR [rsp+64]
	mov	QWORD PTR $T85598[rsp], -2
	mov	rcx, QWORD PTR this$[rsp]
	call	??0IMediaPosition@@QEAA@XZ
	mov	rax, QWORD PTR this$[rsp]
	add	rax, 8
	mov	r8, QWORD PTR pUnk$[rsp]
	mov	rdx, QWORD PTR name$[rsp]
	mov	rcx, rax
	call	??0CUnknown@@QEAA@PEB_WPEAUIUnknown@@@Z	; CUnknown::CUnknown
	npad	1
	mov	rax, QWORD PTR this$[rsp]
	add	rax, 40					; 00000028H
	mov	rcx, rax
	call	??0CBaseDispatch@@QEAA@XZ		; CBaseDispatch::CBaseDispatch
	npad	1
; Line 375
	mov	rax, QWORD PTR this$[rsp]
	add	rsp, 48					; 00000030H
	pop	rdi
	ret	0
??0CMediaPosition@@QEAA@PEB_WPEAUIUnknown@@@Z ENDP	; CMediaPosition::CMediaPosition
; Function compile flags: /Odtp /RTCsu
_TEXT	ENDS
;	COMDAT text$x
text$x	SEGMENT
$T85598 = 32
this$ = 64
name$ = 72
pUnk$ = 80
?dtor$0@?0???0CMediaPosition@@QEAA@PEB_WPEAUIUnknown@@@Z@4HA PROC ; `CMediaPosition::CMediaPosition'::`1'::dtor$0
	mov	QWORD PTR [rsp+8], rcx
	mov	QWORD PTR [rsp+16], rdx
	push	rbp
	push	rdi
	sub	rsp, 40					; 00000028H
	mov	rbp, rdx
	mov	rcx, QWORD PTR this$[rbp]
	add	rcx, 8
	call	??1CUnknown@@UEAA@XZ			; CUnknown::~CUnknown
	add	rsp, 40					; 00000028H
	pop	rdi
	pop	rbp
	ret	0
?dtor$0@?0???0CMediaPosition@@QEAA@PEB_WPEAUIUnknown@@@Z@4HA ENDP ; `CMediaPosition::CMediaPosition'::`1'::dtor$0
text$x	ENDS
;	COMDAT pdata
pdata	SEGMENT
$pdata$??0IMediaPosition@@QEAA@XZ DD imagerel $LN3
	DD	imagerel $LN3+51
	DD	imagerel $unwind$??0IMediaPosition@@QEAA@XZ
pdata	ENDS
;	COMDAT xdata
xdata	SEGMENT
$unwind$??0IMediaPosition@@QEAA@XZ DD 021e01H
	DD	07006320aH
; Function compile flags: /Odtp /RTCsu
xdata	ENDS
;	COMDAT ??0IMediaPosition@@QEAA@XZ
_TEXT	SEGMENT
this$ = 48
??0IMediaPosition@@QEAA@XZ PROC				; IMediaPosition::IMediaPosition, COMDAT
$LN3:
	mov	QWORD PTR [rsp+8], rcx
	push	rdi
	sub	rsp, 32					; 00000020H
	mov	rdi, rsp
	mov	ecx, 8
	mov	eax, -858993460				; ccccccccH
	rep stosd
	mov	rcx, QWORD PTR [rsp+48]
	mov	rcx, QWORD PTR this$[rsp]
	call	??0IDispatch@@QEAA@XZ
	mov	rax, QWORD PTR this$[rsp]
	add	rsp, 32					; 00000020H
	pop	rdi
	ret	0
??0IMediaPosition@@QEAA@XZ ENDP				; IMediaPosition::IMediaPosition
_TEXT	ENDS
PUBLIC	??0CMediaPosition@@QEAA@PEB_WPEAUIUnknown@@PEAJ@Z ; CMediaPosition::CMediaPosition
;	COMDAT pdata
pdata	SEGMENT
$pdata$??0CMediaPosition@@QEAA@PEB_WPEAUIUnknown@@PEAJ@Z DD imagerel $LN5
	DD	imagerel $LN5+121
	DD	imagerel $unwind$??0CMediaPosition@@QEAA@PEB_WPEAUIUnknown@@PEAJ@Z
pdata	ENDS
;	COMDAT pdata
pdata	SEGMENT
$pdata$?dtor$0@?0???0CMediaPosition@@QEAA@PEB_WPEAUIUnknown@@PEAJ@Z@4HA DD imagerel ?dtor$0@?0???0CMediaPosition@@QEAA@PEB_WPEAUIUnknown@@PEAJ@Z@4HA
	DD	imagerel ?dtor$0@?0???0CMediaPosition@@QEAA@PEB_WPEAUIUnknown@@PEAJ@Z@4HA+39
	DD	imagerel $unwind$?dtor$0@?0???0CMediaPosition@@QEAA@PEB_WPEAUIUnknown@@PEAJ@Z@4HA
pdata	ENDS
;	COMDAT xdata
xdata	SEGMENT
$ip2state$??0CMediaPosition@@QEAA@PEB_WPEAUIUnknown@@PEAJ@Z DD imagerel ??0CMediaPosition@@QEAA@PEB_WPEAUIUnknown@@PEAJ@Z
	DD	0ffffffffH
	DD	imagerel ??0CMediaPosition@@QEAA@PEB_WPEAUIUnknown@@PEAJ@Z+92
	DD	00H
	DD	imagerel ??0CMediaPosition@@QEAA@PEB_WPEAUIUnknown@@PEAJ@Z+110
	DD	0ffffffffH
xdata	ENDS
;	COMDAT xdata
xdata	SEGMENT
$unwind$?dtor$0@?0???0CMediaPosition@@QEAA@PEB_WPEAUIUnknown@@PEAJ@Z@4HA DD 031001H
	DD	0700c4210H
	DD	0500bH
xdata	ENDS
;	COMDAT xdata
xdata	SEGMENT
$unwind$??0CMediaPosition@@QEAA@PEB_WPEAUIUnknown@@PEAJ@Z DD 023611H
	DD	070155219H
	DD	imagerel __CxxFrameHandler3
	DD	imagerel $cppxdata$??0CMediaPosition@@QEAA@PEB_WPEAUIUnknown@@PEAJ@Z
xdata	ENDS
;	COMDAT CONST
CONST	SEGMENT
$cppxdata$??0CMediaPosition@@QEAA@PEB_WPEAUIUnknown@@PEAJ@Z DD 019930522H
	DD	01H
	DD	imagerel $stateUnwindMap$??0CMediaPosition@@QEAA@PEB_WPEAUIUnknown@@PEAJ@Z
	DD	00H
	DD	00H
	DD	03H
	DD	imagerel $ip2state$??0CMediaPosition@@QEAA@PEB_WPEAUIUnknown@@PEAJ@Z
	DD	020H
	DD	00H
	DD	01H
CONST	ENDS
;	COMDAT xdata
xdata	SEGMENT
$stateUnwindMap$??0CMediaPosition@@QEAA@PEB_WPEAUIUnknown@@PEAJ@Z DD 0ffffffffH
	DD	imagerel ?dtor$0@?0???0CMediaPosition@@QEAA@PEB_WPEAUIUnknown@@PEAJ@Z@4HA
; Function compile flags: /Odtp /RTCsu
xdata	ENDS
;	COMDAT ??0CMediaPosition@@QEAA@PEB_WPEAUIUnknown@@PEAJ@Z
_TEXT	SEGMENT
$T85630 = 32
this$ = 64
name$ = 72
pUnk$ = 80
phr$ = 88
??0CMediaPosition@@QEAA@PEB_WPEAUIUnknown@@PEAJ@Z PROC	; CMediaPosition::CMediaPosition, COMDAT
; Line 381
$LN5:
	mov	QWORD PTR [rsp+32], r9
	mov	QWORD PTR [rsp+24], r8
	mov	QWORD PTR [rsp+16], rdx
	mov	QWORD PTR [rsp+8], rcx
	push	rdi
	sub	rsp, 48					; 00000030H
	mov	rdi, rsp
	mov	ecx, 12
	mov	eax, -858993460				; ccccccccH
	rep stosd
	mov	rcx, QWORD PTR [rsp+64]
	mov	QWORD PTR $T85630[rsp], -2
	mov	rcx, QWORD PTR this$[rsp]
	call	??0IMediaPosition@@QEAA@XZ
	mov	rax, QWORD PTR this$[rsp]
	add	rax, 8
	mov	r8, QWORD PTR pUnk$[rsp]
	mov	rdx, QWORD PTR name$[rsp]
	mov	rcx, rax
	call	??0CUnknown@@QEAA@PEB_WPEAUIUnknown@@@Z	; CUnknown::CUnknown
	npad	1
	mov	rax, QWORD PTR this$[rsp]
	add	rax, 40					; 00000028H
	mov	rcx, rax
	call	??0CBaseDispatch@@QEAA@XZ		; CBaseDispatch::CBaseDispatch
	npad	1
; Line 383
	mov	rax, QWORD PTR this$[rsp]
	add	rsp, 48					; 00000030H
	pop	rdi
	ret	0
??0CMediaPosition@@QEAA@PEB_WPEAUIUnknown@@PEAJ@Z ENDP	; CMediaPosition::CMediaPosition
; Function compile flags: /Odtp /RTCsu
_TEXT	ENDS
;	COMDAT text$x
text$x	SEGMENT
$T85630 = 32
this$ = 64
name$ = 72
pUnk$ = 80
phr$ = 88
?dtor$0@?0???0CMediaPosition@@QEAA@PEB_WPEAUIUnknown@@PEAJ@Z@4HA PROC ; `CMediaPosition::CMediaPosition'::`1'::dtor$0
	mov	QWORD PTR [rsp+8], rcx
	mov	QWORD PTR [rsp+16], rdx
	push	rbp
	push	rdi
	sub	rsp, 40					; 00000028H
	mov	rbp, rdx
	mov	rcx, QWORD PTR this$[rbp]
	add	rcx, 8
	call	??1CUnknown@@UEAA@XZ			; CUnknown::~CUnknown
	add	rsp, 40					; 00000028H
	pop	rdi
	pop	rbp
	ret	0
?dtor$0@?0???0CMediaPosition@@QEAA@PEB_WPEAUIUnknown@@PEAJ@Z@4HA ENDP ; `CMediaPosition::CMediaPosition'::`1'::dtor$0
text$x	ENDS
PUBLIC	?NonDelegatingQueryInterface@CMediaPosition@@UEAAJAEBU_GUID@@PEAPEAX@Z ; CMediaPosition::NonDelegatingQueryInterface
EXTRN	IID_IMediaPosition:BYTE
;	COMDAT pdata
pdata	SEGMENT
$pdata$?NonDelegatingQueryInterface@CMediaPosition@@UEAAJAEBU_GUID@@PEAPEAX@Z DD imagerel $LN7
	DD	imagerel $LN7+208
	DD	imagerel $unwind$?NonDelegatingQueryInterface@CMediaPosition@@UEAAJAEBU_GUID@@PEAPEAX@Z
pdata	ENDS
;	COMDAT xdata
xdata	SEGMENT
$unwind$?NonDelegatingQueryInterface@CMediaPosition@@UEAAJAEBU_GUID@@PEAPEAX@Z DD 022801H
	DD	070103214H
; Function compile flags: /Odtp /RTCsu
xdata	ENDS
;	COMDAT ?NonDelegatingQueryInterface@CMediaPosition@@UEAAJAEBU_GUID@@PEAPEAX@Z
_TEXT	SEGMENT
this$ = 48
riid$ = 56
ppv$ = 64
?NonDelegatingQueryInterface@CMediaPosition@@UEAAJAEBU_GUID@@PEAPEAX@Z PROC ; CMediaPosition::NonDelegatingQueryInterface, COMDAT
; Line 390
$LN7:
	mov	QWORD PTR [rsp+24], r8
	mov	QWORD PTR [rsp+16], rdx
	mov	QWORD PTR [rsp+8], rcx
	push	rdi
	sub	rsp, 32					; 00000020H
	mov	rdi, rsp
	mov	ecx, 8
	mov	eax, -858993460				; ccccccccH
	rep stosd
	mov	rcx, QWORD PTR [rsp+48]
; Line 391
	mov	edx, 8
	mov	rcx, QWORD PTR ppv$[rsp]
	call	QWORD PTR __imp_IsBadReadPtr
	cmp	eax, 1
	jne	SHORT $LN4@NonDelegat@3
	mov	r8d, 391				; 00000187H
	lea	rdx, OFFSET FLAT:$SG82537
	lea	rcx, OFFSET FLAT:$SG82538
	call	?DbgBreakPoint@@YAXPEB_W0H@Z		; DbgBreakPoint
$LN4@NonDelegat@3:
	mov	edx, 8
	mov	rcx, QWORD PTR ppv$[rsp]
	call	QWORD PTR __imp_IsBadWritePtr
	cmp	eax, 1
	jne	SHORT $LN3@NonDelegat@3
	mov	r8d, 391				; 00000187H
	lea	rdx, OFFSET FLAT:$SG82542
	lea	rcx, OFFSET FLAT:$SG82543
	call	?DbgBreakPoint@@YAXPEB_W0H@Z		; DbgBreakPoint
$LN3@NonDelegat@3:
; Line 392
	lea	rdx, OFFSET FLAT:IID_IMediaPosition
	mov	rcx, QWORD PTR riid$[rsp]
	call	==
	test	eax, eax
	je	SHORT $LN2@NonDelegat@3
; Line 393
	mov	rax, QWORD PTR this$[rsp]
	sub	rax, 8
	mov	rdx, QWORD PTR ppv$[rsp]
	mov	rcx, rax
	call	GetInterface
	jmp	SHORT $LN5@NonDelegat@3
; Line 394
	jmp	SHORT $LN1@NonDelegat@3
$LN2@NonDelegat@3:
; Line 395
	mov	rax, QWORD PTR this$[rsp]
	mov	r8, QWORD PTR ppv$[rsp]
	mov	rdx, QWORD PTR riid$[rsp]
	mov	rcx, rax
	call	?NonDelegatingQueryInterface@CUnknown@@UEAAJAEBU_GUID@@PEAPEAX@Z ; CUnknown::NonDelegatingQueryInterface
$LN1@NonDelegat@3:
$LN5@NonDelegat@3:
; Line 397
	add	rsp, 32					; 00000020H
	pop	rdi
	ret	0
?NonDelegatingQueryInterface@CMediaPosition@@UEAAJAEBU_GUID@@PEAPEAX@Z ENDP ; CMediaPosition::NonDelegatingQueryInterface
_TEXT	ENDS
PUBLIC	?GetTypeInfoCount@CMediaPosition@@UEAAJPEAI@Z	; CMediaPosition::GetTypeInfoCount
;	COMDAT pdata
pdata	SEGMENT
$pdata$?GetTypeInfoCount@CMediaPosition@@UEAAJPEAI@Z DD imagerel $LN3
	DD	imagerel $LN3+63
	DD	imagerel $unwind$?GetTypeInfoCount@CMediaPosition@@UEAAJPEAI@Z
pdata	ENDS
;	COMDAT xdata
xdata	SEGMENT
$unwind$?GetTypeInfoCount@CMediaPosition@@UEAAJPEAI@Z DD 022301H
	DD	0700b320fH
; Function compile flags: /Odtp /RTCsu
xdata	ENDS
;	COMDAT ?GetTypeInfoCount@CMediaPosition@@UEAAJPEAI@Z
_TEXT	SEGMENT
this$ = 48
pctinfo$ = 56
?GetTypeInfoCount@CMediaPosition@@UEAAJPEAI@Z PROC	; CMediaPosition::GetTypeInfoCount, COMDAT
; Line 404
$LN3:
	mov	QWORD PTR [rsp+16], rdx
	mov	QWORD PTR [rsp+8], rcx
	push	rdi
	sub	rsp, 32					; 00000020H
	mov	rdi, rsp
	mov	ecx, 8
	mov	eax, -858993460				; ccccccccH
	rep stosd
	mov	rcx, QWORD PTR [rsp+48]
; Line 405
	mov	rax, QWORD PTR this$[rsp]
	add	rax, 40					; 00000028H
	mov	rdx, QWORD PTR pctinfo$[rsp]
	mov	rcx, rax
	call	?GetTypeInfoCount@CBaseDispatch@@QEAAJPEAI@Z ; CBaseDispatch::GetTypeInfoCount
; Line 406
	add	rsp, 32					; 00000020H
	pop	rdi
	ret	0
?GetTypeInfoCount@CMediaPosition@@UEAAJPEAI@Z ENDP	; CMediaPosition::GetTypeInfoCount
_TEXT	ENDS
PUBLIC	?GetTypeInfo@CMediaPosition@@UEAAJIKPEAPEAUITypeInfo@@@Z ; CMediaPosition::GetTypeInfo
;	COMDAT pdata
pdata	SEGMENT
$pdata$?GetTypeInfo@CMediaPosition@@UEAAJIKPEAPEAUITypeInfo@@@Z DD imagerel $LN3
	DD	imagerel $LN3+94
	DD	imagerel $unwind$?GetTypeInfo@CMediaPosition@@UEAAJIKPEAPEAUITypeInfo@@@Z
pdata	ENDS
;	COMDAT xdata
xdata	SEGMENT
$unwind$?GetTypeInfo@CMediaPosition@@UEAAJIKPEAPEAUITypeInfo@@@Z DD 022c01H
	DD	070145218H
; Function compile flags: /Odtp /RTCsu
xdata	ENDS
;	COMDAT ?GetTypeInfo@CMediaPosition@@UEAAJIKPEAPEAUITypeInfo@@@Z
_TEXT	SEGMENT
this$ = 64
itinfo$ = 72
lcid$ = 80
pptinfo$ = 88
?GetTypeInfo@CMediaPosition@@UEAAJIKPEAPEAUITypeInfo@@@Z PROC ; CMediaPosition::GetTypeInfo, COMDAT
; Line 416
$LN3:
	mov	QWORD PTR [rsp+32], r9
	mov	DWORD PTR [rsp+24], r8d
	mov	DWORD PTR [rsp+16], edx
	mov	QWORD PTR [rsp+8], rcx
	push	rdi
	sub	rsp, 48					; 00000030H
	mov	rdi, rsp
	mov	ecx, 12
	mov	eax, -858993460				; ccccccccH
	rep stosd
	mov	rcx, QWORD PTR [rsp+64]
; Line 421
	mov	rax, QWORD PTR this$[rsp]
	add	rax, 40					; 00000028H
	mov	rcx, QWORD PTR pptinfo$[rsp]
	mov	QWORD PTR [rsp+32], rcx
	mov	r9d, DWORD PTR lcid$[rsp]
	mov	r8d, DWORD PTR itinfo$[rsp]
	lea	rdx, OFFSET FLAT:IID_IMediaPosition
	mov	rcx, rax
	call	?GetTypeInfo@CBaseDispatch@@QEAAJAEBU_GUID@@IKPEAPEAUITypeInfo@@@Z ; CBaseDispatch::GetTypeInfo
; Line 422
	add	rsp, 48					; 00000030H
	pop	rdi
	ret	0
?GetTypeInfo@CMediaPosition@@UEAAJIKPEAPEAUITypeInfo@@@Z ENDP ; CMediaPosition::GetTypeInfo
_TEXT	ENDS
PUBLIC	?GetIDsOfNames@CMediaPosition@@UEAAJAEBU_GUID@@PEAPEA_WIKPEAJ@Z ; CMediaPosition::GetIDsOfNames
;	COMDAT pdata
pdata	SEGMENT
$pdata$?GetIDsOfNames@CMediaPosition@@UEAAJAEBU_GUID@@PEAPEA_WIKPEAJ@Z DD imagerel $LN3
	DD	imagerel $LN3+103
	DD	imagerel $unwind$?GetIDsOfNames@CMediaPosition@@UEAAJAEBU_GUID@@PEAPEA_WIKPEAJ@Z
pdata	ENDS
;	COMDAT xdata
xdata	SEGMENT
$unwind$?GetIDsOfNames@CMediaPosition@@UEAAJAEBU_GUID@@PEAPEA_WIKPEAJ@Z DD 022d01H
	DD	070155219H
; Function compile flags: /Odtp /RTCsu
xdata	ENDS
;	COMDAT ?GetIDsOfNames@CMediaPosition@@UEAAJAEBU_GUID@@PEAPEA_WIKPEAJ@Z
_TEXT	SEGMENT
this$ = 64
riid$ = 72
rgszNames$ = 80
cNames$ = 88
lcid$ = 96
rgdispid$ = 104
?GetIDsOfNames@CMediaPosition@@UEAAJAEBU_GUID@@PEAPEA_WIKPEAJ@Z PROC ; CMediaPosition::GetIDsOfNames, COMDAT
; Line 432
$LN3:
	mov	DWORD PTR [rsp+32], r9d
	mov	QWORD PTR [rsp+24], r8
	mov	QWORD PTR [rsp+16], rdx
	mov	QWORD PTR [rsp+8], rcx
	push	rdi
	sub	rsp, 48					; 00000030H
	mov	rdi, rsp
	mov	ecx, 12
	mov	eax, -858993460				; ccccccccH
	rep stosd
	mov	rcx, QWORD PTR [rsp+64]
; Line 438
	mov	rax, QWORD PTR this$[rsp]
	add	rax, 40					; 00000028H
	mov	rcx, QWORD PTR rgdispid$[rsp]
	mov	QWORD PTR [rsp+40], rcx
	mov	ecx, DWORD PTR lcid$[rsp]
	mov	DWORD PTR [rsp+32], ecx
	mov	r9d, DWORD PTR cNames$[rsp]
	mov	r8, QWORD PTR rgszNames$[rsp]
	lea	rdx, OFFSET FLAT:IID_IMediaPosition
	mov	rcx, rax
	call	?GetIDsOfNames@CBaseDispatch@@QEAAJAEBU_GUID@@PEAPEA_WIKPEAJ@Z ; CBaseDispatch::GetIDsOfNames
; Line 439
	add	rsp, 48					; 00000030H
	pop	rdi
	ret	0
?GetIDsOfNames@CMediaPosition@@UEAAJAEBU_GUID@@PEAPEA_WIKPEAJ@Z ENDP ; CMediaPosition::GetIDsOfNames
_TEXT	ENDS
PUBLIC	?Invoke@CMediaPosition@@UEAAJJAEBU_GUID@@KGPEAUtagDISPPARAMS@@PEAUtagVARIANT@@PEAUtagEXCEPINFO@@PEAI@Z ; CMediaPosition::Invoke
;	COMDAT pdata
pdata	SEGMENT
$pdata$?Invoke@CMediaPosition@@UEAAJJAEBU_GUID@@KGPEAUtagDISPPARAMS@@PEAUtagVARIANT@@PEAUtagEXCEPINFO@@PEAI@Z DD imagerel $LN5
	DD	imagerel $LN5+264
	DD	imagerel $unwind$?Invoke@CMediaPosition@@UEAAJJAEBU_GUID@@KGPEAUtagDISPPARAMS@@PEAUtagVARIANT@@PEAUtagEXCEPINFO@@PEAI@Z
pdata	ENDS
;	COMDAT xdata
xdata	SEGMENT
$unwind$?Invoke@CMediaPosition@@UEAAJJAEBU_GUID@@KGPEAUtagDISPPARAMS@@PEAUtagVARIANT@@PEAUtagEXCEPINFO@@PEAI@Z DD 022c01H
	DD	07014b218H
xdata	ENDS
;	COMDAT CONST
CONST	SEGMENT
?Invoke@CMediaPosition@@UEAAJJAEBU_GUID@@KGPEAUtagDISPPARAMS@@PEAUtagVARIANT@@PEAUtagEXCEPINFO@@PEAI@Z$rtcName$0 DB 070H ; CMediaPosition::Invoke
	DB	074H
	DB	069H
	DB	00H
	ORG $+12
?Invoke@CMediaPosition@@UEAAJJAEBU_GUID@@KGPEAUtagDISPPARAMS@@PEAUtagVARIANT@@PEAUtagEXCEPINFO@@PEAI@Z$rtcVarDesc DD 048H ; CMediaPosition::Invoke
	DD	08H
	DQ	FLAT:?Invoke@CMediaPosition@@UEAAJJAEBU_GUID@@KGPEAUtagDISPPARAMS@@PEAUtagVARIANT@@PEAUtagEXCEPINFO@@PEAI@Z$rtcName$0
	ORG $+48
?Invoke@CMediaPosition@@UEAAJJAEBU_GUID@@KGPEAUtagDISPPARAMS@@PEAUtagVARIANT@@PEAUtagEXCEPINFO@@PEAI@Z$rtcFrameData DD 01H ; CMediaPosition::Invoke
	DD	00H
	DQ	FLAT:?Invoke@CMediaPosition@@UEAAJJAEBU_GUID@@KGPEAUtagDISPPARAMS@@PEAUtagVARIANT@@PEAUtagEXCEPINFO@@PEAI@Z$rtcVarDesc
; Function compile flags: /Odtp /RTCsu
CONST	ENDS
;	COMDAT ?Invoke@CMediaPosition@@UEAAJJAEBU_GUID@@KGPEAUtagDISPPARAMS@@PEAUtagVARIANT@@PEAUtagEXCEPINFO@@PEAI@Z
_TEXT	SEGMENT
pti$ = 72
hr$ = 84
this$ = 112
dispidMember$ = 120
riid$ = 128
lcid$ = 136
wFlags$ = 144
pdispparams$ = 152
pvarResult$ = 160
pexcepinfo$ = 168
puArgErr$ = 176
?Invoke@CMediaPosition@@UEAAJJAEBU_GUID@@KGPEAUtagDISPPARAMS@@PEAUtagVARIANT@@PEAUtagEXCEPINFO@@PEAI@Z PROC ; CMediaPosition::Invoke, COMDAT
; Line 452
$LN5:
	mov	DWORD PTR [rsp+32], r9d
	mov	QWORD PTR [rsp+24], r8
	mov	DWORD PTR [rsp+16], edx
	mov	QWORD PTR [rsp+8], rcx
	push	rdi
	sub	rsp, 96					; 00000060H
	mov	rdi, rsp
	mov	ecx, 24
	mov	eax, -858993460				; ccccccccH
	rep stosd
	mov	rcx, QWORD PTR [rsp+112]
; Line 454
	mov	rdx, QWORD PTR riid$[rsp]
	lea	rcx, OFFSET FLAT:GUID_NULL
	call	!=
	test	eax, eax
	je	SHORT $LN2@Invoke@3
; Line 455
	mov	eax, -2147352575			; ffffffff80020001H
	jmp	$LN3@Invoke@3
$LN2@Invoke@3:
; Line 459
	mov	rax, QWORD PTR this$[rsp]
	mov	rax, QWORD PTR [rax]
	lea	r9, QWORD PTR pti$[rsp]
	mov	r8d, DWORD PTR lcid$[rsp]
	xor	edx, edx
	mov	rcx, QWORD PTR this$[rsp]
	call	QWORD PTR [rax+32]
	mov	DWORD PTR hr$[rsp], eax
; Line 461
	cmp	DWORD PTR hr$[rsp], 0
	jge	SHORT $LN1@Invoke@3
; Line 462
	mov	eax, DWORD PTR hr$[rsp]
	jmp	SHORT $LN3@Invoke@3
$LN1@Invoke@3:
; Line 472
	mov	rax, QWORD PTR pti$[rsp]
	mov	rax, QWORD PTR [rax]
	mov	rcx, QWORD PTR puArgErr$[rsp]
	mov	QWORD PTR [rsp+56], rcx
	mov	rcx, QWORD PTR pexcepinfo$[rsp]
	mov	QWORD PTR [rsp+48], rcx
	mov	rcx, QWORD PTR pvarResult$[rsp]
	mov	QWORD PTR [rsp+40], rcx
	mov	rcx, QWORD PTR pdispparams$[rsp]
	mov	QWORD PTR [rsp+32], rcx
	movzx	r9d, WORD PTR wFlags$[rsp]
	mov	r8d, DWORD PTR dispidMember$[rsp]
	mov	rdx, QWORD PTR this$[rsp]
	mov	rcx, QWORD PTR pti$[rsp]
	call	QWORD PTR [rax+88]
	mov	DWORD PTR hr$[rsp], eax
; Line 474
	mov	rax, QWORD PTR pti$[rsp]
	mov	rax, QWORD PTR [rax]
	mov	rcx, QWORD PTR pti$[rsp]
	call	QWORD PTR [rax+16]
; Line 475
	mov	eax, DWORD PTR hr$[rsp]
$LN3@Invoke@3:
; Line 476
	mov	rdi, rax
	mov	rcx, rsp
	lea	rdx, OFFSET FLAT:?Invoke@CMediaPosition@@UEAAJJAEBU_GUID@@KGPEAUtagDISPPARAMS@@PEAUtagVARIANT@@PEAUtagEXCEPINFO@@PEAI@Z$rtcFrameData
	call	_RTC_CheckStackVars
	mov	rax, rdi
	add	rsp, 96					; 00000060H
	pop	rdi
	ret	0
?Invoke@CMediaPosition@@UEAAJJAEBU_GUID@@KGPEAUtagDISPPARAMS@@PEAUtagVARIANT@@PEAUtagEXCEPINFO@@PEAI@Z ENDP ; CMediaPosition::Invoke
_TEXT	ENDS
PUBLIC	??_7CPosPassThru@@6BCUnknown@@@			; CPosPassThru::`vftable'
PUBLIC	??_7CPosPassThru@@6BIMediaPosition@@@		; CPosPassThru::`vftable'
PUBLIC	??_7CPosPassThru@@6B@				; CPosPassThru::`vftable'
PUBLIC	??0IMediaSeeking@@QEAA@XZ			; IMediaSeeking::IMediaSeeking
PUBLIC	??0CPosPassThru@@QEAA@PEB_WPEAUIUnknown@@PEAJPEAUIPin@@@Z ; CPosPassThru::CPosPassThru
PUBLIC	??_R4CPosPassThru@@6B@				; CPosPassThru::`RTTI Complete Object Locator'
PUBLIC	??_R0?AVCPosPassThru@@@8			; CPosPassThru `RTTI Type Descriptor'
PUBLIC	??_R3CPosPassThru@@8				; CPosPassThru::`RTTI Class Hierarchy Descriptor'
PUBLIC	??_R2CPosPassThru@@8				; CPosPassThru::`RTTI Base Class Array'
PUBLIC	??_R1A@?0A@EA@CPosPassThru@@8			; CPosPassThru::`RTTI Base Class Descriptor at (0,-1,0,64)'
PUBLIC	??_R1A@?0A@EA@IMediaSeeking@@8			; IMediaSeeking::`RTTI Base Class Descriptor at (0,-1,0,64)'
PUBLIC	??_R0?AUIMediaSeeking@@@8			; IMediaSeeking `RTTI Type Descriptor'
PUBLIC	??_R3IMediaSeeking@@8				; IMediaSeeking::`RTTI Class Hierarchy Descriptor'
PUBLIC	??_R2IMediaSeeking@@8				; IMediaSeeking::`RTTI Base Class Array'
PUBLIC	??_R1A@?0A@EA@IUnknown@@8			; IUnknown::`RTTI Base Class Descriptor at (0,-1,0,64)'
PUBLIC	??_R0?AUIUnknown@@@8				; IUnknown `RTTI Type Descriptor'
PUBLIC	??_R3IUnknown@@8				; IUnknown::`RTTI Class Hierarchy Descriptor'
PUBLIC	??_R2IUnknown@@8				; IUnknown::`RTTI Base Class Array'
PUBLIC	??_R1A@?0A@EC@IUnknown@@8			; IUnknown::`RTTI Base Class Descriptor at (0,-1,0,66)'
PUBLIC	??_R17?0A@EA@CMediaPosition@@8			; CMediaPosition::`RTTI Base Class Descriptor at (8,-1,0,64)'
PUBLIC	??_R0?AVCMediaPosition@@@8			; CMediaPosition `RTTI Type Descriptor'
PUBLIC	??_R3CMediaPosition@@8				; CMediaPosition::`RTTI Class Hierarchy Descriptor'
PUBLIC	??_R2CMediaPosition@@8				; CMediaPosition::`RTTI Base Class Array'
PUBLIC	??_R1A@?0A@EA@CMediaPosition@@8			; CMediaPosition::`RTTI Base Class Descriptor at (0,-1,0,64)'
PUBLIC	??_R1A@?0A@EA@IMediaPosition@@8			; IMediaPosition::`RTTI Base Class Descriptor at (0,-1,0,64)'
PUBLIC	??_R0?AUIMediaPosition@@@8			; IMediaPosition `RTTI Type Descriptor'
PUBLIC	??_R3IMediaPosition@@8				; IMediaPosition::`RTTI Class Hierarchy Descriptor'
PUBLIC	??_R2IMediaPosition@@8				; IMediaPosition::`RTTI Base Class Array'
PUBLIC	??_R1A@?0A@EA@IDispatch@@8			; IDispatch::`RTTI Base Class Descriptor at (0,-1,0,64)'
PUBLIC	??_R0?AUIDispatch@@@8				; IDispatch `RTTI Type Descriptor'
PUBLIC	??_R3IDispatch@@8				; IDispatch::`RTTI Class Hierarchy Descriptor'
PUBLIC	??_R2IDispatch@@8				; IDispatch::`RTTI Base Class Array'
PUBLIC	??_R17?0A@EA@CUnknown@@8			; CUnknown::`RTTI Base Class Descriptor at (8,-1,0,64)'
PUBLIC	??_R0?AVCUnknown@@@8				; CUnknown `RTTI Type Descriptor'
PUBLIC	??_R3CUnknown@@8				; CUnknown::`RTTI Class Hierarchy Descriptor'
PUBLIC	??_R2CUnknown@@8				; CUnknown::`RTTI Base Class Array'
PUBLIC	??_R1A@?0A@EA@CUnknown@@8			; CUnknown::`RTTI Base Class Descriptor at (0,-1,0,64)'
PUBLIC	??_R1A@?0A@EA@INonDelegatingUnknown@@8		; INonDelegatingUnknown::`RTTI Base Class Descriptor at (0,-1,0,64)'
PUBLIC	??_R0?AUINonDelegatingUnknown@@@8		; INonDelegatingUnknown `RTTI Type Descriptor'
PUBLIC	??_R3INonDelegatingUnknown@@8			; INonDelegatingUnknown::`RTTI Class Hierarchy Descriptor'
PUBLIC	??_R2INonDelegatingUnknown@@8			; INonDelegatingUnknown::`RTTI Base Class Array'
PUBLIC	??_R17?0A@EA@CBaseObject@@8			; CBaseObject::`RTTI Base Class Descriptor at (8,-1,0,64)'
PUBLIC	??_R0?AVCBaseObject@@@8				; CBaseObject `RTTI Type Descriptor'
PUBLIC	??_R3CBaseObject@@8				; CBaseObject::`RTTI Class Hierarchy Descriptor'
PUBLIC	??_R2CBaseObject@@8				; CBaseObject::`RTTI Base Class Array'
PUBLIC	??_R1A@?0A@EA@CBaseObject@@8			; CBaseObject::`RTTI Base Class Descriptor at (0,-1,0,64)'
PUBLIC	??_R17?0A@EA@INonDelegatingUnknown@@8		; INonDelegatingUnknown::`RTTI Base Class Descriptor at (8,-1,0,64)'
PUBLIC	??_R1BA@?0A@EA@CBaseObject@@8			; CBaseObject::`RTTI Base Class Descriptor at (16,-1,0,64)'
PUBLIC	??_R17?0A@EA@IMediaPosition@@8			; IMediaPosition::`RTTI Base Class Descriptor at (8,-1,0,64)'
PUBLIC	??_R17?0A@EA@IDispatch@@8			; IDispatch::`RTTI Base Class Descriptor at (8,-1,0,64)'
PUBLIC	??_R17?0A@EC@IUnknown@@8			; IUnknown::`RTTI Base Class Descriptor at (8,-1,0,66)'
PUBLIC	??_R1BA@?0A@EA@CUnknown@@8			; CUnknown::`RTTI Base Class Descriptor at (16,-1,0,64)'
PUBLIC	??_R1BA@?0A@EA@INonDelegatingUnknown@@8		; INonDelegatingUnknown::`RTTI Base Class Descriptor at (16,-1,0,64)'
PUBLIC	??_R1BI@?0A@EA@CBaseObject@@8			; CBaseObject::`RTTI Base Class Descriptor at (24,-1,0,64)'
PUBLIC	?QueryInterface@CPosPassThru@@UEAAJAEBU_GUID@@PEAPEAX@Z ; CPosPassThru::QueryInterface
PUBLIC	?AddRef@CPosPassThru@@UEAAKXZ			; CPosPassThru::AddRef
PUBLIC	?Release@CPosPassThru@@UEAAKXZ			; CPosPassThru::Release
PUBLIC	?GetCapabilities@CPosPassThru@@UEAAJPEAK@Z	; CPosPassThru::GetCapabilities
PUBLIC	?CheckCapabilities@CPosPassThru@@UEAAJPEAK@Z	; CPosPassThru::CheckCapabilities
PUBLIC	?IsFormatSupported@CPosPassThru@@UEAAJPEBU_GUID@@@Z ; CPosPassThru::IsFormatSupported
PUBLIC	?QueryPreferredFormat@CPosPassThru@@UEAAJPEAU_GUID@@@Z ; CPosPassThru::QueryPreferredFormat
PUBLIC	?GetTimeFormatW@CPosPassThru@@UEAAJPEAU_GUID@@@Z ; CPosPassThru::GetTimeFormatW
PUBLIC	?IsUsingTimeFormat@CPosPassThru@@UEAAJPEBU_GUID@@@Z ; CPosPassThru::IsUsingTimeFormat
PUBLIC	?SetTimeFormat@CPosPassThru@@UEAAJPEBU_GUID@@@Z	; CPosPassThru::SetTimeFormat
PUBLIC	?GetDuration@CPosPassThru@@UEAAJPEA_J@Z		; CPosPassThru::GetDuration
PUBLIC	?GetStopPosition@CPosPassThru@@UEAAJPEA_J@Z	; CPosPassThru::GetStopPosition
PUBLIC	?GetCurrentPosition@CPosPassThru@@UEAAJPEA_J@Z	; CPosPassThru::GetCurrentPosition
PUBLIC	?ConvertTimeFormat@CPosPassThru@@UEAAJPEA_JPEBU_GUID@@_J1@Z ; CPosPassThru::ConvertTimeFormat
PUBLIC	?SetPositions@CPosPassThru@@UEAAJPEA_JK0K@Z	; CPosPassThru::SetPositions
PUBLIC	?GetPositions@CPosPassThru@@UEAAJPEA_J0@Z	; CPosPassThru::GetPositions
PUBLIC	?GetAvailable@CPosPassThru@@UEAAJPEA_J0@Z	; CPosPassThru::GetAvailable
PUBLIC	?SetRate@CPosPassThru@@UEAAJN@Z			; CPosPassThru::SetRate
PUBLIC	?GetRate@CPosPassThru@@UEAAJPEAN@Z		; CPosPassThru::GetRate
PUBLIC	?GetPreroll@CPosPassThru@@UEAAJPEA_J@Z		; CPosPassThru::GetPreroll
PUBLIC	?GetMediaTime@CPosPassThru@@UEAAJPEA_J0@Z	; CPosPassThru::GetMediaTime
PUBLIC	??_R4CPosPassThru@@6BIMediaPosition@@@		; CPosPassThru::`RTTI Complete Object Locator'
PUBLIC	?QueryInterface@CPosPassThru@@W7EAAJAEBU_GUID@@PEAPEAX@Z ; [thunk]:CPosPassThru::QueryInterface`adjustor{8}'
PUBLIC	?AddRef@CPosPassThru@@W7EAAKXZ			; [thunk]:CPosPassThru::AddRef`adjustor{8}'
PUBLIC	?Release@CPosPassThru@@W7EAAKXZ			; [thunk]:CPosPassThru::Release`adjustor{8}'
PUBLIC	?get_Duration@CPosPassThru@@UEAAJPEAN@Z		; CPosPassThru::get_Duration
PUBLIC	?put_CurrentPosition@CPosPassThru@@UEAAJN@Z	; CPosPassThru::put_CurrentPosition
PUBLIC	?get_CurrentPosition@CPosPassThru@@UEAAJPEAN@Z	; CPosPassThru::get_CurrentPosition
PUBLIC	?get_StopTime@CPosPassThru@@UEAAJPEAN@Z		; CPosPassThru::get_StopTime
PUBLIC	?put_StopTime@CPosPassThru@@UEAAJN@Z		; CPosPassThru::put_StopTime
PUBLIC	?get_PrerollTime@CPosPassThru@@UEAAJPEAN@Z	; CPosPassThru::get_PrerollTime
PUBLIC	?put_PrerollTime@CPosPassThru@@UEAAJN@Z		; CPosPassThru::put_PrerollTime
PUBLIC	?put_Rate@CPosPassThru@@UEAAJN@Z		; CPosPassThru::put_Rate
PUBLIC	?get_Rate@CPosPassThru@@UEAAJPEAN@Z		; CPosPassThru::get_Rate
PUBLIC	?CanSeekForward@CPosPassThru@@UEAAJPEAJ@Z	; CPosPassThru::CanSeekForward
PUBLIC	?CanSeekBackward@CPosPassThru@@UEAAJPEAJ@Z	; CPosPassThru::CanSeekBackward
PUBLIC	??_R4CPosPassThru@@6BCUnknown@@@		; CPosPassThru::`RTTI Complete Object Locator'
PUBLIC	?NonDelegatingQueryInterface@CPosPassThru@@UEAAJAEBU_GUID@@PEAPEAX@Z ; CPosPassThru::NonDelegatingQueryInterface
PUBLIC	??_ECPosPassThru@@WBA@EAAPEAXI@Z		; [thunk]:CPosPassThru::`vector deleting destructor'
EXTRN	??_7type_info@@6B@:BYTE				; type_info::`vftable'
EXTRN	?NonDelegatingAddRef@CUnknown@@UEAAKXZ:PROC	; CUnknown::NonDelegatingAddRef
EXTRN	?NonDelegatingRelease@CUnknown@@UEAAKXZ:PROC	; CUnknown::NonDelegatingRelease
;	COMDAT pdata
pdata	SEGMENT
$pdata$??0CPosPassThru@@QEAA@PEB_WPEAUIUnknown@@PEAJPEAUIPin@@@Z DD imagerel $LN5
	DD	imagerel $LN5+173
	DD	imagerel $unwind$??0CPosPassThru@@QEAA@PEB_WPEAUIUnknown@@PEAJPEAUIPin@@@Z
pdata	ENDS
;	COMDAT ??_R4CPosPassThru@@6BCUnknown@@@
rdata$r	SEGMENT
??_R4CPosPassThru@@6BCUnknown@@@ DD 01H			; CPosPassThru::`RTTI Complete Object Locator'
	DD	010H
	DD	00H
	DD	imagerel ??_R0?AVCPosPassThru@@@8
	DD	imagerel ??_R3CPosPassThru@@8
	DD	imagerel ??_R4CPosPassThru@@6BCUnknown@@@
rdata$r	ENDS
;	COMDAT ??_R4CPosPassThru@@6BIMediaPosition@@@
rdata$r	SEGMENT
??_R4CPosPassThru@@6BIMediaPosition@@@ DD 01H		; CPosPassThru::`RTTI Complete Object Locator'
	DD	08H
	DD	00H
	DD	imagerel ??_R0?AVCPosPassThru@@@8
	DD	imagerel ??_R3CPosPassThru@@8
	DD	imagerel ??_R4CPosPassThru@@6BIMediaPosition@@@
rdata$r	ENDS
;	COMDAT ??_R1BI@?0A@EA@CBaseObject@@8
rdata$r	SEGMENT
??_R1BI@?0A@EA@CBaseObject@@8 DD imagerel ??_R0?AVCBaseObject@@@8 ; CBaseObject::`RTTI Base Class Descriptor at (24,-1,0,64)'
	DD	00H
	DD	018H
	DD	0ffffffffH
	DD	00H
	DD	040H
	DD	imagerel ??_R3CBaseObject@@8
rdata$r	ENDS
;	COMDAT ??_R1BA@?0A@EA@INonDelegatingUnknown@@8
rdata$r	SEGMENT
??_R1BA@?0A@EA@INonDelegatingUnknown@@8 DD imagerel ??_R0?AUINonDelegatingUnknown@@@8 ; INonDelegatingUnknown::`RTTI Base Class Descriptor at (16,-1,0,64)'
	DD	00H
	DD	010H
	DD	0ffffffffH
	DD	00H
	DD	040H
	DD	imagerel ??_R3INonDelegatingUnknown@@8
rdata$r	ENDS
;	COMDAT ??_R1BA@?0A@EA@CUnknown@@8
rdata$r	SEGMENT
??_R1BA@?0A@EA@CUnknown@@8 DD imagerel ??_R0?AVCUnknown@@@8 ; CUnknown::`RTTI Base Class Descriptor at (16,-1,0,64)'
	DD	02H
	DD	010H
	DD	0ffffffffH
	DD	00H
	DD	040H
	DD	imagerel ??_R3CUnknown@@8
rdata$r	ENDS
;	COMDAT ??_R17?0A@EC@IUnknown@@8
rdata$r	SEGMENT
??_R17?0A@EC@IUnknown@@8 DD imagerel ??_R0?AUIUnknown@@@8 ; IUnknown::`RTTI Base Class Descriptor at (8,-1,0,66)'
	DD	00H
	DD	08H
	DD	0ffffffffH
	DD	00H
	DD	042H
	DD	imagerel ??_R3IUnknown@@8
rdata$r	ENDS
;	COMDAT ??_R17?0A@EA@IDispatch@@8
rdata$r	SEGMENT
??_R17?0A@EA@IDispatch@@8 DD imagerel ??_R0?AUIDispatch@@@8 ; IDispatch::`RTTI Base Class Descriptor at (8,-1,0,64)'
	DD	01H
	DD	08H
	DD	0ffffffffH
	DD	00H
	DD	040H
	DD	imagerel ??_R3IDispatch@@8
rdata$r	ENDS
;	COMDAT ??_R17?0A@EA@IMediaPosition@@8
rdata$r	SEGMENT
??_R17?0A@EA@IMediaPosition@@8 DD imagerel ??_R0?AUIMediaPosition@@@8 ; IMediaPosition::`RTTI Base Class Descriptor at (8,-1,0,64)'
	DD	02H
	DD	08H
	DD	0ffffffffH
	DD	00H
	DD	040H
	DD	imagerel ??_R3IMediaPosition@@8
rdata$r	ENDS
;	COMDAT ??_R1BA@?0A@EA@CBaseObject@@8
rdata$r	SEGMENT
??_R1BA@?0A@EA@CBaseObject@@8 DD imagerel ??_R0?AVCBaseObject@@@8 ; CBaseObject::`RTTI Base Class Descriptor at (16,-1,0,64)'
	DD	00H
	DD	010H
	DD	0ffffffffH
	DD	00H
	DD	040H
	DD	imagerel ??_R3CBaseObject@@8
rdata$r	ENDS
;	COMDAT ??_R17?0A@EA@INonDelegatingUnknown@@8
rdata$r	SEGMENT
??_R17?0A@EA@INonDelegatingUnknown@@8 DD imagerel ??_R0?AUINonDelegatingUnknown@@@8 ; INonDelegatingUnknown::`RTTI Base Class Descriptor at (8,-1,0,64)'
	DD	00H
	DD	08H
	DD	0ffffffffH
	DD	00H
	DD	040H
	DD	imagerel ??_R3INonDelegatingUnknown@@8
rdata$r	ENDS
;	COMDAT ??_R1A@?0A@EA@CBaseObject@@8
rdata$r	SEGMENT
??_R1A@?0A@EA@CBaseObject@@8 DD imagerel ??_R0?AVCBaseObject@@@8 ; CBaseObject::`RTTI Base Class Descriptor at (0,-1,0,64)'
	DD	00H
	DD	00H
	DD	0ffffffffH
	DD	00H
	DD	040H
	DD	imagerel ??_R3CBaseObject@@8
rdata$r	ENDS
;	COMDAT ??_R2CBaseObject@@8
rdata$r	SEGMENT
??_R2CBaseObject@@8 DD imagerel ??_R1A@?0A@EA@CBaseObject@@8 ; CBaseObject::`RTTI Base Class Array'
	ORG $+3
rdata$r	ENDS
;	COMDAT ??_R3CBaseObject@@8
rdata$r	SEGMENT
??_R3CBaseObject@@8 DD 00H				; CBaseObject::`RTTI Class Hierarchy Descriptor'
	DD	00H
	DD	01H
	DD	imagerel ??_R2CBaseObject@@8
rdata$r	ENDS
;	COMDAT ??_R0?AVCBaseObject@@@8
_DATA	SEGMENT
??_R0?AVCBaseObject@@@8 DQ FLAT:??_7type_info@@6B@	; CBaseObject `RTTI Type Descriptor'
	DQ	0000000000000000H
	DB	'.?AVCBaseObject@@', 00H
_DATA	ENDS
;	COMDAT ??_R17?0A@EA@CBaseObject@@8
rdata$r	SEGMENT
??_R17?0A@EA@CBaseObject@@8 DD imagerel ??_R0?AVCBaseObject@@@8 ; CBaseObject::`RTTI Base Class Descriptor at (8,-1,0,64)'
	DD	00H
	DD	08H
	DD	0ffffffffH
	DD	00H
	DD	040H
	DD	imagerel ??_R3CBaseObject@@8
rdata$r	ENDS
;	COMDAT ??_R2INonDelegatingUnknown@@8
rdata$r	SEGMENT
??_R2INonDelegatingUnknown@@8 DD imagerel ??_R1A@?0A@EA@INonDelegatingUnknown@@8 ; INonDelegatingUnknown::`RTTI Base Class Array'
	ORG $+3
rdata$r	ENDS
;	COMDAT ??_R3INonDelegatingUnknown@@8
rdata$r	SEGMENT
??_R3INonDelegatingUnknown@@8 DD 00H			; INonDelegatingUnknown::`RTTI Class Hierarchy Descriptor'
	DD	00H
	DD	01H
	DD	imagerel ??_R2INonDelegatingUnknown@@8
rdata$r	ENDS
;	COMDAT ??_R0?AUINonDelegatingUnknown@@@8
_DATA	SEGMENT
??_R0?AUINonDelegatingUnknown@@@8 DQ FLAT:??_7type_info@@6B@ ; INonDelegatingUnknown `RTTI Type Descriptor'
	DQ	0000000000000000H
	DB	'.?AUINonDelegatingUnknown@@', 00H
_DATA	ENDS
;	COMDAT ??_R1A@?0A@EA@INonDelegatingUnknown@@8
rdata$r	SEGMENT
??_R1A@?0A@EA@INonDelegatingUnknown@@8 DD imagerel ??_R0?AUINonDelegatingUnknown@@@8 ; INonDelegatingUnknown::`RTTI Base Class Descriptor at (0,-1,0,64)'
	DD	00H
	DD	00H
	DD	0ffffffffH
	DD	00H
	DD	040H
	DD	imagerel ??_R3INonDelegatingUnknown@@8
rdata$r	ENDS
;	COMDAT ??_R1A@?0A@EA@CUnknown@@8
rdata$r	SEGMENT
??_R1A@?0A@EA@CUnknown@@8 DD imagerel ??_R0?AVCUnknown@@@8 ; CUnknown::`RTTI Base Class Descriptor at (0,-1,0,64)'
	DD	02H
	DD	00H
	DD	0ffffffffH
	DD	00H
	DD	040H
	DD	imagerel ??_R3CUnknown@@8
rdata$r	ENDS
;	COMDAT ??_R2CUnknown@@8
rdata$r	SEGMENT
??_R2CUnknown@@8 DD imagerel ??_R1A@?0A@EA@CUnknown@@8	; CUnknown::`RTTI Base Class Array'
	DD	imagerel ??_R1A@?0A@EA@INonDelegatingUnknown@@8
	DD	imagerel ??_R17?0A@EA@CBaseObject@@8
	ORG $+3
rdata$r	ENDS
;	COMDAT ??_R3CUnknown@@8
rdata$r	SEGMENT
??_R3CUnknown@@8 DD 00H					; CUnknown::`RTTI Class Hierarchy Descriptor'
	DD	01H
	DD	03H
	DD	imagerel ??_R2CUnknown@@8
rdata$r	ENDS
;	COMDAT ??_R0?AVCUnknown@@@8
_DATA	SEGMENT
??_R0?AVCUnknown@@@8 DQ FLAT:??_7type_info@@6B@		; CUnknown `RTTI Type Descriptor'
	DQ	0000000000000000H
	DB	'.?AVCUnknown@@', 00H
_DATA	ENDS
;	COMDAT ??_R17?0A@EA@CUnknown@@8
rdata$r	SEGMENT
??_R17?0A@EA@CUnknown@@8 DD imagerel ??_R0?AVCUnknown@@@8 ; CUnknown::`RTTI Base Class Descriptor at (8,-1,0,64)'
	DD	02H
	DD	08H
	DD	0ffffffffH
	DD	00H
	DD	040H
	DD	imagerel ??_R3CUnknown@@8
rdata$r	ENDS
;	COMDAT ??_R2IDispatch@@8
rdata$r	SEGMENT
??_R2IDispatch@@8 DD imagerel ??_R1A@?0A@EA@IDispatch@@8 ; IDispatch::`RTTI Base Class Array'
	DD	imagerel ??_R1A@?0A@EA@IUnknown@@8
	ORG $+3
rdata$r	ENDS
;	COMDAT ??_R3IDispatch@@8
rdata$r	SEGMENT
??_R3IDispatch@@8 DD 00H				; IDispatch::`RTTI Class Hierarchy Descriptor'
	DD	00H
	DD	02H
	DD	imagerel ??_R2IDispatch@@8
rdata$r	ENDS
;	COMDAT ??_R0?AUIDispatch@@@8
_DATA	SEGMENT
??_R0?AUIDispatch@@@8 DQ FLAT:??_7type_info@@6B@	; IDispatch `RTTI Type Descriptor'
	DQ	0000000000000000H
	DB	'.?AUIDispatch@@', 00H
_DATA	ENDS
;	COMDAT ??_R1A@?0A@EA@IDispatch@@8
rdata$r	SEGMENT
??_R1A@?0A@EA@IDispatch@@8 DD imagerel ??_R0?AUIDispatch@@@8 ; IDispatch::`RTTI Base Class Descriptor at (0,-1,0,64)'
	DD	01H
	DD	00H
	DD	0ffffffffH
	DD	00H
	DD	040H
	DD	imagerel ??_R3IDispatch@@8
rdata$r	ENDS
;	COMDAT ??_R2IMediaPosition@@8
rdata$r	SEGMENT
??_R2IMediaPosition@@8 DD imagerel ??_R1A@?0A@EA@IMediaPosition@@8 ; IMediaPosition::`RTTI Base Class Array'
	DD	imagerel ??_R1A@?0A@EA@IDispatch@@8
	DD	imagerel ??_R1A@?0A@EA@IUnknown@@8
	ORG $+3
rdata$r	ENDS
;	COMDAT ??_R3IMediaPosition@@8
rdata$r	SEGMENT
??_R3IMediaPosition@@8 DD 00H				; IMediaPosition::`RTTI Class Hierarchy Descriptor'
	DD	00H
	DD	03H
	DD	imagerel ??_R2IMediaPosition@@8
rdata$r	ENDS
;	COMDAT ??_R0?AUIMediaPosition@@@8
_DATA	SEGMENT
??_R0?AUIMediaPosition@@@8 DQ FLAT:??_7type_info@@6B@	; IMediaPosition `RTTI Type Descriptor'
	DQ	0000000000000000H
	DB	'.?AUIMediaPosition@@', 00H
_DATA	ENDS
;	COMDAT ??_R1A@?0A@EA@IMediaPosition@@8
rdata$r	SEGMENT
??_R1A@?0A@EA@IMediaPosition@@8 DD imagerel ??_R0?AUIMediaPosition@@@8 ; IMediaPosition::`RTTI Base Class Descriptor at (0,-1,0,64)'
	DD	02H
	DD	00H
	DD	0ffffffffH
	DD	00H
	DD	040H
	DD	imagerel ??_R3IMediaPosition@@8
rdata$r	ENDS
;	COMDAT ??_R1A@?0A@EA@CMediaPosition@@8
rdata$r	SEGMENT
??_R1A@?0A@EA@CMediaPosition@@8 DD imagerel ??_R0?AVCMediaPosition@@@8 ; CMediaPosition::`RTTI Base Class Descriptor at (0,-1,0,64)'
	DD	06H
	DD	00H
	DD	0ffffffffH
	DD	00H
	DD	040H
	DD	imagerel ??_R3CMediaPosition@@8
rdata$r	ENDS
;	COMDAT ??_R2CMediaPosition@@8
rdata$r	SEGMENT
??_R2CMediaPosition@@8 DD imagerel ??_R1A@?0A@EA@CMediaPosition@@8 ; CMediaPosition::`RTTI Base Class Array'
	DD	imagerel ??_R1A@?0A@EA@IMediaPosition@@8
	DD	imagerel ??_R1A@?0A@EA@IDispatch@@8
	DD	imagerel ??_R1A@?0A@EA@IUnknown@@8
	DD	imagerel ??_R17?0A@EA@CUnknown@@8
	DD	imagerel ??_R17?0A@EA@INonDelegatingUnknown@@8
	DD	imagerel ??_R1BA@?0A@EA@CBaseObject@@8
	ORG $+3
rdata$r	ENDS
;	COMDAT ??_R3CMediaPosition@@8
rdata$r	SEGMENT
??_R3CMediaPosition@@8 DD 00H				; CMediaPosition::`RTTI Class Hierarchy Descriptor'
	DD	01H
	DD	07H
	DD	imagerel ??_R2CMediaPosition@@8
rdata$r	ENDS
;	COMDAT ??_R0?AVCMediaPosition@@@8
_DATA	SEGMENT
??_R0?AVCMediaPosition@@@8 DQ FLAT:??_7type_info@@6B@	; CMediaPosition `RTTI Type Descriptor'
	DQ	0000000000000000H
	DB	'.?AVCMediaPosition@@', 00H
_DATA	ENDS
;	COMDAT ??_R17?0A@EA@CMediaPosition@@8
rdata$r	SEGMENT
??_R17?0A@EA@CMediaPosition@@8 DD imagerel ??_R0?AVCMediaPosition@@@8 ; CMediaPosition::`RTTI Base Class Descriptor at (8,-1,0,64)'
	DD	06H
	DD	08H
	DD	0ffffffffH
	DD	00H
	DD	040H
	DD	imagerel ??_R3CMediaPosition@@8
rdata$r	ENDS
;	COMDAT ??_R1A@?0A@EC@IUnknown@@8
rdata$r	SEGMENT
??_R1A@?0A@EC@IUnknown@@8 DD imagerel ??_R0?AUIUnknown@@@8 ; IUnknown::`RTTI Base Class Descriptor at (0,-1,0,66)'
	DD	00H
	DD	00H
	DD	0ffffffffH
	DD	00H
	DD	042H
	DD	imagerel ??_R3IUnknown@@8
rdata$r	ENDS
;	COMDAT ??_R2IUnknown@@8
rdata$r	SEGMENT
??_R2IUnknown@@8 DD imagerel ??_R1A@?0A@EA@IUnknown@@8	; IUnknown::`RTTI Base Class Array'
	ORG $+3
rdata$r	ENDS
;	COMDAT ??_R3IUnknown@@8
rdata$r	SEGMENT
??_R3IUnknown@@8 DD 00H					; IUnknown::`RTTI Class Hierarchy Descriptor'
	DD	00H
	DD	01H
	DD	imagerel ??_R2IUnknown@@8
rdata$r	ENDS
;	COMDAT ??_R0?AUIUnknown@@@8
_DATA	SEGMENT
??_R0?AUIUnknown@@@8 DQ FLAT:??_7type_info@@6B@		; IUnknown `RTTI Type Descriptor'
	DQ	0000000000000000H
	DB	'.?AUIUnknown@@', 00H
_DATA	ENDS
;	COMDAT ??_R1A@?0A@EA@IUnknown@@8
rdata$r	SEGMENT
??_R1A@?0A@EA@IUnknown@@8 DD imagerel ??_R0?AUIUnknown@@@8 ; IUnknown::`RTTI Base Class Descriptor at (0,-1,0,64)'
	DD	00H
	DD	00H
	DD	0ffffffffH
	DD	00H
	DD	040H
	DD	imagerel ??_R3IUnknown@@8
rdata$r	ENDS
;	COMDAT ??_R2IMediaSeeking@@8
rdata$r	SEGMENT
??_R2IMediaSeeking@@8 DD imagerel ??_R1A@?0A@EA@IMediaSeeking@@8 ; IMediaSeeking::`RTTI Base Class Array'
	DD	imagerel ??_R1A@?0A@EA@IUnknown@@8
	ORG $+3
rdata$r	ENDS
;	COMDAT ??_R3IMediaSeeking@@8
rdata$r	SEGMENT
??_R3IMediaSeeking@@8 DD 00H				; IMediaSeeking::`RTTI Class Hierarchy Descriptor'
	DD	00H
	DD	02H
	DD	imagerel ??_R2IMediaSeeking@@8
rdata$r	ENDS
;	COMDAT ??_R0?AUIMediaSeeking@@@8
_DATA	SEGMENT
??_R0?AUIMediaSeeking@@@8 DQ FLAT:??_7type_info@@6B@	; IMediaSeeking `RTTI Type Descriptor'
	DQ	0000000000000000H
	DB	'.?AUIMediaSeeking@@', 00H
_DATA	ENDS
;	COMDAT ??_R1A@?0A@EA@IMediaSeeking@@8
rdata$r	SEGMENT
??_R1A@?0A@EA@IMediaSeeking@@8 DD imagerel ??_R0?AUIMediaSeeking@@@8 ; IMediaSeeking::`RTTI Base Class Descriptor at (0,-1,0,64)'
	DD	01H
	DD	00H
	DD	0ffffffffH
	DD	00H
	DD	040H
	DD	imagerel ??_R3IMediaSeeking@@8
rdata$r	ENDS
;	COMDAT ??_R1A@?0A@EA@CPosPassThru@@8
rdata$r	SEGMENT
??_R1A@?0A@EA@CPosPassThru@@8 DD imagerel ??_R0?AVCPosPassThru@@@8 ; CPosPassThru::`RTTI Base Class Descriptor at (0,-1,0,64)'
	DD	09H
	DD	00H
	DD	0ffffffffH
	DD	00H
	DD	040H
	DD	imagerel ??_R3CPosPassThru@@8
rdata$r	ENDS
;	COMDAT ??_R2CPosPassThru@@8
rdata$r	SEGMENT
??_R2CPosPassThru@@8 DD imagerel ??_R1A@?0A@EA@CPosPassThru@@8 ; CPosPassThru::`RTTI Base Class Array'
	DD	imagerel ??_R1A@?0A@EA@IMediaSeeking@@8
	DD	imagerel ??_R1A@?0A@EC@IUnknown@@8
	DD	imagerel ??_R17?0A@EA@CMediaPosition@@8
	DD	imagerel ??_R17?0A@EA@IMediaPosition@@8
	DD	imagerel ??_R17?0A@EA@IDispatch@@8
	DD	imagerel ??_R17?0A@EC@IUnknown@@8
	DD	imagerel ??_R1BA@?0A@EA@CUnknown@@8
	DD	imagerel ??_R1BA@?0A@EA@INonDelegatingUnknown@@8
	DD	imagerel ??_R1BI@?0A@EA@CBaseObject@@8
	ORG $+3
rdata$r	ENDS
;	COMDAT ??_R3CPosPassThru@@8
rdata$r	SEGMENT
??_R3CPosPassThru@@8 DD 00H				; CPosPassThru::`RTTI Class Hierarchy Descriptor'
	DD	05H
	DD	0aH
	DD	imagerel ??_R2CPosPassThru@@8
rdata$r	ENDS
;	COMDAT ??_R0?AVCPosPassThru@@@8
_DATA	SEGMENT
??_R0?AVCPosPassThru@@@8 DQ FLAT:??_7type_info@@6B@	; CPosPassThru `RTTI Type Descriptor'
	DQ	0000000000000000H
	DB	'.?AVCPosPassThru@@', 00H
_DATA	ENDS
;	COMDAT ??_R4CPosPassThru@@6B@
rdata$r	SEGMENT
??_R4CPosPassThru@@6B@ DD 01H				; CPosPassThru::`RTTI Complete Object Locator'
	DD	00H
	DD	00H
	DD	imagerel ??_R0?AVCPosPassThru@@@8
	DD	imagerel ??_R3CPosPassThru@@8
	DD	imagerel ??_R4CPosPassThru@@6B@
rdata$r	ENDS
;	COMDAT xdata
xdata	SEGMENT
$unwind$??0CPosPassThru@@QEAA@PEB_WPEAUIUnknown@@PEAJPEAUIPin@@@Z DD 022d01H
	DD	070153219H
xdata	ENDS
;	COMDAT ??_7CPosPassThru@@6BCUnknown@@@
CONST	SEGMENT
??_7CPosPassThru@@6BCUnknown@@@ DQ FLAT:??_R4CPosPassThru@@6BCUnknown@@@ ; CPosPassThru::`vftable'
	DQ	FLAT:?NonDelegatingQueryInterface@CPosPassThru@@UEAAJAEBU_GUID@@PEAPEAX@Z
	DQ	FLAT:?NonDelegatingAddRef@CUnknown@@UEAAKXZ
	DQ	FLAT:?NonDelegatingRelease@CUnknown@@UEAAKXZ
	DQ	FLAT:??_ECPosPassThru@@WBA@EAAPEAXI@Z
CONST	ENDS
;	COMDAT ??_7CPosPassThru@@6BIMediaPosition@@@
CONST	SEGMENT
??_7CPosPassThru@@6BIMediaPosition@@@ DQ FLAT:??_R4CPosPassThru@@6BIMediaPosition@@@ ; CPosPassThru::`vftable'
	DQ	FLAT:?QueryInterface@CPosPassThru@@W7EAAJAEBU_GUID@@PEAPEAX@Z
	DQ	FLAT:?AddRef@CPosPassThru@@W7EAAKXZ
	DQ	FLAT:?Release@CPosPassThru@@W7EAAKXZ
	DQ	FLAT:?GetTypeInfoCount@CMediaPosition@@UEAAJPEAI@Z
	DQ	FLAT:?GetTypeInfo@CMediaPosition@@UEAAJIKPEAPEAUITypeInfo@@@Z
	DQ	FLAT:?GetIDsOfNames@CMediaPosition@@UEAAJAEBU_GUID@@PEAPEA_WIKPEAJ@Z
	DQ	FLAT:?Invoke@CMediaPosition@@UEAAJJAEBU_GUID@@KGPEAUtagDISPPARAMS@@PEAUtagVARIANT@@PEAUtagEXCEPINFO@@PEAI@Z
	DQ	FLAT:?get_Duration@CPosPassThru@@UEAAJPEAN@Z
	DQ	FLAT:?put_CurrentPosition@CPosPassThru@@UEAAJN@Z
	DQ	FLAT:?get_CurrentPosition@CPosPassThru@@UEAAJPEAN@Z
	DQ	FLAT:?get_StopTime@CPosPassThru@@UEAAJPEAN@Z
	DQ	FLAT:?put_StopTime@CPosPassThru@@UEAAJN@Z
	DQ	FLAT:?get_PrerollTime@CPosPassThru@@UEAAJPEAN@Z
	DQ	FLAT:?put_PrerollTime@CPosPassThru@@UEAAJN@Z
	DQ	FLAT:?put_Rate@CPosPassThru@@UEAAJN@Z
	DQ	FLAT:?get_Rate@CPosPassThru@@UEAAJPEAN@Z
	DQ	FLAT:?CanSeekForward@CPosPassThru@@UEAAJPEAJ@Z
	DQ	FLAT:?CanSeekBackward@CPosPassThru@@UEAAJPEAJ@Z
CONST	ENDS
;	COMDAT ??_7CPosPassThru@@6B@
CONST	SEGMENT
??_7CPosPassThru@@6B@ DQ FLAT:??_R4CPosPassThru@@6B@	; CPosPassThru::`vftable'
	DQ	FLAT:?QueryInterface@CPosPassThru@@UEAAJAEBU_GUID@@PEAPEAX@Z
	DQ	FLAT:?AddRef@CPosPassThru@@UEAAKXZ
	DQ	FLAT:?Release@CPosPassThru@@UEAAKXZ
	DQ	FLAT:?GetCapabilities@CPosPassThru@@UEAAJPEAK@Z
	DQ	FLAT:?CheckCapabilities@CPosPassThru@@UEAAJPEAK@Z
	DQ	FLAT:?IsFormatSupported@CPosPassThru@@UEAAJPEBU_GUID@@@Z
	DQ	FLAT:?QueryPreferredFormat@CPosPassThru@@UEAAJPEAU_GUID@@@Z
	DQ	FLAT:?GetTimeFormatW@CPosPassThru@@UEAAJPEAU_GUID@@@Z
	DQ	FLAT:?IsUsingTimeFormat@CPosPassThru@@UEAAJPEBU_GUID@@@Z
	DQ	FLAT:?SetTimeFormat@CPosPassThru@@UEAAJPEBU_GUID@@@Z
	DQ	FLAT:?GetDuration@CPosPassThru@@UEAAJPEA_J@Z
	DQ	FLAT:?GetStopPosition@CPosPassThru@@UEAAJPEA_J@Z
	DQ	FLAT:?GetCurrentPosition@CPosPassThru@@UEAAJPEA_J@Z
	DQ	FLAT:?ConvertTimeFormat@CPosPassThru@@UEAAJPEA_JPEBU_GUID@@_J1@Z
	DQ	FLAT:?SetPositions@CPosPassThru@@UEAAJPEA_JK0K@Z
	DQ	FLAT:?GetPositions@CPosPassThru@@UEAAJPEA_J0@Z
	DQ	FLAT:?GetAvailable@CPosPassThru@@UEAAJPEA_J0@Z
	DQ	FLAT:?SetRate@CPosPassThru@@UEAAJN@Z
	DQ	FLAT:?GetRate@CPosPassThru@@UEAAJPEAN@Z
	DQ	FLAT:?GetPreroll@CPosPassThru@@UEAAJPEA_J@Z
	DQ	FLAT:?GetMediaTime@CPosPassThru@@UEAAJPEA_J0@Z
; Function compile flags: /Odtp /RTCsu
CONST	ENDS
;	COMDAT ??0CPosPassThru@@QEAA@PEB_WPEAUIUnknown@@PEAJPEAUIPin@@@Z
_TEXT	SEGMENT
this$ = 48
pName$ = 56
pUnk$ = 64
phr$ = 72
pPin$ = 80
??0CPosPassThru@@QEAA@PEB_WPEAUIUnknown@@PEAJPEAUIPin@@@Z PROC ; CPosPassThru::CPosPassThru, COMDAT
; Line 488
$LN5:
	mov	QWORD PTR [rsp+32], r9
	mov	QWORD PTR [rsp+24], r8
	mov	QWORD PTR [rsp+16], rdx
	mov	QWORD PTR [rsp+8], rcx
	push	rdi
	sub	rsp, 32					; 00000020H
	mov	rdi, rsp
	mov	ecx, 8
	mov	eax, -858993460				; ccccccccH
	rep stosd
	mov	rcx, QWORD PTR [rsp+48]
	mov	rcx, QWORD PTR this$[rsp]
	call	??0IMediaSeeking@@QEAA@XZ
	mov	rax, QWORD PTR this$[rsp]
	add	rax, 8
	mov	r8, QWORD PTR pUnk$[rsp]
	mov	rdx, QWORD PTR pName$[rsp]
	mov	rcx, rax
	call	??0CMediaPosition@@QEAA@PEB_WPEAUIUnknown@@@Z ; CMediaPosition::CMediaPosition
	mov	rax, QWORD PTR this$[rsp]
	lea	rcx, OFFSET FLAT:??_7CPosPassThru@@6B@
	mov	QWORD PTR [rax], rcx
	mov	rax, QWORD PTR this$[rsp]
	lea	rcx, OFFSET FLAT:??_7CPosPassThru@@6BIMediaPosition@@@
	mov	QWORD PTR [rax+8], rcx
	mov	rax, QWORD PTR this$[rsp]
	lea	rcx, OFFSET FLAT:??_7CPosPassThru@@6BCUnknown@@@
	mov	QWORD PTR [rax+16], rcx
	mov	rax, QWORD PTR this$[rsp]
	mov	rcx, QWORD PTR pPin$[rsp]
	mov	QWORD PTR [rax+56], rcx
; Line 489
	cmp	QWORD PTR pPin$[rsp], 0
	jne	SHORT $LN1@CPosPassTh
; Line 490
	mov	rax, QWORD PTR phr$[rsp]
	mov	DWORD PTR [rax], -2147467261		; ffffffff80004003H
$LN1@CPosPassTh:
; Line 493
	mov	rax, QWORD PTR this$[rsp]
	add	rsp, 32					; 00000020H
	pop	rdi
	ret	0
??0CPosPassThru@@QEAA@PEB_WPEAUIUnknown@@PEAJPEAUIPin@@@Z ENDP ; CPosPassThru::CPosPassThru
_TEXT	ENDS
PUBLIC	?GetOwner@CUnknown@@QEBAPEAUIUnknown@@XZ	; CUnknown::GetOwner
;	COMDAT pdata
; File c:\downloads\wpf mediakit - copy\src\filters\baseclasses\ctlutil.h
pdata	SEGMENT
$pdata$?QueryInterface@CPosPassThru@@UEAAJAEBU_GUID@@PEAPEAX@Z DD imagerel $LN3
	DD	imagerel $LN3+93
	DD	imagerel $unwind$?QueryInterface@CPosPassThru@@UEAAJAEBU_GUID@@PEAPEAX@Z
pdata	ENDS
;	COMDAT xdata
xdata	SEGMENT
$unwind$?QueryInterface@CPosPassThru@@UEAAJAEBU_GUID@@PEAPEAX@Z DD 022801H
	DD	070105214H
; Function compile flags: /Odtp /RTCsu
xdata	ENDS
;	COMDAT ?QueryInterface@CPosPassThru@@UEAAJAEBU_GUID@@PEAPEAX@Z
_TEXT	SEGMENT
tv71 = 32
this$ = 64
riid$ = 72
ppv$ = 80
?QueryInterface@CPosPassThru@@UEAAJAEBU_GUID@@PEAPEAX@Z PROC ; CPosPassThru::QueryInterface, COMDAT
; Line 309
$LN3:
	mov	QWORD PTR [rsp+24], r8
	mov	QWORD PTR [rsp+16], rdx
	mov	QWORD PTR [rsp+8], rcx
	push	rdi
	sub	rsp, 48					; 00000030H
	mov	rdi, rsp
	mov	ecx, 12
	mov	eax, -858993460				; ccccccccH
	rep stosd
	mov	rcx, QWORD PTR [rsp+64]
	mov	rax, QWORD PTR this$[rsp]
	add	rax, 16
	mov	rcx, rax
	call	?GetOwner@CUnknown@@QEBAPEAUIUnknown@@XZ ; CUnknown::GetOwner
	mov	QWORD PTR tv71[rsp], rax
	mov	rax, QWORD PTR tv71[rsp]
	mov	rax, QWORD PTR [rax]
	mov	r8, QWORD PTR ppv$[rsp]
	mov	rdx, QWORD PTR riid$[rsp]
	mov	rcx, QWORD PTR tv71[rsp]
	call	QWORD PTR [rax]
	add	rsp, 48					; 00000030H
	pop	rdi
	ret	0
?QueryInterface@CPosPassThru@@UEAAJAEBU_GUID@@PEAPEAX@Z ENDP ; CPosPassThru::QueryInterface
_TEXT	ENDS
;	COMDAT pdata
; File c:\downloads\wpf mediakit - copy\src\filters\baseclasses\combase.h
pdata	SEGMENT
$pdata$?GetOwner@CUnknown@@QEBAPEAUIUnknown@@XZ DD imagerel $LN3
	DD	imagerel $LN3+17
	DD	imagerel $unwind$?GetOwner@CUnknown@@QEBAPEAUIUnknown@@XZ
pdata	ENDS
;	COMDAT xdata
xdata	SEGMENT
$unwind$?GetOwner@CUnknown@@QEBAPEAUIUnknown@@XZ DD 010601H
	DD	07006H
; Function compile flags: /Odtp /RTCsu
xdata	ENDS
;	COMDAT ?GetOwner@CUnknown@@QEBAPEAUIUnknown@@XZ
_TEXT	SEGMENT
this$ = 16
?GetOwner@CUnknown@@QEBAPEAUIUnknown@@XZ PROC		; CUnknown::GetOwner, COMDAT
; Line 224
$LN3:
	mov	QWORD PTR [rsp+8], rcx
	push	rdi
; Line 225
	mov	rax, QWORD PTR this$[rsp]
	mov	rax, QWORD PTR [rax+16]
; Line 226
	pop	rdi
	ret	0
?GetOwner@CUnknown@@QEBAPEAUIUnknown@@XZ ENDP		; CUnknown::GetOwner
_TEXT	ENDS
;	COMDAT pdata
; File c:\downloads\wpf mediakit - copy\src\filters\baseclasses\ctlutil.h
pdata	SEGMENT
$pdata$?AddRef@CPosPassThru@@UEAAKXZ DD imagerel $LN3
	DD	imagerel $LN3+74
	DD	imagerel $unwind$?AddRef@CPosPassThru@@UEAAKXZ
pdata	ENDS
;	COMDAT xdata
xdata	SEGMENT
$unwind$?AddRef@CPosPassThru@@UEAAKXZ DD 021e01H
	DD	07006520aH
; Function compile flags: /Odtp /RTCsu
xdata	ENDS
;	COMDAT ?AddRef@CPosPassThru@@UEAAKXZ
_TEXT	SEGMENT
tv71 = 32
this$ = 64
?AddRef@CPosPassThru@@UEAAKXZ PROC			; CPosPassThru::AddRef, COMDAT
; Line 309
$LN3:
	mov	QWORD PTR [rsp+8], rcx
	push	rdi
	sub	rsp, 48					; 00000030H
	mov	rdi, rsp
	mov	ecx, 12
	mov	eax, -858993460				; ccccccccH
	rep stosd
	mov	rcx, QWORD PTR [rsp+64]
	mov	rax, QWORD PTR this$[rsp]
	add	rax, 16
	mov	rcx, rax
	call	?GetOwner@CUnknown@@QEBAPEAUIUnknown@@XZ ; CUnknown::GetOwner
	mov	QWORD PTR tv71[rsp], rax
	mov	rax, QWORD PTR tv71[rsp]
	mov	rax, QWORD PTR [rax]
	mov	rcx, QWORD PTR tv71[rsp]
	call	QWORD PTR [rax+8]
	add	rsp, 48					; 00000030H
	pop	rdi
	ret	0
?AddRef@CPosPassThru@@UEAAKXZ ENDP			; CPosPassThru::AddRef
_TEXT	ENDS
;	COMDAT pdata
pdata	SEGMENT
$pdata$?Release@CPosPassThru@@UEAAKXZ DD imagerel $LN3
	DD	imagerel $LN3+74
	DD	imagerel $unwind$?Release@CPosPassThru@@UEAAKXZ
pdata	ENDS
;	COMDAT xdata
xdata	SEGMENT
$unwind$?Release@CPosPassThru@@UEAAKXZ DD 021e01H
	DD	07006520aH
; Function compile flags: /Odtp /RTCsu
xdata	ENDS
;	COMDAT ?Release@CPosPassThru@@UEAAKXZ
_TEXT	SEGMENT
tv71 = 32
this$ = 64
?Release@CPosPassThru@@UEAAKXZ PROC			; CPosPassThru::Release, COMDAT
; Line 309
$LN3:
	mov	QWORD PTR [rsp+8], rcx
	push	rdi
	sub	rsp, 48					; 00000030H
	mov	rdi, rsp
	mov	ecx, 12
	mov	eax, -858993460				; ccccccccH
	rep stosd
	mov	rcx, QWORD PTR [rsp+64]
	mov	rax, QWORD PTR this$[rsp]
	add	rax, 16
	mov	rcx, rax
	call	?GetOwner@CUnknown@@QEBAPEAUIUnknown@@XZ ; CUnknown::GetOwner
	mov	QWORD PTR tv71[rsp], rax
	mov	rax, QWORD PTR tv71[rsp]
	mov	rax, QWORD PTR [rax]
	mov	rcx, QWORD PTR tv71[rsp]
	call	QWORD PTR [rax+16]
	add	rsp, 48					; 00000030H
	pop	rdi
	ret	0
?Release@CPosPassThru@@UEAAKXZ ENDP			; CPosPassThru::Release
_TEXT	ENDS
;	COMDAT pdata
pdata	SEGMENT
$pdata$?GetMediaTime@CPosPassThru@@UEAAJPEA_J0@Z DD imagerel $LN3
	DD	imagerel $LN3+23
	DD	imagerel $unwind$?GetMediaTime@CPosPassThru@@UEAAJPEA_J0@Z
pdata	ENDS
;	COMDAT xdata
xdata	SEGMENT
$unwind$?GetMediaTime@CPosPassThru@@UEAAJPEA_J0@Z DD 011001H
	DD	07010H
; Function compile flags: /Odtp /RTCsu
xdata	ENDS
;	COMDAT ?GetMediaTime@CPosPassThru@@UEAAJPEA_J0@Z
_TEXT	SEGMENT
this$ = 16
pStartTime$ = 24
pEndTime$ = 32
?GetMediaTime@CPosPassThru@@UEAAJPEA_J0@Z PROC		; CPosPassThru::GetMediaTime, COMDAT
; Line 316
$LN3:
	mov	QWORD PTR [rsp+24], r8
	mov	QWORD PTR [rsp+16], rdx
	mov	QWORD PTR [rsp+8], rcx
	push	rdi
; Line 317
	mov	eax, -2147467259			; ffffffff80004005H
; Line 318
	pop	rdi
	ret	0
?GetMediaTime@CPosPassThru@@UEAAJPEA_J0@Z ENDP		; CPosPassThru::GetMediaTime
_TEXT	ENDS
;	COMDAT pdata
pdata	SEGMENT
$pdata$??0IMediaSeeking@@QEAA@XZ DD imagerel $LN3
	DD	imagerel $LN3+51
	DD	imagerel $unwind$??0IMediaSeeking@@QEAA@XZ
pdata	ENDS
;	COMDAT xdata
xdata	SEGMENT
$unwind$??0IMediaSeeking@@QEAA@XZ DD 021e01H
	DD	07006320aH
; Function compile flags: /Odtp /RTCsu
xdata	ENDS
;	COMDAT ??0IMediaSeeking@@QEAA@XZ
_TEXT	SEGMENT
this$ = 48
??0IMediaSeeking@@QEAA@XZ PROC				; IMediaSeeking::IMediaSeeking, COMDAT
$LN3:
	mov	QWORD PTR [rsp+8], rcx
	push	rdi
	sub	rsp, 32					; 00000020H
	mov	rdi, rsp
	mov	ecx, 8
	mov	eax, -858993460				; ccccccccH
	rep stosd
	mov	rcx, QWORD PTR [rsp+48]
	mov	rcx, QWORD PTR this$[rsp]
	call	??0IUnknown@@QEAA@XZ
	mov	rax, QWORD PTR this$[rsp]
	add	rsp, 32					; 00000020H
	pop	rdi
	ret	0
??0IMediaSeeking@@QEAA@XZ ENDP				; IMediaSeeking::IMediaSeeking
_TEXT	ENDS
EXTRN	IID_IMediaSeeking:BYTE
;	COMDAT pdata
; File c:\downloads\wpf mediakit - copy\src\filters\baseclasses\ctlutil.cpp
pdata	SEGMENT
$pdata$?NonDelegatingQueryInterface@CPosPassThru@@UEAAJAEBU_GUID@@PEAPEAX@Z DD imagerel $LN5
	DD	imagerel $LN5+141
	DD	imagerel $unwind$?NonDelegatingQueryInterface@CPosPassThru@@UEAAJAEBU_GUID@@PEAPEAX@Z
pdata	ENDS
;	COMDAT xdata
xdata	SEGMENT
$unwind$?NonDelegatingQueryInterface@CPosPassThru@@UEAAJAEBU_GUID@@PEAPEAX@Z DD 022801H
	DD	070103214H
; Function compile flags: /Odtp /RTCsu
xdata	ENDS
;	COMDAT ?NonDelegatingQueryInterface@CPosPassThru@@UEAAJAEBU_GUID@@PEAPEAX@Z
_TEXT	SEGMENT
this$ = 48
riid$ = 56
ppv$ = 64
?NonDelegatingQueryInterface@CPosPassThru@@UEAAJAEBU_GUID@@PEAPEAX@Z PROC ; CPosPassThru::NonDelegatingQueryInterface, COMDAT
; Line 500
$LN5:
	mov	QWORD PTR [rsp+24], r8
	mov	QWORD PTR [rsp+16], rdx
	mov	QWORD PTR [rsp+8], rcx
	push	rdi
	sub	rsp, 32					; 00000020H
	mov	rdi, rsp
	mov	ecx, 8
	mov	eax, -858993460				; ccccccccH
	rep stosd
	mov	rcx, QWORD PTR [rsp+48]
; Line 501
	cmp	QWORD PTR ppv$[rsp], 0
	jne	SHORT $LN2@NonDelegat@4
	mov	eax, -2147467261			; ffffffff80004003H
	jmp	SHORT $LN3@NonDelegat@4
$LN2@NonDelegat@4:
; Line 502
	mov	rax, QWORD PTR ppv$[rsp]
	mov	QWORD PTR [rax], 0
; Line 504
	lea	rdx, OFFSET FLAT:IID_IMediaSeeking
	mov	rcx, QWORD PTR riid$[rsp]
	call	==
	test	eax, eax
	je	SHORT $LN1@NonDelegat@4
; Line 505
	mov	rax, QWORD PTR this$[rsp]
	sub	rax, 16
	mov	rdx, QWORD PTR ppv$[rsp]
	mov	rcx, rax
	call	GetInterface
	jmp	SHORT $LN3@NonDelegat@4
$LN1@NonDelegat@4:
; Line 507
	mov	rax, QWORD PTR this$[rsp]
	mov	r8, QWORD PTR ppv$[rsp]
	mov	rdx, QWORD PTR riid$[rsp]
	mov	rcx, rax
	call	?NonDelegatingQueryInterface@CMediaPosition@@UEAAJAEBU_GUID@@PEAPEAX@Z ; CMediaPosition::NonDelegatingQueryInterface
$LN3@NonDelegat@4:
; Line 508
	add	rsp, 32					; 00000020H
	pop	rdi
	ret	0
?NonDelegatingQueryInterface@CPosPassThru@@UEAAJAEBU_GUID@@PEAPEAX@Z ENDP ; CPosPassThru::NonDelegatingQueryInterface
_TEXT	ENDS
PUBLIC	?GetPeer@CPosPassThru@@AEAAJPEAPEAUIMediaPosition@@@Z ; CPosPassThru::GetPeer
;	COMDAT pdata
pdata	SEGMENT
$pdata$?GetPeer@CPosPassThru@@AEAAJPEAPEAUIMediaPosition@@@Z DD imagerel $LN5
	DD	imagerel $LN5+197
	DD	imagerel $unwind$?GetPeer@CPosPassThru@@AEAAJPEAPEAUIMediaPosition@@@Z
pdata	ENDS
;	COMDAT xdata
xdata	SEGMENT
$unwind$?GetPeer@CPosPassThru@@AEAAJPEAPEAUIMediaPosition@@@Z DD 022301H
	DD	0700bb20fH
xdata	ENDS
;	COMDAT CONST
CONST	SEGMENT
?GetPeer@CPosPassThru@@AEAAJPEAPEAUIMediaPosition@@@Z$rtcName$0 DB 070H ; CPosPassThru::GetPeer
	DB	043H
	DB	06fH
	DB	06eH
	DB	06eH
	DB	065H
	DB	063H
	DB	074H
	DB	065H
	DB	064H
	DB	00H
	ORG $+1
?GetPeer@CPosPassThru@@AEAAJPEAPEAUIMediaPosition@@@Z$rtcName$1 DB 070H ; CPosPassThru::GetPeer
	DB	04dH
	DB	050H
	DB	00H
?GetPeer@CPosPassThru@@AEAAJPEAPEAUIMediaPosition@@@Z$rtcVarDesc DD 048H ; CPosPassThru::GetPeer
	DD	08H
	DQ	FLAT:?GetPeer@CPosPassThru@@AEAAJPEAPEAUIMediaPosition@@@Z$rtcName$1
	DD	028H
	DD	08H
	DQ	FLAT:?GetPeer@CPosPassThru@@AEAAJPEAPEAUIMediaPosition@@@Z$rtcName$0
	ORG $+96
?GetPeer@CPosPassThru@@AEAAJPEAPEAUIMediaPosition@@@Z$rtcFrameData DD 02H ; CPosPassThru::GetPeer
	DD	00H
	DQ	FLAT:?GetPeer@CPosPassThru@@AEAAJPEAPEAUIMediaPosition@@@Z$rtcVarDesc
; Function compile flags: /Odtp /RTCsu
CONST	ENDS
;	COMDAT ?GetPeer@CPosPassThru@@AEAAJPEAPEAUIMediaPosition@@@Z
_TEXT	SEGMENT
pConnected$ = 40
hr$ = 52
pMP$ = 72
this$ = 112
ppMP$ = 120
?GetPeer@CPosPassThru@@AEAAJPEAPEAUIMediaPosition@@@Z PROC ; CPosPassThru::GetPeer, COMDAT
; Line 515
$LN5:
	mov	QWORD PTR [rsp+16], rdx
	mov	QWORD PTR [rsp+8], rcx
	push	rdi
	sub	rsp, 96					; 00000060H
	mov	rdi, rsp
	mov	ecx, 24
	mov	eax, -858993460				; ccccccccH
	rep stosd
	mov	rcx, QWORD PTR [rsp+112]
; Line 516
	mov	rax, QWORD PTR ppMP$[rsp]
	mov	QWORD PTR [rax], 0
; Line 519
	mov	rax, QWORD PTR this$[rsp]
	mov	rax, QWORD PTR [rax+56]
	mov	rcx, QWORD PTR this$[rsp]
	mov	rcx, QWORD PTR [rcx+56]
	mov	rax, QWORD PTR [rax]
	lea	rdx, QWORD PTR pConnected$[rsp]
	call	QWORD PTR [rax+48]
	mov	DWORD PTR hr$[rsp], eax
; Line 520
	cmp	DWORD PTR hr$[rsp], 0
	jge	SHORT $LN2@GetPeer
; Line 521
	mov	eax, -2147467263			; ffffffff80004001H
	jmp	SHORT $LN3@GetPeer
$LN2@GetPeer:
; Line 524
	mov	rax, QWORD PTR pConnected$[rsp]
	mov	rax, QWORD PTR [rax]
	lea	r8, QWORD PTR pMP$[rsp]
	lea	rdx, OFFSET FLAT:IID_IMediaPosition
	mov	rcx, QWORD PTR pConnected$[rsp]
	call	QWORD PTR [rax]
	mov	DWORD PTR hr$[rsp], eax
; Line 525
	mov	rax, QWORD PTR pConnected$[rsp]
	mov	rax, QWORD PTR [rax]
	mov	rcx, QWORD PTR pConnected$[rsp]
	call	QWORD PTR [rax+16]
; Line 526
	cmp	DWORD PTR hr$[rsp], 0
	jge	SHORT $LN1@GetPeer
; Line 527
	mov	eax, -2147467263			; ffffffff80004001H
	jmp	SHORT $LN3@GetPeer
$LN1@GetPeer:
; Line 530
	mov	rax, QWORD PTR ppMP$[rsp]
	mov	rcx, QWORD PTR pMP$[rsp]
	mov	QWORD PTR [rax], rcx
; Line 531
	xor	eax, eax
$LN3@GetPeer:
; Line 532
	mov	rdi, rax
	mov	rcx, rsp
	lea	rdx, OFFSET FLAT:?GetPeer@CPosPassThru@@AEAAJPEAPEAUIMediaPosition@@@Z$rtcFrameData
	call	_RTC_CheckStackVars
	mov	rax, rdi
	add	rsp, 96					; 00000060H
	pop	rdi
	ret	0
?GetPeer@CPosPassThru@@AEAAJPEAPEAUIMediaPosition@@@Z ENDP ; CPosPassThru::GetPeer
_TEXT	ENDS
PUBLIC	?GetPeerSeeking@CPosPassThru@@AEAAJPEAPEAUIMediaSeeking@@@Z ; CPosPassThru::GetPeerSeeking
;	COMDAT pdata
pdata	SEGMENT
$pdata$?GetPeerSeeking@CPosPassThru@@AEAAJPEAPEAUIMediaSeeking@@@Z DD imagerel $LN5
	DD	imagerel $LN5+197
	DD	imagerel $unwind$?GetPeerSeeking@CPosPassThru@@AEAAJPEAPEAUIMediaSeeking@@@Z
pdata	ENDS
;	COMDAT xdata
xdata	SEGMENT
$unwind$?GetPeerSeeking@CPosPassThru@@AEAAJPEAPEAUIMediaSeeking@@@Z DD 022301H
	DD	0700bb20fH
xdata	ENDS
;	COMDAT CONST
CONST	SEGMENT
?GetPeerSeeking@CPosPassThru@@AEAAJPEAPEAUIMediaSeeking@@@Z$rtcName$0 DB 070H ; CPosPassThru::GetPeerSeeking
	DB	043H
	DB	06fH
	DB	06eH
	DB	06eH
	DB	065H
	DB	063H
	DB	074H
	DB	065H
	DB	064H
	DB	00H
	ORG $+1
?GetPeerSeeking@CPosPassThru@@AEAAJPEAPEAUIMediaSeeking@@@Z$rtcName$1 DB 070H ; CPosPassThru::GetPeerSeeking
	DB	04dH
	DB	053H
	DB	00H
?GetPeerSeeking@CPosPassThru@@AEAAJPEAPEAUIMediaSeeking@@@Z$rtcVarDesc DD 048H ; CPosPassThru::GetPeerSeeking
	DD	08H
	DQ	FLAT:?GetPeerSeeking@CPosPassThru@@AEAAJPEAPEAUIMediaSeeking@@@Z$rtcName$1
	DD	028H
	DD	08H
	DQ	FLAT:?GetPeerSeeking@CPosPassThru@@AEAAJPEAPEAUIMediaSeeking@@@Z$rtcName$0
	ORG $+96
?GetPeerSeeking@CPosPassThru@@AEAAJPEAPEAUIMediaSeeking@@@Z$rtcFrameData DD 02H ; CPosPassThru::GetPeerSeeking
	DD	00H
	DQ	FLAT:?GetPeerSeeking@CPosPassThru@@AEAAJPEAPEAUIMediaSeeking@@@Z$rtcVarDesc
; Function compile flags: /Odtp /RTCsu
CONST	ENDS
;	COMDAT ?GetPeerSeeking@CPosPassThru@@AEAAJPEAPEAUIMediaSeeking@@@Z
_TEXT	SEGMENT
pConnected$ = 40
hr$ = 52
pMS$ = 72
this$ = 112
ppMS$ = 120
?GetPeerSeeking@CPosPassThru@@AEAAJPEAPEAUIMediaSeeking@@@Z PROC ; CPosPassThru::GetPeerSeeking, COMDAT
; Line 539
$LN5:
	mov	QWORD PTR [rsp+16], rdx
	mov	QWORD PTR [rsp+8], rcx
	push	rdi
	sub	rsp, 96					; 00000060H
	mov	rdi, rsp
	mov	ecx, 24
	mov	eax, -858993460				; ccccccccH
	rep stosd
	mov	rcx, QWORD PTR [rsp+112]
; Line 540
	mov	rax, QWORD PTR ppMS$[rsp]
	mov	QWORD PTR [rax], 0
; Line 543
	mov	rax, QWORD PTR this$[rsp]
	mov	rax, QWORD PTR [rax+56]
	mov	rcx, QWORD PTR this$[rsp]
	mov	rcx, QWORD PTR [rcx+56]
	mov	rax, QWORD PTR [rax]
	lea	rdx, QWORD PTR pConnected$[rsp]
	call	QWORD PTR [rax+48]
	mov	DWORD PTR hr$[rsp], eax
; Line 544
	cmp	DWORD PTR hr$[rsp], 0
	jge	SHORT $LN2@GetPeerSee
; Line 545
	mov	eax, -2147467263			; ffffffff80004001H
	jmp	SHORT $LN3@GetPeerSee
$LN2@GetPeerSee:
; Line 548
	mov	rax, QWORD PTR pConnected$[rsp]
	mov	rax, QWORD PTR [rax]
	lea	r8, QWORD PTR pMS$[rsp]
	lea	rdx, OFFSET FLAT:IID_IMediaSeeking
	mov	rcx, QWORD PTR pConnected$[rsp]
	call	QWORD PTR [rax]
	mov	DWORD PTR hr$[rsp], eax
; Line 549
	mov	rax, QWORD PTR pConnected$[rsp]
	mov	rax, QWORD PTR [rax]
	mov	rcx, QWORD PTR pConnected$[rsp]
	call	QWORD PTR [rax+16]
; Line 550
	cmp	DWORD PTR hr$[rsp], 0
	jge	SHORT $LN1@GetPeerSee
; Line 551
	mov	eax, -2147467263			; ffffffff80004001H
	jmp	SHORT $LN3@GetPeerSee
$LN1@GetPeerSee:
; Line 554
	mov	rax, QWORD PTR ppMS$[rsp]
	mov	rcx, QWORD PTR pMS$[rsp]
	mov	QWORD PTR [rax], rcx
; Line 555
	xor	eax, eax
$LN3@GetPeerSee:
; Line 556
	mov	rdi, rax
	mov	rcx, rsp
	lea	rdx, OFFSET FLAT:?GetPeerSeeking@CPosPassThru@@AEAAJPEAPEAUIMediaSeeking@@@Z$rtcFrameData
	call	_RTC_CheckStackVars
	mov	rax, rdi
	add	rsp, 96					; 00000060H
	pop	rdi
	ret	0
?GetPeerSeeking@CPosPassThru@@AEAAJPEAPEAUIMediaSeeking@@@Z ENDP ; CPosPassThru::GetPeerSeeking
_TEXT	ENDS
;	COMDAT pdata
pdata	SEGMENT
$pdata$?GetCapabilities@CPosPassThru@@UEAAJPEAK@Z DD imagerel $LN4
	DD	imagerel $LN4+139
	DD	imagerel $unwind$?GetCapabilities@CPosPassThru@@UEAAJPEAK@Z
pdata	ENDS
;	COMDAT xdata
xdata	SEGMENT
$unwind$?GetCapabilities@CPosPassThru@@UEAAJPEAK@Z DD 022301H
	DD	0700b720fH
xdata	ENDS
;	COMDAT CONST
CONST	SEGMENT
?GetCapabilities@CPosPassThru@@UEAAJPEAK@Z$rtcName$0 DB 070H ; CPosPassThru::GetCapabilities
	DB	04dH
	DB	053H
	DB	00H
	ORG $+12
?GetCapabilities@CPosPassThru@@UEAAJPEAK@Z$rtcVarDesc DD 028H ; CPosPassThru::GetCapabilities
	DD	08H
	DQ	FLAT:?GetCapabilities@CPosPassThru@@UEAAJPEAK@Z$rtcName$0
	ORG $+48
?GetCapabilities@CPosPassThru@@UEAAJPEAK@Z$rtcFrameData DD 01H ; CPosPassThru::GetCapabilities
	DD	00H
	DQ	FLAT:?GetCapabilities@CPosPassThru@@UEAAJPEAK@Z$rtcVarDesc
; Function compile flags: /Odtp /RTCsu
CONST	ENDS
;	COMDAT ?GetCapabilities@CPosPassThru@@UEAAJPEAK@Z
_TEXT	SEGMENT
pMS$ = 40
hr$ = 52
this$ = 80
pCaps$ = 88
?GetCapabilities@CPosPassThru@@UEAAJPEAK@Z PROC		; CPosPassThru::GetCapabilities, COMDAT
; Line 564
$LN4:
	mov	QWORD PTR [rsp+16], rdx
	mov	QWORD PTR [rsp+8], rcx
	push	rdi
	sub	rsp, 64					; 00000040H
	mov	rdi, rsp
	mov	ecx, 16
	mov	eax, -858993460				; ccccccccH
	rep stosd
	mov	rcx, QWORD PTR [rsp+80]
; Line 566
	lea	rdx, QWORD PTR pMS$[rsp]
	mov	rcx, QWORD PTR this$[rsp]
	call	?GetPeerSeeking@CPosPassThru@@AEAAJPEAPEAUIMediaSeeking@@@Z ; CPosPassThru::GetPeerSeeking
	mov	DWORD PTR hr$[rsp], eax
; Line 567
	cmp	DWORD PTR hr$[rsp], 0
	jge	SHORT $LN1@GetCapabil
; Line 568
	mov	eax, DWORD PTR hr$[rsp]
	jmp	SHORT $LN2@GetCapabil
$LN1@GetCapabil:
; Line 571
	mov	rax, QWORD PTR pMS$[rsp]
	mov	rax, QWORD PTR [rax]
	mov	rdx, QWORD PTR pCaps$[rsp]
	mov	rcx, QWORD PTR pMS$[rsp]
	call	QWORD PTR [rax+24]
	mov	DWORD PTR hr$[rsp], eax
; Line 572
	mov	rax, QWORD PTR pMS$[rsp]
	mov	rax, QWORD PTR [rax]
	mov	rcx, QWORD PTR pMS$[rsp]
	call	QWORD PTR [rax+16]
; Line 573
	mov	eax, DWORD PTR hr$[rsp]
$LN2@GetCapabil:
; Line 574
	mov	rdi, rax
	mov	rcx, rsp
	lea	rdx, OFFSET FLAT:?GetCapabilities@CPosPassThru@@UEAAJPEAK@Z$rtcFrameData
	call	_RTC_CheckStackVars
	mov	rax, rdi
	add	rsp, 64					; 00000040H
	pop	rdi
	ret	0
?GetCapabilities@CPosPassThru@@UEAAJPEAK@Z ENDP		; CPosPassThru::GetCapabilities
_TEXT	ENDS
;	COMDAT pdata
pdata	SEGMENT
$pdata$?CheckCapabilities@CPosPassThru@@UEAAJPEAK@Z DD imagerel $LN4
	DD	imagerel $LN4+139
	DD	imagerel $unwind$?CheckCapabilities@CPosPassThru@@UEAAJPEAK@Z
pdata	ENDS
;	COMDAT xdata
xdata	SEGMENT
$unwind$?CheckCapabilities@CPosPassThru@@UEAAJPEAK@Z DD 022301H
	DD	0700b720fH
xdata	ENDS
;	COMDAT CONST
CONST	SEGMENT
?CheckCapabilities@CPosPassThru@@UEAAJPEAK@Z$rtcName$0 DB 070H ; CPosPassThru::CheckCapabilities
	DB	04dH
	DB	053H
	DB	00H
	ORG $+12
?CheckCapabilities@CPosPassThru@@UEAAJPEAK@Z$rtcVarDesc DD 028H ; CPosPassThru::CheckCapabilities
	DD	08H
	DQ	FLAT:?CheckCapabilities@CPosPassThru@@UEAAJPEAK@Z$rtcName$0
	ORG $+48
?CheckCapabilities@CPosPassThru@@UEAAJPEAK@Z$rtcFrameData DD 01H ; CPosPassThru::CheckCapabilities
	DD	00H
	DQ	FLAT:?CheckCapabilities@CPosPassThru@@UEAAJPEAK@Z$rtcVarDesc
; Function compile flags: /Odtp /RTCsu
CONST	ENDS
;	COMDAT ?CheckCapabilities@CPosPassThru@@UEAAJPEAK@Z
_TEXT	SEGMENT
pMS$ = 40
hr$ = 52
this$ = 80
pCaps$ = 88
?CheckCapabilities@CPosPassThru@@UEAAJPEAK@Z PROC	; CPosPassThru::CheckCapabilities, COMDAT
; Line 578
$LN4:
	mov	QWORD PTR [rsp+16], rdx
	mov	QWORD PTR [rsp+8], rcx
	push	rdi
	sub	rsp, 64					; 00000040H
	mov	rdi, rsp
	mov	ecx, 16
	mov	eax, -858993460				; ccccccccH
	rep stosd
	mov	rcx, QWORD PTR [rsp+80]
; Line 580
	lea	rdx, QWORD PTR pMS$[rsp]
	mov	rcx, QWORD PTR this$[rsp]
	call	?GetPeerSeeking@CPosPassThru@@AEAAJPEAPEAUIMediaSeeking@@@Z ; CPosPassThru::GetPeerSeeking
	mov	DWORD PTR hr$[rsp], eax
; Line 581
	cmp	DWORD PTR hr$[rsp], 0
	jge	SHORT $LN1@CheckCapab
; Line 582
	mov	eax, DWORD PTR hr$[rsp]
	jmp	SHORT $LN2@CheckCapab
$LN1@CheckCapab:
; Line 585
	mov	rax, QWORD PTR pMS$[rsp]
	mov	rax, QWORD PTR [rax]
	mov	rdx, QWORD PTR pCaps$[rsp]
	mov	rcx, QWORD PTR pMS$[rsp]
	call	QWORD PTR [rax+32]
	mov	DWORD PTR hr$[rsp], eax
; Line 586
	mov	rax, QWORD PTR pMS$[rsp]
	mov	rax, QWORD PTR [rax]
	mov	rcx, QWORD PTR pMS$[rsp]
	call	QWORD PTR [rax+16]
; Line 587
	mov	eax, DWORD PTR hr$[rsp]
$LN2@CheckCapab:
; Line 588
	mov	rdi, rax
	mov	rcx, rsp
	lea	rdx, OFFSET FLAT:?CheckCapabilities@CPosPassThru@@UEAAJPEAK@Z$rtcFrameData
	call	_RTC_CheckStackVars
	mov	rax, rdi
	add	rsp, 64					; 00000040H
	pop	rdi
	ret	0
?CheckCapabilities@CPosPassThru@@UEAAJPEAK@Z ENDP	; CPosPassThru::CheckCapabilities
_TEXT	ENDS
;	COMDAT pdata
pdata	SEGMENT
$pdata$?IsFormatSupported@CPosPassThru@@UEAAJPEBU_GUID@@@Z DD imagerel $LN4
	DD	imagerel $LN4+139
	DD	imagerel $unwind$?IsFormatSupported@CPosPassThru@@UEAAJPEBU_GUID@@@Z
pdata	ENDS
;	COMDAT xdata
xdata	SEGMENT
$unwind$?IsFormatSupported@CPosPassThru@@UEAAJPEBU_GUID@@@Z DD 022301H
	DD	0700b720fH
xdata	ENDS
;	COMDAT CONST
CONST	SEGMENT
?IsFormatSupported@CPosPassThru@@UEAAJPEBU_GUID@@@Z$rtcName$0 DB 070H ; CPosPassThru::IsFormatSupported
	DB	04dH
	DB	053H
	DB	00H
	ORG $+12
?IsFormatSupported@CPosPassThru@@UEAAJPEBU_GUID@@@Z$rtcVarDesc DD 028H ; CPosPassThru::IsFormatSupported
	DD	08H
	DQ	FLAT:?IsFormatSupported@CPosPassThru@@UEAAJPEBU_GUID@@@Z$rtcName$0
	ORG $+48
?IsFormatSupported@CPosPassThru@@UEAAJPEBU_GUID@@@Z$rtcFrameData DD 01H ; CPosPassThru::IsFormatSupported
	DD	00H
	DQ	FLAT:?IsFormatSupported@CPosPassThru@@UEAAJPEBU_GUID@@@Z$rtcVarDesc
; Function compile flags: /Odtp /RTCsu
CONST	ENDS
;	COMDAT ?IsFormatSupported@CPosPassThru@@UEAAJPEBU_GUID@@@Z
_TEXT	SEGMENT
pMS$ = 40
hr$ = 52
this$ = 80
pFormat$ = 88
?IsFormatSupported@CPosPassThru@@UEAAJPEBU_GUID@@@Z PROC ; CPosPassThru::IsFormatSupported, COMDAT
; Line 592
$LN4:
	mov	QWORD PTR [rsp+16], rdx
	mov	QWORD PTR [rsp+8], rcx
	push	rdi
	sub	rsp, 64					; 00000040H
	mov	rdi, rsp
	mov	ecx, 16
	mov	eax, -858993460				; ccccccccH
	rep stosd
	mov	rcx, QWORD PTR [rsp+80]
; Line 594
	lea	rdx, QWORD PTR pMS$[rsp]
	mov	rcx, QWORD PTR this$[rsp]
	call	?GetPeerSeeking@CPosPassThru@@AEAAJPEAPEAUIMediaSeeking@@@Z ; CPosPassThru::GetPeerSeeking
	mov	DWORD PTR hr$[rsp], eax
; Line 595
	cmp	DWORD PTR hr$[rsp], 0
	jge	SHORT $LN1@IsFormatSu
; Line 596
	mov	eax, DWORD PTR hr$[rsp]
	jmp	SHORT $LN2@IsFormatSu
$LN1@IsFormatSu:
; Line 599
	mov	rax, QWORD PTR pMS$[rsp]
	mov	rax, QWORD PTR [rax]
	mov	rdx, QWORD PTR pFormat$[rsp]
	mov	rcx, QWORD PTR pMS$[rsp]
	call	QWORD PTR [rax+40]
	mov	DWORD PTR hr$[rsp], eax
; Line 600
	mov	rax, QWORD PTR pMS$[rsp]
	mov	rax, QWORD PTR [rax]
	mov	rcx, QWORD PTR pMS$[rsp]
	call	QWORD PTR [rax+16]
; Line 601
	mov	eax, DWORD PTR hr$[rsp]
$LN2@IsFormatSu:
; Line 602
	mov	rdi, rax
	mov	rcx, rsp
	lea	rdx, OFFSET FLAT:?IsFormatSupported@CPosPassThru@@UEAAJPEBU_GUID@@@Z$rtcFrameData
	call	_RTC_CheckStackVars
	mov	rax, rdi
	add	rsp, 64					; 00000040H
	pop	rdi
	ret	0
?IsFormatSupported@CPosPassThru@@UEAAJPEBU_GUID@@@Z ENDP ; CPosPassThru::IsFormatSupported
_TEXT	ENDS
;	COMDAT pdata
pdata	SEGMENT
$pdata$?QueryPreferredFormat@CPosPassThru@@UEAAJPEAU_GUID@@@Z DD imagerel $LN4
	DD	imagerel $LN4+139
	DD	imagerel $unwind$?QueryPreferredFormat@CPosPassThru@@UEAAJPEAU_GUID@@@Z
pdata	ENDS
;	COMDAT xdata
xdata	SEGMENT
$unwind$?QueryPreferredFormat@CPosPassThru@@UEAAJPEAU_GUID@@@Z DD 022301H
	DD	0700b720fH
xdata	ENDS
;	COMDAT CONST
CONST	SEGMENT
?QueryPreferredFormat@CPosPassThru@@UEAAJPEAU_GUID@@@Z$rtcName$0 DB 070H ; CPosPassThru::QueryPreferredFormat
	DB	04dH
	DB	053H
	DB	00H
	ORG $+12
?QueryPreferredFormat@CPosPassThru@@UEAAJPEAU_GUID@@@Z$rtcVarDesc DD 028H ; CPosPassThru::QueryPreferredFormat
	DD	08H
	DQ	FLAT:?QueryPreferredFormat@CPosPassThru@@UEAAJPEAU_GUID@@@Z$rtcName$0
	ORG $+48
?QueryPreferredFormat@CPosPassThru@@UEAAJPEAU_GUID@@@Z$rtcFrameData DD 01H ; CPosPassThru::QueryPreferredFormat
	DD	00H
	DQ	FLAT:?QueryPreferredFormat@CPosPassThru@@UEAAJPEAU_GUID@@@Z$rtcVarDesc
; Function compile flags: /Odtp /RTCsu
CONST	ENDS
;	COMDAT ?QueryPreferredFormat@CPosPassThru@@UEAAJPEAU_GUID@@@Z
_TEXT	SEGMENT
pMS$ = 40
hr$ = 52
this$ = 80
pFormat$ = 88
?QueryPreferredFormat@CPosPassThru@@UEAAJPEAU_GUID@@@Z PROC ; CPosPassThru::QueryPreferredFormat, COMDAT
; Line 607
$LN4:
	mov	QWORD PTR [rsp+16], rdx
	mov	QWORD PTR [rsp+8], rcx
	push	rdi
	sub	rsp, 64					; 00000040H
	mov	rdi, rsp
	mov	ecx, 16
	mov	eax, -858993460				; ccccccccH
	rep stosd
	mov	rcx, QWORD PTR [rsp+80]
; Line 609
	lea	rdx, QWORD PTR pMS$[rsp]
	mov	rcx, QWORD PTR this$[rsp]
	call	?GetPeerSeeking@CPosPassThru@@AEAAJPEAPEAUIMediaSeeking@@@Z ; CPosPassThru::GetPeerSeeking
	mov	DWORD PTR hr$[rsp], eax
; Line 610
	cmp	DWORD PTR hr$[rsp], 0
	jge	SHORT $LN1@QueryPrefe
; Line 611
	mov	eax, DWORD PTR hr$[rsp]
	jmp	SHORT $LN2@QueryPrefe
$LN1@QueryPrefe:
; Line 614
	mov	rax, QWORD PTR pMS$[rsp]
	mov	rax, QWORD PTR [rax]
	mov	rdx, QWORD PTR pFormat$[rsp]
	mov	rcx, QWORD PTR pMS$[rsp]
	call	QWORD PTR [rax+48]
	mov	DWORD PTR hr$[rsp], eax
; Line 615
	mov	rax, QWORD PTR pMS$[rsp]
	mov	rax, QWORD PTR [rax]
	mov	rcx, QWORD PTR pMS$[rsp]
	call	QWORD PTR [rax+16]
; Line 616
	mov	eax, DWORD PTR hr$[rsp]
$LN2@QueryPrefe:
; Line 617
	mov	rdi, rax
	mov	rcx, rsp
	lea	rdx, OFFSET FLAT:?QueryPreferredFormat@CPosPassThru@@UEAAJPEAU_GUID@@@Z$rtcFrameData
	call	_RTC_CheckStackVars
	mov	rax, rdi
	add	rsp, 64					; 00000040H
	pop	rdi
	ret	0
?QueryPreferredFormat@CPosPassThru@@UEAAJPEAU_GUID@@@Z ENDP ; CPosPassThru::QueryPreferredFormat
_TEXT	ENDS
;	COMDAT pdata
pdata	SEGMENT
$pdata$?SetTimeFormat@CPosPassThru@@UEAAJPEBU_GUID@@@Z DD imagerel $LN4
	DD	imagerel $LN4+139
	DD	imagerel $unwind$?SetTimeFormat@CPosPassThru@@UEAAJPEBU_GUID@@@Z
pdata	ENDS
;	COMDAT xdata
xdata	SEGMENT
$unwind$?SetTimeFormat@CPosPassThru@@UEAAJPEBU_GUID@@@Z DD 022301H
	DD	0700b720fH
xdata	ENDS
;	COMDAT CONST
CONST	SEGMENT
?SetTimeFormat@CPosPassThru@@UEAAJPEBU_GUID@@@Z$rtcName$0 DB 070H ; CPosPassThru::SetTimeFormat
	DB	04dH
	DB	053H
	DB	00H
	ORG $+12
?SetTimeFormat@CPosPassThru@@UEAAJPEBU_GUID@@@Z$rtcVarDesc DD 028H ; CPosPassThru::SetTimeFormat
	DD	08H
	DQ	FLAT:?SetTimeFormat@CPosPassThru@@UEAAJPEBU_GUID@@@Z$rtcName$0
	ORG $+48
?SetTimeFormat@CPosPassThru@@UEAAJPEBU_GUID@@@Z$rtcFrameData DD 01H ; CPosPassThru::SetTimeFormat
	DD	00H
	DQ	FLAT:?SetTimeFormat@CPosPassThru@@UEAAJPEBU_GUID@@@Z$rtcVarDesc
; Function compile flags: /Odtp /RTCsu
CONST	ENDS
;	COMDAT ?SetTimeFormat@CPosPassThru@@UEAAJPEBU_GUID@@@Z
_TEXT	SEGMENT
pMS$ = 40
hr$ = 52
this$ = 80
pFormat$ = 88
?SetTimeFormat@CPosPassThru@@UEAAJPEBU_GUID@@@Z PROC	; CPosPassThru::SetTimeFormat, COMDAT
; Line 622
$LN4:
	mov	QWORD PTR [rsp+16], rdx
	mov	QWORD PTR [rsp+8], rcx
	push	rdi
	sub	rsp, 64					; 00000040H
	mov	rdi, rsp
	mov	ecx, 16
	mov	eax, -858993460				; ccccccccH
	rep stosd
	mov	rcx, QWORD PTR [rsp+80]
; Line 624
	lea	rdx, QWORD PTR pMS$[rsp]
	mov	rcx, QWORD PTR this$[rsp]
	call	?GetPeerSeeking@CPosPassThru@@AEAAJPEAPEAUIMediaSeeking@@@Z ; CPosPassThru::GetPeerSeeking
	mov	DWORD PTR hr$[rsp], eax
; Line 625
	cmp	DWORD PTR hr$[rsp], 0
	jge	SHORT $LN1@SetTimeFor
; Line 626
	mov	eax, DWORD PTR hr$[rsp]
	jmp	SHORT $LN2@SetTimeFor
$LN1@SetTimeFor:
; Line 629
	mov	rax, QWORD PTR pMS$[rsp]
	mov	rax, QWORD PTR [rax]
	mov	rdx, QWORD PTR pFormat$[rsp]
	mov	rcx, QWORD PTR pMS$[rsp]
	call	QWORD PTR [rax+72]
	mov	DWORD PTR hr$[rsp], eax
; Line 630
	mov	rax, QWORD PTR pMS$[rsp]
	mov	rax, QWORD PTR [rax]
	mov	rcx, QWORD PTR pMS$[rsp]
	call	QWORD PTR [rax+16]
; Line 631
	mov	eax, DWORD PTR hr$[rsp]
$LN2@SetTimeFor:
; Line 632
	mov	rdi, rax
	mov	rcx, rsp
	lea	rdx, OFFSET FLAT:?SetTimeFormat@CPosPassThru@@UEAAJPEBU_GUID@@@Z$rtcFrameData
	call	_RTC_CheckStackVars
	mov	rax, rdi
	add	rsp, 64					; 00000040H
	pop	rdi
	ret	0
?SetTimeFormat@CPosPassThru@@UEAAJPEBU_GUID@@@Z ENDP	; CPosPassThru::SetTimeFormat
_TEXT	ENDS
;	COMDAT pdata
pdata	SEGMENT
$pdata$?GetTimeFormatW@CPosPassThru@@UEAAJPEAU_GUID@@@Z DD imagerel $LN4
	DD	imagerel $LN4+139
	DD	imagerel $unwind$?GetTimeFormatW@CPosPassThru@@UEAAJPEAU_GUID@@@Z
pdata	ENDS
;	COMDAT xdata
xdata	SEGMENT
$unwind$?GetTimeFormatW@CPosPassThru@@UEAAJPEAU_GUID@@@Z DD 022301H
	DD	0700b720fH
xdata	ENDS
;	COMDAT CONST
CONST	SEGMENT
?GetTimeFormatW@CPosPassThru@@UEAAJPEAU_GUID@@@Z$rtcName$0 DB 070H ; CPosPassThru::GetTimeFormatW
	DB	04dH
	DB	053H
	DB	00H
	ORG $+12
?GetTimeFormatW@CPosPassThru@@UEAAJPEAU_GUID@@@Z$rtcVarDesc DD 028H ; CPosPassThru::GetTimeFormatW
	DD	08H
	DQ	FLAT:?GetTimeFormatW@CPosPassThru@@UEAAJPEAU_GUID@@@Z$rtcName$0
	ORG $+48
?GetTimeFormatW@CPosPassThru@@UEAAJPEAU_GUID@@@Z$rtcFrameData DD 01H ; CPosPassThru::GetTimeFormatW
	DD	00H
	DQ	FLAT:?GetTimeFormatW@CPosPassThru@@UEAAJPEAU_GUID@@@Z$rtcVarDesc
; Function compile flags: /Odtp /RTCsu
CONST	ENDS
;	COMDAT ?GetTimeFormatW@CPosPassThru@@UEAAJPEAU_GUID@@@Z
_TEXT	SEGMENT
pMS$ = 40
hr$ = 52
this$ = 80
pFormat$ = 88
?GetTimeFormatW@CPosPassThru@@UEAAJPEAU_GUID@@@Z PROC	; CPosPassThru::GetTimeFormatW, COMDAT
; Line 637
$LN4:
	mov	QWORD PTR [rsp+16], rdx
	mov	QWORD PTR [rsp+8], rcx
	push	rdi
	sub	rsp, 64					; 00000040H
	mov	rdi, rsp
	mov	ecx, 16
	mov	eax, -858993460				; ccccccccH
	rep stosd
	mov	rcx, QWORD PTR [rsp+80]
; Line 639
	lea	rdx, QWORD PTR pMS$[rsp]
	mov	rcx, QWORD PTR this$[rsp]
	call	?GetPeerSeeking@CPosPassThru@@AEAAJPEAPEAUIMediaSeeking@@@Z ; CPosPassThru::GetPeerSeeking
	mov	DWORD PTR hr$[rsp], eax
; Line 640
	cmp	DWORD PTR hr$[rsp], 0
	jge	SHORT $LN1@GetTimeFor
; Line 641
	mov	eax, DWORD PTR hr$[rsp]
	jmp	SHORT $LN2@GetTimeFor
$LN1@GetTimeFor:
; Line 644
	mov	rax, QWORD PTR pMS$[rsp]
	mov	rax, QWORD PTR [rax]
	mov	rdx, QWORD PTR pFormat$[rsp]
	mov	rcx, QWORD PTR pMS$[rsp]
	call	QWORD PTR [rax+56]
	mov	DWORD PTR hr$[rsp], eax
; Line 645
	mov	rax, QWORD PTR pMS$[rsp]
	mov	rax, QWORD PTR [rax]
	mov	rcx, QWORD PTR pMS$[rsp]
	call	QWORD PTR [rax+16]
; Line 646
	mov	eax, DWORD PTR hr$[rsp]
$LN2@GetTimeFor:
; Line 647
	mov	rdi, rax
	mov	rcx, rsp
	lea	rdx, OFFSET FLAT:?GetTimeFormatW@CPosPassThru@@UEAAJPEAU_GUID@@@Z$rtcFrameData
	call	_RTC_CheckStackVars
	mov	rax, rdi
	add	rsp, 64					; 00000040H
	pop	rdi
	ret	0
?GetTimeFormatW@CPosPassThru@@UEAAJPEAU_GUID@@@Z ENDP	; CPosPassThru::GetTimeFormatW
_TEXT	ENDS
;	COMDAT pdata
pdata	SEGMENT
$pdata$?IsUsingTimeFormat@CPosPassThru@@UEAAJPEBU_GUID@@@Z DD imagerel $LN4
	DD	imagerel $LN4+139
	DD	imagerel $unwind$?IsUsingTimeFormat@CPosPassThru@@UEAAJPEBU_GUID@@@Z
pdata	ENDS
;	COMDAT xdata
xdata	SEGMENT
$unwind$?IsUsingTimeFormat@CPosPassThru@@UEAAJPEBU_GUID@@@Z DD 022301H
	DD	0700b720fH
xdata	ENDS
;	COMDAT CONST
CONST	SEGMENT
?IsUsingTimeFormat@CPosPassThru@@UEAAJPEBU_GUID@@@Z$rtcName$0 DB 070H ; CPosPassThru::IsUsingTimeFormat
	DB	04dH
	DB	053H
	DB	00H
	ORG $+12
?IsUsingTimeFormat@CPosPassThru@@UEAAJPEBU_GUID@@@Z$rtcVarDesc DD 028H ; CPosPassThru::IsUsingTimeFormat
	DD	08H
	DQ	FLAT:?IsUsingTimeFormat@CPosPassThru@@UEAAJPEBU_GUID@@@Z$rtcName$0
	ORG $+48
?IsUsingTimeFormat@CPosPassThru@@UEAAJPEBU_GUID@@@Z$rtcFrameData DD 01H ; CPosPassThru::IsUsingTimeFormat
	DD	00H
	DQ	FLAT:?IsUsingTimeFormat@CPosPassThru@@UEAAJPEBU_GUID@@@Z$rtcVarDesc
; Function compile flags: /Odtp /RTCsu
CONST	ENDS
;	COMDAT ?IsUsingTimeFormat@CPosPassThru@@UEAAJPEBU_GUID@@@Z
_TEXT	SEGMENT
pMS$ = 40
hr$ = 52
this$ = 80
pFormat$ = 88
?IsUsingTimeFormat@CPosPassThru@@UEAAJPEBU_GUID@@@Z PROC ; CPosPassThru::IsUsingTimeFormat, COMDAT
; Line 652
$LN4:
	mov	QWORD PTR [rsp+16], rdx
	mov	QWORD PTR [rsp+8], rcx
	push	rdi
	sub	rsp, 64					; 00000040H
	mov	rdi, rsp
	mov	ecx, 16
	mov	eax, -858993460				; ccccccccH
	rep stosd
	mov	rcx, QWORD PTR [rsp+80]
; Line 654
	lea	rdx, QWORD PTR pMS$[rsp]
	mov	rcx, QWORD PTR this$[rsp]
	call	?GetPeerSeeking@CPosPassThru@@AEAAJPEAPEAUIMediaSeeking@@@Z ; CPosPassThru::GetPeerSeeking
	mov	DWORD PTR hr$[rsp], eax
; Line 655
	cmp	DWORD PTR hr$[rsp], 0
	jge	SHORT $LN1@IsUsingTim
; Line 656
	mov	eax, DWORD PTR hr$[rsp]
	jmp	SHORT $LN2@IsUsingTim
$LN1@IsUsingTim:
; Line 659
	mov	rax, QWORD PTR pMS$[rsp]
	mov	rax, QWORD PTR [rax]
	mov	rdx, QWORD PTR pFormat$[rsp]
	mov	rcx, QWORD PTR pMS$[rsp]
	call	QWORD PTR [rax+64]
	mov	DWORD PTR hr$[rsp], eax
; Line 660
	mov	rax, QWORD PTR pMS$[rsp]
	mov	rax, QWORD PTR [rax]
	mov	rcx, QWORD PTR pMS$[rsp]
	call	QWORD PTR [rax+16]
; Line 661
	mov	eax, DWORD PTR hr$[rsp]
$LN2@IsUsingTim:
; Line 662
	mov	rdi, rax
	mov	rcx, rsp
	lea	rdx, OFFSET FLAT:?IsUsingTimeFormat@CPosPassThru@@UEAAJPEBU_GUID@@@Z$rtcFrameData
	call	_RTC_CheckStackVars
	mov	rax, rdi
	add	rsp, 64					; 00000040H
	pop	rdi
	ret	0
?IsUsingTimeFormat@CPosPassThru@@UEAAJPEBU_GUID@@@Z ENDP ; CPosPassThru::IsUsingTimeFormat
_TEXT	ENDS
;	COMDAT pdata
pdata	SEGMENT
$pdata$?ConvertTimeFormat@CPosPassThru@@UEAAJPEA_JPEBU_GUID@@_J1@Z DD imagerel $LN4
	DD	imagerel $LN4+172
	DD	imagerel $unwind$?ConvertTimeFormat@CPosPassThru@@UEAAJPEA_JPEBU_GUID@@_J1@Z
pdata	ENDS
;	COMDAT xdata
xdata	SEGMENT
$unwind$?ConvertTimeFormat@CPosPassThru@@UEAAJPEA_JPEBU_GUID@@_J1@Z DD 022d01H
	DD	070159219H
xdata	ENDS
;	COMDAT CONST
CONST	SEGMENT
?ConvertTimeFormat@CPosPassThru@@UEAAJPEA_JPEBU_GUID@@_J1@Z$rtcName$0 DB 070H ; CPosPassThru::ConvertTimeFormat
	DB	04dH
	DB	053H
	DB	00H
	ORG $+12
?ConvertTimeFormat@CPosPassThru@@UEAAJPEA_JPEBU_GUID@@_J1@Z$rtcVarDesc DD 038H ; CPosPassThru::ConvertTimeFormat
	DD	08H
	DQ	FLAT:?ConvertTimeFormat@CPosPassThru@@UEAAJPEA_JPEBU_GUID@@_J1@Z$rtcName$0
	ORG $+48
?ConvertTimeFormat@CPosPassThru@@UEAAJPEA_JPEBU_GUID@@_J1@Z$rtcFrameData DD 01H ; CPosPassThru::ConvertTimeFormat
	DD	00H
	DQ	FLAT:?ConvertTimeFormat@CPosPassThru@@UEAAJPEA_JPEBU_GUID@@_J1@Z$rtcVarDesc
; Function compile flags: /Odtp /RTCsu
CONST	ENDS
;	COMDAT ?ConvertTimeFormat@CPosPassThru@@UEAAJPEA_JPEBU_GUID@@_J1@Z
_TEXT	SEGMENT
pMS$ = 56
hr$ = 68
this$ = 96
pTarget$ = 104
pTargetFormat$ = 112
Source$ = 120
pSourceFormat$ = 128
?ConvertTimeFormat@CPosPassThru@@UEAAJPEA_JPEBU_GUID@@_J1@Z PROC ; CPosPassThru::ConvertTimeFormat, COMDAT
; Line 668
$LN4:
	mov	QWORD PTR [rsp+32], r9
	mov	QWORD PTR [rsp+24], r8
	mov	QWORD PTR [rsp+16], rdx
	mov	QWORD PTR [rsp+8], rcx
	push	rdi
	sub	rsp, 80					; 00000050H
	mov	rdi, rsp
	mov	ecx, 20
	mov	eax, -858993460				; ccccccccH
	rep stosd
	mov	rcx, QWORD PTR [rsp+96]
; Line 670
	lea	rdx, QWORD PTR pMS$[rsp]
	mov	rcx, QWORD PTR this$[rsp]
	call	?GetPeerSeeking@CPosPassThru@@AEAAJPEAPEAUIMediaSeeking@@@Z ; CPosPassThru::GetPeerSeeking
	mov	DWORD PTR hr$[rsp], eax
; Line 671
	cmp	DWORD PTR hr$[rsp], 0
	jge	SHORT $LN1@ConvertTim
; Line 672
	mov	eax, DWORD PTR hr$[rsp]
	jmp	SHORT $LN2@ConvertTim
$LN1@ConvertTim:
; Line 675
	mov	rax, QWORD PTR pMS$[rsp]
	mov	rax, QWORD PTR [rax]
	mov	rcx, QWORD PTR pSourceFormat$[rsp]
	mov	QWORD PTR [rsp+32], rcx
	mov	r9, QWORD PTR Source$[rsp]
	mov	r8, QWORD PTR pTargetFormat$[rsp]
	mov	rdx, QWORD PTR pTarget$[rsp]
	mov	rcx, QWORD PTR pMS$[rsp]
	call	QWORD PTR [rax+104]
	mov	DWORD PTR hr$[rsp], eax
; Line 676
	mov	rax, QWORD PTR pMS$[rsp]
	mov	rax, QWORD PTR [rax]
	mov	rcx, QWORD PTR pMS$[rsp]
	call	QWORD PTR [rax+16]
; Line 677
	mov	eax, DWORD PTR hr$[rsp]
$LN2@ConvertTim:
; Line 678
	mov	rdi, rax
	mov	rcx, rsp
	lea	rdx, OFFSET FLAT:?ConvertTimeFormat@CPosPassThru@@UEAAJPEA_JPEBU_GUID@@_J1@Z$rtcFrameData
	call	_RTC_CheckStackVars
	mov	rax, rdi
	add	rsp, 80					; 00000050H
	pop	rdi
	ret	0
?ConvertTimeFormat@CPosPassThru@@UEAAJPEA_JPEBU_GUID@@_J1@Z ENDP ; CPosPassThru::ConvertTimeFormat
_TEXT	ENDS
;	COMDAT pdata
pdata	SEGMENT
$pdata$?SetPositions@CPosPassThru@@UEAAJPEA_JK0K@Z DD imagerel $LN4
	DD	imagerel $LN4+170
	DD	imagerel $unwind$?SetPositions@CPosPassThru@@UEAAJPEA_JK0K@Z
pdata	ENDS
;	COMDAT xdata
xdata	SEGMENT
$unwind$?SetPositions@CPosPassThru@@UEAAJPEA_JK0K@Z DD 022d01H
	DD	070159219H
xdata	ENDS
;	COMDAT CONST
CONST	SEGMENT
?SetPositions@CPosPassThru@@UEAAJPEA_JK0K@Z$rtcName$0 DB 070H ; CPosPassThru::SetPositions
	DB	04dH
	DB	053H
	DB	00H
	ORG $+12
?SetPositions@CPosPassThru@@UEAAJPEA_JK0K@Z$rtcVarDesc DD 038H ; CPosPassThru::SetPositions
	DD	08H
	DQ	FLAT:?SetPositions@CPosPassThru@@UEAAJPEA_JK0K@Z$rtcName$0
	ORG $+48
?SetPositions@CPosPassThru@@UEAAJPEA_JK0K@Z$rtcFrameData DD 01H ; CPosPassThru::SetPositions
	DD	00H
	DQ	FLAT:?SetPositions@CPosPassThru@@UEAAJPEA_JK0K@Z$rtcVarDesc
; Function compile flags: /Odtp /RTCsu
CONST	ENDS
;	COMDAT ?SetPositions@CPosPassThru@@UEAAJPEA_JK0K@Z
_TEXT	SEGMENT
pMS$ = 56
hr$ = 68
this$ = 96
pCurrent$ = 104
CurrentFlags$ = 112
pStop$ = 120
StopFlags$ = 128
?SetPositions@CPosPassThru@@UEAAJPEA_JK0K@Z PROC	; CPosPassThru::SetPositions, COMDAT
; Line 684
$LN4:
	mov	QWORD PTR [rsp+32], r9
	mov	DWORD PTR [rsp+24], r8d
	mov	QWORD PTR [rsp+16], rdx
	mov	QWORD PTR [rsp+8], rcx
	push	rdi
	sub	rsp, 80					; 00000050H
	mov	rdi, rsp
	mov	ecx, 20
	mov	eax, -858993460				; ccccccccH
	rep stosd
	mov	rcx, QWORD PTR [rsp+96]
; Line 686
	lea	rdx, QWORD PTR pMS$[rsp]
	mov	rcx, QWORD PTR this$[rsp]
	call	?GetPeerSeeking@CPosPassThru@@AEAAJPEAPEAUIMediaSeeking@@@Z ; CPosPassThru::GetPeerSeeking
	mov	DWORD PTR hr$[rsp], eax
; Line 687
	cmp	DWORD PTR hr$[rsp], 0
	jge	SHORT $LN1@SetPositio
; Line 688
	mov	eax, DWORD PTR hr$[rsp]
	jmp	SHORT $LN2@SetPositio
$LN1@SetPositio:
; Line 691
	mov	rax, QWORD PTR pMS$[rsp]
	mov	rax, QWORD PTR [rax]
	mov	ecx, DWORD PTR StopFlags$[rsp]
	mov	DWORD PTR [rsp+32], ecx
	mov	r9, QWORD PTR pStop$[rsp]
	mov	r8d, DWORD PTR CurrentFlags$[rsp]
	mov	rdx, QWORD PTR pCurrent$[rsp]
	mov	rcx, QWORD PTR pMS$[rsp]
	call	QWORD PTR [rax+112]
	mov	DWORD PTR hr$[rsp], eax
; Line 692
	mov	rax, QWORD PTR pMS$[rsp]
	mov	rax, QWORD PTR [rax]
	mov	rcx, QWORD PTR pMS$[rsp]
	call	QWORD PTR [rax+16]
; Line 693
	mov	eax, DWORD PTR hr$[rsp]
$LN2@SetPositio:
; Line 694
	mov	rdi, rax
	mov	rcx, rsp
	lea	rdx, OFFSET FLAT:?SetPositions@CPosPassThru@@UEAAJPEA_JK0K@Z$rtcFrameData
	call	_RTC_CheckStackVars
	mov	rax, rdi
	add	rsp, 80					; 00000050H
	pop	rdi
	ret	0
?SetPositions@CPosPassThru@@UEAAJPEA_JK0K@Z ENDP	; CPosPassThru::SetPositions
_TEXT	ENDS
;	COMDAT pdata
pdata	SEGMENT
$pdata$?GetPositions@CPosPassThru@@UEAAJPEA_J0@Z DD imagerel $LN4
	DD	imagerel $LN4+149
	DD	imagerel $unwind$?GetPositions@CPosPassThru@@UEAAJPEA_J0@Z
pdata	ENDS
;	COMDAT xdata
xdata	SEGMENT
$unwind$?GetPositions@CPosPassThru@@UEAAJPEA_J0@Z DD 022801H
	DD	070107214H
xdata	ENDS
;	COMDAT CONST
CONST	SEGMENT
?GetPositions@CPosPassThru@@UEAAJPEA_J0@Z$rtcName$0 DB 070H ; CPosPassThru::GetPositions
	DB	04dH
	DB	053H
	DB	00H
	ORG $+12
?GetPositions@CPosPassThru@@UEAAJPEA_J0@Z$rtcVarDesc DD 028H ; CPosPassThru::GetPositions
	DD	08H
	DQ	FLAT:?GetPositions@CPosPassThru@@UEAAJPEA_J0@Z$rtcName$0
	ORG $+48
?GetPositions@CPosPassThru@@UEAAJPEA_J0@Z$rtcFrameData DD 01H ; CPosPassThru::GetPositions
	DD	00H
	DQ	FLAT:?GetPositions@CPosPassThru@@UEAAJPEA_J0@Z$rtcVarDesc
; Function compile flags: /Odtp /RTCsu
CONST	ENDS
;	COMDAT ?GetPositions@CPosPassThru@@UEAAJPEA_J0@Z
_TEXT	SEGMENT
pMS$ = 40
hr$ = 52
this$ = 80
pCurrent$ = 88
pStop$ = 96
?GetPositions@CPosPassThru@@UEAAJPEA_J0@Z PROC		; CPosPassThru::GetPositions, COMDAT
; Line 698
$LN4:
	mov	QWORD PTR [rsp+24], r8
	mov	QWORD PTR [rsp+16], rdx
	mov	QWORD PTR [rsp+8], rcx
	push	rdi
	sub	rsp, 64					; 00000040H
	mov	rdi, rsp
	mov	ecx, 16
	mov	eax, -858993460				; ccccccccH
	rep stosd
	mov	rcx, QWORD PTR [rsp+80]
; Line 700
	lea	rdx, QWORD PTR pMS$[rsp]
	mov	rcx, QWORD PTR this$[rsp]
	call	?GetPeerSeeking@CPosPassThru@@AEAAJPEAPEAUIMediaSeeking@@@Z ; CPosPassThru::GetPeerSeeking
	mov	DWORD PTR hr$[rsp], eax
; Line 701
	cmp	DWORD PTR hr$[rsp], 0
	jge	SHORT $LN1@GetPositio
; Line 702
	mov	eax, DWORD PTR hr$[rsp]
	jmp	SHORT $LN2@GetPositio
$LN1@GetPositio:
; Line 705
	mov	rax, QWORD PTR pMS$[rsp]
	mov	rax, QWORD PTR [rax]
	mov	r8, QWORD PTR pStop$[rsp]
	mov	rdx, QWORD PTR pCurrent$[rsp]
	mov	rcx, QWORD PTR pMS$[rsp]
	call	QWORD PTR [rax+120]
	mov	DWORD PTR hr$[rsp], eax
; Line 706
	mov	rax, QWORD PTR pMS$[rsp]
	mov	rax, QWORD PTR [rax]
	mov	rcx, QWORD PTR pMS$[rsp]
	call	QWORD PTR [rax+16]
; Line 707
	mov	eax, DWORD PTR hr$[rsp]
$LN2@GetPositio:
; Line 708
	mov	rdi, rax
	mov	rcx, rsp
	lea	rdx, OFFSET FLAT:?GetPositions@CPosPassThru@@UEAAJPEA_J0@Z$rtcFrameData
	call	_RTC_CheckStackVars
	mov	rax, rdi
	add	rsp, 64					; 00000040H
	pop	rdi
	ret	0
?GetPositions@CPosPassThru@@UEAAJPEA_J0@Z ENDP		; CPosPassThru::GetPositions
_TEXT	ENDS
PUBLIC	?GetSeekingLongLong@CPosPassThru@@AEAAJP8IMediaSeeking@@EAAJPEA_J@Z0@Z ; CPosPassThru::GetSeekingLongLong
;	COMDAT pdata
pdata	SEGMENT
$pdata$?GetSeekingLongLong@CPosPassThru@@AEAAJP8IMediaSeeking@@EAAJPEA_J@Z0@Z DD imagerel $LN4
	DD	imagerel $LN4+129
	DD	imagerel $unwind$?GetSeekingLongLong@CPosPassThru@@AEAAJP8IMediaSeeking@@EAAJPEA_J@Z0@Z
pdata	ENDS
;	COMDAT xdata
xdata	SEGMENT
$unwind$?GetSeekingLongLong@CPosPassThru@@AEAAJP8IMediaSeeking@@EAAJPEA_J@Z0@Z DD 022801H
	DD	070107214H
xdata	ENDS
;	COMDAT CONST
CONST	SEGMENT
?GetSeekingLongLong@CPosPassThru@@AEAAJP8IMediaSeeking@@EAAJPEA_J@Z0@Z$rtcName$0 DB 070H ; CPosPassThru::GetSeekingLongLong
	DB	04dH
	DB	053H
	DB	00H
	ORG $+12
?GetSeekingLongLong@CPosPassThru@@AEAAJP8IMediaSeeking@@EAAJPEA_J@Z0@Z$rtcVarDesc DD 028H ; CPosPassThru::GetSeekingLongLong
	DD	08H
	DQ	FLAT:?GetSeekingLongLong@CPosPassThru@@AEAAJP8IMediaSeeking@@EAAJPEA_J@Z0@Z$rtcName$0
	ORG $+48
?GetSeekingLongLong@CPosPassThru@@AEAAJP8IMediaSeeking@@EAAJPEA_J@Z0@Z$rtcFrameData DD 01H ; CPosPassThru::GetSeekingLongLong
	DD	00H
	DQ	FLAT:?GetSeekingLongLong@CPosPassThru@@AEAAJP8IMediaSeeking@@EAAJPEA_J@Z0@Z$rtcVarDesc
; Function compile flags: /Odtp /RTCsu
CONST	ENDS
;	COMDAT ?GetSeekingLongLong@CPosPassThru@@AEAAJP8IMediaSeeking@@EAAJPEA_J@Z0@Z
_TEXT	SEGMENT
pMS$ = 40
hr$ = 52
this$ = 80
pMethod$ = 88
pll$ = 96
?GetSeekingLongLong@CPosPassThru@@AEAAJP8IMediaSeeking@@EAAJPEA_J@Z0@Z PROC ; CPosPassThru::GetSeekingLongLong, COMDAT
; Line 715
$LN4:
	mov	QWORD PTR [rsp+24], r8
	mov	QWORD PTR [rsp+16], rdx
	mov	QWORD PTR [rsp+8], rcx
	push	rdi
	sub	rsp, 64					; 00000040H
	mov	rdi, rsp
	mov	ecx, 16
	mov	eax, -858993460				; ccccccccH
	rep stosd
	mov	rcx, QWORD PTR [rsp+80]
; Line 717
	lea	rdx, QWORD PTR pMS$[rsp]
	mov	rcx, QWORD PTR this$[rsp]
	call	?GetPeerSeeking@CPosPassThru@@AEAAJPEAPEAUIMediaSeeking@@@Z ; CPosPassThru::GetPeerSeeking
	mov	DWORD PTR hr$[rsp], eax
; Line 718
	cmp	DWORD PTR hr$[rsp], 0
	jl	SHORT $LN1@GetSeeking
; Line 720
	mov	rdx, QWORD PTR pll$[rsp]
	mov	rcx, QWORD PTR pMS$[rsp]
	call	QWORD PTR pMethod$[rsp]
	mov	DWORD PTR hr$[rsp], eax
; Line 721
	mov	rax, QWORD PTR pMS$[rsp]
	mov	rax, QWORD PTR [rax]
	mov	rcx, QWORD PTR pMS$[rsp]
	call	QWORD PTR [rax+16]
$LN1@GetSeeking:
; Line 723
	mov	eax, DWORD PTR hr$[rsp]
; Line 724
	mov	edi, eax
	mov	rcx, rsp
	lea	rdx, OFFSET FLAT:?GetSeekingLongLong@CPosPassThru@@AEAAJP8IMediaSeeking@@EAAJPEA_J@Z0@Z$rtcFrameData
	call	_RTC_CheckStackVars
	mov	eax, edi
	add	rsp, 64					; 00000040H
	pop	rdi
	ret	0
?GetSeekingLongLong@CPosPassThru@@AEAAJP8IMediaSeeking@@EAAJPEA_J@Z0@Z ENDP ; CPosPassThru::GetSeekingLongLong
_TEXT	ENDS
PUBLIC	??_9IMediaSeeking@@$BGA@AA			; IMediaSeeking::`vcall'{96}'
;	COMDAT pdata
pdata	SEGMENT
$pdata$?GetCurrentPosition@CPosPassThru@@UEAAJPEA_J@Z DD imagerel $LN5
	DD	imagerel $LN5+119
	DD	imagerel $unwind$?GetCurrentPosition@CPosPassThru@@UEAAJPEA_J@Z
pdata	ENDS
;	COMDAT xdata
xdata	SEGMENT
$unwind$?GetCurrentPosition@CPosPassThru@@UEAAJPEA_J@Z DD 022301H
	DD	0700b520fH
; Function compile flags: /Odtp /RTCsu
xdata	ENDS
;	COMDAT ?GetCurrentPosition@CPosPassThru@@UEAAJPEA_J@Z
_TEXT	SEGMENT
hr$ = 32
this$ = 64
pCurrent$ = 72
?GetCurrentPosition@CPosPassThru@@UEAAJPEA_J@Z PROC	; CPosPassThru::GetCurrentPosition, COMDAT
; Line 730
$LN5:
	mov	QWORD PTR [rsp+16], rdx
	mov	QWORD PTR [rsp+8], rcx
	push	rdi
	sub	rsp, 48					; 00000030H
	mov	rdi, rsp
	mov	ecx, 12
	mov	eax, -858993460				; ccccccccH
	rep stosd
	mov	rcx, QWORD PTR [rsp+64]
; Line 732
	mov	rax, QWORD PTR this$[rsp]
	mov	rax, QWORD PTR [rax]
	xor	r8d, r8d
	mov	rdx, QWORD PTR pCurrent$[rsp]
	mov	rcx, QWORD PTR this$[rsp]
	call	QWORD PTR [rax+160]
	mov	DWORD PTR hr$[rsp], eax
; Line 733
	cmp	DWORD PTR hr$[rsp], 0
	jl	SHORT $LN2@GetCurrent
	mov	DWORD PTR hr$[rsp], 0
	jmp	SHORT $LN1@GetCurrent
$LN2@GetCurrent:
; Line 734
	mov	r8, QWORD PTR pCurrent$[rsp]
	lea	rdx, OFFSET FLAT:??_9IMediaSeeking@@$BGA@AA ; IMediaSeeking::`vcall'{96}'
	mov	rcx, QWORD PTR this$[rsp]
	call	?GetSeekingLongLong@CPosPassThru@@AEAAJP8IMediaSeeking@@EAAJPEA_J@Z0@Z ; CPosPassThru::GetSeekingLongLong
	mov	DWORD PTR hr$[rsp], eax
$LN1@GetCurrent:
; Line 735
	mov	eax, DWORD PTR hr$[rsp]
; Line 736
	add	rsp, 48					; 00000030H
	pop	rdi
	ret	0
?GetCurrentPosition@CPosPassThru@@UEAAJPEA_J@Z ENDP	; CPosPassThru::GetCurrentPosition
_TEXT	ENDS
PUBLIC	??_9IMediaSeeking@@$BFI@AA			; IMediaSeeking::`vcall'{88}'
;	COMDAT pdata
pdata	SEGMENT
$pdata$?GetStopPosition@CPosPassThru@@UEAAJPEA_J@Z DD imagerel $LN3
	DD	imagerel $LN3+63
	DD	imagerel $unwind$?GetStopPosition@CPosPassThru@@UEAAJPEA_J@Z
pdata	ENDS
;	COMDAT xdata
xdata	SEGMENT
$unwind$?GetStopPosition@CPosPassThru@@UEAAJPEA_J@Z DD 022301H
	DD	0700b320fH
; Function compile flags: /Odtp /RTCsu
xdata	ENDS
;	COMDAT ?GetStopPosition@CPosPassThru@@UEAAJPEA_J@Z
_TEXT	SEGMENT
this$ = 48
pStop$ = 56
?GetStopPosition@CPosPassThru@@UEAAJPEA_J@Z PROC	; CPosPassThru::GetStopPosition, COMDAT
; Line 741
$LN3:
	mov	QWORD PTR [rsp+16], rdx
	mov	QWORD PTR [rsp+8], rcx
	push	rdi
	sub	rsp, 32					; 00000020H
	mov	rdi, rsp
	mov	ecx, 8
	mov	eax, -858993460				; ccccccccH
	rep stosd
	mov	rcx, QWORD PTR [rsp+48]
; Line 742
	mov	r8, QWORD PTR pStop$[rsp]
	lea	rdx, OFFSET FLAT:??_9IMediaSeeking@@$BFI@AA ; IMediaSeeking::`vcall'{88}'
	mov	rcx, QWORD PTR this$[rsp]
	call	?GetSeekingLongLong@CPosPassThru@@AEAAJP8IMediaSeeking@@EAAJPEA_J@Z0@Z ; CPosPassThru::GetSeekingLongLong
; Line 743
	add	rsp, 32					; 00000020H
	pop	rdi
	ret	0
?GetStopPosition@CPosPassThru@@UEAAJPEA_J@Z ENDP	; CPosPassThru::GetStopPosition
_TEXT	ENDS
PUBLIC	??_9IMediaSeeking@@$BFA@AA			; IMediaSeeking::`vcall'{80}'
;	COMDAT pdata
pdata	SEGMENT
$pdata$?GetDuration@CPosPassThru@@UEAAJPEA_J@Z DD imagerel $LN3
	DD	imagerel $LN3+63
	DD	imagerel $unwind$?GetDuration@CPosPassThru@@UEAAJPEA_J@Z
pdata	ENDS
;	COMDAT xdata
xdata	SEGMENT
$unwind$?GetDuration@CPosPassThru@@UEAAJPEA_J@Z DD 022301H
	DD	0700b320fH
; Function compile flags: /Odtp /RTCsu
xdata	ENDS
;	COMDAT ?GetDuration@CPosPassThru@@UEAAJPEA_J@Z
_TEXT	SEGMENT
this$ = 48
pDuration$ = 56
?GetDuration@CPosPassThru@@UEAAJPEA_J@Z PROC		; CPosPassThru::GetDuration, COMDAT
; Line 747
$LN3:
	mov	QWORD PTR [rsp+16], rdx
	mov	QWORD PTR [rsp+8], rcx
	push	rdi
	sub	rsp, 32					; 00000020H
	mov	rdi, rsp
	mov	ecx, 8
	mov	eax, -858993460				; ccccccccH
	rep stosd
	mov	rcx, QWORD PTR [rsp+48]
; Line 748
	mov	r8, QWORD PTR pDuration$[rsp]
	lea	rdx, OFFSET FLAT:??_9IMediaSeeking@@$BFA@AA ; IMediaSeeking::`vcall'{80}'
	mov	rcx, QWORD PTR this$[rsp]
	call	?GetSeekingLongLong@CPosPassThru@@AEAAJP8IMediaSeeking@@EAAJPEA_J@Z0@Z ; CPosPassThru::GetSeekingLongLong
; Line 749
	add	rsp, 32					; 00000020H
	pop	rdi
	ret	0
?GetDuration@CPosPassThru@@UEAAJPEA_J@Z ENDP		; CPosPassThru::GetDuration
_TEXT	ENDS
PUBLIC	??_9IMediaSeeking@@$BJI@AA			; IMediaSeeking::`vcall'{152}'
;	COMDAT pdata
pdata	SEGMENT
$pdata$?GetPreroll@CPosPassThru@@UEAAJPEA_J@Z DD imagerel $LN3
	DD	imagerel $LN3+63
	DD	imagerel $unwind$?GetPreroll@CPosPassThru@@UEAAJPEA_J@Z
pdata	ENDS
;	COMDAT xdata
xdata	SEGMENT
$unwind$?GetPreroll@CPosPassThru@@UEAAJPEA_J@Z DD 022301H
	DD	0700b320fH
; Function compile flags: /Odtp /RTCsu
xdata	ENDS
;	COMDAT ?GetPreroll@CPosPassThru@@UEAAJPEA_J@Z
_TEXT	SEGMENT
this$ = 48
pllPreroll$ = 56
?GetPreroll@CPosPassThru@@UEAAJPEA_J@Z PROC		; CPosPassThru::GetPreroll, COMDAT
; Line 754
$LN3:
	mov	QWORD PTR [rsp+16], rdx
	mov	QWORD PTR [rsp+8], rcx
	push	rdi
	sub	rsp, 32					; 00000020H
	mov	rdi, rsp
	mov	ecx, 8
	mov	eax, -858993460				; ccccccccH
	rep stosd
	mov	rcx, QWORD PTR [rsp+48]
; Line 755
	mov	r8, QWORD PTR pllPreroll$[rsp]
	lea	rdx, OFFSET FLAT:??_9IMediaSeeking@@$BJI@AA ; IMediaSeeking::`vcall'{152}'
	mov	rcx, QWORD PTR this$[rsp]
	call	?GetSeekingLongLong@CPosPassThru@@AEAAJP8IMediaSeeking@@EAAJPEA_J@Z0@Z ; CPosPassThru::GetSeekingLongLong
; Line 756
	add	rsp, 32					; 00000020H
	pop	rdi
	ret	0
?GetPreroll@CPosPassThru@@UEAAJPEA_J@Z ENDP		; CPosPassThru::GetPreroll
_TEXT	ENDS
;	COMDAT pdata
pdata	SEGMENT
$pdata$?GetAvailable@CPosPassThru@@UEAAJPEA_J0@Z DD imagerel $LN4
	DD	imagerel $LN4+152
	DD	imagerel $unwind$?GetAvailable@CPosPassThru@@UEAAJPEA_J0@Z
pdata	ENDS
;	COMDAT xdata
xdata	SEGMENT
$unwind$?GetAvailable@CPosPassThru@@UEAAJPEA_J0@Z DD 022801H
	DD	070107214H
xdata	ENDS
;	COMDAT CONST
CONST	SEGMENT
?GetAvailable@CPosPassThru@@UEAAJPEA_J0@Z$rtcName$0 DB 070H ; CPosPassThru::GetAvailable
	DB	04dH
	DB	053H
	DB	00H
	ORG $+12
?GetAvailable@CPosPassThru@@UEAAJPEA_J0@Z$rtcVarDesc DD 028H ; CPosPassThru::GetAvailable
	DD	08H
	DQ	FLAT:?GetAvailable@CPosPassThru@@UEAAJPEA_J0@Z$rtcName$0
	ORG $+48
?GetAvailable@CPosPassThru@@UEAAJPEA_J0@Z$rtcFrameData DD 01H ; CPosPassThru::GetAvailable
	DD	00H
	DQ	FLAT:?GetAvailable@CPosPassThru@@UEAAJPEA_J0@Z$rtcVarDesc
; Function compile flags: /Odtp /RTCsu
CONST	ENDS
;	COMDAT ?GetAvailable@CPosPassThru@@UEAAJPEA_J0@Z
_TEXT	SEGMENT
pMS$ = 40
hr$ = 52
this$ = 80
pEarliest$ = 88
pLatest$ = 96
?GetAvailable@CPosPassThru@@UEAAJPEA_J0@Z PROC		; CPosPassThru::GetAvailable, COMDAT
; Line 761
$LN4:
	mov	QWORD PTR [rsp+24], r8
	mov	QWORD PTR [rsp+16], rdx
	mov	QWORD PTR [rsp+8], rcx
	push	rdi
	sub	rsp, 64					; 00000040H
	mov	rdi, rsp
	mov	ecx, 16
	mov	eax, -858993460				; ccccccccH
	rep stosd
	mov	rcx, QWORD PTR [rsp+80]
; Line 763
	lea	rdx, QWORD PTR pMS$[rsp]
	mov	rcx, QWORD PTR this$[rsp]
	call	?GetPeerSeeking@CPosPassThru@@AEAAJPEAPEAUIMediaSeeking@@@Z ; CPosPassThru::GetPeerSeeking
	mov	DWORD PTR hr$[rsp], eax
; Line 764
	cmp	DWORD PTR hr$[rsp], 0
	jge	SHORT $LN1@GetAvailab
; Line 765
	mov	eax, DWORD PTR hr$[rsp]
	jmp	SHORT $LN2@GetAvailab
$LN1@GetAvailab:
; Line 768
	mov	rax, QWORD PTR pMS$[rsp]
	mov	rax, QWORD PTR [rax]
	mov	r8, QWORD PTR pLatest$[rsp]
	mov	rdx, QWORD PTR pEarliest$[rsp]
	mov	rcx, QWORD PTR pMS$[rsp]
	call	QWORD PTR [rax+128]
	mov	DWORD PTR hr$[rsp], eax
; Line 769
	mov	rax, QWORD PTR pMS$[rsp]
	mov	rax, QWORD PTR [rax]
	mov	rcx, QWORD PTR pMS$[rsp]
	call	QWORD PTR [rax+16]
; Line 770
	mov	eax, DWORD PTR hr$[rsp]
$LN2@GetAvailab:
; Line 771
	mov	rdi, rax
	mov	rcx, rsp
	lea	rdx, OFFSET FLAT:?GetAvailable@CPosPassThru@@UEAAJPEA_J0@Z$rtcFrameData
	call	_RTC_CheckStackVars
	mov	rax, rdi
	add	rsp, 64					; 00000040H
	pop	rdi
	ret	0
?GetAvailable@CPosPassThru@@UEAAJPEA_J0@Z ENDP		; CPosPassThru::GetAvailable
_TEXT	ENDS
;	COMDAT pdata
pdata	SEGMENT
$pdata$?GetRate@CPosPassThru@@UEAAJPEAN@Z DD imagerel $LN4
	DD	imagerel $LN4+142
	DD	imagerel $unwind$?GetRate@CPosPassThru@@UEAAJPEAN@Z
pdata	ENDS
;	COMDAT xdata
xdata	SEGMENT
$unwind$?GetRate@CPosPassThru@@UEAAJPEAN@Z DD 022301H
	DD	0700b720fH
xdata	ENDS
;	COMDAT CONST
CONST	SEGMENT
?GetRate@CPosPassThru@@UEAAJPEAN@Z$rtcName$0 DB 070H	; CPosPassThru::GetRate
	DB	04dH
	DB	053H
	DB	00H
	ORG $+12
?GetRate@CPosPassThru@@UEAAJPEAN@Z$rtcVarDesc DD 028H	; CPosPassThru::GetRate
	DD	08H
	DQ	FLAT:?GetRate@CPosPassThru@@UEAAJPEAN@Z$rtcName$0
	ORG $+48
?GetRate@CPosPassThru@@UEAAJPEAN@Z$rtcFrameData DD 01H	; CPosPassThru::GetRate
	DD	00H
	DQ	FLAT:?GetRate@CPosPassThru@@UEAAJPEAN@Z$rtcVarDesc
; Function compile flags: /Odtp /RTCsu
CONST	ENDS
;	COMDAT ?GetRate@CPosPassThru@@UEAAJPEAN@Z
_TEXT	SEGMENT
pMS$ = 40
hr$ = 52
this$ = 80
pdRate$ = 88
?GetRate@CPosPassThru@@UEAAJPEAN@Z PROC			; CPosPassThru::GetRate, COMDAT
; Line 776
$LN4:
	mov	QWORD PTR [rsp+16], rdx
	mov	QWORD PTR [rsp+8], rcx
	push	rdi
	sub	rsp, 64					; 00000040H
	mov	rdi, rsp
	mov	ecx, 16
	mov	eax, -858993460				; ccccccccH
	rep stosd
	mov	rcx, QWORD PTR [rsp+80]
; Line 778
	lea	rdx, QWORD PTR pMS$[rsp]
	mov	rcx, QWORD PTR this$[rsp]
	call	?GetPeerSeeking@CPosPassThru@@AEAAJPEAPEAUIMediaSeeking@@@Z ; CPosPassThru::GetPeerSeeking
	mov	DWORD PTR hr$[rsp], eax
; Line 779
	cmp	DWORD PTR hr$[rsp], 0
	jge	SHORT $LN1@GetRate
; Line 780
	mov	eax, DWORD PTR hr$[rsp]
	jmp	SHORT $LN2@GetRate
$LN1@GetRate:
; Line 782
	mov	rax, QWORD PTR pMS$[rsp]
	mov	rax, QWORD PTR [rax]
	mov	rdx, QWORD PTR pdRate$[rsp]
	mov	rcx, QWORD PTR pMS$[rsp]
	call	QWORD PTR [rax+144]
	mov	DWORD PTR hr$[rsp], eax
; Line 783
	mov	rax, QWORD PTR pMS$[rsp]
	mov	rax, QWORD PTR [rax]
	mov	rcx, QWORD PTR pMS$[rsp]
	call	QWORD PTR [rax+16]
; Line 784
	mov	eax, DWORD PTR hr$[rsp]
$LN2@GetRate:
; Line 785
	mov	rdi, rax
	mov	rcx, rsp
	lea	rdx, OFFSET FLAT:?GetRate@CPosPassThru@@UEAAJPEAN@Z$rtcFrameData
	call	_RTC_CheckStackVars
	mov	rax, rdi
	add	rsp, 64					; 00000040H
	pop	rdi
	ret	0
?GetRate@CPosPassThru@@UEAAJPEAN@Z ENDP			; CPosPassThru::GetRate
_TEXT	ENDS
EXTRN	_fltused:DWORD
;	COMDAT pdata
pdata	SEGMENT
$pdata$?SetRate@CPosPassThru@@UEAAJN@Z DD imagerel $LN5
	DD	imagerel $LN5+165
	DD	imagerel $unwind$?SetRate@CPosPassThru@@UEAAJN@Z
pdata	ENDS
;	COMDAT xdata
xdata	SEGMENT
$unwind$?SetRate@CPosPassThru@@UEAAJN@Z DD 022401H
	DD	0700c7210H
xdata	ENDS
;	COMDAT CONST
CONST	SEGMENT
?SetRate@CPosPassThru@@UEAAJN@Z$rtcName$0 DB 070H	; CPosPassThru::SetRate
	DB	04dH
	DB	053H
	DB	00H
	ORG $+12
?SetRate@CPosPassThru@@UEAAJN@Z$rtcVarDesc DD 028H	; CPosPassThru::SetRate
	DD	08H
	DQ	FLAT:?SetRate@CPosPassThru@@UEAAJN@Z$rtcName$0
	ORG $+48
?SetRate@CPosPassThru@@UEAAJN@Z$rtcFrameData DD 01H	; CPosPassThru::SetRate
	DD	00H
	DQ	FLAT:?SetRate@CPosPassThru@@UEAAJN@Z$rtcVarDesc
; Function compile flags: /Odtp /RTCsu
CONST	ENDS
;	COMDAT ?SetRate@CPosPassThru@@UEAAJN@Z
_TEXT	SEGMENT
pMS$ = 40
hr$ = 52
this$ = 80
dRate$ = 88
?SetRate@CPosPassThru@@UEAAJN@Z PROC			; CPosPassThru::SetRate, COMDAT
; Line 790
$LN5:
	movsdx	QWORD PTR [rsp+16], xmm1
	mov	QWORD PTR [rsp+8], rcx
	push	rdi
	sub	rsp, 64					; 00000040H
	mov	rdi, rsp
	mov	ecx, 16
	mov	eax, -858993460				; ccccccccH
	rep stosd
	mov	rcx, QWORD PTR [rsp+80]
; Line 791
	xorpd	xmm0, xmm0
	ucomisd	xmm0, QWORD PTR dRate$[rsp]
	jp	SHORT $LN2@SetRate
	jne	SHORT $LN2@SetRate
; Line 792
	mov	eax, -2147024809			; ffffffff80070057H
	jmp	SHORT $LN3@SetRate
$LN2@SetRate:
; Line 796
	lea	rdx, QWORD PTR pMS$[rsp]
	mov	rcx, QWORD PTR this$[rsp]
	call	?GetPeerSeeking@CPosPassThru@@AEAAJPEAPEAUIMediaSeeking@@@Z ; CPosPassThru::GetPeerSeeking
	mov	DWORD PTR hr$[rsp], eax
; Line 797
	cmp	DWORD PTR hr$[rsp], 0
	jge	SHORT $LN1@SetRate
; Line 798
	mov	eax, DWORD PTR hr$[rsp]
	jmp	SHORT $LN3@SetRate
$LN1@SetRate:
; Line 800
	mov	rax, QWORD PTR pMS$[rsp]
	mov	rax, QWORD PTR [rax]
	movsdx	xmm1, QWORD PTR dRate$[rsp]
	mov	rcx, QWORD PTR pMS$[rsp]
	call	QWORD PTR [rax+136]
	mov	DWORD PTR hr$[rsp], eax
; Line 801
	mov	rax, QWORD PTR pMS$[rsp]
	mov	rax, QWORD PTR [rax]
	mov	rcx, QWORD PTR pMS$[rsp]
	call	QWORD PTR [rax+16]
; Line 802
	mov	eax, DWORD PTR hr$[rsp]
$LN3@SetRate:
; Line 803
	mov	rdi, rax
	mov	rcx, rsp
	lea	rdx, OFFSET FLAT:?SetRate@CPosPassThru@@UEAAJN@Z$rtcFrameData
	call	_RTC_CheckStackVars
	mov	rax, rdi
	add	rsp, 64					; 00000040H
	pop	rdi
	ret	0
?SetRate@CPosPassThru@@UEAAJN@Z ENDP			; CPosPassThru::SetRate
_TEXT	ENDS
;	COMDAT pdata
pdata	SEGMENT
$pdata$?get_Duration@CPosPassThru@@UEAAJPEAN@Z DD imagerel $LN4
	DD	imagerel $LN4+146
	DD	imagerel $unwind$?get_Duration@CPosPassThru@@UEAAJPEAN@Z
pdata	ENDS
;	COMDAT xdata
xdata	SEGMENT
$unwind$?get_Duration@CPosPassThru@@UEAAJPEAN@Z DD 022301H
	DD	0700b720fH
xdata	ENDS
;	COMDAT CONST
CONST	SEGMENT
?get_Duration@CPosPassThru@@UEAAJPEAN@Z$rtcName$0 DB 070H ; CPosPassThru::get_Duration
	DB	04dH
	DB	050H
	DB	00H
	ORG $+12
?get_Duration@CPosPassThru@@UEAAJPEAN@Z$rtcVarDesc DD 028H ; CPosPassThru::get_Duration
	DD	08H
	DQ	FLAT:?get_Duration@CPosPassThru@@UEAAJPEAN@Z$rtcName$0
	ORG $+48
?get_Duration@CPosPassThru@@UEAAJPEAN@Z$rtcFrameData DD 01H ; CPosPassThru::get_Duration
	DD	00H
	DQ	FLAT:?get_Duration@CPosPassThru@@UEAAJPEAN@Z$rtcVarDesc
; Function compile flags: /Odtp /RTCsu
CONST	ENDS
;	COMDAT ?get_Duration@CPosPassThru@@UEAAJPEAN@Z
_TEXT	SEGMENT
pMP$ = 40
hr$ = 52
this$ = 80
plength$ = 88
?get_Duration@CPosPassThru@@UEAAJPEAN@Z PROC		; CPosPassThru::get_Duration, COMDAT
; Line 813
$LN4:
	mov	QWORD PTR [rsp+16], rdx
	mov	QWORD PTR [rsp+8], rcx
	push	rdi
	sub	rsp, 64					; 00000040H
	mov	rdi, rsp
	mov	ecx, 16
	mov	eax, -858993460				; ccccccccH
	rep stosd
	mov	rcx, QWORD PTR [rsp+80]
; Line 815
	mov	rax, QWORD PTR this$[rsp]
	sub	rax, 8
	lea	rdx, QWORD PTR pMP$[rsp]
	mov	rcx, rax
	call	?GetPeer@CPosPassThru@@AEAAJPEAPEAUIMediaPosition@@@Z ; CPosPassThru::GetPeer
	mov	DWORD PTR hr$[rsp], eax
; Line 816
	cmp	DWORD PTR hr$[rsp], 0
	jge	SHORT $LN1@get_Durati
; Line 817
	mov	eax, DWORD PTR hr$[rsp]
	jmp	SHORT $LN2@get_Durati
$LN1@get_Durati:
; Line 820
	mov	rax, QWORD PTR pMP$[rsp]
	mov	rax, QWORD PTR [rax]
	mov	rdx, QWORD PTR plength$[rsp]
	mov	rcx, QWORD PTR pMP$[rsp]
	call	QWORD PTR [rax+56]
	mov	DWORD PTR hr$[rsp], eax
; Line 821
	mov	rax, QWORD PTR pMP$[rsp]
	mov	rax, QWORD PTR [rax]
	mov	rcx, QWORD PTR pMP$[rsp]
	call	QWORD PTR [rax+16]
; Line 822
	mov	eax, DWORD PTR hr$[rsp]
$LN2@get_Durati:
; Line 823
	mov	rdi, rax
	mov	rcx, rsp
	lea	rdx, OFFSET FLAT:?get_Duration@CPosPassThru@@UEAAJPEAN@Z$rtcFrameData
	call	_RTC_CheckStackVars
	mov	rax, rdi
	add	rsp, 64					; 00000040H
	pop	rdi
	ret	0
?get_Duration@CPosPassThru@@UEAAJPEAN@Z ENDP		; CPosPassThru::get_Duration
_TEXT	ENDS
;	COMDAT pdata
pdata	SEGMENT
$pdata$?get_CurrentPosition@CPosPassThru@@UEAAJPEAN@Z DD imagerel $LN4
	DD	imagerel $LN4+146
	DD	imagerel $unwind$?get_CurrentPosition@CPosPassThru@@UEAAJPEAN@Z
pdata	ENDS
;	COMDAT xdata
xdata	SEGMENT
$unwind$?get_CurrentPosition@CPosPassThru@@UEAAJPEAN@Z DD 022301H
	DD	0700b720fH
xdata	ENDS
;	COMDAT CONST
CONST	SEGMENT
?get_CurrentPosition@CPosPassThru@@UEAAJPEAN@Z$rtcName$0 DB 070H ; CPosPassThru::get_CurrentPosition
	DB	04dH
	DB	050H
	DB	00H
	ORG $+12
?get_CurrentPosition@CPosPassThru@@UEAAJPEAN@Z$rtcVarDesc DD 028H ; CPosPassThru::get_CurrentPosition
	DD	08H
	DQ	FLAT:?get_CurrentPosition@CPosPassThru@@UEAAJPEAN@Z$rtcName$0
	ORG $+48
?get_CurrentPosition@CPosPassThru@@UEAAJPEAN@Z$rtcFrameData DD 01H ; CPosPassThru::get_CurrentPosition
	DD	00H
	DQ	FLAT:?get_CurrentPosition@CPosPassThru@@UEAAJPEAN@Z$rtcVarDesc
; Function compile flags: /Odtp /RTCsu
CONST	ENDS
;	COMDAT ?get_CurrentPosition@CPosPassThru@@UEAAJPEAN@Z
_TEXT	SEGMENT
pMP$ = 40
hr$ = 52
this$ = 80
pllTime$ = 88
?get_CurrentPosition@CPosPassThru@@UEAAJPEAN@Z PROC	; CPosPassThru::get_CurrentPosition, COMDAT
; Line 828
$LN4:
	mov	QWORD PTR [rsp+16], rdx
	mov	QWORD PTR [rsp+8], rcx
	push	rdi
	sub	rsp, 64					; 00000040H
	mov	rdi, rsp
	mov	ecx, 16
	mov	eax, -858993460				; ccccccccH
	rep stosd
	mov	rcx, QWORD PTR [rsp+80]
; Line 830
	mov	rax, QWORD PTR this$[rsp]
	sub	rax, 8
	lea	rdx, QWORD PTR pMP$[rsp]
	mov	rcx, rax
	call	?GetPeer@CPosPassThru@@AEAAJPEAPEAUIMediaPosition@@@Z ; CPosPassThru::GetPeer
	mov	DWORD PTR hr$[rsp], eax
; Line 831
	cmp	DWORD PTR hr$[rsp], 0
	jge	SHORT $LN1@get_Curren
; Line 832
	mov	eax, DWORD PTR hr$[rsp]
	jmp	SHORT $LN2@get_Curren
$LN1@get_Curren:
; Line 834
	mov	rax, QWORD PTR pMP$[rsp]
	mov	rax, QWORD PTR [rax]
	mov	rdx, QWORD PTR pllTime$[rsp]
	mov	rcx, QWORD PTR pMP$[rsp]
	call	QWORD PTR [rax+72]
	mov	DWORD PTR hr$[rsp], eax
; Line 835
	mov	rax, QWORD PTR pMP$[rsp]
	mov	rax, QWORD PTR [rax]
	mov	rcx, QWORD PTR pMP$[rsp]
	call	QWORD PTR [rax+16]
; Line 836
	mov	eax, DWORD PTR hr$[rsp]
$LN2@get_Curren:
; Line 837
	mov	rdi, rax
	mov	rcx, rsp
	lea	rdx, OFFSET FLAT:?get_CurrentPosition@CPosPassThru@@UEAAJPEAN@Z$rtcFrameData
	call	_RTC_CheckStackVars
	mov	rax, rdi
	add	rsp, 64					; 00000040H
	pop	rdi
	ret	0
?get_CurrentPosition@CPosPassThru@@UEAAJPEAN@Z ENDP	; CPosPassThru::get_CurrentPosition
_TEXT	ENDS
;	COMDAT pdata
pdata	SEGMENT
$pdata$?put_CurrentPosition@CPosPassThru@@UEAAJN@Z DD imagerel $LN4
	DD	imagerel $LN4+148
	DD	imagerel $unwind$?put_CurrentPosition@CPosPassThru@@UEAAJN@Z
pdata	ENDS
;	COMDAT xdata
xdata	SEGMENT
$unwind$?put_CurrentPosition@CPosPassThru@@UEAAJN@Z DD 022401H
	DD	0700c7210H
xdata	ENDS
;	COMDAT CONST
CONST	SEGMENT
?put_CurrentPosition@CPosPassThru@@UEAAJN@Z$rtcName$0 DB 070H ; CPosPassThru::put_CurrentPosition
	DB	04dH
	DB	050H
	DB	00H
	ORG $+12
?put_CurrentPosition@CPosPassThru@@UEAAJN@Z$rtcVarDesc DD 028H ; CPosPassThru::put_CurrentPosition
	DD	08H
	DQ	FLAT:?put_CurrentPosition@CPosPassThru@@UEAAJN@Z$rtcName$0
	ORG $+48
?put_CurrentPosition@CPosPassThru@@UEAAJN@Z$rtcFrameData DD 01H ; CPosPassThru::put_CurrentPosition
	DD	00H
	DQ	FLAT:?put_CurrentPosition@CPosPassThru@@UEAAJN@Z$rtcVarDesc
; Function compile flags: /Odtp /RTCsu
CONST	ENDS
;	COMDAT ?put_CurrentPosition@CPosPassThru@@UEAAJN@Z
_TEXT	SEGMENT
pMP$ = 40
hr$ = 52
this$ = 80
llTime$ = 88
?put_CurrentPosition@CPosPassThru@@UEAAJN@Z PROC	; CPosPassThru::put_CurrentPosition, COMDAT
; Line 842
$LN4:
	movsdx	QWORD PTR [rsp+16], xmm1
	mov	QWORD PTR [rsp+8], rcx
	push	rdi
	sub	rsp, 64					; 00000040H
	mov	rdi, rsp
	mov	ecx, 16
	mov	eax, -858993460				; ccccccccH
	rep stosd
	mov	rcx, QWORD PTR [rsp+80]
; Line 844
	mov	rax, QWORD PTR this$[rsp]
	sub	rax, 8
	lea	rdx, QWORD PTR pMP$[rsp]
	mov	rcx, rax
	call	?GetPeer@CPosPassThru@@AEAAJPEAPEAUIMediaPosition@@@Z ; CPosPassThru::GetPeer
	mov	DWORD PTR hr$[rsp], eax
; Line 845
	cmp	DWORD PTR hr$[rsp], 0
	jge	SHORT $LN1@put_Curren
; Line 846
	mov	eax, DWORD PTR hr$[rsp]
	jmp	SHORT $LN2@put_Curren
$LN1@put_Curren:
; Line 848
	mov	rax, QWORD PTR pMP$[rsp]
	mov	rax, QWORD PTR [rax]
	movsdx	xmm1, QWORD PTR llTime$[rsp]
	mov	rcx, QWORD PTR pMP$[rsp]
	call	QWORD PTR [rax+64]
	mov	DWORD PTR hr$[rsp], eax
; Line 849
	mov	rax, QWORD PTR pMP$[rsp]
	mov	rax, QWORD PTR [rax]
	mov	rcx, QWORD PTR pMP$[rsp]
	call	QWORD PTR [rax+16]
; Line 850
	mov	eax, DWORD PTR hr$[rsp]
$LN2@put_Curren:
; Line 851
	mov	rdi, rax
	mov	rcx, rsp
	lea	rdx, OFFSET FLAT:?put_CurrentPosition@CPosPassThru@@UEAAJN@Z$rtcFrameData
	call	_RTC_CheckStackVars
	mov	rax, rdi
	add	rsp, 64					; 00000040H
	pop	rdi
	ret	0
?put_CurrentPosition@CPosPassThru@@UEAAJN@Z ENDP	; CPosPassThru::put_CurrentPosition
_TEXT	ENDS
;	COMDAT pdata
pdata	SEGMENT
$pdata$?get_StopTime@CPosPassThru@@UEAAJPEAN@Z DD imagerel $LN4
	DD	imagerel $LN4+146
	DD	imagerel $unwind$?get_StopTime@CPosPassThru@@UEAAJPEAN@Z
pdata	ENDS
;	COMDAT xdata
xdata	SEGMENT
$unwind$?get_StopTime@CPosPassThru@@UEAAJPEAN@Z DD 022301H
	DD	0700b720fH
xdata	ENDS
;	COMDAT CONST
CONST	SEGMENT
?get_StopTime@CPosPassThru@@UEAAJPEAN@Z$rtcName$0 DB 070H ; CPosPassThru::get_StopTime
	DB	04dH
	DB	050H
	DB	00H
	ORG $+12
?get_StopTime@CPosPassThru@@UEAAJPEAN@Z$rtcVarDesc DD 028H ; CPosPassThru::get_StopTime
	DD	08H
	DQ	FLAT:?get_StopTime@CPosPassThru@@UEAAJPEAN@Z$rtcName$0
	ORG $+48
?get_StopTime@CPosPassThru@@UEAAJPEAN@Z$rtcFrameData DD 01H ; CPosPassThru::get_StopTime
	DD	00H
	DQ	FLAT:?get_StopTime@CPosPassThru@@UEAAJPEAN@Z$rtcVarDesc
; Function compile flags: /Odtp /RTCsu
CONST	ENDS
;	COMDAT ?get_StopTime@CPosPassThru@@UEAAJPEAN@Z
_TEXT	SEGMENT
pMP$ = 40
hr$ = 52
this$ = 80
pllTime$ = 88
?get_StopTime@CPosPassThru@@UEAAJPEAN@Z PROC		; CPosPassThru::get_StopTime, COMDAT
; Line 856
$LN4:
	mov	QWORD PTR [rsp+16], rdx
	mov	QWORD PTR [rsp+8], rcx
	push	rdi
	sub	rsp, 64					; 00000040H
	mov	rdi, rsp
	mov	ecx, 16
	mov	eax, -858993460				; ccccccccH
	rep stosd
	mov	rcx, QWORD PTR [rsp+80]
; Line 858
	mov	rax, QWORD PTR this$[rsp]
	sub	rax, 8
	lea	rdx, QWORD PTR pMP$[rsp]
	mov	rcx, rax
	call	?GetPeer@CPosPassThru@@AEAAJPEAPEAUIMediaPosition@@@Z ; CPosPassThru::GetPeer
	mov	DWORD PTR hr$[rsp], eax
; Line 859
	cmp	DWORD PTR hr$[rsp], 0
	jge	SHORT $LN1@get_StopTi
; Line 860
	mov	eax, DWORD PTR hr$[rsp]
	jmp	SHORT $LN2@get_StopTi
$LN1@get_StopTi:
; Line 862
	mov	rax, QWORD PTR pMP$[rsp]
	mov	rax, QWORD PTR [rax]
	mov	rdx, QWORD PTR pllTime$[rsp]
	mov	rcx, QWORD PTR pMP$[rsp]
	call	QWORD PTR [rax+80]
	mov	DWORD PTR hr$[rsp], eax
; Line 863
	mov	rax, QWORD PTR pMP$[rsp]
	mov	rax, QWORD PTR [rax]
	mov	rcx, QWORD PTR pMP$[rsp]
	call	QWORD PTR [rax+16]
; Line 864
	mov	eax, DWORD PTR hr$[rsp]
$LN2@get_StopTi:
; Line 865
	mov	rdi, rax
	mov	rcx, rsp
	lea	rdx, OFFSET FLAT:?get_StopTime@CPosPassThru@@UEAAJPEAN@Z$rtcFrameData
	call	_RTC_CheckStackVars
	mov	rax, rdi
	add	rsp, 64					; 00000040H
	pop	rdi
	ret	0
?get_StopTime@CPosPassThru@@UEAAJPEAN@Z ENDP		; CPosPassThru::get_StopTime
_TEXT	ENDS
;	COMDAT pdata
pdata	SEGMENT
$pdata$?put_StopTime@CPosPassThru@@UEAAJN@Z DD imagerel $LN4
	DD	imagerel $LN4+148
	DD	imagerel $unwind$?put_StopTime@CPosPassThru@@UEAAJN@Z
pdata	ENDS
;	COMDAT xdata
xdata	SEGMENT
$unwind$?put_StopTime@CPosPassThru@@UEAAJN@Z DD 022401H
	DD	0700c7210H
xdata	ENDS
;	COMDAT CONST
CONST	SEGMENT
?put_StopTime@CPosPassThru@@UEAAJN@Z$rtcName$0 DB 070H	; CPosPassThru::put_StopTime
	DB	04dH
	DB	050H
	DB	00H
	ORG $+12
?put_StopTime@CPosPassThru@@UEAAJN@Z$rtcVarDesc DD 028H	; CPosPassThru::put_StopTime
	DD	08H
	DQ	FLAT:?put_StopTime@CPosPassThru@@UEAAJN@Z$rtcName$0
	ORG $+48
?put_StopTime@CPosPassThru@@UEAAJN@Z$rtcFrameData DD 01H ; CPosPassThru::put_StopTime
	DD	00H
	DQ	FLAT:?put_StopTime@CPosPassThru@@UEAAJN@Z$rtcVarDesc
; Function compile flags: /Odtp /RTCsu
CONST	ENDS
;	COMDAT ?put_StopTime@CPosPassThru@@UEAAJN@Z
_TEXT	SEGMENT
pMP$ = 40
hr$ = 52
this$ = 80
llTime$ = 88
?put_StopTime@CPosPassThru@@UEAAJN@Z PROC		; CPosPassThru::put_StopTime, COMDAT
; Line 870
$LN4:
	movsdx	QWORD PTR [rsp+16], xmm1
	mov	QWORD PTR [rsp+8], rcx
	push	rdi
	sub	rsp, 64					; 00000040H
	mov	rdi, rsp
	mov	ecx, 16
	mov	eax, -858993460				; ccccccccH
	rep stosd
	mov	rcx, QWORD PTR [rsp+80]
; Line 872
	mov	rax, QWORD PTR this$[rsp]
	sub	rax, 8
	lea	rdx, QWORD PTR pMP$[rsp]
	mov	rcx, rax
	call	?GetPeer@CPosPassThru@@AEAAJPEAPEAUIMediaPosition@@@Z ; CPosPassThru::GetPeer
	mov	DWORD PTR hr$[rsp], eax
; Line 873
	cmp	DWORD PTR hr$[rsp], 0
	jge	SHORT $LN1@put_StopTi
; Line 874
	mov	eax, DWORD PTR hr$[rsp]
	jmp	SHORT $LN2@put_StopTi
$LN1@put_StopTi:
; Line 876
	mov	rax, QWORD PTR pMP$[rsp]
	mov	rax, QWORD PTR [rax]
	movsdx	xmm1, QWORD PTR llTime$[rsp]
	mov	rcx, QWORD PTR pMP$[rsp]
	call	QWORD PTR [rax+88]
	mov	DWORD PTR hr$[rsp], eax
; Line 877
	mov	rax, QWORD PTR pMP$[rsp]
	mov	rax, QWORD PTR [rax]
	mov	rcx, QWORD PTR pMP$[rsp]
	call	QWORD PTR [rax+16]
; Line 878
	mov	eax, DWORD PTR hr$[rsp]
$LN2@put_StopTi:
; Line 879
	mov	rdi, rax
	mov	rcx, rsp
	lea	rdx, OFFSET FLAT:?put_StopTime@CPosPassThru@@UEAAJN@Z$rtcFrameData
	call	_RTC_CheckStackVars
	mov	rax, rdi
	add	rsp, 64					; 00000040H
	pop	rdi
	ret	0
?put_StopTime@CPosPassThru@@UEAAJN@Z ENDP		; CPosPassThru::put_StopTime
_TEXT	ENDS
;	COMDAT pdata
pdata	SEGMENT
$pdata$?get_PrerollTime@CPosPassThru@@UEAAJPEAN@Z DD imagerel $LN4
	DD	imagerel $LN4+146
	DD	imagerel $unwind$?get_PrerollTime@CPosPassThru@@UEAAJPEAN@Z
pdata	ENDS
;	COMDAT xdata
xdata	SEGMENT
$unwind$?get_PrerollTime@CPosPassThru@@UEAAJPEAN@Z DD 022301H
	DD	0700b720fH
xdata	ENDS
;	COMDAT CONST
CONST	SEGMENT
?get_PrerollTime@CPosPassThru@@UEAAJPEAN@Z$rtcName$0 DB 070H ; CPosPassThru::get_PrerollTime
	DB	04dH
	DB	050H
	DB	00H
	ORG $+12
?get_PrerollTime@CPosPassThru@@UEAAJPEAN@Z$rtcVarDesc DD 028H ; CPosPassThru::get_PrerollTime
	DD	08H
	DQ	FLAT:?get_PrerollTime@CPosPassThru@@UEAAJPEAN@Z$rtcName$0
	ORG $+48
?get_PrerollTime@CPosPassThru@@UEAAJPEAN@Z$rtcFrameData DD 01H ; CPosPassThru::get_PrerollTime
	DD	00H
	DQ	FLAT:?get_PrerollTime@CPosPassThru@@UEAAJPEAN@Z$rtcVarDesc
; Function compile flags: /Odtp /RTCsu
CONST	ENDS
;	COMDAT ?get_PrerollTime@CPosPassThru@@UEAAJPEAN@Z
_TEXT	SEGMENT
pMP$ = 40
hr$ = 52
this$ = 80
pllTime$ = 88
?get_PrerollTime@CPosPassThru@@UEAAJPEAN@Z PROC		; CPosPassThru::get_PrerollTime, COMDAT
; Line 884
$LN4:
	mov	QWORD PTR [rsp+16], rdx
	mov	QWORD PTR [rsp+8], rcx
	push	rdi
	sub	rsp, 64					; 00000040H
	mov	rdi, rsp
	mov	ecx, 16
	mov	eax, -858993460				; ccccccccH
	rep stosd
	mov	rcx, QWORD PTR [rsp+80]
; Line 886
	mov	rax, QWORD PTR this$[rsp]
	sub	rax, 8
	lea	rdx, QWORD PTR pMP$[rsp]
	mov	rcx, rax
	call	?GetPeer@CPosPassThru@@AEAAJPEAPEAUIMediaPosition@@@Z ; CPosPassThru::GetPeer
	mov	DWORD PTR hr$[rsp], eax
; Line 887
	cmp	DWORD PTR hr$[rsp], 0
	jge	SHORT $LN1@get_Prerol
; Line 888
	mov	eax, DWORD PTR hr$[rsp]
	jmp	SHORT $LN2@get_Prerol
$LN1@get_Prerol:
; Line 890
	mov	rax, QWORD PTR pMP$[rsp]
	mov	rax, QWORD PTR [rax]
	mov	rdx, QWORD PTR pllTime$[rsp]
	mov	rcx, QWORD PTR pMP$[rsp]
	call	QWORD PTR [rax+96]
	mov	DWORD PTR hr$[rsp], eax
; Line 891
	mov	rax, QWORD PTR pMP$[rsp]
	mov	rax, QWORD PTR [rax]
	mov	rcx, QWORD PTR pMP$[rsp]
	call	QWORD PTR [rax+16]
; Line 892
	mov	eax, DWORD PTR hr$[rsp]
$LN2@get_Prerol:
; Line 893
	mov	rdi, rax
	mov	rcx, rsp
	lea	rdx, OFFSET FLAT:?get_PrerollTime@CPosPassThru@@UEAAJPEAN@Z$rtcFrameData
	call	_RTC_CheckStackVars
	mov	rax, rdi
	add	rsp, 64					; 00000040H
	pop	rdi
	ret	0
?get_PrerollTime@CPosPassThru@@UEAAJPEAN@Z ENDP		; CPosPassThru::get_PrerollTime
_TEXT	ENDS
;	COMDAT pdata
pdata	SEGMENT
$pdata$?put_PrerollTime@CPosPassThru@@UEAAJN@Z DD imagerel $LN4
	DD	imagerel $LN4+148
	DD	imagerel $unwind$?put_PrerollTime@CPosPassThru@@UEAAJN@Z
pdata	ENDS
;	COMDAT xdata
xdata	SEGMENT
$unwind$?put_PrerollTime@CPosPassThru@@UEAAJN@Z DD 022401H
	DD	0700c7210H
xdata	ENDS
;	COMDAT CONST
CONST	SEGMENT
?put_PrerollTime@CPosPassThru@@UEAAJN@Z$rtcName$0 DB 070H ; CPosPassThru::put_PrerollTime
	DB	04dH
	DB	050H
	DB	00H
	ORG $+12
?put_PrerollTime@CPosPassThru@@UEAAJN@Z$rtcVarDesc DD 028H ; CPosPassThru::put_PrerollTime
	DD	08H
	DQ	FLAT:?put_PrerollTime@CPosPassThru@@UEAAJN@Z$rtcName$0
	ORG $+48
?put_PrerollTime@CPosPassThru@@UEAAJN@Z$rtcFrameData DD 01H ; CPosPassThru::put_PrerollTime
	DD	00H
	DQ	FLAT:?put_PrerollTime@CPosPassThru@@UEAAJN@Z$rtcVarDesc
; Function compile flags: /Odtp /RTCsu
CONST	ENDS
;	COMDAT ?put_PrerollTime@CPosPassThru@@UEAAJN@Z
_TEXT	SEGMENT
pMP$ = 40
hr$ = 52
this$ = 80
llTime$ = 88
?put_PrerollTime@CPosPassThru@@UEAAJN@Z PROC		; CPosPassThru::put_PrerollTime, COMDAT
; Line 898
$LN4:
	movsdx	QWORD PTR [rsp+16], xmm1
	mov	QWORD PTR [rsp+8], rcx
	push	rdi
	sub	rsp, 64					; 00000040H
	mov	rdi, rsp
	mov	ecx, 16
	mov	eax, -858993460				; ccccccccH
	rep stosd
	mov	rcx, QWORD PTR [rsp+80]
; Line 900
	mov	rax, QWORD PTR this$[rsp]
	sub	rax, 8
	lea	rdx, QWORD PTR pMP$[rsp]
	mov	rcx, rax
	call	?GetPeer@CPosPassThru@@AEAAJPEAPEAUIMediaPosition@@@Z ; CPosPassThru::GetPeer
	mov	DWORD PTR hr$[rsp], eax
; Line 901
	cmp	DWORD PTR hr$[rsp], 0
	jge	SHORT $LN1@put_Prerol
; Line 902
	mov	eax, DWORD PTR hr$[rsp]
	jmp	SHORT $LN2@put_Prerol
$LN1@put_Prerol:
; Line 904
	mov	rax, QWORD PTR pMP$[rsp]
	mov	rax, QWORD PTR [rax]
	movsdx	xmm1, QWORD PTR llTime$[rsp]
	mov	rcx, QWORD PTR pMP$[rsp]
	call	QWORD PTR [rax+104]
	mov	DWORD PTR hr$[rsp], eax
; Line 905
	mov	rax, QWORD PTR pMP$[rsp]
	mov	rax, QWORD PTR [rax]
	mov	rcx, QWORD PTR pMP$[rsp]
	call	QWORD PTR [rax+16]
; Line 906
	mov	eax, DWORD PTR hr$[rsp]
$LN2@put_Prerol:
; Line 907
	mov	rdi, rax
	mov	rcx, rsp
	lea	rdx, OFFSET FLAT:?put_PrerollTime@CPosPassThru@@UEAAJN@Z$rtcFrameData
	call	_RTC_CheckStackVars
	mov	rax, rdi
	add	rsp, 64					; 00000040H
	pop	rdi
	ret	0
?put_PrerollTime@CPosPassThru@@UEAAJN@Z ENDP		; CPosPassThru::put_PrerollTime
_TEXT	ENDS
;	COMDAT pdata
pdata	SEGMENT
$pdata$?get_Rate@CPosPassThru@@UEAAJPEAN@Z DD imagerel $LN4
	DD	imagerel $LN4+146
	DD	imagerel $unwind$?get_Rate@CPosPassThru@@UEAAJPEAN@Z
pdata	ENDS
;	COMDAT xdata
xdata	SEGMENT
$unwind$?get_Rate@CPosPassThru@@UEAAJPEAN@Z DD 022301H
	DD	0700b720fH
xdata	ENDS
;	COMDAT CONST
CONST	SEGMENT
?get_Rate@CPosPassThru@@UEAAJPEAN@Z$rtcName$0 DB 070H	; CPosPassThru::get_Rate
	DB	04dH
	DB	050H
	DB	00H
	ORG $+12
?get_Rate@CPosPassThru@@UEAAJPEAN@Z$rtcVarDesc DD 028H	; CPosPassThru::get_Rate
	DD	08H
	DQ	FLAT:?get_Rate@CPosPassThru@@UEAAJPEAN@Z$rtcName$0
	ORG $+48
?get_Rate@CPosPassThru@@UEAAJPEAN@Z$rtcFrameData DD 01H	; CPosPassThru::get_Rate
	DD	00H
	DQ	FLAT:?get_Rate@CPosPassThru@@UEAAJPEAN@Z$rtcVarDesc
; Function compile flags: /Odtp /RTCsu
CONST	ENDS
;	COMDAT ?get_Rate@CPosPassThru@@UEAAJPEAN@Z
_TEXT	SEGMENT
pMP$ = 40
hr$ = 52
this$ = 80
pdRate$ = 88
?get_Rate@CPosPassThru@@UEAAJPEAN@Z PROC		; CPosPassThru::get_Rate, COMDAT
; Line 912
$LN4:
	mov	QWORD PTR [rsp+16], rdx
	mov	QWORD PTR [rsp+8], rcx
	push	rdi
	sub	rsp, 64					; 00000040H
	mov	rdi, rsp
	mov	ecx, 16
	mov	eax, -858993460				; ccccccccH
	rep stosd
	mov	rcx, QWORD PTR [rsp+80]
; Line 914
	mov	rax, QWORD PTR this$[rsp]
	sub	rax, 8
	lea	rdx, QWORD PTR pMP$[rsp]
	mov	rcx, rax
	call	?GetPeer@CPosPassThru@@AEAAJPEAPEAUIMediaPosition@@@Z ; CPosPassThru::GetPeer
	mov	DWORD PTR hr$[rsp], eax
; Line 915
	cmp	DWORD PTR hr$[rsp], 0
	jge	SHORT $LN1@get_Rate
; Line 916
	mov	eax, DWORD PTR hr$[rsp]
	jmp	SHORT $LN2@get_Rate
$LN1@get_Rate:
; Line 918
	mov	rax, QWORD PTR pMP$[rsp]
	mov	rax, QWORD PTR [rax]
	mov	rdx, QWORD PTR pdRate$[rsp]
	mov	rcx, QWORD PTR pMP$[rsp]
	call	QWORD PTR [rax+120]
	mov	DWORD PTR hr$[rsp], eax
; Line 919
	mov	rax, QWORD PTR pMP$[rsp]
	mov	rax, QWORD PTR [rax]
	mov	rcx, QWORD PTR pMP$[rsp]
	call	QWORD PTR [rax+16]
; Line 920
	mov	eax, DWORD PTR hr$[rsp]
$LN2@get_Rate:
; Line 921
	mov	rdi, rax
	mov	rcx, rsp
	lea	rdx, OFFSET FLAT:?get_Rate@CPosPassThru@@UEAAJPEAN@Z$rtcFrameData
	call	_RTC_CheckStackVars
	mov	rax, rdi
	add	rsp, 64					; 00000040H
	pop	rdi
	ret	0
?get_Rate@CPosPassThru@@UEAAJPEAN@Z ENDP		; CPosPassThru::get_Rate
_TEXT	ENDS
;	COMDAT pdata
pdata	SEGMENT
$pdata$?put_Rate@CPosPassThru@@UEAAJN@Z DD imagerel $LN5
	DD	imagerel $LN5+169
	DD	imagerel $unwind$?put_Rate@CPosPassThru@@UEAAJN@Z
pdata	ENDS
;	COMDAT xdata
xdata	SEGMENT
$unwind$?put_Rate@CPosPassThru@@UEAAJN@Z DD 022401H
	DD	0700c7210H
xdata	ENDS
;	COMDAT CONST
CONST	SEGMENT
?put_Rate@CPosPassThru@@UEAAJN@Z$rtcName$0 DB 070H	; CPosPassThru::put_Rate
	DB	04dH
	DB	050H
	DB	00H
	ORG $+12
?put_Rate@CPosPassThru@@UEAAJN@Z$rtcVarDesc DD 028H	; CPosPassThru::put_Rate
	DD	08H
	DQ	FLAT:?put_Rate@CPosPassThru@@UEAAJN@Z$rtcName$0
	ORG $+48
?put_Rate@CPosPassThru@@UEAAJN@Z$rtcFrameData DD 01H	; CPosPassThru::put_Rate
	DD	00H
	DQ	FLAT:?put_Rate@CPosPassThru@@UEAAJN@Z$rtcVarDesc
; Function compile flags: /Odtp /RTCsu
CONST	ENDS
;	COMDAT ?put_Rate@CPosPassThru@@UEAAJN@Z
_TEXT	SEGMENT
pMP$ = 40
hr$ = 52
this$ = 80
dRate$ = 88
?put_Rate@CPosPassThru@@UEAAJN@Z PROC			; CPosPassThru::put_Rate, COMDAT
; Line 926
$LN5:
	movsdx	QWORD PTR [rsp+16], xmm1
	mov	QWORD PTR [rsp+8], rcx
	push	rdi
	sub	rsp, 64					; 00000040H
	mov	rdi, rsp
	mov	ecx, 16
	mov	eax, -858993460				; ccccccccH
	rep stosd
	mov	rcx, QWORD PTR [rsp+80]
; Line 927
	xorpd	xmm0, xmm0
	ucomisd	xmm0, QWORD PTR dRate$[rsp]
	jp	SHORT $LN2@put_Rate
	jne	SHORT $LN2@put_Rate
; Line 928
	mov	eax, -2147024809			; ffffffff80070057H
	jmp	SHORT $LN3@put_Rate
$LN2@put_Rate:
; Line 932
	mov	rax, QWORD PTR this$[rsp]
	sub	rax, 8
	lea	rdx, QWORD PTR pMP$[rsp]
	mov	rcx, rax
	call	?GetPeer@CPosPassThru@@AEAAJPEAPEAUIMediaPosition@@@Z ; CPosPassThru::GetPeer
	mov	DWORD PTR hr$[rsp], eax
; Line 933
	cmp	DWORD PTR hr$[rsp], 0
	jge	SHORT $LN1@put_Rate
; Line 934
	mov	eax, DWORD PTR hr$[rsp]
	jmp	SHORT $LN3@put_Rate
$LN1@put_Rate:
; Line 936
	mov	rax, QWORD PTR pMP$[rsp]
	mov	rax, QWORD PTR [rax]
	movsdx	xmm1, QWORD PTR dRate$[rsp]
	mov	rcx, QWORD PTR pMP$[rsp]
	call	QWORD PTR [rax+112]
	mov	DWORD PTR hr$[rsp], eax
; Line 937
	mov	rax, QWORD PTR pMP$[rsp]
	mov	rax, QWORD PTR [rax]
	mov	rcx, QWORD PTR pMP$[rsp]
	call	QWORD PTR [rax+16]
; Line 938
	mov	eax, DWORD PTR hr$[rsp]
$LN3@put_Rate:
; Line 939
	mov	rdi, rax
	mov	rcx, rsp
	lea	rdx, OFFSET FLAT:?put_Rate@CPosPassThru@@UEAAJN@Z$rtcFrameData
	call	_RTC_CheckStackVars
	mov	rax, rdi
	add	rsp, 64					; 00000040H
	pop	rdi
	ret	0
?put_Rate@CPosPassThru@@UEAAJN@Z ENDP			; CPosPassThru::put_Rate
_TEXT	ENDS
;	COMDAT pdata
pdata	SEGMENT
$pdata$?CanSeekForward@CPosPassThru@@UEAAJPEAJ@Z DD imagerel $LN4
	DD	imagerel $LN4+149
	DD	imagerel $unwind$?CanSeekForward@CPosPassThru@@UEAAJPEAJ@Z
pdata	ENDS
;	COMDAT xdata
xdata	SEGMENT
$unwind$?CanSeekForward@CPosPassThru@@UEAAJPEAJ@Z DD 022301H
	DD	0700b720fH
xdata	ENDS
;	COMDAT CONST
CONST	SEGMENT
?CanSeekForward@CPosPassThru@@UEAAJPEAJ@Z$rtcName$0 DB 070H ; CPosPassThru::CanSeekForward
	DB	04dH
	DB	050H
	DB	00H
	ORG $+12
?CanSeekForward@CPosPassThru@@UEAAJPEAJ@Z$rtcVarDesc DD 028H ; CPosPassThru::CanSeekForward
	DD	08H
	DQ	FLAT:?CanSeekForward@CPosPassThru@@UEAAJPEAJ@Z$rtcName$0
	ORG $+48
?CanSeekForward@CPosPassThru@@UEAAJPEAJ@Z$rtcFrameData DD 01H ; CPosPassThru::CanSeekForward
	DD	00H
	DQ	FLAT:?CanSeekForward@CPosPassThru@@UEAAJPEAJ@Z$rtcVarDesc
; Function compile flags: /Odtp /RTCsu
CONST	ENDS
;	COMDAT ?CanSeekForward@CPosPassThru@@UEAAJPEAJ@Z
_TEXT	SEGMENT
pMP$ = 40
hr$ = 52
this$ = 80
pCanSeekForward$ = 88
?CanSeekForward@CPosPassThru@@UEAAJPEAJ@Z PROC		; CPosPassThru::CanSeekForward, COMDAT
; Line 944
$LN4:
	mov	QWORD PTR [rsp+16], rdx
	mov	QWORD PTR [rsp+8], rcx
	push	rdi
	sub	rsp, 64					; 00000040H
	mov	rdi, rsp
	mov	ecx, 16
	mov	eax, -858993460				; ccccccccH
	rep stosd
	mov	rcx, QWORD PTR [rsp+80]
; Line 946
	mov	rax, QWORD PTR this$[rsp]
	sub	rax, 8
	lea	rdx, QWORD PTR pMP$[rsp]
	mov	rcx, rax
	call	?GetPeer@CPosPassThru@@AEAAJPEAPEAUIMediaPosition@@@Z ; CPosPassThru::GetPeer
	mov	DWORD PTR hr$[rsp], eax
; Line 947
	cmp	DWORD PTR hr$[rsp], 0
	jge	SHORT $LN1@CanSeekFor
; Line 948
	mov	eax, DWORD PTR hr$[rsp]
	jmp	SHORT $LN2@CanSeekFor
$LN1@CanSeekFor:
; Line 950
	mov	rax, QWORD PTR pMP$[rsp]
	mov	rax, QWORD PTR [rax]
	mov	rdx, QWORD PTR pCanSeekForward$[rsp]
	mov	rcx, QWORD PTR pMP$[rsp]
	call	QWORD PTR [rax+128]
	mov	DWORD PTR hr$[rsp], eax
; Line 951
	mov	rax, QWORD PTR pMP$[rsp]
	mov	rax, QWORD PTR [rax]
	mov	rcx, QWORD PTR pMP$[rsp]
	call	QWORD PTR [rax+16]
; Line 952
	mov	eax, DWORD PTR hr$[rsp]
$LN2@CanSeekFor:
; Line 953
	mov	rdi, rax
	mov	rcx, rsp
	lea	rdx, OFFSET FLAT:?CanSeekForward@CPosPassThru@@UEAAJPEAJ@Z$rtcFrameData
	call	_RTC_CheckStackVars
	mov	rax, rdi
	add	rsp, 64					; 00000040H
	pop	rdi
	ret	0
?CanSeekForward@CPosPassThru@@UEAAJPEAJ@Z ENDP		; CPosPassThru::CanSeekForward
_TEXT	ENDS
;	COMDAT pdata
pdata	SEGMENT
$pdata$?CanSeekBackward@CPosPassThru@@UEAAJPEAJ@Z DD imagerel $LN4
	DD	imagerel $LN4+149
	DD	imagerel $unwind$?CanSeekBackward@CPosPassThru@@UEAAJPEAJ@Z
pdata	ENDS
;	COMDAT xdata
xdata	SEGMENT
$unwind$?CanSeekBackward@CPosPassThru@@UEAAJPEAJ@Z DD 022301H
	DD	0700b720fH
xdata	ENDS
;	COMDAT CONST
CONST	SEGMENT
?CanSeekBackward@CPosPassThru@@UEAAJPEAJ@Z$rtcName$0 DB 070H ; CPosPassThru::CanSeekBackward
	DB	04dH
	DB	050H
	DB	00H
	ORG $+12
?CanSeekBackward@CPosPassThru@@UEAAJPEAJ@Z$rtcVarDesc DD 028H ; CPosPassThru::CanSeekBackward
	DD	08H
	DQ	FLAT:?CanSeekBackward@CPosPassThru@@UEAAJPEAJ@Z$rtcName$0
	ORG $+48
?CanSeekBackward@CPosPassThru@@UEAAJPEAJ@Z$rtcFrameData DD 01H ; CPosPassThru::CanSeekBackward
	DD	00H
	DQ	FLAT:?CanSeekBackward@CPosPassThru@@UEAAJPEAJ@Z$rtcVarDesc
; Function compile flags: /Odtp /RTCsu
CONST	ENDS
;	COMDAT ?CanSeekBackward@CPosPassThru@@UEAAJPEAJ@Z
_TEXT	SEGMENT
pMP$ = 40
hr$ = 52
this$ = 80
pCanSeekBackward$ = 88
?CanSeekBackward@CPosPassThru@@UEAAJPEAJ@Z PROC		; CPosPassThru::CanSeekBackward, COMDAT
; Line 958
$LN4:
	mov	QWORD PTR [rsp+16], rdx
	mov	QWORD PTR [rsp+8], rcx
	push	rdi
	sub	rsp, 64					; 00000040H
	mov	rdi, rsp
	mov	ecx, 16
	mov	eax, -858993460				; ccccccccH
	rep stosd
	mov	rcx, QWORD PTR [rsp+80]
; Line 960
	mov	rax, QWORD PTR this$[rsp]
	sub	rax, 8
	lea	rdx, QWORD PTR pMP$[rsp]
	mov	rcx, rax
	call	?GetPeer@CPosPassThru@@AEAAJPEAPEAUIMediaPosition@@@Z ; CPosPassThru::GetPeer
	mov	DWORD PTR hr$[rsp], eax
; Line 961
	cmp	DWORD PTR hr$[rsp], 0
	jge	SHORT $LN1@CanSeekBac
; Line 962
	mov	eax, DWORD PTR hr$[rsp]
	jmp	SHORT $LN2@CanSeekBac
$LN1@CanSeekBac:
; Line 964
	mov	rax, QWORD PTR pMP$[rsp]
	mov	rax, QWORD PTR [rax]
	mov	rdx, QWORD PTR pCanSeekBackward$[rsp]
	mov	rcx, QWORD PTR pMP$[rsp]
	call	QWORD PTR [rax+136]
	mov	DWORD PTR hr$[rsp], eax
; Line 965
	mov	rax, QWORD PTR pMP$[rsp]
	mov	rax, QWORD PTR [rax]
	mov	rcx, QWORD PTR pMP$[rsp]
	call	QWORD PTR [rax+16]
; Line 966
	mov	eax, DWORD PTR hr$[rsp]
$LN2@CanSeekBac:
; Line 967
	mov	rdi, rax
	mov	rcx, rsp
	lea	rdx, OFFSET FLAT:?CanSeekBackward@CPosPassThru@@UEAAJPEAJ@Z$rtcFrameData
	call	_RTC_CheckStackVars
	mov	rax, rdi
	add	rsp, 64					; 00000040H
	pop	rdi
	ret	0
?CanSeekBackward@CPosPassThru@@UEAAJPEAJ@Z ENDP		; CPosPassThru::CanSeekBackward
_TEXT	ENDS
PUBLIC	??1CPosPassThru@@UEAA@XZ			; CPosPassThru::~CPosPassThru
PUBLIC	??_7CRendererPosPassThru@@6BCUnknown@@@		; CRendererPosPassThru::`vftable'
PUBLIC	??_7CRendererPosPassThru@@6BIMediaPosition@@@	; CRendererPosPassThru::`vftable'
PUBLIC	??_7CRendererPosPassThru@@6B@			; CRendererPosPassThru::`vftable'
PUBLIC	??0CRendererPosPassThru@@QEAA@PEB_WPEAUIUnknown@@PEAJPEAUIPin@@@Z ; CRendererPosPassThru::CRendererPosPassThru
PUBLIC	??_R4CRendererPosPassThru@@6B@			; CRendererPosPassThru::`RTTI Complete Object Locator'
PUBLIC	??_R0?AVCRendererPosPassThru@@@8		; CRendererPosPassThru `RTTI Type Descriptor'
PUBLIC	??_R3CRendererPosPassThru@@8			; CRendererPosPassThru::`RTTI Class Hierarchy Descriptor'
PUBLIC	??_R2CRendererPosPassThru@@8			; CRendererPosPassThru::`RTTI Base Class Array'
PUBLIC	??_R1A@?0A@EA@CRendererPosPassThru@@8		; CRendererPosPassThru::`RTTI Base Class Descriptor at (0,-1,0,64)'
PUBLIC	?GetMediaTime@CRendererPosPassThru@@UEAAJPEA_J0@Z ; CRendererPosPassThru::GetMediaTime
PUBLIC	??_R4CRendererPosPassThru@@6BIMediaPosition@@@	; CRendererPosPassThru::`RTTI Complete Object Locator'
PUBLIC	??_R4CRendererPosPassThru@@6BCUnknown@@@	; CRendererPosPassThru::`RTTI Complete Object Locator'
PUBLIC	??_ECRendererPosPassThru@@WBA@EAAPEAXI@Z	; [thunk]:CRendererPosPassThru::`vector deleting destructor'
EXTRN	??0CCritSec@@QEAA@XZ:PROC			; CCritSec::CCritSec
;	COMDAT pdata
pdata	SEGMENT
$pdata$??0CRendererPosPassThru@@QEAA@PEB_WPEAUIUnknown@@PEAJPEAUIPin@@@Z DD imagerel $LN5
	DD	imagerel $LN5+209
	DD	imagerel $unwind$??0CRendererPosPassThru@@QEAA@PEB_WPEAUIUnknown@@PEAJPEAUIPin@@@Z
pdata	ENDS
;	COMDAT pdata
pdata	SEGMENT
$pdata$?dtor$0@?0???0CRendererPosPassThru@@QEAA@PEB_WPEAUIUnknown@@PEAJPEAUIPin@@@Z@4HA DD imagerel ?dtor$0@?0???0CRendererPosPassThru@@QEAA@PEB_WPEAUIUnknown@@PEAJPEAUIPin@@@Z@4HA
	DD	imagerel ?dtor$0@?0???0CRendererPosPassThru@@QEAA@PEB_WPEAUIUnknown@@PEAJPEAUIPin@@@Z@4HA+35
	DD	imagerel $unwind$?dtor$0@?0???0CRendererPosPassThru@@QEAA@PEB_WPEAUIUnknown@@PEAJPEAUIPin@@@Z@4HA
pdata	ENDS
;	COMDAT xdata
xdata	SEGMENT
$ip2state$??0CRendererPosPassThru@@QEAA@PEB_WPEAUIUnknown@@PEAJPEAUIPin@@@Z DD imagerel ??0CRendererPosPassThru@@QEAA@PEB_WPEAUIUnknown@@PEAJPEAUIPin@@@Z
	DD	0ffffffffH
	DD	imagerel ??0CRendererPosPassThru@@QEAA@PEB_WPEAUIUnknown@@PEAJPEAUIPin@@@Z+90
	DD	00H
	DD	imagerel ??0CRendererPosPassThru@@QEAA@PEB_WPEAUIUnknown@@PEAJPEAUIPin@@@Z+198
	DD	0ffffffffH
xdata	ENDS
;	COMDAT ??_R4CRendererPosPassThru@@6BCUnknown@@@
rdata$r	SEGMENT
??_R4CRendererPosPassThru@@6BCUnknown@@@ DD 01H		; CRendererPosPassThru::`RTTI Complete Object Locator'
	DD	010H
	DD	00H
	DD	imagerel ??_R0?AVCRendererPosPassThru@@@8
	DD	imagerel ??_R3CRendererPosPassThru@@8
	DD	imagerel ??_R4CRendererPosPassThru@@6BCUnknown@@@
rdata$r	ENDS
;	COMDAT ??_R4CRendererPosPassThru@@6BIMediaPosition@@@
rdata$r	SEGMENT
??_R4CRendererPosPassThru@@6BIMediaPosition@@@ DD 01H	; CRendererPosPassThru::`RTTI Complete Object Locator'
	DD	08H
	DD	00H
	DD	imagerel ??_R0?AVCRendererPosPassThru@@@8
	DD	imagerel ??_R3CRendererPosPassThru@@8
	DD	imagerel ??_R4CRendererPosPassThru@@6BIMediaPosition@@@
rdata$r	ENDS
;	COMDAT ??_R1A@?0A@EA@CRendererPosPassThru@@8
rdata$r	SEGMENT
??_R1A@?0A@EA@CRendererPosPassThru@@8 DD imagerel ??_R0?AVCRendererPosPassThru@@@8 ; CRendererPosPassThru::`RTTI Base Class Descriptor at (0,-1,0,64)'
	DD	0aH
	DD	00H
	DD	0ffffffffH
	DD	00H
	DD	040H
	DD	imagerel ??_R3CRendererPosPassThru@@8
rdata$r	ENDS
;	COMDAT ??_R2CRendererPosPassThru@@8
rdata$r	SEGMENT
??_R2CRendererPosPassThru@@8 DD imagerel ??_R1A@?0A@EA@CRendererPosPassThru@@8 ; CRendererPosPassThru::`RTTI Base Class Array'
	DD	imagerel ??_R1A@?0A@EA@CPosPassThru@@8
	DD	imagerel ??_R1A@?0A@EA@IMediaSeeking@@8
	DD	imagerel ??_R1A@?0A@EC@IUnknown@@8
	DD	imagerel ??_R17?0A@EA@CMediaPosition@@8
	DD	imagerel ??_R17?0A@EA@IMediaPosition@@8
	DD	imagerel ??_R17?0A@EA@IDispatch@@8
	DD	imagerel ??_R17?0A@EC@IUnknown@@8
	DD	imagerel ??_R1BA@?0A@EA@CUnknown@@8
	DD	imagerel ??_R1BA@?0A@EA@INonDelegatingUnknown@@8
	DD	imagerel ??_R1BI@?0A@EA@CBaseObject@@8
	ORG $+3
rdata$r	ENDS
;	COMDAT ??_R3CRendererPosPassThru@@8
rdata$r	SEGMENT
??_R3CRendererPosPassThru@@8 DD 00H			; CRendererPosPassThru::`RTTI Class Hierarchy Descriptor'
	DD	01H
	DD	0bH
	DD	imagerel ??_R2CRendererPosPassThru@@8
rdata$r	ENDS
;	COMDAT ??_R0?AVCRendererPosPassThru@@@8
_DATA	SEGMENT
??_R0?AVCRendererPosPassThru@@@8 DQ FLAT:??_7type_info@@6B@ ; CRendererPosPassThru `RTTI Type Descriptor'
	DQ	0000000000000000H
	DB	'.?AVCRendererPosPassThru@@', 00H
_DATA	ENDS
;	COMDAT ??_R4CRendererPosPassThru@@6B@
rdata$r	SEGMENT
??_R4CRendererPosPassThru@@6B@ DD 01H			; CRendererPosPassThru::`RTTI Complete Object Locator'
	DD	00H
	DD	00H
	DD	imagerel ??_R0?AVCRendererPosPassThru@@@8
	DD	imagerel ??_R3CRendererPosPassThru@@8
	DD	imagerel ??_R4CRendererPosPassThru@@6B@
rdata$r	ENDS
;	COMDAT xdata
xdata	SEGMENT
$unwind$?dtor$0@?0???0CRendererPosPassThru@@QEAA@PEB_WPEAUIUnknown@@PEAJPEAUIPin@@@Z@4HA DD 031001H
	DD	0700c4210H
	DD	0500bH
xdata	ENDS
;	COMDAT xdata
xdata	SEGMENT
$unwind$??0CRendererPosPassThru@@QEAA@PEB_WPEAUIUnknown@@PEAJPEAUIPin@@@Z DD 023611H
	DD	070157219H
	DD	imagerel __CxxFrameHandler3
	DD	imagerel $cppxdata$??0CRendererPosPassThru@@QEAA@PEB_WPEAUIUnknown@@PEAJPEAUIPin@@@Z
xdata	ENDS
;	COMDAT CONST
CONST	SEGMENT
$cppxdata$??0CRendererPosPassThru@@QEAA@PEB_WPEAUIUnknown@@PEAJPEAUIPin@@@Z DD 019930522H
	DD	01H
	DD	imagerel $stateUnwindMap$??0CRendererPosPassThru@@QEAA@PEB_WPEAUIUnknown@@PEAJPEAUIPin@@@Z
	DD	00H
	DD	00H
	DD	03H
	DD	imagerel $ip2state$??0CRendererPosPassThru@@QEAA@PEB_WPEAUIUnknown@@PEAJPEAUIPin@@@Z
	DD	030H
	DD	00H
	DD	01H
CONST	ENDS
;	COMDAT xdata
xdata	SEGMENT
$stateUnwindMap$??0CRendererPosPassThru@@QEAA@PEB_WPEAUIUnknown@@PEAJPEAUIPin@@@Z DD 0ffffffffH
	DD	imagerel ?dtor$0@?0???0CRendererPosPassThru@@QEAA@PEB_WPEAUIUnknown@@PEAJPEAUIPin@@@Z@4HA
xdata	ENDS
;	COMDAT ??_7CRendererPosPassThru@@6BCUnknown@@@
CONST	SEGMENT
??_7CRendererPosPassThru@@6BCUnknown@@@ DQ FLAT:??_R4CRendererPosPassThru@@6BCUnknown@@@ ; CRendererPosPassThru::`vftable'
	DQ	FLAT:?NonDelegatingQueryInterface@CPosPassThru@@UEAAJAEBU_GUID@@PEAPEAX@Z
	DQ	FLAT:?NonDelegatingAddRef@CUnknown@@UEAAKXZ
	DQ	FLAT:?NonDelegatingRelease@CUnknown@@UEAAKXZ
	DQ	FLAT:??_ECRendererPosPassThru@@WBA@EAAPEAXI@Z
CONST	ENDS
;	COMDAT ??_7CRendererPosPassThru@@6BIMediaPosition@@@
CONST	SEGMENT
??_7CRendererPosPassThru@@6BIMediaPosition@@@ DQ FLAT:??_R4CRendererPosPassThru@@6BIMediaPosition@@@ ; CRendererPosPassThru::`vftable'
	DQ	FLAT:?QueryInterface@CPosPassThru@@W7EAAJAEBU_GUID@@PEAPEAX@Z
	DQ	FLAT:?AddRef@CPosPassThru@@W7EAAKXZ
	DQ	FLAT:?Release@CPosPassThru@@W7EAAKXZ
	DQ	FLAT:?GetTypeInfoCount@CMediaPosition@@UEAAJPEAI@Z
	DQ	FLAT:?GetTypeInfo@CMediaPosition@@UEAAJIKPEAPEAUITypeInfo@@@Z
	DQ	FLAT:?GetIDsOfNames@CMediaPosition@@UEAAJAEBU_GUID@@PEAPEA_WIKPEAJ@Z
	DQ	FLAT:?Invoke@CMediaPosition@@UEAAJJAEBU_GUID@@KGPEAUtagDISPPARAMS@@PEAUtagVARIANT@@PEAUtagEXCEPINFO@@PEAI@Z
	DQ	FLAT:?get_Duration@CPosPassThru@@UEAAJPEAN@Z
	DQ	FLAT:?put_CurrentPosition@CPosPassThru@@UEAAJN@Z
	DQ	FLAT:?get_CurrentPosition@CPosPassThru@@UEAAJPEAN@Z
	DQ	FLAT:?get_StopTime@CPosPassThru@@UEAAJPEAN@Z
	DQ	FLAT:?put_StopTime@CPosPassThru@@UEAAJN@Z
	DQ	FLAT:?get_PrerollTime@CPosPassThru@@UEAAJPEAN@Z
	DQ	FLAT:?put_PrerollTime@CPosPassThru@@UEAAJN@Z
	DQ	FLAT:?put_Rate@CPosPassThru@@UEAAJN@Z
	DQ	FLAT:?get_Rate@CPosPassThru@@UEAAJPEAN@Z
	DQ	FLAT:?CanSeekForward@CPosPassThru@@UEAAJPEAJ@Z
	DQ	FLAT:?CanSeekBackward@CPosPassThru@@UEAAJPEAJ@Z
CONST	ENDS
;	COMDAT ??_7CRendererPosPassThru@@6B@
CONST	SEGMENT
??_7CRendererPosPassThru@@6B@ DQ FLAT:??_R4CRendererPosPassThru@@6B@ ; CRendererPosPassThru::`vftable'
	DQ	FLAT:?QueryInterface@CPosPassThru@@UEAAJAEBU_GUID@@PEAPEAX@Z
	DQ	FLAT:?AddRef@CPosPassThru@@UEAAKXZ
	DQ	FLAT:?Release@CPosPassThru@@UEAAKXZ
	DQ	FLAT:?GetCapabilities@CPosPassThru@@UEAAJPEAK@Z
	DQ	FLAT:?CheckCapabilities@CPosPassThru@@UEAAJPEAK@Z
	DQ	FLAT:?IsFormatSupported@CPosPassThru@@UEAAJPEBU_GUID@@@Z
	DQ	FLAT:?QueryPreferredFormat@CPosPassThru@@UEAAJPEAU_GUID@@@Z
	DQ	FLAT:?GetTimeFormatW@CPosPassThru@@UEAAJPEAU_GUID@@@Z
	DQ	FLAT:?IsUsingTimeFormat@CPosPassThru@@UEAAJPEBU_GUID@@@Z
	DQ	FLAT:?SetTimeFormat@CPosPassThru@@UEAAJPEBU_GUID@@@Z
	DQ	FLAT:?GetDuration@CPosPassThru@@UEAAJPEA_J@Z
	DQ	FLAT:?GetStopPosition@CPosPassThru@@UEAAJPEA_J@Z
	DQ	FLAT:?GetCurrentPosition@CPosPassThru@@UEAAJPEA_J@Z
	DQ	FLAT:?ConvertTimeFormat@CPosPassThru@@UEAAJPEA_JPEBU_GUID@@_J1@Z
	DQ	FLAT:?SetPositions@CPosPassThru@@UEAAJPEA_JK0K@Z
	DQ	FLAT:?GetPositions@CPosPassThru@@UEAAJPEA_J0@Z
	DQ	FLAT:?GetAvailable@CPosPassThru@@UEAAJPEA_J0@Z
	DQ	FLAT:?SetRate@CPosPassThru@@UEAAJN@Z
	DQ	FLAT:?GetRate@CPosPassThru@@UEAAJPEAN@Z
	DQ	FLAT:?GetPreroll@CPosPassThru@@UEAAJPEA_J@Z
	DQ	FLAT:?GetMediaTime@CRendererPosPassThru@@UEAAJPEA_J0@Z
; Function compile flags: /Odtp /RTCsu
CONST	ENDS
;	COMDAT ??0CRendererPosPassThru@@QEAA@PEB_WPEAUIUnknown@@PEAJPEAUIPin@@@Z
_TEXT	SEGMENT
$T86084 = 48
this$ = 80
pName$ = 88
pUnk$ = 96
phr$ = 104
pPin$ = 112
??0CRendererPosPassThru@@QEAA@PEB_WPEAUIUnknown@@PEAJPEAUIPin@@@Z PROC ; CRendererPosPassThru::CRendererPosPassThru, COMDAT
; Line 987
$LN5:
	mov	QWORD PTR [rsp+32], r9
	mov	QWORD PTR [rsp+24], r8
	mov	QWORD PTR [rsp+16], rdx
	mov	QWORD PTR [rsp+8], rcx
	push	rdi
	sub	rsp, 64					; 00000040H
	mov	rdi, rsp
	mov	ecx, 16
	mov	eax, -858993460				; ccccccccH
	rep stosd
	mov	rcx, QWORD PTR [rsp+80]
	mov	QWORD PTR $T86084[rsp], -2
	mov	rax, QWORD PTR pPin$[rsp]
	mov	QWORD PTR [rsp+32], rax
	mov	r9, QWORD PTR phr$[rsp]
	mov	r8, QWORD PTR pUnk$[rsp]
	mov	rdx, QWORD PTR pName$[rsp]
	mov	rcx, QWORD PTR this$[rsp]
	call	??0CPosPassThru@@QEAA@PEB_WPEAUIUnknown@@PEAJPEAUIPin@@@Z ; CPosPassThru::CPosPassThru
	npad	1
	mov	rax, QWORD PTR this$[rsp]
	lea	rcx, OFFSET FLAT:??_7CRendererPosPassThru@@6B@
	mov	QWORD PTR [rax], rcx
	mov	rax, QWORD PTR this$[rsp]
	lea	rcx, OFFSET FLAT:??_7CRendererPosPassThru@@6BIMediaPosition@@@
	mov	QWORD PTR [rax+8], rcx
	mov	rax, QWORD PTR this$[rsp]
	lea	rcx, OFFSET FLAT:??_7CRendererPosPassThru@@6BCUnknown@@@
	mov	QWORD PTR [rax+16], rcx
	mov	rax, QWORD PTR this$[rsp]
	add	rax, 64					; 00000040H
	mov	rcx, rax
	call	??0CCritSec@@QEAA@XZ			; CCritSec::CCritSec
	mov	rax, QWORD PTR this$[rsp]
	mov	QWORD PTR [rax+120], 0
	mov	rax, QWORD PTR this$[rsp]
	mov	QWORD PTR [rax+128], 0
	mov	rax, QWORD PTR this$[rsp]
	mov	DWORD PTR [rax+136], 1
; Line 988
	mov	rax, QWORD PTR this$[rsp]
	add	rsp, 64					; 00000040H
	pop	rdi
	ret	0
??0CRendererPosPassThru@@QEAA@PEB_WPEAUIUnknown@@PEAJPEAUIPin@@@Z ENDP ; CRendererPosPassThru::CRendererPosPassThru
; Function compile flags: /Odtp /RTCsu
_TEXT	ENDS
;	COMDAT text$x
text$x	SEGMENT
$T86084 = 48
this$ = 80
pName$ = 88
pUnk$ = 96
phr$ = 104
pPin$ = 112
?dtor$0@?0???0CRendererPosPassThru@@QEAA@PEB_WPEAUIUnknown@@PEAJPEAUIPin@@@Z@4HA PROC ; `CRendererPosPassThru::CRendererPosPassThru'::`1'::dtor$0
	mov	QWORD PTR [rsp+8], rcx
	mov	QWORD PTR [rsp+16], rdx
	push	rbp
	push	rdi
	sub	rsp, 40					; 00000028H
	mov	rbp, rdx
	mov	rcx, QWORD PTR this$[rbp]
	call	??1CPosPassThru@@UEAA@XZ
	add	rsp, 40					; 00000028H
	pop	rdi
	pop	rbp
	ret	0
?dtor$0@?0???0CRendererPosPassThru@@QEAA@PEB_WPEAUIUnknown@@PEAJPEAUIPin@@@Z@4HA ENDP ; `CRendererPosPassThru::CRendererPosPassThru'::`1'::dtor$0
text$x	ENDS
PUBLIC	??1CMediaPosition@@UEAA@XZ			; CMediaPosition::~CMediaPosition
;	COMDAT pdata
pdata	SEGMENT
$pdata$??1CPosPassThru@@UEAA@XZ DD imagerel $LN4
	DD	imagerel $LN4+53
	DD	imagerel $unwind$??1CPosPassThru@@UEAA@XZ
pdata	ENDS
;	COMDAT xdata
xdata	SEGMENT
$unwind$??1CPosPassThru@@UEAA@XZ DD 021e01H
	DD	07006320aH
; Function compile flags: /Odtp /RTCsu
xdata	ENDS
;	COMDAT ??1CPosPassThru@@UEAA@XZ
_TEXT	SEGMENT
this$ = 48
??1CPosPassThru@@UEAA@XZ PROC				; CPosPassThru::~CPosPassThru, COMDAT
$LN4:
	mov	QWORD PTR [rsp+8], rcx
	push	rdi
	sub	rsp, 32					; 00000020H
	mov	rdi, rsp
	mov	ecx, 8
	mov	eax, -858993460				; ccccccccH
	rep stosd
	mov	rcx, QWORD PTR [rsp+48]
	mov	rax, QWORD PTR this$[rsp]
	add	rax, 8
	mov	rcx, rax
	call	??1CMediaPosition@@UEAA@XZ
	add	rsp, 32					; 00000020H
	pop	rdi
	ret	0
??1CPosPassThru@@UEAA@XZ ENDP				; CPosPassThru::~CPosPassThru
_TEXT	ENDS
;	COMDAT pdata
pdata	SEGMENT
$pdata$??1CMediaPosition@@UEAA@XZ DD imagerel $LN5
	DD	imagerel $LN5+80
	DD	imagerel $unwind$??1CMediaPosition@@UEAA@XZ
pdata	ENDS
;	COMDAT pdata
pdata	SEGMENT
$pdata$?dtor$0@?0???1CMediaPosition@@UEAA@XZ@4HA DD imagerel ?dtor$0@?0???1CMediaPosition@@UEAA@XZ@4HA
	DD	imagerel ?dtor$0@?0???1CMediaPosition@@UEAA@XZ@4HA+39
	DD	imagerel $unwind$?dtor$0@?0???1CMediaPosition@@UEAA@XZ@4HA
pdata	ENDS
;	COMDAT xdata
xdata	SEGMENT
$ip2state$??1CMediaPosition@@UEAA@XZ DD imagerel ??1CMediaPosition@@UEAA@XZ
	DD	0ffffffffH
	DD	imagerel ??1CMediaPosition@@UEAA@XZ+39
	DD	00H
	DD	imagerel ??1CMediaPosition@@UEAA@XZ+57
	DD	0ffffffffH
xdata	ENDS
;	COMDAT xdata
xdata	SEGMENT
$unwind$?dtor$0@?0???1CMediaPosition@@UEAA@XZ@4HA DD 031001H
	DD	0700c4210H
	DD	0500bH
xdata	ENDS
;	COMDAT xdata
xdata	SEGMENT
$unwind$??1CMediaPosition@@UEAA@XZ DD 022711H
	DD	07006520aH
	DD	imagerel __CxxFrameHandler3
	DD	imagerel $cppxdata$??1CMediaPosition@@UEAA@XZ
xdata	ENDS
;	COMDAT CONST
CONST	SEGMENT
$cppxdata$??1CMediaPosition@@UEAA@XZ DD 019930522H
	DD	01H
	DD	imagerel $stateUnwindMap$??1CMediaPosition@@UEAA@XZ
	DD	00H
	DD	00H
	DD	03H
	DD	imagerel $ip2state$??1CMediaPosition@@UEAA@XZ
	DD	020H
	DD	00H
	DD	01H
CONST	ENDS
;	COMDAT xdata
xdata	SEGMENT
$stateUnwindMap$??1CMediaPosition@@UEAA@XZ DD 0ffffffffH
	DD	imagerel ?dtor$0@?0???1CMediaPosition@@UEAA@XZ@4HA
; Function compile flags: /Odtp /RTCsu
xdata	ENDS
;	COMDAT ??1CMediaPosition@@UEAA@XZ
_TEXT	SEGMENT
$T86120 = 32
this$ = 64
??1CMediaPosition@@UEAA@XZ PROC				; CMediaPosition::~CMediaPosition, COMDAT
$LN5:
	mov	QWORD PTR [rsp+8], rcx
	push	rdi
	sub	rsp, 48					; 00000030H
	mov	rdi, rsp
	mov	ecx, 12
	mov	eax, -858993460				; ccccccccH
	rep stosd
	mov	rcx, QWORD PTR [rsp+64]
	mov	QWORD PTR $T86120[rsp], -2
	mov	rax, QWORD PTR this$[rsp]
	add	rax, 40					; 00000028H
	mov	rcx, rax
	call	??1CBaseDispatch@@QEAA@XZ		; CBaseDispatch::~CBaseDispatch
	npad	1
	mov	rax, QWORD PTR this$[rsp]
	add	rax, 8
	mov	rcx, rax
	call	??1CUnknown@@UEAA@XZ			; CUnknown::~CUnknown
	add	rsp, 48					; 00000030H
	pop	rdi
	ret	0
??1CMediaPosition@@UEAA@XZ ENDP				; CMediaPosition::~CMediaPosition
; Function compile flags: /Odtp /RTCsu
_TEXT	ENDS
;	COMDAT text$x
text$x	SEGMENT
$T86120 = 32
this$ = 64
?dtor$0@?0???1CMediaPosition@@UEAA@XZ@4HA PROC		; `CMediaPosition::~CMediaPosition'::`1'::dtor$0
	mov	QWORD PTR [rsp+8], rcx
	mov	QWORD PTR [rsp+16], rdx
	push	rbp
	push	rdi
	sub	rsp, 40					; 00000028H
	mov	rbp, rdx
	mov	rcx, QWORD PTR this$[rbp]
	add	rcx, 8
	call	??1CUnknown@@UEAA@XZ			; CUnknown::~CUnknown
	add	rsp, 40					; 00000028H
	pop	rdi
	pop	rbp
	ret	0
?dtor$0@?0???1CMediaPosition@@UEAA@XZ@4HA ENDP		; `CMediaPosition::~CMediaPosition'::`1'::dtor$0
text$x	ENDS
PUBLIC	??1CAutoLock@@QEAA@XZ				; CAutoLock::~CAutoLock
PUBLIC	??0CAutoLock@@QEAA@PEAVCCritSec@@@Z		; CAutoLock::CAutoLock
PUBLIC	?RegisterMediaTime@CRendererPosPassThru@@QEAAJPEAUIMediaSample@@@Z ; CRendererPosPassThru::RegisterMediaTime
EXTRN	?DbgAssert@@YAXPEB_W0H@Z:PROC			; DbgAssert
;	COMDAT pdata
pdata	SEGMENT
$pdata$?RegisterMediaTime@CRendererPosPassThru@@QEAAJPEAUIMediaSample@@@Z DD imagerel $LN7
	DD	imagerel $LN7+324
	DD	imagerel $unwind$?RegisterMediaTime@CRendererPosPassThru@@QEAAJPEAUIMediaSample@@@Z
pdata	ENDS
;	COMDAT pdata
pdata	SEGMENT
$pdata$?dtor$0@?0??RegisterMediaTime@CRendererPosPassThru@@QEAAJPEAUIMediaSample@@@Z@4HA DD imagerel ?dtor$0@?0??RegisterMediaTime@CRendererPosPassThru@@QEAAJPEAUIMediaSample@@@Z@4HA
	DD	imagerel ?dtor$0@?0??RegisterMediaTime@CRendererPosPassThru@@QEAAJPEAUIMediaSample@@@Z@4HA+35
	DD	imagerel $unwind$?dtor$0@?0??RegisterMediaTime@CRendererPosPassThru@@QEAAJPEAUIMediaSample@@@Z@4HA
pdata	ENDS
;	COMDAT xdata
xdata	SEGMENT
$ip2state$?RegisterMediaTime@CRendererPosPassThru@@QEAAJPEAUIMediaSample@@@Z DD imagerel ?RegisterMediaTime@CRendererPosPassThru@@QEAAJPEAUIMediaSample@@@Z
	DD	0ffffffffH
	DD	imagerel ?RegisterMediaTime@CRendererPosPassThru@@QEAAJPEAUIMediaSample@@@Z+115
	DD	00H
	DD	imagerel ?RegisterMediaTime@CRendererPosPassThru@@QEAAJPEAUIMediaSample@@@Z+201
	DD	0ffffffffH
	DD	imagerel ?RegisterMediaTime@CRendererPosPassThru@@QEAAJPEAUIMediaSample@@@Z+217
	DD	00H
	DD	imagerel ?RegisterMediaTime@CRendererPosPassThru@@QEAAJPEAUIMediaSample@@@Z+280
	DD	0ffffffffH
xdata	ENDS
;	COMDAT xdata
xdata	SEGMENT
$unwind$?dtor$0@?0??RegisterMediaTime@CRendererPosPassThru@@QEAAJPEAUIMediaSample@@@Z@4HA DD 031001H
	DD	0700c4210H
	DD	0500bH
xdata	ENDS
;	COMDAT xdata
xdata	SEGMENT
$unwind$?RegisterMediaTime@CRendererPosPassThru@@QEAAJPEAUIMediaSample@@@Z DD 033511H
	DD	0120112H
	DD	0700bH
	DD	imagerel __CxxFrameHandler3
	DD	imagerel $cppxdata$?RegisterMediaTime@CRendererPosPassThru@@QEAAJPEAUIMediaSample@@@Z
xdata	ENDS
;	COMDAT xdata
xdata	SEGMENT
$stateUnwindMap$?RegisterMediaTime@CRendererPosPassThru@@QEAAJPEAUIMediaSample@@@Z DD 0ffffffffH
	DD	imagerel ?dtor$0@?0??RegisterMediaTime@CRendererPosPassThru@@QEAAJPEAUIMediaSample@@@Z@4HA
xdata	ENDS
;	COMDAT CONST
CONST	SEGMENT
?RegisterMediaTime@CRendererPosPassThru@@QEAAJPEAUIMediaSample@@@Z$rtcName$0 DB 053H ; CRendererPosPassThru::RegisterMediaTime
	DB	074H
	DB	061H
	DB	072H
	DB	074H
	DB	04dH
	DB	065H
	DB	064H
	DB	069H
	DB	061H
	DB	00H
	ORG $+5
?RegisterMediaTime@CRendererPosPassThru@@QEAAJPEAUIMediaSample@@@Z$rtcName$1 DB 045H ; CRendererPosPassThru::RegisterMediaTime
	DB	06eH
	DB	064H
	DB	04dH
	DB	065H
	DB	064H
	DB	069H
	DB	061H
	DB	00H
	ORG $+7
?RegisterMediaTime@CRendererPosPassThru@@QEAAJPEAUIMediaSample@@@Z$rtcName$2 DB 063H ; CRendererPosPassThru::RegisterMediaTime
	DB	041H
	DB	075H
	DB	074H
	DB	06fH
	DB	04cH
	DB	06fH
	DB	063H
	DB	06bH
	DB	00H
	ORG $+6
?RegisterMediaTime@CRendererPosPassThru@@QEAAJPEAUIMediaSample@@@Z$rtcVarDesc DD 068H ; CRendererPosPassThru::RegisterMediaTime
	DD	08H
	DQ	FLAT:?RegisterMediaTime@CRendererPosPassThru@@QEAAJPEAUIMediaSample@@@Z$rtcName$2
	DD	048H
	DD	08H
	DQ	FLAT:?RegisterMediaTime@CRendererPosPassThru@@QEAAJPEAUIMediaSample@@@Z$rtcName$1
	DD	028H
	DD	08H
	DQ	FLAT:?RegisterMediaTime@CRendererPosPassThru@@QEAAJPEAUIMediaSample@@@Z$rtcName$0
	ORG $+144
?RegisterMediaTime@CRendererPosPassThru@@QEAAJPEAUIMediaSample@@@Z$rtcFrameData DD 03H ; CRendererPosPassThru::RegisterMediaTime
	DD	00H
	DQ	FLAT:?RegisterMediaTime@CRendererPosPassThru@@QEAAJPEAUIMediaSample@@@Z$rtcVarDesc
$cppxdata$?RegisterMediaTime@CRendererPosPassThru@@QEAAJPEAUIMediaSample@@@Z DD 019930522H
	DD	01H
	DD	imagerel $stateUnwindMap$?RegisterMediaTime@CRendererPosPassThru@@QEAAJPEAUIMediaSample@@@Z
	DD	00H
	DD	00H
	DD	05H
	DD	imagerel $ip2state$?RegisterMediaTime@CRendererPosPassThru@@QEAAJPEAUIMediaSample@@@Z
	DD	080H
	DD	00H
	DD	01H
; Function compile flags: /Odtp /RTCsu
CONST	ENDS
;	COMDAT ?RegisterMediaTime@CRendererPosPassThru@@QEAAJPEAUIMediaSample@@@Z
_TEXT	SEGMENT
StartMedia$ = 40
EndMedia$ = 72
cAutoLock$ = 104
hr$ = 116
$T86138 = 120
$T86139 = 124
$T86145 = 128
this$ = 160
pMediaSample$ = 168
?RegisterMediaTime@CRendererPosPassThru@@QEAAJPEAUIMediaSample@@@Z PROC ; CRendererPosPassThru::RegisterMediaTime, COMDAT
; Line 995
$LN7:
	mov	QWORD PTR [rsp+16], rdx
	mov	QWORD PTR [rsp+8], rcx
	push	rdi
	sub	rsp, 144				; 00000090H
	mov	rdi, rsp
	mov	ecx, 36					; 00000024H
	mov	eax, -858993460				; ccccccccH
	rep stosd
	mov	rcx, QWORD PTR [rsp+160]
	mov	QWORD PTR $T86145[rsp], -2
; Line 996
	cmp	QWORD PTR pMediaSample$[rsp], 0
	jne	SHORT $LN3@RegisterMe
	mov	r8d, 996				; 000003e4H
	lea	rdx, OFFSET FLAT:$SG82895
	lea	rcx, OFFSET FLAT:$SG82896
	call	?DbgAssert@@YAXPEB_W0H@Z		; DbgAssert
$LN3@RegisterMe:
; Line 1000
	mov	rax, QWORD PTR this$[rsp]
	add	rax, 64					; 00000040H
	mov	rdx, rax
	lea	rcx, QWORD PTR cAutoLock$[rsp]
	call	??0CAutoLock@@QEAA@PEAVCCritSec@@@Z	; CAutoLock::CAutoLock
	npad	1
; Line 1004
	mov	rax, QWORD PTR pMediaSample$[rsp]
	mov	rax, QWORD PTR [rax]
	lea	r8, QWORD PTR EndMedia$[rsp]
	lea	rdx, QWORD PTR StartMedia$[rsp]
	mov	rcx, QWORD PTR pMediaSample$[rsp]
	call	QWORD PTR [rax+40]
	mov	DWORD PTR hr$[rsp], eax
; Line 1005
	cmp	DWORD PTR hr$[rsp], 0
	jge	SHORT $LN2@RegisterMe
; Line 1007
	cmp	DWORD PTR hr$[rsp], -2147220919		; ffffffff80040249H
	je	SHORT $LN1@RegisterMe
	mov	r8d, 1007				; 000003efH
	lea	rdx, OFFSET FLAT:$SG82905
	lea	rcx, OFFSET FLAT:$SG82906
	call	?DbgAssert@@YAXPEB_W0H@Z		; DbgAssert
$LN1@RegisterMe:
; Line 1008
	mov	eax, DWORD PTR hr$[rsp]
	mov	DWORD PTR $T86138[rsp], eax
	lea	rcx, QWORD PTR cAutoLock$[rsp]
	call	??1CAutoLock@@QEAA@XZ			; CAutoLock::~CAutoLock
	mov	eax, DWORD PTR $T86138[rsp]
	jmp	SHORT $LN4@RegisterMe
$LN2@RegisterMe:
; Line 1011
	mov	rax, QWORD PTR this$[rsp]
	mov	rcx, QWORD PTR StartMedia$[rsp]
	mov	QWORD PTR [rax+120], rcx
; Line 1012
	mov	rax, QWORD PTR this$[rsp]
	mov	rcx, QWORD PTR EndMedia$[rsp]
	mov	QWORD PTR [rax+128], rcx
; Line 1013
	mov	rax, QWORD PTR this$[rsp]
	mov	DWORD PTR [rax+136], 0
; Line 1014
	mov	DWORD PTR $T86139[rsp], 0
	lea	rcx, QWORD PTR cAutoLock$[rsp]
	call	??1CAutoLock@@QEAA@XZ			; CAutoLock::~CAutoLock
	mov	eax, DWORD PTR $T86139[rsp]
$LN4@RegisterMe:
; Line 1015
	mov	rdi, rax
	mov	rcx, rsp
	lea	rdx, OFFSET FLAT:?RegisterMediaTime@CRendererPosPassThru@@QEAAJPEAUIMediaSample@@@Z$rtcFrameData
	call	_RTC_CheckStackVars
	mov	rax, rdi
	add	rsp, 144				; 00000090H
	pop	rdi
	ret	0
?RegisterMediaTime@CRendererPosPassThru@@QEAAJPEAUIMediaSample@@@Z ENDP ; CRendererPosPassThru::RegisterMediaTime
; Function compile flags: /Odtp /RTCsu
_TEXT	ENDS
;	COMDAT text$x
text$x	SEGMENT
StartMedia$ = 40
EndMedia$ = 72
cAutoLock$ = 104
hr$ = 116
$T86138 = 120
$T86139 = 124
$T86145 = 128
this$ = 160
pMediaSample$ = 168
?dtor$0@?0??RegisterMediaTime@CRendererPosPassThru@@QEAAJPEAUIMediaSample@@@Z@4HA PROC ; `CRendererPosPassThru::RegisterMediaTime'::`1'::dtor$0
	mov	QWORD PTR [rsp+8], rcx
	mov	QWORD PTR [rsp+16], rdx
	push	rbp
	push	rdi
	sub	rsp, 40					; 00000028H
	mov	rbp, rdx
	lea	rcx, QWORD PTR cAutoLock$[rbp]
	call	??1CAutoLock@@QEAA@XZ			; CAutoLock::~CAutoLock
	add	rsp, 40					; 00000028H
	pop	rdi
	pop	rbp
	ret	0
?dtor$0@?0??RegisterMediaTime@CRendererPosPassThru@@QEAAJPEAUIMediaSample@@@Z@4HA ENDP ; `CRendererPosPassThru::RegisterMediaTime'::`1'::dtor$0
text$x	ENDS
EXTRN	?Lock@CCritSec@@QEAAXXZ:PROC			; CCritSec::Lock
;	COMDAT pdata
; File c:\downloads\wpf mediakit - copy\src\filters\baseclasses\wxutil.h
pdata	SEGMENT
$pdata$??0CAutoLock@@QEAA@PEAVCCritSec@@@Z DD imagerel $LN3
	DD	imagerel $LN3+72
	DD	imagerel $unwind$??0CAutoLock@@QEAA@PEAVCCritSec@@@Z
pdata	ENDS
;	COMDAT xdata
xdata	SEGMENT
$unwind$??0CAutoLock@@QEAA@PEAVCCritSec@@@Z DD 022301H
	DD	0700b320fH
; Function compile flags: /Odtp /RTCsu
xdata	ENDS
;	COMDAT ??0CAutoLock@@QEAA@PEAVCCritSec@@@Z
_TEXT	SEGMENT
this$ = 48
plock$ = 56
??0CAutoLock@@QEAA@PEAVCCritSec@@@Z PROC		; CAutoLock::CAutoLock, COMDAT
; Line 94
$LN3:
	mov	QWORD PTR [rsp+16], rdx
	mov	QWORD PTR [rsp+8], rcx
	push	rdi
	sub	rsp, 32					; 00000020H
	mov	rdi, rsp
	mov	ecx, 8
	mov	eax, -858993460				; ccccccccH
	rep stosd
	mov	rcx, QWORD PTR [rsp+48]
; Line 96
	mov	rax, QWORD PTR this$[rsp]
	mov	rcx, QWORD PTR plock$[rsp]
	mov	QWORD PTR [rax], rcx
; Line 97
	mov	rax, QWORD PTR this$[rsp]
	mov	rcx, QWORD PTR [rax]
	call	?Lock@CCritSec@@QEAAXXZ			; CCritSec::Lock
; Line 98
	mov	rax, QWORD PTR this$[rsp]
	add	rsp, 32					; 00000020H
	pop	rdi
	ret	0
??0CAutoLock@@QEAA@PEAVCCritSec@@@Z ENDP		; CAutoLock::CAutoLock
_TEXT	ENDS
EXTRN	?Unlock@CCritSec@@QEAAXXZ:PROC			; CCritSec::Unlock
;	COMDAT pdata
pdata	SEGMENT
$pdata$??1CAutoLock@@QEAA@XZ DD imagerel $LN3
	DD	imagerel $LN3+49
	DD	imagerel $unwind$??1CAutoLock@@QEAA@XZ
pdata	ENDS
;	COMDAT xdata
xdata	SEGMENT
$unwind$??1CAutoLock@@QEAA@XZ DD 021e01H
	DD	07006320aH
; Function compile flags: /Odtp /RTCsu
xdata	ENDS
;	COMDAT ??1CAutoLock@@QEAA@XZ
_TEXT	SEGMENT
this$ = 48
??1CAutoLock@@QEAA@XZ PROC				; CAutoLock::~CAutoLock, COMDAT
; Line 100
$LN3:
	mov	QWORD PTR [rsp+8], rcx
	push	rdi
	sub	rsp, 32					; 00000020H
	mov	rdi, rsp
	mov	ecx, 8
	mov	eax, -858993460				; ccccccccH
	rep stosd
	mov	rcx, QWORD PTR [rsp+48]
; Line 101
	mov	rax, QWORD PTR this$[rsp]
	mov	rcx, QWORD PTR [rax]
	call	?Unlock@CCritSec@@QEAAXXZ		; CCritSec::Unlock
; Line 102
	add	rsp, 32					; 00000020H
	pop	rdi
	ret	0
??1CAutoLock@@QEAA@XZ ENDP				; CAutoLock::~CAutoLock
_TEXT	ENDS
PUBLIC	?RegisterMediaTime@CRendererPosPassThru@@QEAAJ_J0@Z ; CRendererPosPassThru::RegisterMediaTime
;	COMDAT pdata
; File c:\downloads\wpf mediakit - copy\src\filters\baseclasses\ctlutil.cpp
pdata	SEGMENT
$pdata$?RegisterMediaTime@CRendererPosPassThru@@QEAAJ_J0@Z DD imagerel $LN4
	DD	imagerel $LN4+155
	DD	imagerel $unwind$?RegisterMediaTime@CRendererPosPassThru@@QEAAJ_J0@Z
pdata	ENDS
;	COMDAT xdata
xdata	SEGMENT
$unwind$?RegisterMediaTime@CRendererPosPassThru@@QEAAJ_J0@Z DD 022801H
	DD	070107214H
xdata	ENDS
;	COMDAT CONST
CONST	SEGMENT
?RegisterMediaTime@CRendererPosPassThru@@QEAAJ_J0@Z$rtcName$0 DB 063H ; CRendererPosPassThru::RegisterMediaTime
	DB	041H
	DB	075H
	DB	074H
	DB	06fH
	DB	04cH
	DB	06fH
	DB	063H
	DB	06bH
	DB	00H
	ORG $+6
?RegisterMediaTime@CRendererPosPassThru@@QEAAJ_J0@Z$rtcVarDesc DD 028H ; CRendererPosPassThru::RegisterMediaTime
	DD	08H
	DQ	FLAT:?RegisterMediaTime@CRendererPosPassThru@@QEAAJ_J0@Z$rtcName$0
	ORG $+48
?RegisterMediaTime@CRendererPosPassThru@@QEAAJ_J0@Z$rtcFrameData DD 01H ; CRendererPosPassThru::RegisterMediaTime
	DD	00H
	DQ	FLAT:?RegisterMediaTime@CRendererPosPassThru@@QEAAJ_J0@Z$rtcVarDesc
; Function compile flags: /Odtp /RTCsu
CONST	ENDS
;	COMDAT ?RegisterMediaTime@CRendererPosPassThru@@QEAAJ_J0@Z
_TEXT	SEGMENT
cAutoLock$ = 40
$T86182 = 52
this$ = 80
StartTime$ = 88
EndTime$ = 96
?RegisterMediaTime@CRendererPosPassThru@@QEAAJ_J0@Z PROC ; CRendererPosPassThru::RegisterMediaTime, COMDAT
; Line 1022
$LN4:
	mov	QWORD PTR [rsp+24], r8
	mov	QWORD PTR [rsp+16], rdx
	mov	QWORD PTR [rsp+8], rcx
	push	rdi
	sub	rsp, 64					; 00000040H
	mov	rdi, rsp
	mov	ecx, 16
	mov	eax, -858993460				; ccccccccH
	rep stosd
	mov	rcx, QWORD PTR [rsp+80]
; Line 1023
	mov	rax, QWORD PTR this$[rsp]
	add	rax, 64					; 00000040H
	mov	rdx, rax
	lea	rcx, QWORD PTR cAutoLock$[rsp]
	call	??0CAutoLock@@QEAA@PEAVCCritSec@@@Z	; CAutoLock::CAutoLock
; Line 1024
	mov	rax, QWORD PTR this$[rsp]
	mov	rcx, QWORD PTR StartTime$[rsp]
	mov	QWORD PTR [rax+120], rcx
; Line 1025
	mov	rax, QWORD PTR this$[rsp]
	mov	rcx, QWORD PTR EndTime$[rsp]
	mov	QWORD PTR [rax+128], rcx
; Line 1026
	mov	rax, QWORD PTR this$[rsp]
	mov	DWORD PTR [rax+136], 0
; Line 1027
	mov	DWORD PTR $T86182[rsp], 0
	lea	rcx, QWORD PTR cAutoLock$[rsp]
	call	??1CAutoLock@@QEAA@XZ			; CAutoLock::~CAutoLock
	mov	eax, DWORD PTR $T86182[rsp]
; Line 1028
	mov	edi, eax
	mov	rcx, rsp
	lea	rdx, OFFSET FLAT:?RegisterMediaTime@CRendererPosPassThru@@QEAAJ_J0@Z$rtcFrameData
	call	_RTC_CheckStackVars
	mov	eax, edi
	add	rsp, 64					; 00000040H
	pop	rdi
	ret	0
?RegisterMediaTime@CRendererPosPassThru@@QEAAJ_J0@Z ENDP ; CRendererPosPassThru::RegisterMediaTime
_TEXT	ENDS
EXTRN	TIME_FORMAT_MEDIA_TIME:BYTE
;	COMDAT pdata
pdata	SEGMENT
$pdata$?GetMediaTime@CRendererPosPassThru@@UEAAJPEA_J0@Z DD imagerel $LN7
	DD	imagerel $LN7+317
	DD	imagerel $unwind$?GetMediaTime@CRendererPosPassThru@@UEAAJPEA_J0@Z
pdata	ENDS
;	COMDAT pdata
pdata	SEGMENT
$pdata$?dtor$0@?0??GetMediaTime@CRendererPosPassThru@@UEAAJPEA_J0@Z@4HA DD imagerel ?dtor$0@?0??GetMediaTime@CRendererPosPassThru@@UEAAJPEA_J0@Z@4HA
	DD	imagerel ?dtor$0@?0??GetMediaTime@CRendererPosPassThru@@UEAAJPEA_J0@Z@4HA+35
	DD	imagerel $unwind$?dtor$0@?0??GetMediaTime@CRendererPosPassThru@@UEAAJPEA_J0@Z@4HA
pdata	ENDS
;	COMDAT xdata
xdata	SEGMENT
$ip2state$?GetMediaTime@CRendererPosPassThru@@UEAAJPEA_J0@Z DD imagerel ?GetMediaTime@CRendererPosPassThru@@UEAAJPEA_J0@Z
	DD	0ffffffffH
	DD	imagerel ?GetMediaTime@CRendererPosPassThru@@UEAAJPEA_J0@Z+105
	DD	00H
	DD	imagerel ?GetMediaTime@CRendererPosPassThru@@UEAAJPEA_J0@Z+127
	DD	0ffffffffH
	DD	imagerel ?GetMediaTime@CRendererPosPassThru@@UEAAJPEA_J0@Z+146
	DD	00H
	DD	imagerel ?GetMediaTime@CRendererPosPassThru@@UEAAJPEA_J0@Z+276
	DD	0ffffffffH
xdata	ENDS
;	COMDAT xdata
xdata	SEGMENT
$unwind$?dtor$0@?0??GetMediaTime@CRendererPosPassThru@@UEAAJPEA_J0@Z@4HA DD 031001H
	DD	0700c4210H
	DD	0500bH
xdata	ENDS
;	COMDAT xdata
xdata	SEGMENT
$unwind$?GetMediaTime@CRendererPosPassThru@@UEAAJPEA_J0@Z DD 023111H
	DD	07010b214H
	DD	imagerel __CxxFrameHandler3
	DD	imagerel $cppxdata$?GetMediaTime@CRendererPosPassThru@@UEAAJPEA_J0@Z
xdata	ENDS
;	COMDAT xdata
xdata	SEGMENT
$stateUnwindMap$?GetMediaTime@CRendererPosPassThru@@UEAAJPEA_J0@Z DD 0ffffffffH
	DD	imagerel ?dtor$0@?0??GetMediaTime@CRendererPosPassThru@@UEAAJPEA_J0@Z@4HA
xdata	ENDS
;	COMDAT CONST
CONST	SEGMENT
?GetMediaTime@CRendererPosPassThru@@UEAAJPEA_J0@Z$rtcName$0 DB 063H ; CRendererPosPassThru::GetMediaTime
	DB	041H
	DB	075H
	DB	074H
	DB	06fH
	DB	04cH
	DB	06fH
	DB	063H
	DB	06bH
	DB	00H
	ORG $+6
?GetMediaTime@CRendererPosPassThru@@UEAAJPEA_J0@Z$rtcVarDesc DD 038H ; CRendererPosPassThru::GetMediaTime
	DD	08H
	DQ	FLAT:?GetMediaTime@CRendererPosPassThru@@UEAAJPEA_J0@Z$rtcName$0
	ORG $+48
?GetMediaTime@CRendererPosPassThru@@UEAAJPEA_J0@Z$rtcFrameData DD 01H ; CRendererPosPassThru::GetMediaTime
	DD	00H
	DQ	FLAT:?GetMediaTime@CRendererPosPassThru@@UEAAJPEA_J0@Z$rtcVarDesc
$cppxdata$?GetMediaTime@CRendererPosPassThru@@UEAAJPEA_J0@Z DD 019930522H
	DD	01H
	DD	imagerel $stateUnwindMap$?GetMediaTime@CRendererPosPassThru@@UEAAJPEA_J0@Z
	DD	00H
	DD	00H
	DD	05H
	DD	imagerel $ip2state$?GetMediaTime@CRendererPosPassThru@@UEAAJPEA_J0@Z
	DD	050H
	DD	00H
	DD	01H
; Function compile flags: /Odtp /RTCsu
CONST	ENDS
;	COMDAT ?GetMediaTime@CRendererPosPassThru@@UEAAJPEA_J0@Z
_TEXT	SEGMENT
cAutoLock$ = 56
hr$ = 68
$T86198 = 72
$T86199 = 76
$T86205 = 80
this$ = 112
pStartTime$ = 120
pEndTime$ = 128
?GetMediaTime@CRendererPosPassThru@@UEAAJPEA_J0@Z PROC	; CRendererPosPassThru::GetMediaTime, COMDAT
; Line 1035
$LN7:
	mov	QWORD PTR [rsp+24], r8
	mov	QWORD PTR [rsp+16], rdx
	mov	QWORD PTR [rsp+8], rcx
	push	rdi
	sub	rsp, 96					; 00000060H
	mov	rdi, rsp
	mov	ecx, 24
	mov	eax, -858993460				; ccccccccH
	rep stosd
	mov	rcx, QWORD PTR [rsp+112]
	mov	QWORD PTR $T86205[rsp], -2
; Line 1036
	cmp	QWORD PTR pStartTime$[rsp], 0
	jne	SHORT $LN3@GetMediaTi
	mov	r8d, 1036				; 0000040cH
	lea	rdx, OFFSET FLAT:$SG82922
	lea	rcx, OFFSET FLAT:$SG82923
	call	?DbgAssert@@YAXPEB_W0H@Z		; DbgAssert
$LN3@GetMediaTi:
; Line 1038
	mov	rax, QWORD PTR this$[rsp]
	add	rax, 64					; 00000040H
	mov	rdx, rax
	lea	rcx, QWORD PTR cAutoLock$[rsp]
	call	??0CAutoLock@@QEAA@PEAVCCritSec@@@Z	; CAutoLock::CAutoLock
	npad	1
; Line 1039
	mov	rax, QWORD PTR this$[rsp]
	cmp	DWORD PTR [rax+136], 1
	jne	SHORT $LN2@GetMediaTi
; Line 1040
	mov	DWORD PTR $T86198[rsp], -2147467259	; ffffffff80004005H
	lea	rcx, QWORD PTR cAutoLock$[rsp]
	call	??1CAutoLock@@QEAA@XZ			; CAutoLock::~CAutoLock
	mov	eax, DWORD PTR $T86198[rsp]
	jmp	$LN4@GetMediaTi
$LN2@GetMediaTi:
; Line 1045
	mov	rax, QWORD PTR this$[rsp]
	mov	rax, QWORD PTR [rax]
	lea	rcx, OFFSET FLAT:TIME_FORMAT_MEDIA_TIME
	mov	QWORD PTR [rsp+32], rcx
	mov	rcx, QWORD PTR this$[rsp]
	mov	r9, QWORD PTR [rcx+120]
	xor	r8d, r8d
	mov	rdx, QWORD PTR pStartTime$[rsp]
	mov	rcx, QWORD PTR this$[rsp]
	call	QWORD PTR [rax+104]
	mov	DWORD PTR hr$[rsp], eax
; Line 1046
	cmp	QWORD PTR pEndTime$[rsp], 0
	je	SHORT $LN1@GetMediaTi
	cmp	DWORD PTR hr$[rsp], 0
	jl	SHORT $LN1@GetMediaTi
; Line 1047
	mov	rax, QWORD PTR this$[rsp]
	mov	rax, QWORD PTR [rax]
	lea	rcx, OFFSET FLAT:TIME_FORMAT_MEDIA_TIME
	mov	QWORD PTR [rsp+32], rcx
	mov	rcx, QWORD PTR this$[rsp]
	mov	r9, QWORD PTR [rcx+128]
	xor	r8d, r8d
	mov	rdx, QWORD PTR pEndTime$[rsp]
	mov	rcx, QWORD PTR this$[rsp]
	call	QWORD PTR [rax+104]
	mov	DWORD PTR hr$[rsp], eax
$LN1@GetMediaTi:
; Line 1049
	mov	eax, DWORD PTR hr$[rsp]
	mov	DWORD PTR $T86199[rsp], eax
	lea	rcx, QWORD PTR cAutoLock$[rsp]
	call	??1CAutoLock@@QEAA@XZ			; CAutoLock::~CAutoLock
	mov	eax, DWORD PTR $T86199[rsp]
$LN4@GetMediaTi:
; Line 1050
	mov	rdi, rax
	mov	rcx, rsp
	lea	rdx, OFFSET FLAT:?GetMediaTime@CRendererPosPassThru@@UEAAJPEA_J0@Z$rtcFrameData
	call	_RTC_CheckStackVars
	mov	rax, rdi
	add	rsp, 96					; 00000060H
	pop	rdi
	ret	0
?GetMediaTime@CRendererPosPassThru@@UEAAJPEA_J0@Z ENDP	; CRendererPosPassThru::GetMediaTime
; Function compile flags: /Odtp /RTCsu
_TEXT	ENDS
;	COMDAT text$x
text$x	SEGMENT
cAutoLock$ = 56
hr$ = 68
$T86198 = 72
$T86199 = 76
$T86205 = 80
this$ = 112
pStartTime$ = 120
pEndTime$ = 128
?dtor$0@?0??GetMediaTime@CRendererPosPassThru@@UEAAJPEA_J0@Z@4HA PROC ; `CRendererPosPassThru::GetMediaTime'::`1'::dtor$0
	mov	QWORD PTR [rsp+8], rcx
	mov	QWORD PTR [rsp+16], rdx
	push	rbp
	push	rdi
	sub	rsp, 40					; 00000028H
	mov	rbp, rdx
	lea	rcx, QWORD PTR cAutoLock$[rbp]
	call	??1CAutoLock@@QEAA@XZ			; CAutoLock::~CAutoLock
	add	rsp, 40					; 00000028H
	pop	rdi
	pop	rbp
	ret	0
?dtor$0@?0??GetMediaTime@CRendererPosPassThru@@UEAAJPEA_J0@Z@4HA ENDP ; `CRendererPosPassThru::GetMediaTime'::`1'::dtor$0
text$x	ENDS
PUBLIC	?ResetMediaTime@CRendererPosPassThru@@QEAAJXZ	; CRendererPosPassThru::ResetMediaTime
;	COMDAT pdata
pdata	SEGMENT
$pdata$?ResetMediaTime@CRendererPosPassThru@@QEAAJXZ DD imagerel $LN4
	DD	imagerel $LN4+143
	DD	imagerel $unwind$?ResetMediaTime@CRendererPosPassThru@@QEAAJXZ
pdata	ENDS
;	COMDAT xdata
xdata	SEGMENT
$unwind$?ResetMediaTime@CRendererPosPassThru@@QEAAJXZ DD 021e01H
	DD	07006720aH
xdata	ENDS
;	COMDAT CONST
CONST	SEGMENT
?ResetMediaTime@CRendererPosPassThru@@QEAAJXZ$rtcName$0 DB 063H ; CRendererPosPassThru::ResetMediaTime
	DB	041H
	DB	075H
	DB	074H
	DB	06fH
	DB	04cH
	DB	06fH
	DB	063H
	DB	06bH
	DB	00H
	ORG $+6
?ResetMediaTime@CRendererPosPassThru@@QEAAJXZ$rtcVarDesc DD 028H ; CRendererPosPassThru::ResetMediaTime
	DD	08H
	DQ	FLAT:?ResetMediaTime@CRendererPosPassThru@@QEAAJXZ$rtcName$0
	ORG $+48
?ResetMediaTime@CRendererPosPassThru@@QEAAJXZ$rtcFrameData DD 01H ; CRendererPosPassThru::ResetMediaTime
	DD	00H
	DQ	FLAT:?ResetMediaTime@CRendererPosPassThru@@QEAAJXZ$rtcVarDesc
; Function compile flags: /Odtp /RTCsu
CONST	ENDS
;	COMDAT ?ResetMediaTime@CRendererPosPassThru@@QEAAJXZ
_TEXT	SEGMENT
cAutoLock$ = 40
$T86226 = 52
this$ = 80
?ResetMediaTime@CRendererPosPassThru@@QEAAJXZ PROC	; CRendererPosPassThru::ResetMediaTime, COMDAT
; Line 1057
$LN4:
	mov	QWORD PTR [rsp+8], rcx
	push	rdi
	sub	rsp, 64					; 00000040H
	mov	rdi, rsp
	mov	ecx, 16
	mov	eax, -858993460				; ccccccccH
	rep stosd
	mov	rcx, QWORD PTR [rsp+80]
; Line 1058
	mov	rax, QWORD PTR this$[rsp]
	add	rax, 64					; 00000040H
	mov	rdx, rax
	lea	rcx, QWORD PTR cAutoLock$[rsp]
	call	??0CAutoLock@@QEAA@PEAVCCritSec@@@Z	; CAutoLock::CAutoLock
; Line 1059
	mov	rax, QWORD PTR this$[rsp]
	mov	QWORD PTR [rax+120], 0
; Line 1060
	mov	rax, QWORD PTR this$[rsp]
	mov	QWORD PTR [rax+128], 0
; Line 1061
	mov	rax, QWORD PTR this$[rsp]
	mov	DWORD PTR [rax+136], 1
; Line 1062
	mov	DWORD PTR $T86226[rsp], 0
	lea	rcx, QWORD PTR cAutoLock$[rsp]
	call	??1CAutoLock@@QEAA@XZ			; CAutoLock::~CAutoLock
	mov	eax, DWORD PTR $T86226[rsp]
; Line 1063
	mov	edi, eax
	mov	rcx, rsp
	lea	rdx, OFFSET FLAT:?ResetMediaTime@CRendererPosPassThru@@QEAAJXZ$rtcFrameData
	call	_RTC_CheckStackVars
	mov	eax, edi
	add	rsp, 64					; 00000040H
	pop	rdi
	ret	0
?ResetMediaTime@CRendererPosPassThru@@QEAAJXZ ENDP	; CRendererPosPassThru::ResetMediaTime
_TEXT	ENDS
PUBLIC	?EOS@CRendererPosPassThru@@QEAAJXZ		; CRendererPosPassThru::EOS
;	COMDAT pdata
pdata	SEGMENT
$pdata$?EOS@CRendererPosPassThru@@QEAAJXZ DD imagerel $LN7
	DD	imagerel $LN7+199
	DD	imagerel $unwind$?EOS@CRendererPosPassThru@@QEAAJXZ
pdata	ENDS
;	COMDAT xdata
xdata	SEGMENT
$unwind$?EOS@CRendererPosPassThru@@QEAAJXZ DD 022101H
	DD	07006d20aH
xdata	ENDS
;	COMDAT CONST
CONST	SEGMENT
?EOS@CRendererPosPassThru@@QEAAJXZ$rtcName$0 DB 06cH	; CRendererPosPassThru::EOS
	DB	06cH
	DB	053H
	DB	074H
	DB	06fH
	DB	070H
	DB	00H
	ORG $+1
?EOS@CRendererPosPassThru@@QEAAJXZ$rtcName$1 DB 063H	; CRendererPosPassThru::EOS
	DB	041H
	DB	075H
	DB	074H
	DB	06fH
	DB	04cH
	DB	06fH
	DB	063H
	DB	06bH
	DB	00H
	ORG $+14
?EOS@CRendererPosPassThru@@QEAAJXZ$rtcVarDesc DD 058H	; CRendererPosPassThru::EOS
	DD	08H
	DQ	FLAT:?EOS@CRendererPosPassThru@@QEAAJXZ$rtcName$1
	DD	038H
	DD	08H
	DQ	FLAT:?EOS@CRendererPosPassThru@@QEAAJXZ$rtcName$0
	ORG $+96
?EOS@CRendererPosPassThru@@QEAAJXZ$rtcFrameData DD 02H	; CRendererPosPassThru::EOS
	DD	00H
	DQ	FLAT:?EOS@CRendererPosPassThru@@QEAAJXZ$rtcVarDesc
; Function compile flags: /Odtp /RTCsu
CONST	ENDS
;	COMDAT ?EOS@CRendererPosPassThru@@QEAAJXZ
_TEXT	SEGMENT
hr$ = 32
llStop$82944 = 56
cAutoLock$82947 = 88
this$ = 128
?EOS@CRendererPosPassThru@@QEAAJXZ PROC			; CRendererPosPassThru::EOS, COMDAT
; Line 1070
$LN7:
	mov	QWORD PTR [rsp+8], rcx
	push	rdi
	sub	rsp, 112				; 00000070H
	mov	rdi, rsp
	mov	ecx, 28
	mov	eax, -858993460				; ccccccccH
	rep stosd
	mov	rcx, QWORD PTR [rsp+128]
; Line 1073
	mov	rax, QWORD PTR this$[rsp]
	cmp	DWORD PTR [rax+136], 1
	jne	SHORT $LN3@EOS
	mov	DWORD PTR hr$[rsp], -2147467259		; ffffffff80004005H
; Line 1074
	jmp	SHORT $LN2@EOS
$LN3@EOS:
; Line 1077
	mov	rax, QWORD PTR this$[rsp]
	mov	rax, QWORD PTR [rax]
	lea	rdx, QWORD PTR llStop$82944[rsp]
	mov	rcx, QWORD PTR this$[rsp]
	call	QWORD PTR [rax+88]
	mov	DWORD PTR hr$[rsp], eax
	cmp	DWORD PTR hr$[rsp], 0
	jl	SHORT $LN2@EOS
; Line 1079
	mov	rax, QWORD PTR this$[rsp]
	add	rax, 64					; 00000040H
	mov	rdx, rax
	lea	rcx, QWORD PTR cAutoLock$82947[rsp]
	call	??0CAutoLock@@QEAA@PEAVCCritSec@@@Z	; CAutoLock::CAutoLock
; Line 1081
	mov	rax, QWORD PTR this$[rsp]
	mov	rcx, QWORD PTR llStop$82944[rsp]
	mov	QWORD PTR [rax+128], rcx
	mov	rax, QWORD PTR this$[rsp]
	mov	rcx, QWORD PTR llStop$82944[rsp]
	mov	QWORD PTR [rax+120], rcx
; Line 1082
	lea	rcx, QWORD PTR cAutoLock$82947[rsp]
	call	??1CAutoLock@@QEAA@XZ			; CAutoLock::~CAutoLock
$LN2@EOS:
; Line 1084
	mov	eax, DWORD PTR hr$[rsp]
; Line 1085
	mov	edi, eax
	mov	rcx, rsp
	lea	rdx, OFFSET FLAT:?EOS@CRendererPosPassThru@@QEAAJXZ$rtcFrameData
	call	_RTC_CheckStackVars
	mov	eax, edi
	add	rsp, 112				; 00000070H
	pop	rdi
	ret	0
?EOS@CRendererPosPassThru@@QEAAJXZ ENDP			; CRendererPosPassThru::EOS
_TEXT	ENDS
PUBLIC	__real@3ff0000000000000
PUBLIC	??4CRefTime@@QEAAAEAV0@AEBV0@@Z			; CRefTime::operator=
PUBLIC	??4CRefTime@@QEAAAEAV0@_J@Z			; CRefTime::operator=
PUBLIC	??0CRefTime@@QEAA@J@Z				; CRefTime::CRefTime
PUBLIC	??0CRefTime@@QEAA@XZ				; CRefTime::CRefTime
PUBLIC	??0CSourceSeeking@@IEAA@PEB_WPEAUIUnknown@@PEAJPEAVCCritSec@@@Z ; CSourceSeeking::CSourceSeeking
;	COMDAT pdata
pdata	SEGMENT
$pdata$??0CSourceSeeking@@IEAA@PEB_WPEAUIUnknown@@PEAJPEAVCCritSec@@@Z DD imagerel $LN4
	DD	imagerel $LN4+253
	DD	imagerel $unwind$??0CSourceSeeking@@IEAA@PEB_WPEAUIUnknown@@PEAJPEAVCCritSec@@@Z
pdata	ENDS
;	COMDAT pdata
pdata	SEGMENT
$pdata$?dtor$0@?0???0CSourceSeeking@@IEAA@PEB_WPEAUIUnknown@@PEAJPEAVCCritSec@@@Z@4HA DD imagerel ?dtor$0@?0???0CSourceSeeking@@IEAA@PEB_WPEAUIUnknown@@PEAJPEAVCCritSec@@@Z@4HA
	DD	imagerel ?dtor$0@?0???0CSourceSeeking@@IEAA@PEB_WPEAUIUnknown@@PEAJPEAVCCritSec@@@Z@4HA+39
	DD	imagerel $unwind$?dtor$0@?0???0CSourceSeeking@@IEAA@PEB_WPEAUIUnknown@@PEAJPEAVCCritSec@@@Z@4HA
pdata	ENDS
;	COMDAT xdata
xdata	SEGMENT
$ip2state$??0CSourceSeeking@@IEAA@PEB_WPEAUIUnknown@@PEAJPEAVCCritSec@@@Z DD imagerel ??0CSourceSeeking@@IEAA@PEB_WPEAUIUnknown@@PEAJPEAVCCritSec@@@Z
	DD	0ffffffffH
	DD	imagerel ??0CSourceSeeking@@IEAA@PEB_WPEAUIUnknown@@PEAJPEAVCCritSec@@@Z+92
	DD	00H
	DD	imagerel ??0CSourceSeeking@@IEAA@PEB_WPEAUIUnknown@@PEAJPEAVCCritSec@@@Z+242
	DD	0ffffffffH
xdata	ENDS
;	COMDAT xdata
xdata	SEGMENT
$unwind$?dtor$0@?0???0CSourceSeeking@@IEAA@PEB_WPEAUIUnknown@@PEAJPEAVCCritSec@@@Z@4HA DD 031001H
	DD	0700c4210H
	DD	0500bH
xdata	ENDS
;	COMDAT xdata
xdata	SEGMENT
$unwind$??0CSourceSeeking@@IEAA@PEB_WPEAUIUnknown@@PEAJPEAVCCritSec@@@Z DD 023611H
	DD	070155219H
	DD	imagerel __CxxFrameHandler3
	DD	imagerel $cppxdata$??0CSourceSeeking@@IEAA@PEB_WPEAUIUnknown@@PEAJPEAVCCritSec@@@Z
xdata	ENDS
;	COMDAT CONST
CONST	SEGMENT
$cppxdata$??0CSourceSeeking@@IEAA@PEB_WPEAUIUnknown@@PEAJPEAVCCritSec@@@Z DD 019930522H
	DD	01H
	DD	imagerel $stateUnwindMap$??0CSourceSeeking@@IEAA@PEB_WPEAUIUnknown@@PEAJPEAVCCritSec@@@Z
	DD	00H
	DD	00H
	DD	03H
	DD	imagerel $ip2state$??0CSourceSeeking@@IEAA@PEB_WPEAUIUnknown@@PEAJPEAVCCritSec@@@Z
	DD	020H
	DD	00H
	DD	01H
CONST	ENDS
;	COMDAT xdata
xdata	SEGMENT
$stateUnwindMap$??0CSourceSeeking@@IEAA@PEB_WPEAUIUnknown@@PEAJPEAVCCritSec@@@Z DD 0ffffffffH
	DD	imagerel ?dtor$0@?0???0CSourceSeeking@@IEAA@PEB_WPEAUIUnknown@@PEAJPEAVCCritSec@@@Z@4HA
xdata	ENDS
;	COMDAT __real@3ff0000000000000
CONST	SEGMENT
__real@3ff0000000000000 DQ 03ff0000000000000r	; 1
; Function compile flags: /Odtp /RTCsu
CONST	ENDS
;	COMDAT ??0CSourceSeeking@@IEAA@PEB_WPEAUIUnknown@@PEAJPEAVCCritSec@@@Z
_TEXT	SEGMENT
$T86265 = 32
this$ = 64
pName$ = 72
pUnk$ = 80
phr$ = 88
pLock$ = 96
??0CSourceSeeking@@IEAA@PEB_WPEAUIUnknown@@PEAJPEAVCCritSec@@@Z PROC ; CSourceSeeking::CSourceSeeking, COMDAT
; Line 1097
$LN4:
	mov	QWORD PTR [rsp+32], r9
	mov	QWORD PTR [rsp+24], r8
	mov	QWORD PTR [rsp+16], rdx
	mov	QWORD PTR [rsp+8], rcx
	push	rdi
	sub	rsp, 48					; 00000030H
	mov	rdi, rsp
	mov	ecx, 12
	mov	eax, -858993460				; ccccccccH
	rep stosd
	mov	rcx, QWORD PTR [rsp+64]
	mov	QWORD PTR $T86265[rsp], -2
	mov	rcx, QWORD PTR this$[rsp]
	call	??0IMediaSeeking@@QEAA@XZ
	mov	rax, QWORD PTR this$[rsp]
	add	rax, 8
	mov	r8, QWORD PTR pUnk$[rsp]
	mov	rdx, QWORD PTR pName$[rsp]
	mov	rcx, rax
	call	??0CUnknown@@QEAA@PEB_WPEAUIUnknown@@@Z	; CUnknown::CUnknown
	npad	1
	mov	rax, QWORD PTR this$[rsp]
	add	rax, 40					; 00000028H
	mov	rcx, rax
	call	??0CRefTime@@QEAA@XZ			; CRefTime::CRefTime
	mov	rax, QWORD PTR this$[rsp]
	add	rax, 48					; 00000030H
	xor	edx, edx
	mov	rcx, rax
	call	??0CRefTime@@QEAA@J@Z			; CRefTime::CRefTime
	mov	rax, QWORD PTR this$[rsp]
	add	rax, 56					; 00000038H
	mov	rcx, rax
	call	??0CRefTime@@QEAA@XZ			; CRefTime::CRefTime
	mov	rax, QWORD PTR this$[rsp]
	mov	rcx, QWORD PTR pLock$[rsp]
	mov	QWORD PTR [rax+80], rcx
; Line 1098
	mov	rax, QWORD PTR this$[rsp]
	add	rax, 56					; 00000038H
	mov	rdx, 4611686018427387903		; 3fffffffffffffffH
	mov	rcx, rax
	call	??4CRefTime@@QEAAAEAV0@_J@Z		; CRefTime::operator=
; Line 1099
	mov	rax, QWORD PTR this$[rsp]
	add	rax, 56					; 00000038H
	mov	rcx, QWORD PTR this$[rsp]
	add	rcx, 40					; 00000028H
	mov	rdx, rax
	call	??4CRefTime@@QEAAAEAV0@AEBV0@@Z		; CRefTime::operator=
; Line 1100
	mov	rax, QWORD PTR this$[rsp]
	movsdx	xmm0, QWORD PTR __real@3ff0000000000000
	movsdx	QWORD PTR [rax+64], xmm0
; Line 1106
	mov	rax, QWORD PTR this$[rsp]
	mov	DWORD PTR [rax+72], 55			; 00000037H
; Line 1107
	mov	rax, QWORD PTR this$[rsp]
	add	rsp, 48					; 00000030H
	pop	rdi
	ret	0
??0CSourceSeeking@@IEAA@PEB_WPEAUIUnknown@@PEAJPEAVCCritSec@@@Z ENDP ; CSourceSeeking::CSourceSeeking
; Function compile flags: /Odtp /RTCsu
_TEXT	ENDS
;	COMDAT text$x
text$x	SEGMENT
$T86265 = 32
this$ = 64
pName$ = 72
pUnk$ = 80
phr$ = 88
pLock$ = 96
?dtor$0@?0???0CSourceSeeking@@IEAA@PEB_WPEAUIUnknown@@PEAJPEAVCCritSec@@@Z@4HA PROC ; `CSourceSeeking::CSourceSeeking'::`1'::dtor$0
	mov	QWORD PTR [rsp+8], rcx
	mov	QWORD PTR [rsp+16], rdx
	push	rbp
	push	rdi
	sub	rsp, 40					; 00000028H
	mov	rbp, rdx
	mov	rcx, QWORD PTR this$[rbp]
	add	rcx, 8
	call	??1CUnknown@@UEAA@XZ			; CUnknown::~CUnknown
	add	rsp, 40					; 00000028H
	pop	rdi
	pop	rbp
	ret	0
?dtor$0@?0???0CSourceSeeking@@IEAA@PEB_WPEAUIUnknown@@PEAJPEAVCCritSec@@@Z@4HA ENDP ; `CSourceSeeking::CSourceSeeking'::`1'::dtor$0
text$x	ENDS
;	COMDAT pdata
; File c:\downloads\wpf mediakit - copy\src\filters\baseclasses\reftime.h
pdata	SEGMENT
$pdata$??0CRefTime@@QEAA@XZ DD imagerel $LN3
	DD	imagerel $LN3+25
	DD	imagerel $unwind$??0CRefTime@@QEAA@XZ
pdata	ENDS
;	COMDAT xdata
xdata	SEGMENT
$unwind$??0CRefTime@@QEAA@XZ DD 010601H
	DD	07006H
; Function compile flags: /Odtp /RTCsu
xdata	ENDS
;	COMDAT ??0CRefTime@@QEAA@XZ
_TEXT	SEGMENT
this$ = 16
??0CRefTime@@QEAA@XZ PROC				; CRefTime::CRefTime, COMDAT
; Line 59
$LN3:
	mov	QWORD PTR [rsp+8], rcx
	push	rdi
; Line 62
	mov	rax, QWORD PTR this$[rsp]
	mov	QWORD PTR [rax], 0
; Line 63
	mov	rax, QWORD PTR this$[rsp]
	pop	rdi
	ret	0
??0CRefTime@@QEAA@XZ ENDP				; CRefTime::CRefTime
_TEXT	ENDS
;	COMDAT pdata
pdata	SEGMENT
$pdata$??0CRefTime@@QEAA@J@Z DD imagerel $LN3
	DD	imagerel $LN3+37
	DD	imagerel $unwind$??0CRefTime@@QEAA@J@Z
pdata	ENDS
;	COMDAT xdata
xdata	SEGMENT
$unwind$??0CRefTime@@QEAA@J@Z DD 010a01H
	DD	0700aH
; Function compile flags: /Odtp /RTCsu
xdata	ENDS
;	COMDAT ??0CRefTime@@QEAA@J@Z
_TEXT	SEGMENT
this$ = 16
msecs$ = 24
??0CRefTime@@QEAA@J@Z PROC				; CRefTime::CRefTime, COMDAT
; Line 65
$LN3:
	mov	DWORD PTR [rsp+16], edx
	mov	QWORD PTR [rsp+8], rcx
	push	rdi
; Line 67
	movsxd	rax, DWORD PTR msecs$[rsp]
	imul	rax, 10000				; 00002710H
	mov	rcx, QWORD PTR this$[rsp]
	mov	QWORD PTR [rcx], rax
; Line 68
	mov	rax, QWORD PTR this$[rsp]
	pop	rdi
	ret	0
??0CRefTime@@QEAA@J@Z ENDP				; CRefTime::CRefTime
_TEXT	ENDS
;	COMDAT pdata
pdata	SEGMENT
$pdata$??4CRefTime@@QEAAAEAV0@AEBV0@@Z DD imagerel $LN3
	DD	imagerel $LN3+34
	DD	imagerel $unwind$??4CRefTime@@QEAAAEAV0@AEBV0@@Z
pdata	ENDS
;	COMDAT xdata
xdata	SEGMENT
$unwind$??4CRefTime@@QEAAAEAV0@AEBV0@@Z DD 010b01H
	DD	0700bH
; Function compile flags: /Odtp /RTCsu
xdata	ENDS
;	COMDAT ??4CRefTime@@QEAAAEAV0@AEBV0@@Z
_TEXT	SEGMENT
this$ = 16
rt$ = 24
??4CRefTime@@QEAAAEAV0@AEBV0@@Z PROC			; CRefTime::operator=, COMDAT
; Line 81
$LN3:
	mov	QWORD PTR [rsp+16], rdx
	mov	QWORD PTR [rsp+8], rcx
	push	rdi
; Line 82
	mov	rax, QWORD PTR this$[rsp]
	mov	rcx, QWORD PTR rt$[rsp]
	mov	rcx, QWORD PTR [rcx]
	mov	QWORD PTR [rax], rcx
; Line 83
	mov	rax, QWORD PTR this$[rsp]
; Line 84
	pop	rdi
	ret	0
??4CRefTime@@QEAAAEAV0@AEBV0@@Z ENDP			; CRefTime::operator=
_TEXT	ENDS
;	COMDAT pdata
pdata	SEGMENT
$pdata$??4CRefTime@@QEAAAEAV0@_J@Z DD imagerel $LN3
	DD	imagerel $LN3+31
	DD	imagerel $unwind$??4CRefTime@@QEAAAEAV0@_J@Z
pdata	ENDS
;	COMDAT xdata
xdata	SEGMENT
$unwind$??4CRefTime@@QEAAAEAV0@_J@Z DD 010b01H
	DD	0700bH
; Function compile flags: /Odtp /RTCsu
xdata	ENDS
;	COMDAT ??4CRefTime@@QEAAAEAV0@_J@Z
_TEXT	SEGMENT
this$ = 16
ll$ = 24
??4CRefTime@@QEAAAEAV0@_J@Z PROC			; CRefTime::operator=, COMDAT
; Line 87
$LN3:
	mov	QWORD PTR [rsp+16], rdx
	mov	QWORD PTR [rsp+8], rcx
	push	rdi
; Line 88
	mov	rax, QWORD PTR this$[rsp]
	mov	rcx, QWORD PTR ll$[rsp]
	mov	QWORD PTR [rax], rcx
; Line 89
	mov	rax, QWORD PTR this$[rsp]
; Line 90
	pop	rdi
	ret	0
??4CRefTime@@QEAAAEAV0@_J@Z ENDP			; CRefTime::operator=
_TEXT	ENDS
PUBLIC	?NonDelegatingQueryInterface@CSourceSeeking@@UEAAJAEBU_GUID@@PEAPEAX@Z ; CSourceSeeking::NonDelegatingQueryInterface
;	COMDAT pdata
; File c:\downloads\wpf mediakit - copy\src\filters\baseclasses\ctlutil.cpp
pdata	SEGMENT
$pdata$?NonDelegatingQueryInterface@CSourceSeeking@@UEAAJAEBU_GUID@@PEAPEAX@Z DD imagerel $LN6
	DD	imagerel $LN6+131
	DD	imagerel $unwind$?NonDelegatingQueryInterface@CSourceSeeking@@UEAAJAEBU_GUID@@PEAPEAX@Z
pdata	ENDS
;	COMDAT xdata
xdata	SEGMENT
$unwind$?NonDelegatingQueryInterface@CSourceSeeking@@UEAAJAEBU_GUID@@PEAPEAX@Z DD 022801H
	DD	070103214H
; Function compile flags: /Odtp /RTCsu
xdata	ENDS
;	COMDAT ?NonDelegatingQueryInterface@CSourceSeeking@@UEAAJAEBU_GUID@@PEAPEAX@Z
_TEXT	SEGMENT
this$ = 48
riid$ = 56
ppv$ = 64
?NonDelegatingQueryInterface@CSourceSeeking@@UEAAJAEBU_GUID@@PEAPEAX@Z PROC ; CSourceSeeking::NonDelegatingQueryInterface, COMDAT
; Line 1110
$LN6:
	mov	QWORD PTR [rsp+24], r8
	mov	QWORD PTR [rsp+16], rdx
	mov	QWORD PTR [rsp+8], rcx
	push	rdi
	sub	rsp, 32					; 00000020H
	mov	rdi, rsp
	mov	ecx, 8
	mov	eax, -858993460				; ccccccccH
	rep stosd
	mov	rcx, QWORD PTR [rsp+48]
; Line 1111
	lea	rdx, OFFSET FLAT:IID_IMediaSeeking
	mov	rcx, QWORD PTR riid$[rsp]
	call	==
	test	eax, eax
	je	SHORT $LN3@NonDelegat@5
; Line 1112
	cmp	QWORD PTR ppv$[rsp], 0
	jne	SHORT $LN2@NonDelegat@5
	mov	eax, -2147467261			; ffffffff80004003H
	jmp	SHORT $LN4@NonDelegat@5
$LN2@NonDelegat@5:
; Line 1113
	mov	rax, QWORD PTR this$[rsp]
	sub	rax, 8
	mov	rdx, QWORD PTR ppv$[rsp]
	mov	rcx, rax
	call	GetInterface
	jmp	SHORT $LN4@NonDelegat@5
; Line 1115
	jmp	SHORT $LN1@NonDelegat@5
$LN3@NonDelegat@5:
; Line 1116
	mov	rax, QWORD PTR this$[rsp]
	mov	r8, QWORD PTR ppv$[rsp]
	mov	rdx, QWORD PTR riid$[rsp]
	mov	rcx, rax
	call	?NonDelegatingQueryInterface@CUnknown@@UEAAJAEBU_GUID@@PEAPEAX@Z ; CUnknown::NonDelegatingQueryInterface
$LN1@NonDelegat@5:
$LN4@NonDelegat@5:
; Line 1118
	add	rsp, 32					; 00000020H
	pop	rdi
	ret	0
?NonDelegatingQueryInterface@CSourceSeeking@@UEAAJAEBU_GUID@@PEAPEAX@Z ENDP ; CSourceSeeking::NonDelegatingQueryInterface
_TEXT	ENDS
PUBLIC	?IsFormatSupported@CSourceSeeking@@UEAAJPEBU_GUID@@@Z ; CSourceSeeking::IsFormatSupported
;	COMDAT pdata
pdata	SEGMENT
$pdata$?IsFormatSupported@CSourceSeeking@@UEAAJPEBU_GUID@@@Z DD imagerel $LN6
	DD	imagerel $LN6+99
	DD	imagerel $unwind$?IsFormatSupported@CSourceSeeking@@UEAAJPEBU_GUID@@@Z
pdata	ENDS
;	COMDAT xdata
xdata	SEGMENT
$unwind$?IsFormatSupported@CSourceSeeking@@UEAAJPEBU_GUID@@@Z DD 022301H
	DD	0700b520fH
; Function compile flags: /Odtp /RTCsu
xdata	ENDS
;	COMDAT ?IsFormatSupported@CSourceSeeking@@UEAAJPEBU_GUID@@@Z
_TEXT	SEGMENT
tv69 = 32
this$ = 64
pFormat$ = 72
?IsFormatSupported@CSourceSeeking@@UEAAJPEBU_GUID@@@Z PROC ; CSourceSeeking::IsFormatSupported, COMDAT
; Line 1122
$LN6:
	mov	QWORD PTR [rsp+16], rdx
	mov	QWORD PTR [rsp+8], rcx
	push	rdi
	sub	rsp, 48					; 00000030H
	mov	rdi, rsp
	mov	ecx, 12
	mov	eax, -858993460				; ccccccccH
	rep stosd
	mov	rcx, QWORD PTR [rsp+64]
; Line 1123
	cmp	QWORD PTR pFormat$[rsp], 0
	jne	SHORT $LN1@IsFormatSu@2
	mov	eax, -2147467261			; ffffffff80004003H
	jmp	SHORT $LN2@IsFormatSu@2
$LN1@IsFormatSu@2:
; Line 1125
	lea	rdx, OFFSET FLAT:TIME_FORMAT_MEDIA_TIME
	mov	rcx, QWORD PTR pFormat$[rsp]
	call	==
	test	eax, eax
	je	SHORT $LN4@IsFormatSu@2
	mov	DWORD PTR tv69[rsp], 0
	jmp	SHORT $LN5@IsFormatSu@2
$LN4@IsFormatSu@2:
	mov	DWORD PTR tv69[rsp], 1
$LN5@IsFormatSu@2:
	mov	eax, DWORD PTR tv69[rsp]
$LN2@IsFormatSu@2:
; Line 1126
	add	rsp, 48					; 00000030H
	pop	rdi
	ret	0
?IsFormatSupported@CSourceSeeking@@UEAAJPEBU_GUID@@@Z ENDP ; CSourceSeeking::IsFormatSupported
_TEXT	ENDS
PUBLIC	?QueryPreferredFormat@CSourceSeeking@@UEAAJPEAU_GUID@@@Z ; CSourceSeeking::QueryPreferredFormat
;	COMDAT pdata
pdata	SEGMENT
$pdata$?QueryPreferredFormat@CSourceSeeking@@UEAAJPEAU_GUID@@@Z DD imagerel $LN4
	DD	imagerel $LN4+54
	DD	imagerel $unwind$?QueryPreferredFormat@CSourceSeeking@@UEAAJPEAU_GUID@@@Z
pdata	ENDS
;	COMDAT xdata
xdata	SEGMENT
$unwind$?QueryPreferredFormat@CSourceSeeking@@UEAAJPEAU_GUID@@@Z DD 020c01H
	DD	0600b700cH
; Function compile flags: /Odtp /RTCsu
xdata	ENDS
;	COMDAT ?QueryPreferredFormat@CSourceSeeking@@UEAAJPEAU_GUID@@@Z
_TEXT	SEGMENT
this$ = 24
pFormat$ = 32
?QueryPreferredFormat@CSourceSeeking@@UEAAJPEAU_GUID@@@Z PROC ; CSourceSeeking::QueryPreferredFormat, COMDAT
; Line 1129
$LN4:
	mov	QWORD PTR [rsp+16], rdx
	mov	QWORD PTR [rsp+8], rcx
	push	rsi
	push	rdi
; Line 1130
	cmp	QWORD PTR pFormat$[rsp], 0
	jne	SHORT $LN1@QueryPrefe@2
	mov	eax, -2147467261			; ffffffff80004003H
	jmp	SHORT $LN2@QueryPrefe@2
$LN1@QueryPrefe@2:
; Line 1131
	lea	rax, OFFSET FLAT:TIME_FORMAT_MEDIA_TIME
	mov	rdi, QWORD PTR pFormat$[rsp]
	mov	rsi, rax
	mov	ecx, 16
	rep movsb
; Line 1132
	xor	eax, eax
$LN2@QueryPrefe@2:
; Line 1133
	pop	rdi
	pop	rsi
	ret	0
?QueryPreferredFormat@CSourceSeeking@@UEAAJPEAU_GUID@@@Z ENDP ; CSourceSeeking::QueryPreferredFormat
_TEXT	ENDS
PUBLIC	?SetTimeFormat@CSourceSeeking@@UEAAJPEBU_GUID@@@Z ; CSourceSeeking::SetTimeFormat
;	COMDAT pdata
pdata	SEGMENT
$pdata$?SetTimeFormat@CSourceSeeking@@UEAAJPEBU_GUID@@@Z DD imagerel $LN6
	DD	imagerel $LN6+99
	DD	imagerel $unwind$?SetTimeFormat@CSourceSeeking@@UEAAJPEBU_GUID@@@Z
pdata	ENDS
;	COMDAT xdata
xdata	SEGMENT
$unwind$?SetTimeFormat@CSourceSeeking@@UEAAJPEBU_GUID@@@Z DD 022301H
	DD	0700b520fH
; Function compile flags: /Odtp /RTCsu
xdata	ENDS
;	COMDAT ?SetTimeFormat@CSourceSeeking@@UEAAJPEBU_GUID@@@Z
_TEXT	SEGMENT
tv69 = 32
this$ = 64
pFormat$ = 72
?SetTimeFormat@CSourceSeeking@@UEAAJPEBU_GUID@@@Z PROC	; CSourceSeeking::SetTimeFormat, COMDAT
; Line 1136
$LN6:
	mov	QWORD PTR [rsp+16], rdx
	mov	QWORD PTR [rsp+8], rcx
	push	rdi
	sub	rsp, 48					; 00000030H
	mov	rdi, rsp
	mov	ecx, 12
	mov	eax, -858993460				; ccccccccH
	rep stosd
	mov	rcx, QWORD PTR [rsp+64]
; Line 1137
	cmp	QWORD PTR pFormat$[rsp], 0
	jne	SHORT $LN1@SetTimeFor@2
	mov	eax, -2147467261			; ffffffff80004003H
	jmp	SHORT $LN2@SetTimeFor@2
$LN1@SetTimeFor@2:
; Line 1140
	lea	rdx, OFFSET FLAT:TIME_FORMAT_MEDIA_TIME
	mov	rcx, QWORD PTR pFormat$[rsp]
	call	==
	test	eax, eax
	je	SHORT $LN4@SetTimeFor@2
	mov	DWORD PTR tv69[rsp], 0
	jmp	SHORT $LN5@SetTimeFor@2
$LN4@SetTimeFor@2:
	mov	DWORD PTR tv69[rsp], -2147024809	; ffffffff80070057H
$LN5@SetTimeFor@2:
	mov	eax, DWORD PTR tv69[rsp]
$LN2@SetTimeFor@2:
; Line 1141
	add	rsp, 48					; 00000030H
	pop	rdi
	ret	0
?SetTimeFormat@CSourceSeeking@@UEAAJPEBU_GUID@@@Z ENDP	; CSourceSeeking::SetTimeFormat
_TEXT	ENDS
PUBLIC	?IsUsingTimeFormat@CSourceSeeking@@UEAAJPEBU_GUID@@@Z ; CSourceSeeking::IsUsingTimeFormat
;	COMDAT pdata
pdata	SEGMENT
$pdata$?IsUsingTimeFormat@CSourceSeeking@@UEAAJPEBU_GUID@@@Z DD imagerel $LN6
	DD	imagerel $LN6+99
	DD	imagerel $unwind$?IsUsingTimeFormat@CSourceSeeking@@UEAAJPEBU_GUID@@@Z
pdata	ENDS
;	COMDAT xdata
xdata	SEGMENT
$unwind$?IsUsingTimeFormat@CSourceSeeking@@UEAAJPEBU_GUID@@@Z DD 022301H
	DD	0700b520fH
; Function compile flags: /Odtp /RTCsu
xdata	ENDS
;	COMDAT ?IsUsingTimeFormat@CSourceSeeking@@UEAAJPEBU_GUID@@@Z
_TEXT	SEGMENT
tv69 = 32
this$ = 64
pFormat$ = 72
?IsUsingTimeFormat@CSourceSeeking@@UEAAJPEBU_GUID@@@Z PROC ; CSourceSeeking::IsUsingTimeFormat, COMDAT
; Line 1144
$LN6:
	mov	QWORD PTR [rsp+16], rdx
	mov	QWORD PTR [rsp+8], rcx
	push	rdi
	sub	rsp, 48					; 00000030H
	mov	rdi, rsp
	mov	ecx, 12
	mov	eax, -858993460				; ccccccccH
	rep stosd
	mov	rcx, QWORD PTR [rsp+64]
; Line 1145
	cmp	QWORD PTR pFormat$[rsp], 0
	jne	SHORT $LN1@IsUsingTim@2
	mov	eax, -2147467261			; ffffffff80004003H
	jmp	SHORT $LN2@IsUsingTim@2
$LN1@IsUsingTim@2:
; Line 1146
	lea	rdx, OFFSET FLAT:TIME_FORMAT_MEDIA_TIME
	mov	rcx, QWORD PTR pFormat$[rsp]
	call	==
	test	eax, eax
	je	SHORT $LN4@IsUsingTim@2
	mov	DWORD PTR tv69[rsp], 0
	jmp	SHORT $LN5@IsUsingTim@2
$LN4@IsUsingTim@2:
	mov	DWORD PTR tv69[rsp], 1
$LN5@IsUsingTim@2:
	mov	eax, DWORD PTR tv69[rsp]
$LN2@IsUsingTim@2:
; Line 1147
	add	rsp, 48					; 00000030H
	pop	rdi
	ret	0
?IsUsingTimeFormat@CSourceSeeking@@UEAAJPEBU_GUID@@@Z ENDP ; CSourceSeeking::IsUsingTimeFormat
_TEXT	ENDS
PUBLIC	?GetTimeFormatW@CSourceSeeking@@UEAAJPEAU_GUID@@@Z ; CSourceSeeking::GetTimeFormatW
;	COMDAT pdata
pdata	SEGMENT
$pdata$?GetTimeFormatW@CSourceSeeking@@UEAAJPEAU_GUID@@@Z DD imagerel $LN4
	DD	imagerel $LN4+54
	DD	imagerel $unwind$?GetTimeFormatW@CSourceSeeking@@UEAAJPEAU_GUID@@@Z
pdata	ENDS
;	COMDAT xdata
xdata	SEGMENT
$unwind$?GetTimeFormatW@CSourceSeeking@@UEAAJPEAU_GUID@@@Z DD 020c01H
	DD	0600b700cH
; Function compile flags: /Odtp /RTCsu
xdata	ENDS
;	COMDAT ?GetTimeFormatW@CSourceSeeking@@UEAAJPEAU_GUID@@@Z
_TEXT	SEGMENT
this$ = 24
pFormat$ = 32
?GetTimeFormatW@CSourceSeeking@@UEAAJPEAU_GUID@@@Z PROC	; CSourceSeeking::GetTimeFormatW, COMDAT
; Line 1150
$LN4:
	mov	QWORD PTR [rsp+16], rdx
	mov	QWORD PTR [rsp+8], rcx
	push	rsi
	push	rdi
; Line 1151
	cmp	QWORD PTR pFormat$[rsp], 0
	jne	SHORT $LN1@GetTimeFor@2
	mov	eax, -2147467261			; ffffffff80004003H
	jmp	SHORT $LN2@GetTimeFor@2
$LN1@GetTimeFor@2:
; Line 1152
	lea	rax, OFFSET FLAT:TIME_FORMAT_MEDIA_TIME
	mov	rdi, QWORD PTR pFormat$[rsp]
	mov	rsi, rax
	mov	ecx, 16
	rep movsb
; Line 1153
	xor	eax, eax
$LN2@GetTimeFor@2:
; Line 1154
	pop	rdi
	pop	rsi
	ret	0
?GetTimeFormatW@CSourceSeeking@@UEAAJPEAU_GUID@@@Z ENDP	; CSourceSeeking::GetTimeFormatW
_TEXT	ENDS
PUBLIC	??BCRefTime@@QEBA_JXZ				; CRefTime::operator __int64
PUBLIC	?GetDuration@CSourceSeeking@@UEAAJPEA_J@Z	; CSourceSeeking::GetDuration
;	COMDAT pdata
pdata	SEGMENT
$pdata$?GetDuration@CSourceSeeking@@UEAAJPEA_J@Z DD imagerel $LN5
	DD	imagerel $LN5+153
	DD	imagerel $unwind$?GetDuration@CSourceSeeking@@UEAAJPEA_J@Z
pdata	ENDS
;	COMDAT pdata
pdata	SEGMENT
$pdata$?dtor$0@?0??GetDuration@CSourceSeeking@@UEAAJPEA_J@Z@4HA DD imagerel ?dtor$0@?0??GetDuration@CSourceSeeking@@UEAAJPEA_J@Z@4HA
	DD	imagerel ?dtor$0@?0??GetDuration@CSourceSeeking@@UEAAJPEA_J@Z@4HA+35
	DD	imagerel $unwind$?dtor$0@?0??GetDuration@CSourceSeeking@@UEAAJPEA_J@Z@4HA
pdata	ENDS
;	COMDAT xdata
xdata	SEGMENT
$ip2state$?GetDuration@CSourceSeeking@@UEAAJPEA_J@Z DD imagerel ?GetDuration@CSourceSeeking@@UEAAJPEA_J@Z
	DD	0ffffffffH
	DD	imagerel ?GetDuration@CSourceSeeking@@UEAAJPEA_J@Z+79
	DD	00H
	DD	imagerel ?GetDuration@CSourceSeeking@@UEAAJPEA_J@Z+112
	DD	0ffffffffH
xdata	ENDS
;	COMDAT xdata
xdata	SEGMENT
$unwind$?dtor$0@?0??GetDuration@CSourceSeeking@@UEAAJPEA_J@Z@4HA DD 031001H
	DD	0700c4210H
	DD	0500bH
xdata	ENDS
;	COMDAT xdata
xdata	SEGMENT
$unwind$?GetDuration@CSourceSeeking@@UEAAJPEA_J@Z DD 022c11H
	DD	0700b720fH
	DD	imagerel __CxxFrameHandler3
	DD	imagerel $cppxdata$?GetDuration@CSourceSeeking@@UEAAJPEA_J@Z
xdata	ENDS
;	COMDAT xdata
xdata	SEGMENT
$stateUnwindMap$?GetDuration@CSourceSeeking@@UEAAJPEA_J@Z DD 0ffffffffH
	DD	imagerel ?dtor$0@?0??GetDuration@CSourceSeeking@@UEAAJPEA_J@Z@4HA
xdata	ENDS
;	COMDAT CONST
CONST	SEGMENT
?GetDuration@CSourceSeeking@@UEAAJPEA_J@Z$rtcName$0 DB 06cH ; CSourceSeeking::GetDuration
	DB	06fH
	DB	063H
	DB	06bH
	DB	00H
	ORG $+11
?GetDuration@CSourceSeeking@@UEAAJPEA_J@Z$rtcVarDesc DD 028H ; CSourceSeeking::GetDuration
	DD	08H
	DQ	FLAT:?GetDuration@CSourceSeeking@@UEAAJPEA_J@Z$rtcName$0
	ORG $+48
?GetDuration@CSourceSeeking@@UEAAJPEA_J@Z$rtcFrameData DD 01H ; CSourceSeeking::GetDuration
	DD	00H
	DQ	FLAT:?GetDuration@CSourceSeeking@@UEAAJPEA_J@Z$rtcVarDesc
$cppxdata$?GetDuration@CSourceSeeking@@UEAAJPEA_J@Z DD 019930522H
	DD	01H
	DD	imagerel $stateUnwindMap$?GetDuration@CSourceSeeking@@UEAAJPEA_J@Z
	DD	00H
	DD	00H
	DD	03H
	DD	imagerel $ip2state$?GetDuration@CSourceSeeking@@UEAAJPEA_J@Z
	DD	038H
	DD	00H
	DD	01H
; Function compile flags: /Odtp /RTCsu
CONST	ENDS
;	COMDAT ?GetDuration@CSourceSeeking@@UEAAJPEA_J@Z
_TEXT	SEGMENT
lock$ = 40
$T86359 = 52
$T86365 = 56
this$ = 80
pDuration$ = 88
?GetDuration@CSourceSeeking@@UEAAJPEA_J@Z PROC		; CSourceSeeking::GetDuration, COMDAT
; Line 1157
$LN5:
	mov	QWORD PTR [rsp+16], rdx
	mov	QWORD PTR [rsp+8], rcx
	push	rdi
	sub	rsp, 64					; 00000040H
	mov	rdi, rsp
	mov	ecx, 16
	mov	eax, -858993460				; ccccccccH
	rep stosd
	mov	rcx, QWORD PTR [rsp+80]
	mov	QWORD PTR $T86365[rsp], -2
; Line 1158
	cmp	QWORD PTR pDuration$[rsp], 0
	jne	SHORT $LN1@GetDuratio
	mov	eax, -2147467261			; ffffffff80004003H
	jmp	SHORT $LN2@GetDuratio
$LN1@GetDuratio:
; Line 1159
	mov	rax, QWORD PTR this$[rsp]
	mov	rdx, QWORD PTR [rax+80]
	lea	rcx, QWORD PTR lock$[rsp]
	call	??0CAutoLock@@QEAA@PEAVCCritSec@@@Z	; CAutoLock::CAutoLock
	npad	1
; Line 1160
	mov	rax, QWORD PTR this$[rsp]
	add	rax, 40					; 00000028H
	mov	rcx, rax
	call	??BCRefTime@@QEBA_JXZ			; CRefTime::operator __int64
	mov	rcx, QWORD PTR pDuration$[rsp]
	mov	QWORD PTR [rcx], rax
; Line 1161
	mov	DWORD PTR $T86359[rsp], 0
	lea	rcx, QWORD PTR lock$[rsp]
	call	??1CAutoLock@@QEAA@XZ			; CAutoLock::~CAutoLock
	mov	eax, DWORD PTR $T86359[rsp]
$LN2@GetDuratio:
; Line 1162
	mov	rdi, rax
	mov	rcx, rsp
	lea	rdx, OFFSET FLAT:?GetDuration@CSourceSeeking@@UEAAJPEA_J@Z$rtcFrameData
	call	_RTC_CheckStackVars
	mov	rax, rdi
	add	rsp, 64					; 00000040H
	pop	rdi
	ret	0
?GetDuration@CSourceSeeking@@UEAAJPEA_J@Z ENDP		; CSourceSeeking::GetDuration
; Function compile flags: /Odtp /RTCsu
_TEXT	ENDS
;	COMDAT text$x
text$x	SEGMENT
lock$ = 40
$T86359 = 52
$T86365 = 56
this$ = 80
pDuration$ = 88
?dtor$0@?0??GetDuration@CSourceSeeking@@UEAAJPEA_J@Z@4HA PROC ; `CSourceSeeking::GetDuration'::`1'::dtor$0
	mov	QWORD PTR [rsp+8], rcx
	mov	QWORD PTR [rsp+16], rdx
	push	rbp
	push	rdi
	sub	rsp, 40					; 00000028H
	mov	rbp, rdx
	lea	rcx, QWORD PTR lock$[rbp]
	call	??1CAutoLock@@QEAA@XZ			; CAutoLock::~CAutoLock
	add	rsp, 40					; 00000028H
	pop	rdi
	pop	rbp
	ret	0
?dtor$0@?0??GetDuration@CSourceSeeking@@UEAAJPEA_J@Z@4HA ENDP ; `CSourceSeeking::GetDuration'::`1'::dtor$0
text$x	ENDS
;	COMDAT pdata
; File c:\downloads\wpf mediakit - copy\src\filters\baseclasses\reftime.h
pdata	SEGMENT
$pdata$??BCRefTime@@QEBA_JXZ DD imagerel $LN3
	DD	imagerel $LN3+16
	DD	imagerel $unwind$??BCRefTime@@QEBA_JXZ
pdata	ENDS
;	COMDAT xdata
xdata	SEGMENT
$unwind$??BCRefTime@@QEBA_JXZ DD 010601H
	DD	07006H
; Function compile flags: /Odtp /RTCsu
xdata	ENDS
;	COMDAT ??BCRefTime@@QEBA_JXZ
_TEXT	SEGMENT
this$ = 16
??BCRefTime@@QEBA_JXZ PROC				; CRefTime::operator __int64, COMDAT
; Line 76
$LN3:
	mov	QWORD PTR [rsp+8], rcx
	push	rdi
; Line 77
	mov	rax, QWORD PTR this$[rsp]
	mov	rax, QWORD PTR [rax]
; Line 78
	pop	rdi
	ret	0
??BCRefTime@@QEBA_JXZ ENDP				; CRefTime::operator __int64
_TEXT	ENDS
PUBLIC	?GetStopPosition@CSourceSeeking@@UEAAJPEA_J@Z	; CSourceSeeking::GetStopPosition
;	COMDAT pdata
; File c:\downloads\wpf mediakit - copy\src\filters\baseclasses\ctlutil.cpp
pdata	SEGMENT
$pdata$?GetStopPosition@CSourceSeeking@@UEAAJPEA_J@Z DD imagerel $LN5
	DD	imagerel $LN5+153
	DD	imagerel $unwind$?GetStopPosition@CSourceSeeking@@UEAAJPEA_J@Z
pdata	ENDS
;	COMDAT pdata
pdata	SEGMENT
$pdata$?dtor$0@?0??GetStopPosition@CSourceSeeking@@UEAAJPEA_J@Z@4HA DD imagerel ?dtor$0@?0??GetStopPosition@CSourceSeeking@@UEAAJPEA_J@Z@4HA
