; Listing generated by Microsoft (R) Optimizing Compiler Version 16.00.30319.01 

include listing.inc

INCLUDELIB LIBCMTD
INCLUDELIB OLDNAMES

PUBLIC	?g_hInst@@3PEAUHINSTANCE__@@EA			; g_hInst
PUBLIC	?g_osInfo@@3U_OSVERSIONINFOW@@A			; g_osInfo
PUBLIC	?g_amPlatform@@3KA				; g_amPlatform
PUBLIC	IID_IAMFilterGraphCallback
PUBLIC	?m_cLocked@CClassFactory@@0HA			; CClassFactory::m_cLocked
_BSS	SEGMENT
?g_hInst@@3PEAUHINSTANCE__@@EA DQ 01H DUP (?)		; g_hInst
?g_osInfo@@3U_OSVERSIONINFOW@@A DB 0114H DUP (?)	; g_osInfo
?g_amPlatform@@3KA DD 01H DUP (?)			; g_amPlatform
?m_cLocked@CClassFactory@@0HA DD 01H DUP (?)		; CClassFactory::m_cLocked
_BSS	ENDS
CONST	SEGMENT
$SG83527 DB	'C', 00H, 'l', 00H, 'a', 00H, 's', 00H, 's', 00H, ' ', 00H
	DB	'F', 00H, 'a', 00H, 'c', 00H, 't', 00H, 'o', 00H, 'r', 00H, 'y'
	DB	00H, 00H, 00H
	ORG $+4
$SG83540 DB	'.', 00H, '.', 00H, '\', 00H, 'd', 00H, 'l', 00H, 'l', 00H
	DB	'e', 00H, 'n', 00H, 't', 00H, 'r', 00H, 'y', 00H, '.', 00H, 'c'
	DB	00H, 'p', 00H, 'p', 00H, 00H, 00H
$SG83541 DB	'"', 00H, 'I', 00H, 'n', 00H, 'v', 00H, 'a', 00H, 'l', 00H
	DB	'i', 00H, 'd', 00H, ' ', 00H, 'r', 00H, 'e', 00H, 'a', 00H, 'd'
	DB	00H, ' ', 00H, 'p', 00H, 'o', 00H, 'i', 00H, 'n', 00H, 't', 00H
	DB	'e', 00H, 'r', 00H, '"', 00H, 00H, 00H
	ORG $+2
$SG83545 DB	'.', 00H, '.', 00H, '\', 00H, 'd', 00H, 'l', 00H, 'l', 00H
	DB	'e', 00H, 'n', 00H, 't', 00H, 'r', 00H, 'y', 00H, '.', 00H, 'c'
	DB	00H, 'p', 00H, 'p', 00H, 00H, 00H
$SG83546 DB	'"', 00H, 'I', 00H, 'n', 00H, 'v', 00H, 'a', 00H, 'l', 00H
	DB	'i', 00H, 'd', 00H, ' ', 00H, 'w', 00H, 'r', 00H, 'i', 00H, 't'
	DB	00H, 'e', 00H, ' ', 00H, 'p', 00H, 'o', 00H, 'i', 00H, 'n', 00H
	DB	't', 00H, 'e', 00H, 'r', 00H, '"', 00H, 00H, 00H
$SG83580 DB	'.', 00H, '.', 00H, '\', 00H, 'd', 00H, 'l', 00H, 'l', 00H
	DB	'e', 00H, 'n', 00H, 't', 00H, 'r', 00H, 'y', 00H, '.', 00H, 'c'
	DB	00H, 'p', 00H, 'p', 00H, 00H, 00H
$SG83581 DB	'"', 00H, 'I', 00H, 'n', 00H, 'v', 00H, 'a', 00H, 'l', 00H
	DB	'i', 00H, 'd', 00H, ' ', 00H, 'r', 00H, 'e', 00H, 'a', 00H, 'd'
	DB	00H, ' ', 00H, 'p', 00H, 'o', 00H, 'i', 00H, 'n', 00H, 't', 00H
	DB	'e', 00H, 'r', 00H, '"', 00H, 00H, 00H
	ORG $+2
$SG83585 DB	'.', 00H, '.', 00H, '\', 00H, 'd', 00H, 'l', 00H, 'l', 00H
	DB	'e', 00H, 'n', 00H, 't', 00H, 'r', 00H, 'y', 00H, '.', 00H, 'c'
	DB	00H, 'p', 00H, 'p', 00H, 00H, 00H
$SG83586 DB	'"', 00H, 'I', 00H, 'n', 00H, 'v', 00H, 'a', 00H, 'l', 00H
	DB	'i', 00H, 'd', 00H, ' ', 00H, 'w', 00H, 'r', 00H, 'i', 00H, 't'
	DB	00H, 'e', 00H, ' ', 00H, 'p', 00H, 'o', 00H, 'i', 00H, 'n', 00H
	DB	't', 00H, 'e', 00H, 'r', 00H, '"', 00H, 00H, 00H
$SG83604 DB	'.', 00H, '.', 00H, '\', 00H, 'd', 00H, 'l', 00H, 'l', 00H
	DB	'e', 00H, 'n', 00H, 't', 00H, 'r', 00H, 'y', 00H, '.', 00H, 'c'
	DB	00H, 'p', 00H, 'p', 00H, 00H, 00H
$SG83605 DB	'*', 00H, 'p', 00H, 'v', 00H, 00H, 00H
	ORG $+8
$SG83646 DB	'D', 00H, 'L', 00H, 'L', 00H, 'C', 00H, 'a', 00H, 'n', 00H
	DB	'U', 00H, 'n', 00H, 'l', 00H, 'o', 00H, 'a', 00H, 'd', 00H, 'N'
	DB	00H, 'o', 00H, 'w', 00H, ' ', 00H, 'c', 00H, 'a', 00H, 'l', 00H
	DB	'l', 00H, 'e', 00H, 'd', 00H, ' ', 00H, '-', 00H, ' ', 00H, 'I'
	DB	00H, 's', 00H, 'L', 00H, 'o', 00H, 'c', 00H, 'k', 00H, 'e', 00H
	DB	'd', 00H, ' ', 00H, '=', 00H, ' ', 00H, '%', 00H, 'd', 00H, ','
	DB	00H, ' ', 00H, 'A', 00H, 'c', 00H, 't', 00H, 'i', 00H, 'v', 00H
	DB	'e', 00H, ' ', 00H, 'o', 00H, 'b', 00H, 'j', 00H, 'e', 00H, 'c'
	DB	00H, 't', 00H, 's', 00H, ' ', 00H, '=', 00H, ' ', 00H, '%', 00H
	DB	'd', 00H, 00H, 00H
	ORG $+8
$SG83669 DB	'F', 00H, 'a', 00H, 'i', 00H, 'l', 00H, 'e', 00H, 'd', 00H
	DB	' ', 00H, 't', 00H, 'o', 00H, ' ', 00H, 'g', 00H, 'e', 00H, 't'
	DB	00H, ' ', 00H, 't', 00H, 'h', 00H, 'e', 00H, ' ', 00H, 'O', 00H
	DB	'S', 00H, ' ', 00H, 'p', 00H, 'l', 00H, 'a', 00H, 't', 00H, 'f'
	DB	00H, 'o', 00H, 'r', 00H, 'm', 00H, ',', 00H, ' ', 00H, 'a', 00H
	DB	's', 00H, 's', 00H, 'u', 00H, 'm', 00H, 'i', 00H, 'n', 00H, 'g'
	DB	00H, ' ', 00H, 'W', 00H, 'i', 00H, 'n', 00H, '9', 00H, '5', 00H
	DB	00H, 00H
	ORG $+4
$SG83679 DB	'E', 00H, 'x', 00H, 'e', 00H, 'c', 00H, 'u', 00H, 't', 00H
	DB	'a', 00H, 'b', 00H, 'l', 00H, 'e', 00H, ':', 00H, ' ', 00H, '%'
	DB	00H, 's', 00H, ' ', 00H, ' ', 00H, 'P', 00H, 'i', 00H, 'd', 00H
	DB	' ', 00H, '%', 00H, 'x', 00H, ' ', 00H, ' ', 00H, 'T', 00H, 'i'
	DB	00H, 'd', 00H, ' ', 00H, '%', 00H, 'x', 00H, '.', 00H, ' ', 00H
	DB	00H, 00H
	ORG $+14
$SG83680 DB	'M', 00H, 'o', 00H, 'd', 00H, 'u', 00H, 'l', 00H, 'e', 00H
	DB	' ', 00H, '%', 00H, 's', 00H, ',', 00H, ' ', 00H, '%', 00H, 'd'
	DB	00H, ' ', 00H, 'o', 00H, 'b', 00H, 'j', 00H, 'e', 00H, 'c', 00H
	DB	't', 00H, 's', 00H, ' ', 00H, 'l', 00H, 'e', 00H, 'f', 00H, 't'
	DB	00H, ' ', 00H, 'a', 00H, 'c', 00H, 't', 00H, 'i', 00H, 'v', 00H
	DB	'e', 00H, '!', 00H, 00H, 00H
	ORG $+2
$SG83681 DB	'.', 00H, '.', 00H, '\', 00H, 'd', 00H, 'l', 00H, 'l', 00H
	DB	'e', 00H, 'n', 00H, 't', 00H, 'r', 00H, 'y', 00H, '.', 00H, 'c'
	DB	00H, 'p', 00H, 'p', 00H, 00H, 00H
CONST	ENDS
;	COMDAT IID_IAMFilterGraphCallback
CONST	SEGMENT
IID_IAMFilterGraphCallback DD 056a868fdH
	DW	0ad4H
	DW	011ceH
	DB	0b0H
	DB	0a3H
	DB	00H
	DB	020H
	DB	0afH
	DB	0bH
	DB	0a7H
	DB	070H
CONST	ENDS
PUBLIC	??_7CClassFactory@@6B@				; CClassFactory::`vftable'
PUBLIC	??0IClassFactory@@QEAA@XZ			; IClassFactory::IClassFactory
PUBLIC	??0CClassFactory@@QEAA@PEBVCFactoryTemplate@@@Z	; CClassFactory::CClassFactory
PUBLIC	??_R4CClassFactory@@6B@				; CClassFactory::`RTTI Complete Object Locator'
PUBLIC	??_R0?AVCClassFactory@@@8			; CClassFactory `RTTI Type Descriptor'
PUBLIC	??_R3CClassFactory@@8				; CClassFactory::`RTTI Class Hierarchy Descriptor'
PUBLIC	??_R2CClassFactory@@8				; CClassFactory::`RTTI Base Class Array'
PUBLIC	??_R1A@?0A@EA@CClassFactory@@8			; CClassFactory::`RTTI Base Class Descriptor at (0,-1,0,64)'
PUBLIC	??_R1A@?0A@EA@IClassFactory@@8			; IClassFactory::`RTTI Base Class Descriptor at (0,-1,0,64)'
PUBLIC	??_R0?AUIClassFactory@@@8			; IClassFactory `RTTI Type Descriptor'
PUBLIC	??_R3IClassFactory@@8				; IClassFactory::`RTTI Class Hierarchy Descriptor'
PUBLIC	??_R2IClassFactory@@8				; IClassFactory::`RTTI Base Class Array'
PUBLIC	??_R1A@?0A@EA@IUnknown@@8			; IUnknown::`RTTI Base Class Descriptor at (0,-1,0,64)'
PUBLIC	??_R0?AUIUnknown@@@8				; IUnknown `RTTI Type Descriptor'
PUBLIC	??_R3IUnknown@@8				; IUnknown::`RTTI Class Hierarchy Descriptor'
PUBLIC	??_R2IUnknown@@8				; IUnknown::`RTTI Base Class Array'
PUBLIC	??_R17?0A@EA@CBaseObject@@8			; CBaseObject::`RTTI Base Class Descriptor at (8,-1,0,64)'
PUBLIC	??_R0?AVCBaseObject@@@8				; CBaseObject `RTTI Type Descriptor'
PUBLIC	??_R3CBaseObject@@8				; CBaseObject::`RTTI Class Hierarchy Descriptor'
PUBLIC	??_R2CBaseObject@@8				; CBaseObject::`RTTI Base Class Array'
PUBLIC	??_R1A@?0A@EA@CBaseObject@@8			; CBaseObject::`RTTI Base Class Descriptor at (0,-1,0,64)'
PUBLIC	?QueryInterface@CClassFactory@@UEAAJAEBU_GUID@@PEAPEAX@Z ; CClassFactory::QueryInterface
PUBLIC	?AddRef@CClassFactory@@UEAAKXZ			; CClassFactory::AddRef
PUBLIC	?Release@CClassFactory@@UEAAKXZ			; CClassFactory::Release
PUBLIC	?CreateInstance@CClassFactory@@UEAAJPEAUIUnknown@@AEBU_GUID@@PEAPEAX@Z ; CClassFactory::CreateInstance
PUBLIC	?LockServer@CClassFactory@@UEAAJH@Z		; CClassFactory::LockServer
EXTRN	??0CBaseObject@@QEAA@PEB_W@Z:PROC		; CBaseObject::CBaseObject
EXTRN	_RTC_Shutdown:PROC
EXTRN	_RTC_InitBase:PROC
EXTRN	??_7type_info@@6B@:BYTE				; type_info::`vftable'
;	COMDAT pdata
; File c:\downloads\wpf mediakit - copy\src\filters\baseclasses\dllentry.cpp
pdata	SEGMENT
$pdata$??0CClassFactory@@QEAA@PEBVCFactoryTemplate@@@Z DD imagerel $LN4
	DD	imagerel $LN4+121
	DD	imagerel $unwind$??0CClassFactory@@QEAA@PEBVCFactoryTemplate@@@Z
pdata	ENDS
;	COMDAT ??_R1A@?0A@EA@CBaseObject@@8
rdata$r	SEGMENT
??_R1A@?0A@EA@CBaseObject@@8 DD imagerel ??_R0?AVCBaseObject@@@8 ; CBaseObject::`RTTI Base Class Descriptor at (0,-1,0,64)'
	DD	00H
	DD	00H
	DD	0ffffffffH
	DD	00H
	DD	040H
	DD	imagerel ??_R3CBaseObject@@8
rdata$r	ENDS
;	COMDAT ??_R2CBaseObject@@8
rdata$r	SEGMENT
??_R2CBaseObject@@8 DD imagerel ??_R1A@?0A@EA@CBaseObject@@8 ; CBaseObject::`RTTI Base Class Array'
	ORG $+3
rdata$r	ENDS
;	COMDAT ??_R3CBaseObject@@8
rdata$r	SEGMENT
??_R3CBaseObject@@8 DD 00H				; CBaseObject::`RTTI Class Hierarchy Descriptor'
	DD	00H
	DD	01H
	DD	imagerel ??_R2CBaseObject@@8
rdata$r	ENDS
;	COMDAT ??_R0?AVCBaseObject@@@8
_DATA	SEGMENT
??_R0?AVCBaseObject@@@8 DQ FLAT:??_7type_info@@6B@	; CBaseObject `RTTI Type Descriptor'
	DQ	0000000000000000H
	DB	'.?AVCBaseObject@@', 00H
_DATA	ENDS
;	COMDAT ??_R17?0A@EA@CBaseObject@@8
rdata$r	SEGMENT
??_R17?0A@EA@CBaseObject@@8 DD imagerel ??_R0?AVCBaseObject@@@8 ; CBaseObject::`RTTI Base Class Descriptor at (8,-1,0,64)'
	DD	00H
	DD	08H
	DD	0ffffffffH
	DD	00H
	DD	040H
	DD	imagerel ??_R3CBaseObject@@8
rdata$r	ENDS
;	COMDAT ??_R2IUnknown@@8
rdata$r	SEGMENT
??_R2IUnknown@@8 DD imagerel ??_R1A@?0A@EA@IUnknown@@8	; IUnknown::`RTTI Base Class Array'
	ORG $+3
rdata$r	ENDS
;	COMDAT ??_R3IUnknown@@8
rdata$r	SEGMENT
??_R3IUnknown@@8 DD 00H					; IUnknown::`RTTI Class Hierarchy Descriptor'
	DD	00H
	DD	01H
	DD	imagerel ??_R2IUnknown@@8
rdata$r	ENDS
;	COMDAT ??_R0?AUIUnknown@@@8
_DATA	SEGMENT
??_R0?AUIUnknown@@@8 DQ FLAT:??_7type_info@@6B@		; IUnknown `RTTI Type Descriptor'
	DQ	0000000000000000H
	DB	'.?AUIUnknown@@', 00H
_DATA	ENDS
;	COMDAT ??_R1A@?0A@EA@IUnknown@@8
rdata$r	SEGMENT
??_R1A@?0A@EA@IUnknown@@8 DD imagerel ??_R0?AUIUnknown@@@8 ; IUnknown::`RTTI Base Class Descriptor at (0,-1,0,64)'
	DD	00H
	DD	00H
	DD	0ffffffffH
	DD	00H
	DD	040H
	DD	imagerel ??_R3IUnknown@@8
rdata$r	ENDS
;	COMDAT ??_R2IClassFactory@@8
rdata$r	SEGMENT
??_R2IClassFactory@@8 DD imagerel ??_R1A@?0A@EA@IClassFactory@@8 ; IClassFactory::`RTTI Base Class Array'
	DD	imagerel ??_R1A@?0A@EA@IUnknown@@8
	ORG $+3
rdata$r	ENDS
;	COMDAT ??_R3IClassFactory@@8
rdata$r	SEGMENT
??_R3IClassFactory@@8 DD 00H				; IClassFactory::`RTTI Class Hierarchy Descriptor'
	DD	00H
	DD	02H
	DD	imagerel ??_R2IClassFactory@@8
rdata$r	ENDS
;	COMDAT ??_R0?AUIClassFactory@@@8
_DATA	SEGMENT
??_R0?AUIClassFactory@@@8 DQ FLAT:??_7type_info@@6B@	; IClassFactory `RTTI Type Descriptor'
	DQ	0000000000000000H
	DB	'.?AUIClassFactory@@', 00H
_DATA	ENDS
;	COMDAT ??_R1A@?0A@EA@IClassFactory@@8
rdata$r	SEGMENT
??_R1A@?0A@EA@IClassFactory@@8 DD imagerel ??_R0?AUIClassFactory@@@8 ; IClassFactory::`RTTI Base Class Descriptor at (0,-1,0,64)'
	DD	01H
	DD	00H
	DD	0ffffffffH
	DD	00H
	DD	040H
	DD	imagerel ??_R3IClassFactory@@8
rdata$r	ENDS
;	COMDAT ??_R1A@?0A@EA@CClassFactory@@8
rdata$r	SEGMENT
??_R1A@?0A@EA@CClassFactory@@8 DD imagerel ??_R0?AVCClassFactory@@@8 ; CClassFactory::`RTTI Base Class Descriptor at (0,-1,0,64)'
	DD	03H
	DD	00H
	DD	0ffffffffH
	DD	00H
	DD	040H
	DD	imagerel ??_R3CClassFactory@@8
rdata$r	ENDS
;	COMDAT ??_R2CClassFactory@@8
rdata$r	SEGMENT
??_R2CClassFactory@@8 DD imagerel ??_R1A@?0A@EA@CClassFactory@@8 ; CClassFactory::`RTTI Base Class Array'
	DD	imagerel ??_R1A@?0A@EA@IClassFactory@@8
	DD	imagerel ??_R1A@?0A@EA@IUnknown@@8
	DD	imagerel ??_R17?0A@EA@CBaseObject@@8
	ORG $+3
rdata$r	ENDS
;	COMDAT ??_R3CClassFactory@@8
rdata$r	SEGMENT
??_R3CClassFactory@@8 DD 00H				; CClassFactory::`RTTI Class Hierarchy Descriptor'
	DD	01H
	DD	04H
	DD	imagerel ??_R2CClassFactory@@8
rdata$r	ENDS
;	COMDAT ??_R0?AVCClassFactory@@@8
_DATA	SEGMENT
??_R0?AVCClassFactory@@@8 DQ FLAT:??_7type_info@@6B@	; CClassFactory `RTTI Type Descriptor'
	DQ	0000000000000000H
	DB	'.?AVCClassFactory@@', 00H
_DATA	ENDS
;	COMDAT ??_R4CClassFactory@@6B@
rdata$r	SEGMENT
??_R4CClassFactory@@6B@ DD 01H				; CClassFactory::`RTTI Complete Object Locator'
	DD	00H
	DD	00H
	DD	imagerel ??_R0?AVCClassFactory@@@8
	DD	imagerel ??_R3CClassFactory@@8
	DD	imagerel ??_R4CClassFactory@@6B@
rdata$r	ENDS
;	COMDAT xdata
xdata	SEGMENT
$unwind$??0CClassFactory@@QEAA@PEBVCFactoryTemplate@@@Z DD 022301H
	DD	0700b320fH
xdata	ENDS
;	COMDAT ??_7CClassFactory@@6B@
CONST	SEGMENT
??_7CClassFactory@@6B@ DQ FLAT:??_R4CClassFactory@@6B@	; CClassFactory::`vftable'
	DQ	FLAT:?QueryInterface@CClassFactory@@UEAAJAEBU_GUID@@PEAPEAX@Z
	DQ	FLAT:?AddRef@CClassFactory@@UEAAKXZ
	DQ	FLAT:?Release@CClassFactory@@UEAAKXZ
	DQ	FLAT:?CreateInstance@CClassFactory@@UEAAJPEAUIUnknown@@AEBU_GUID@@PEAPEAX@Z
	DQ	FLAT:?LockServer@CClassFactory@@UEAAJH@Z
CONST	ENDS
;	COMDAT rtc$TMZ
rtc$TMZ	SEGMENT
_RTC_Shutdown.rtc$TMZ DQ FLAT:_RTC_Shutdown
rtc$TMZ	ENDS
;	COMDAT rtc$IMZ
rtc$IMZ	SEGMENT
_RTC_InitBase.rtc$IMZ DQ FLAT:_RTC_InitBase
; Function compile flags: /Odtp /RTCsu
rtc$IMZ	ENDS
;	COMDAT ??0CClassFactory@@QEAA@PEBVCFactoryTemplate@@@Z
_TEXT	SEGMENT
this$ = 48
pTemplate$ = 56
??0CClassFactory@@QEAA@PEBVCFactoryTemplate@@@Z PROC	; CClassFactory::CClassFactory, COMDAT
; Line 70
$LN4:
	mov	QWORD PTR [rsp+16], rdx
	mov	QWORD PTR [rsp+8], rcx
	push	rdi
	sub	rsp, 32					; 00000020H
	mov	rdi, rsp
	mov	ecx, 8
	mov	eax, -858993460				; ccccccccH
	rep stosd
	mov	rcx, QWORD PTR [rsp+48]
	mov	rcx, QWORD PTR this$[rsp]
	call	??0IClassFactory@@QEAA@XZ
	mov	rax, QWORD PTR this$[rsp]
	add	rax, 8
	lea	rdx, OFFSET FLAT:$SG83527
	mov	rcx, rax
	call	??0CBaseObject@@QEAA@PEB_W@Z		; CBaseObject::CBaseObject
	mov	rax, QWORD PTR this$[rsp]
	lea	rcx, OFFSET FLAT:??_7CClassFactory@@6B@
	mov	QWORD PTR [rax], rcx
	mov	rax, QWORD PTR this$[rsp]
	mov	rcx, QWORD PTR pTemplate$[rsp]
	mov	QWORD PTR [rax+16], rcx
	mov	rax, QWORD PTR this$[rsp]
	mov	DWORD PTR [rax+24], 0
; Line 71
	mov	rax, QWORD PTR this$[rsp]
	add	rsp, 32					; 00000020H
	pop	rdi
	ret	0
??0CClassFactory@@QEAA@PEBVCFactoryTemplate@@@Z ENDP	; CClassFactory::CClassFactory
_TEXT	ENDS
PUBLIC	??0IUnknown@@QEAA@XZ				; IUnknown::IUnknown
;	COMDAT pdata
pdata	SEGMENT
$pdata$??0IClassFactory@@QEAA@XZ DD imagerel $LN3
	DD	imagerel $LN3+51
	DD	imagerel $unwind$??0IClassFactory@@QEAA@XZ
pdata	ENDS
;	COMDAT xdata
xdata	SEGMENT
$unwind$??0IClassFactory@@QEAA@XZ DD 021e01H
	DD	07006320aH
; Function compile flags: /Odtp /RTCsu
xdata	ENDS
;	COMDAT ??0IClassFactory@@QEAA@XZ
_TEXT	SEGMENT
this$ = 48
??0IClassFactory@@QEAA@XZ PROC				; IClassFactory::IClassFactory, COMDAT
$LN3:
	mov	QWORD PTR [rsp+8], rcx
	push	rdi
	sub	rsp, 32					; 00000020H
	mov	rdi, rsp
	mov	ecx, 8
	mov	eax, -858993460				; ccccccccH
	rep stosd
	mov	rcx, QWORD PTR [rsp+48]
	mov	rcx, QWORD PTR this$[rsp]
	call	??0IUnknown@@QEAA@XZ
	mov	rax, QWORD PTR this$[rsp]
	add	rsp, 32					; 00000020H
	pop	rdi
	ret	0
??0IClassFactory@@QEAA@XZ ENDP				; IClassFactory::IClassFactory
_TEXT	ENDS
;	COMDAT pdata
pdata	SEGMENT
$pdata$??0IUnknown@@QEAA@XZ DD imagerel $LN3
	DD	imagerel $LN3+13
	DD	imagerel $unwind$??0IUnknown@@QEAA@XZ
pdata	ENDS
;	COMDAT xdata
xdata	SEGMENT
$unwind$??0IUnknown@@QEAA@XZ DD 010601H
	DD	07006H
; Function compile flags: /Odtp /RTCsu
xdata	ENDS
;	COMDAT ??0IUnknown@@QEAA@XZ
_TEXT	SEGMENT
this$ = 16
??0IUnknown@@QEAA@XZ PROC				; IUnknown::IUnknown, COMDAT
$LN3:
	mov	QWORD PTR [rsp+8], rcx
	push	rdi
	mov	rax, QWORD PTR this$[rsp]
	pop	rdi
	ret	0
??0IUnknown@@QEAA@XZ ENDP				; IUnknown::IUnknown
_TEXT	ENDS
PUBLIC	==
EXTRN	IID_IClassFactory:BYTE
EXTRN	IID_IUnknown:BYTE
EXTRN	__imp_IsBadWritePtr:PROC
EXTRN	?DbgBreakPoint@@YAXPEB_W0H@Z:PROC		; DbgBreakPoint
EXTRN	__imp_IsBadReadPtr:PROC
;	COMDAT pdata
pdata	SEGMENT
$pdata$?QueryInterface@CClassFactory@@UEAAJAEBU_GUID@@PEAPEAX@Z DD imagerel $LN8
	DD	imagerel $LN8+254
	DD	imagerel $unwind$?QueryInterface@CClassFactory@@UEAAJAEBU_GUID@@PEAPEAX@Z
pdata	ENDS
;	COMDAT xdata
xdata	SEGMENT
$unwind$?QueryInterface@CClassFactory@@UEAAJAEBU_GUID@@PEAPEAX@Z DD 022801H
	DD	070103214H
; Function compile flags: /Odtp /RTCsu
xdata	ENDS
;	COMDAT ?QueryInterface@CClassFactory@@UEAAJAEBU_GUID@@PEAPEAX@Z
_TEXT	SEGMENT
this$ = 48
riid$ = 56
ppv$ = 64
?QueryInterface@CClassFactory@@UEAAJAEBU_GUID@@PEAPEAX@Z PROC ; CClassFactory::QueryInterface, COMDAT
; Line 76
$LN8:
	mov	QWORD PTR [rsp+24], r8
	mov	QWORD PTR [rsp+16], rdx
	mov	QWORD PTR [rsp+8], rcx
	push	rdi
	sub	rsp, 32					; 00000020H
	mov	rdi, rsp
	mov	ecx, 8
	mov	eax, -858993460				; ccccccccH
	rep stosd
	mov	rcx, QWORD PTR [rsp+48]
; Line 77
	cmp	QWORD PTR ppv$[rsp], 0
	jne	SHORT $LN5@QueryInter
	mov	eax, -2147467261			; ffffffff80004003H
	jmp	$LN6@QueryInter
$LN5@QueryInter:
; Line 78
	mov	edx, 8
	mov	rcx, QWORD PTR ppv$[rsp]
	call	QWORD PTR __imp_IsBadReadPtr
	cmp	eax, 1
	jne	SHORT $LN4@QueryInter
	mov	r8d, 78					; 0000004eH
	lea	rdx, OFFSET FLAT:$SG83540
	lea	rcx, OFFSET FLAT:$SG83541
	call	?DbgBreakPoint@@YAXPEB_W0H@Z		; DbgBreakPoint
$LN4@QueryInter:
	mov	edx, 8
	mov	rcx, QWORD PTR ppv$[rsp]
	call	QWORD PTR __imp_IsBadWritePtr
	cmp	eax, 1
	jne	SHORT $LN3@QueryInter
	mov	r8d, 78					; 0000004eH
	lea	rdx, OFFSET FLAT:$SG83545
	lea	rcx, OFFSET FLAT:$SG83546
	call	?DbgBreakPoint@@YAXPEB_W0H@Z		; DbgBreakPoint
$LN3@QueryInter:
; Line 79
	mov	rax, QWORD PTR ppv$[rsp]
	mov	QWORD PTR [rax], 0
; Line 82
	lea	rdx, OFFSET FLAT:IID_IUnknown
	mov	rcx, QWORD PTR riid$[rsp]
	call	==
	test	eax, eax
	jne	SHORT $LN1@QueryInter
	lea	rdx, OFFSET FLAT:IID_IClassFactory
	mov	rcx, QWORD PTR riid$[rsp]
	call	==
	test	eax, eax
	je	SHORT $LN2@QueryInter
$LN1@QueryInter:
; Line 83
	mov	rax, QWORD PTR ppv$[rsp]
	mov	rcx, QWORD PTR this$[rsp]
	mov	QWORD PTR [rax], rcx
; Line 85
	mov	rax, QWORD PTR ppv$[rsp]
	mov	rax, QWORD PTR [rax]
	mov	rcx, QWORD PTR ppv$[rsp]
	mov	rcx, QWORD PTR [rcx]
	mov	rax, QWORD PTR [rax]
	call	QWORD PTR [rax+8]
; Line 86
	xor	eax, eax
	jmp	SHORT $LN6@QueryInter
$LN2@QueryInter:
; Line 89
	mov	eax, -2147467262			; ffffffff80004002H
$LN6@QueryInter:
; Line 90
	add	rsp, 32					; 00000020H
	pop	rdi
	ret	0
?QueryInterface@CClassFactory@@UEAAJAEBU_GUID@@PEAPEAX@Z ENDP ; CClassFactory::QueryInterface
_TEXT	ENDS
PUBLIC	IsEqualGUID
;	COMDAT pdata
; File c:\program files (x86)\microsoft sdks\windows\v7.0a\include\guiddef.h
pdata	SEGMENT
$pdata$== DD	imagerel $LN3
	DD	imagerel $LN3+56
	DD	imagerel $unwind$==
pdata	ENDS
;	COMDAT xdata
xdata	SEGMENT
$unwind$== DD	022301H
	DD	0700b320fH
; Function compile flags: /Odtp /RTCsu
xdata	ENDS
;	COMDAT ==
_TEXT	SEGMENT
guidOne$ = 48
guidOther$ = 56
==	PROC						; COMDAT
; Line 193
$LN3:
	mov	QWORD PTR [rsp+16], rdx
	mov	QWORD PTR [rsp+8], rcx
	push	rdi
	sub	rsp, 32					; 00000020H
	mov	rdi, rsp
	mov	ecx, 8
	mov	eax, -858993460				; ccccccccH
	rep stosd
	mov	rcx, QWORD PTR [rsp+48]
; Line 194
	mov	rdx, QWORD PTR guidOther$[rsp]
	mov	rcx, QWORD PTR guidOne$[rsp]
	call	IsEqualGUID
; Line 195
	add	rsp, 32					; 00000020H
	pop	rdi
	ret	0
==	ENDP
_TEXT	ENDS
EXTRN	memcmp:PROC
;	COMDAT pdata
pdata	SEGMENT
$pdata$IsEqualGUID DD imagerel $LN5
	DD	imagerel $LN5+88
	DD	imagerel $unwind$IsEqualGUID
pdata	ENDS
;	COMDAT xdata
xdata	SEGMENT
$unwind$IsEqualGUID DD 022301H
	DD	0700b520fH
; Function compile flags: /Odtp /RTCsu
xdata	ENDS
;	COMDAT IsEqualGUID
_TEXT	SEGMENT
tv69 = 32
rguid1$ = 64
rguid2$ = 72
IsEqualGUID PROC					; COMDAT
; Line 160
$LN5:
	mov	QWORD PTR [rsp+16], rdx
	mov	QWORD PTR [rsp+8], rcx
	push	rdi
	sub	rsp, 48					; 00000030H
	mov	rdi, rsp
	mov	ecx, 12
	mov	eax, -858993460				; ccccccccH
	rep stosd
	mov	rcx, QWORD PTR [rsp+64]
; Line 161
	mov	r8d, 16
	mov	rdx, QWORD PTR rguid2$[rsp]
	mov	rcx, QWORD PTR rguid1$[rsp]
	call	memcmp
	test	eax, eax
	jne	SHORT $LN3@IsEqualGUI
	mov	DWORD PTR tv69[rsp], 1
	jmp	SHORT $LN4@IsEqualGUI
$LN3@IsEqualGUI:
	mov	DWORD PTR tv69[rsp], 0
$LN4@IsEqualGUI:
	mov	eax, DWORD PTR tv69[rsp]
; Line 162
	add	rsp, 48					; 00000030H
	pop	rdi
	ret	0
IsEqualGUID ENDP
_TEXT	ENDS
;	COMDAT pdata
; File c:\downloads\wpf mediakit - copy\src\filters\baseclasses\dllentry.cpp
pdata	SEGMENT
$pdata$?AddRef@CClassFactory@@UEAAKXZ DD imagerel $LN3
	DD	imagerel $LN3+63
	DD	imagerel $unwind$?AddRef@CClassFactory@@UEAAKXZ
pdata	ENDS
;	COMDAT xdata
xdata	SEGMENT
$unwind$?AddRef@CClassFactory@@UEAAKXZ DD 021e01H
	DD	07006120aH
; Function compile flags: /Odtp /RTCsu
xdata	ENDS
;	COMDAT ?AddRef@CClassFactory@@UEAAKXZ
_TEXT	SEGMENT
tv66 = 0
this$ = 32
?AddRef@CClassFactory@@UEAAKXZ PROC			; CClassFactory::AddRef, COMDAT
; Line 95
$LN3:
	mov	QWORD PTR [rsp+8], rcx
	push	rdi
	sub	rsp, 16
	mov	rdi, rsp
	mov	ecx, 4
	mov	eax, -858993460				; ccccccccH
	rep stosd
	mov	rcx, QWORD PTR [rsp+32]
; Line 96
	mov	rax, QWORD PTR this$[rsp]
	mov	eax, DWORD PTR [rax+24]
	inc	eax
	mov	DWORD PTR tv66[rsp], eax
	mov	rax, QWORD PTR this$[rsp]
	mov	ecx, DWORD PTR tv66[rsp]
	mov	DWORD PTR [rax+24], ecx
	mov	eax, DWORD PTR tv66[rsp]
; Line 97
	add	rsp, 16
	pop	rdi
	ret	0
?AddRef@CClassFactory@@UEAAKXZ ENDP			; CClassFactory::AddRef
_TEXT	ENDS
PUBLIC	??_GCClassFactory@@QEAAPEAXI@Z			; CClassFactory::`scalar deleting destructor'
;	COMDAT pdata
pdata	SEGMENT
$pdata$?Release@CClassFactory@@UEAAKXZ DD imagerel $LN7
	DD	imagerel $LN7+142
	DD	imagerel $unwind$?Release@CClassFactory@@UEAAKXZ
pdata	ENDS
;	COMDAT xdata
xdata	SEGMENT
$unwind$?Release@CClassFactory@@UEAAKXZ DD 021e01H
	DD	07006720aH
; Function compile flags: /Odtp /RTCsu
xdata	ENDS
;	COMDAT ?Release@CClassFactory@@UEAAKXZ
_TEXT	SEGMENT
$T84258 = 32
$T84259 = 40
tv66 = 48
tv72 = 56
this$ = 80
?Release@CClassFactory@@UEAAKXZ PROC			; CClassFactory::Release, COMDAT
; Line 101
$LN7:
	mov	QWORD PTR [rsp+8], rcx
	push	rdi
	sub	rsp, 64					; 00000040H
	mov	rdi, rsp
	mov	ecx, 16
	mov	eax, -858993460				; ccccccccH
	rep stosd
	mov	rcx, QWORD PTR [rsp+80]
; Line 102
	mov	rax, QWORD PTR this$[rsp]
	mov	eax, DWORD PTR [rax+24]
	dec	eax
	mov	DWORD PTR tv66[rsp], eax
	mov	rax, QWORD PTR this$[rsp]
	mov	ecx, DWORD PTR tv66[rsp]
	mov	DWORD PTR [rax+24], ecx
	cmp	DWORD PTR tv66[rsp], 0
	jne	SHORT $LN2@Release
; Line 103
	mov	rax, QWORD PTR this$[rsp]
	mov	QWORD PTR $T84259[rsp], rax
	mov	rax, QWORD PTR $T84259[rsp]
	mov	QWORD PTR $T84258[rsp], rax
	cmp	QWORD PTR $T84258[rsp], 0
	je	SHORT $LN5@Release
	mov	edx, 1
	mov	rcx, QWORD PTR $T84258[rsp]
	call	??_GCClassFactory@@QEAAPEAXI@Z
	mov	QWORD PTR tv72[rsp], rax
	jmp	SHORT $LN6@Release
$LN5@Release:
	mov	QWORD PTR tv72[rsp], 0
$LN6@Release:
; Line 104
	xor	eax, eax
	jmp	SHORT $LN3@Release
; Line 105
	jmp	SHORT $LN1@Release
$LN2@Release:
; Line 106
	mov	rax, QWORD PTR this$[rsp]
	mov	eax, DWORD PTR [rax+24]
$LN1@Release:
$LN3@Release:
; Line 108
	add	rsp, 64					; 00000040H
	pop	rdi
	ret	0
?Release@CClassFactory@@UEAAKXZ ENDP			; CClassFactory::Release
_TEXT	ENDS
PUBLIC	??1CClassFactory@@QEAA@XZ			; CClassFactory::~CClassFactory
EXTRN	??3@YAXPEAX@Z:PROC				; operator delete
;	COMDAT pdata
pdata	SEGMENT
$pdata$??_GCClassFactory@@QEAAPEAXI@Z DD imagerel $LN4
	DD	imagerel $LN4+76
	DD	imagerel $unwind$??_GCClassFactory@@QEAAPEAXI@Z
pdata	ENDS
;	COMDAT xdata
xdata	SEGMENT
$unwind$??_GCClassFactory@@QEAAPEAXI@Z DD 022201H
	DD	0700a320eH
; Function compile flags: /Odtp /RTCsu
xdata	ENDS
;	COMDAT ??_GCClassFactory@@QEAAPEAXI@Z
_TEXT	SEGMENT
this$ = 48
__flags$ = 56
??_GCClassFactory@@QEAAPEAXI@Z PROC			; CClassFactory::`scalar deleting destructor', COMDAT
$LN4:
	mov	DWORD PTR [rsp+16], edx
	mov	QWORD PTR [rsp+8], rcx
	push	rdi
	sub	rsp, 32					; 00000020H
	mov	rdi, rsp
	mov	ecx, 8
	mov	eax, -858993460				; ccccccccH
	rep stosd
	mov	rcx, QWORD PTR [rsp+48]
	mov	rcx, QWORD PTR this$[rsp]
	call	??1CClassFactory@@QEAA@XZ
	mov	eax, DWORD PTR __flags$[rsp]
	and	eax, 1
	test	eax, eax
	je	SHORT $LN1@scalar
	mov	rcx, QWORD PTR this$[rsp]
	call	??3@YAXPEAX@Z				; operator delete
$LN1@scalar:
	mov	rax, QWORD PTR this$[rsp]
	add	rsp, 32					; 00000020H
	pop	rdi
	ret	0
??_GCClassFactory@@QEAAPEAXI@Z ENDP			; CClassFactory::`scalar deleting destructor'
_TEXT	ENDS
EXTRN	??1CBaseObject@@QEAA@XZ:PROC			; CBaseObject::~CBaseObject
;	COMDAT pdata
pdata	SEGMENT
$pdata$??1CClassFactory@@QEAA@XZ DD imagerel $LN4
	DD	imagerel $LN4+53
	DD	imagerel $unwind$??1CClassFactory@@QEAA@XZ
pdata	ENDS
;	COMDAT xdata
xdata	SEGMENT
$unwind$??1CClassFactory@@QEAA@XZ DD 021e01H
	DD	07006320aH
; Function compile flags: /Odtp /RTCsu
xdata	ENDS
;	COMDAT ??1CClassFactory@@QEAA@XZ
_TEXT	SEGMENT
this$ = 48
??1CClassFactory@@QEAA@XZ PROC				; CClassFactory::~CClassFactory, COMDAT
$LN4:
	mov	QWORD PTR [rsp+8], rcx
	push	rdi
	sub	rsp, 32					; 00000020H
	mov	rdi, rsp
	mov	ecx, 8
	mov	eax, -858993460				; ccccccccH
	rep stosd
	mov	rcx, QWORD PTR [rsp+48]
	mov	rax, QWORD PTR this$[rsp]
	add	rax, 8
	mov	rcx, rax
	call	??1CBaseObject@@QEAA@XZ			; CBaseObject::~CBaseObject
	add	rsp, 32					; 00000020H
	pop	rdi
	ret	0
??1CClassFactory@@QEAA@XZ ENDP				; CClassFactory::~CClassFactory
_TEXT	ENDS
PUBLIC	?CreateInstance@CFactoryTemplate@@QEBAPEAVCUnknown@@PEAUIUnknown@@PEAJ@Z ; CFactoryTemplate::CreateInstance
EXTRN	?DbgAssert@@YAXPEB_W0H@Z:PROC			; DbgAssert
EXTRN	_RTC_CheckStackVars:PROC
;	COMDAT pdata
pdata	SEGMENT
$pdata$?CreateInstance@CClassFactory@@UEAAJPEAUIUnknown@@AEBU_GUID@@PEAPEAX@Z DD imagerel $LN15
	DD	imagerel $LN15+497
	DD	imagerel $unwind$?CreateInstance@CClassFactory@@UEAAJPEAUIUnknown@@AEBU_GUID@@PEAPEAX@Z
pdata	ENDS
;	COMDAT xdata
xdata	SEGMENT
$unwind$?CreateInstance@CClassFactory@@UEAAJPEAUIUnknown@@AEBU_GUID@@PEAPEAX@Z DD 022d01H
	DD	07015b219H
xdata	ENDS
;	COMDAT CONST
CONST	SEGMENT
?CreateInstance@CClassFactory@@UEAAJPEAUIUnknown@@AEBU_GUID@@PEAPEAX@Z$rtcName$0 DB 068H ; CClassFactory::CreateInstance
	DB	072H
	DB	00H
	ORG $+13
?CreateInstance@CClassFactory@@UEAAJPEAUIUnknown@@AEBU_GUID@@PEAPEAX@Z$rtcVarDesc DD 024H ; CClassFactory::CreateInstance
	DD	04H
	DQ	FLAT:?CreateInstance@CClassFactory@@UEAAJPEAUIUnknown@@AEBU_GUID@@PEAPEAX@Z$rtcName$0
	ORG $+48
?CreateInstance@CClassFactory@@UEAAJPEAUIUnknown@@AEBU_GUID@@PEAPEAX@Z$rtcFrameData DD 01H ; CClassFactory::CreateInstance
	DD	00H
	DQ	FLAT:?CreateInstance@CClassFactory@@UEAAJPEAUIUnknown@@AEBU_GUID@@PEAPEAX@Z$rtcVarDesc
; Function compile flags: /Odtp /RTCsu
CONST	ENDS
;	COMDAT ?CreateInstance@CClassFactory@@UEAAJPEAUIUnknown@@AEBU_GUID@@PEAPEAX@Z
_TEXT	SEGMENT
hr$ = 36
pObj$ = 56
$T84287 = 64
$T84288 = 72
tv130 = 80
this$ = 112
pUnkOuter$ = 120
riid$ = 128
pv$ = 136
?CreateInstance@CClassFactory@@UEAAJPEAUIUnknown@@AEBU_GUID@@PEAPEAX@Z PROC ; CClassFactory::CreateInstance, COMDAT
; Line 115
$LN15:
	mov	QWORD PTR [rsp+32], r9
	mov	QWORD PTR [rsp+24], r8
	mov	QWORD PTR [rsp+16], rdx
	mov	QWORD PTR [rsp+8], rcx
	push	rdi
	sub	rsp, 96					; 00000060H
	mov	rdi, rsp
	mov	ecx, 24
	mov	eax, -858993460				; ccccccccH
	rep stosd
	mov	rcx, QWORD PTR [rsp+112]
; Line 116
	cmp	QWORD PTR pv$[rsp], 0
	jne	SHORT $LN10@CreateInst
	mov	eax, -2147467261			; ffffffff80004003H
	jmp	$LN11@CreateInst
$LN10@CreateInst:
; Line 117
	mov	edx, 8
	mov	rcx, QWORD PTR pv$[rsp]
	call	QWORD PTR __imp_IsBadReadPtr
	cmp	eax, 1
	jne	SHORT $LN9@CreateInst
	mov	r8d, 117				; 00000075H
	lea	rdx, OFFSET FLAT:$SG83580
	lea	rcx, OFFSET FLAT:$SG83581
	call	?DbgBreakPoint@@YAXPEB_W0H@Z		; DbgBreakPoint
$LN9@CreateInst:
	mov	edx, 8
	mov	rcx, QWORD PTR pv$[rsp]
	call	QWORD PTR __imp_IsBadWritePtr
	cmp	eax, 1
	jne	SHORT $LN8@CreateInst
	mov	r8d, 117				; 00000075H
	lea	rdx, OFFSET FLAT:$SG83585
	lea	rcx, OFFSET FLAT:$SG83586
	call	?DbgBreakPoint@@YAXPEB_W0H@Z		; DbgBreakPoint
$LN8@CreateInst:
; Line 121
	cmp	QWORD PTR pUnkOuter$[rsp], 0
	je	SHORT $LN7@CreateInst
; Line 122
	lea	rdx, OFFSET FLAT:IID_IUnknown
	mov	rcx, QWORD PTR riid$[rsp]
	call	IsEqualGUID
	test	eax, eax
	jne	SHORT $LN6@CreateInst
; Line 123
	mov	eax, -2147467262			; ffffffff80004002H
	jmp	$LN11@CreateInst
$LN6@CreateInst:
$LN7@CreateInst:
; Line 129
	mov	DWORD PTR hr$[rsp], 0
; Line 130
	lea	r8, QWORD PTR hr$[rsp]
	mov	rdx, QWORD PTR pUnkOuter$[rsp]
	mov	rax, QWORD PTR this$[rsp]
	mov	rcx, QWORD PTR [rax+16]
	call	?CreateInstance@CFactoryTemplate@@QEBAPEAVCUnknown@@PEAUIUnknown@@PEAJ@Z ; CFactoryTemplate::CreateInstance
	mov	QWORD PTR pObj$[rsp], rax
; Line 132
	cmp	QWORD PTR pObj$[rsp], 0
	jne	SHORT $LN5@CreateInst
; Line 133
	cmp	DWORD PTR hr$[rsp], 0
	jl	SHORT $LN4@CreateInst
; Line 134
	mov	DWORD PTR hr$[rsp], -2147024882		; ffffffff8007000eH
$LN4@CreateInst:
; Line 136
	mov	eax, DWORD PTR hr$[rsp]
	jmp	$LN11@CreateInst
$LN5@CreateInst:
; Line 141
	cmp	DWORD PTR hr$[rsp], 0
	jge	SHORT $LN3@CreateInst
; Line 142
	mov	rax, QWORD PTR pObj$[rsp]
	mov	QWORD PTR $T84288[rsp], rax
	mov	rax, QWORD PTR $T84288[rsp]
	mov	QWORD PTR $T84287[rsp], rax
	cmp	QWORD PTR $T84287[rsp], 0
	je	SHORT $LN13@CreateInst
	mov	rax, QWORD PTR $T84287[rsp]
	mov	rax, QWORD PTR [rax]
	mov	edx, 1
	mov	rcx, QWORD PTR $T84287[rsp]
	call	QWORD PTR [rax+24]
	mov	QWORD PTR tv130[rsp], rax
	jmp	SHORT $LN14@CreateInst
$LN13@CreateInst:
	mov	QWORD PTR tv130[rsp], 0
$LN14@CreateInst:
; Line 143
	mov	eax, DWORD PTR hr$[rsp]
	jmp	SHORT $LN11@CreateInst
$LN3@CreateInst:
; Line 152
	mov	rax, QWORD PTR pObj$[rsp]
	mov	rax, QWORD PTR [rax]
	mov	rcx, QWORD PTR pObj$[rsp]
	call	QWORD PTR [rax+8]
; Line 153
	mov	rax, QWORD PTR pObj$[rsp]
	mov	rax, QWORD PTR [rax]
	mov	r8, QWORD PTR pv$[rsp]
	mov	rdx, QWORD PTR riid$[rsp]
	mov	rcx, QWORD PTR pObj$[rsp]
	call	QWORD PTR [rax]
	mov	DWORD PTR hr$[rsp], eax
; Line 154
	mov	rax, QWORD PTR pObj$[rsp]
	mov	rax, QWORD PTR [rax]
	mov	rcx, QWORD PTR pObj$[rsp]
	call	QWORD PTR [rax+16]
; Line 161
	cmp	DWORD PTR hr$[rsp], 0
	jl	SHORT $LN2@CreateInst
; Line 162
	mov	rax, QWORD PTR pv$[rsp]
	cmp	QWORD PTR [rax], 0
	jne	SHORT $LN1@CreateInst
	mov	r8d, 162				; 000000a2H
	lea	rdx, OFFSET FLAT:$SG83604
	lea	rcx, OFFSET FLAT:$SG83605
	call	?DbgAssert@@YAXPEB_W0H@Z		; DbgAssert
$LN1@CreateInst:
$LN2@CreateInst:
; Line 165
	mov	eax, DWORD PTR hr$[rsp]
$LN11@CreateInst:
; Line 166
	mov	rdi, rax
	mov	rcx, rsp
	lea	rdx, OFFSET FLAT:?CreateInstance@CClassFactory@@UEAAJPEAUIUnknown@@AEBU_GUID@@PEAPEAX@Z$rtcFrameData
	call	_RTC_CheckStackVars
	mov	rax, rdi
	add	rsp, 96					; 00000060H
	pop	rdi
	ret	0
?CreateInstance@CClassFactory@@UEAAJPEAUIUnknown@@AEBU_GUID@@PEAPEAX@Z ENDP ; CClassFactory::CreateInstance
_TEXT	ENDS
;	COMDAT pdata
; File c:\downloads\wpf mediakit - copy\src\filters\baseclasses\combase.h
pdata	SEGMENT
$pdata$?CreateInstance@CFactoryTemplate@@QEBAPEAVCUnknown@@PEAUIUnknown@@PEAJ@Z DD imagerel $LN4
	DD	imagerel $LN4+76
	DD	imagerel $unwind$?CreateInstance@CFactoryTemplate@@QEBAPEAVCUnknown@@PEAUIUnknown@@PEAJ@Z
pdata	ENDS
;	COMDAT xdata
xdata	SEGMENT
$unwind$?CreateInstance@CFactoryTemplate@@QEBAPEAVCUnknown@@PEAUIUnknown@@PEAJ@Z DD 022801H
	DD	070103214H
; Function compile flags: /Odtp /RTCsu
xdata	ENDS
;	COMDAT ?CreateInstance@CFactoryTemplate@@QEBAPEAVCUnknown@@PEAUIUnknown@@PEAJ@Z
_TEXT	SEGMENT
this$ = 48
pUnk$ = 56
phr$ = 64
?CreateInstance@CFactoryTemplate@@QEBAPEAVCUnknown@@PEAUIUnknown@@PEAJ@Z PROC ; CFactoryTemplate::CreateInstance, COMDAT
; Line 288
$LN4:
	mov	QWORD PTR [rsp+24], r8
	mov	QWORD PTR [rsp+16], rdx
	mov	QWORD PTR [rsp+8], rcx
	push	rdi
	sub	rsp, 32					; 00000020H
	mov	rdi, rsp
	mov	ecx, 8
	mov	eax, -858993460				; ccccccccH
	rep stosd
	mov	rcx, QWORD PTR [rsp+48]
; Line 289
	cmp	QWORD PTR phr$[rsp], 0
	jne	SHORT $LN1@CreateInst@2
	xor	eax, eax
	jmp	SHORT $LN2@CreateInst@2
$LN1@CreateInst@2:
; Line 290
	mov	rdx, QWORD PTR phr$[rsp]
	mov	rcx, QWORD PTR pUnk$[rsp]
	mov	rax, QWORD PTR this$[rsp]
	call	QWORD PTR [rax+16]
$LN2@CreateInst@2:
; Line 291
	add	rsp, 32					; 00000020H
	pop	rdi
	ret	0
?CreateInstance@CFactoryTemplate@@QEBAPEAVCUnknown@@PEAUIUnknown@@PEAJ@Z ENDP ; CFactoryTemplate::CreateInstance
_TEXT	ENDS
;	COMDAT pdata
; File c:\downloads\wpf mediakit - copy\src\filters\baseclasses\dllentry.cpp
pdata	SEGMENT
$pdata$?LockServer@CClassFactory@@UEAAJH@Z DD imagerel $LN5
	DD	imagerel $LN5+51
	DD	imagerel $unwind$?LockServer@CClassFactory@@UEAAJH@Z
pdata	ENDS
;	COMDAT xdata
xdata	SEGMENT
$unwind$?LockServer@CClassFactory@@UEAAJH@Z DD 010a01H
	DD	0700aH
; Function compile flags: /Odtp /RTCsu
xdata	ENDS
;	COMDAT ?LockServer@CClassFactory@@UEAAJH@Z
_TEXT	SEGMENT
this$ = 16
fLock$ = 24
?LockServer@CClassFactory@@UEAAJH@Z PROC		; CClassFactory::LockServer, COMDAT
; Line 170
$LN5:
	mov	DWORD PTR [rsp+16], edx
	mov	QWORD PTR [rsp+8], rcx
	push	rdi
; Line 171
	cmp	DWORD PTR fLock$[rsp], 0
	je	SHORT $LN2@LockServer
; Line 172
	mov	eax, DWORD PTR ?m_cLocked@CClassFactory@@0HA ; CClassFactory::m_cLocked
	inc	eax
	mov	DWORD PTR ?m_cLocked@CClassFactory@@0HA, eax ; CClassFactory::m_cLocked
; Line 173
	jmp	SHORT $LN1@LockServer
$LN2@LockServer:
; Line 174
	mov	eax, DWORD PTR ?m_cLocked@CClassFactory@@0HA ; CClassFactory::m_cLocked
	dec	eax
	mov	DWORD PTR ?m_cLocked@CClassFactory@@0HA, eax ; CClassFactory::m_cLocked
$LN1@LockServer:
; Line 176
	xor	eax, eax
; Line 177
	pop	rdi
	ret	0
?LockServer@CClassFactory@@UEAAJH@Z ENDP		; CClassFactory::LockServer
_TEXT	ENDS
PUBLIC	?IsClassID@CFactoryTemplate@@QEBAHAEBU_GUID@@@Z	; CFactoryTemplate::IsClassID
PUBLIC	DllGetClassObject
EXTRN	??2@YAPEAX_K@Z:PROC				; operator new
EXTRN	?g_Templates@@3PAVCFactoryTemplate@@A:BYTE	; g_Templates
EXTRN	?g_cTemplates@@3HA:DWORD			; g_cTemplates
;	COMDAT pdata
pdata	SEGMENT
$pdata$DllGetClassObject DD imagerel $LN11
	DD	imagerel $LN11+311
	DD	imagerel $unwind$DllGetClassObject
pdata	ENDS
;	COMDAT xdata
xdata	SEGMENT
$unwind$DllGetClassObject DD 022801H
	DD	070109214H
; Function compile flags: /Odtp /RTCsu
xdata	ENDS
;	COMDAT DllGetClassObject
_TEXT	SEGMENT
i$83619 = 32
pT$83623 = 40
$T84317 = 48
$T84318 = 56
tv92 = 64
rClsID$ = 96
riid$ = 104
pv$ = 112
DllGetClassObject PROC					; COMDAT
; Line 188
$LN11:
	mov	QWORD PTR [rsp+24], r8
	mov	QWORD PTR [rsp+16], rdx
	mov	QWORD PTR [rsp+8], rcx
	push	rdi
	sub	rsp, 80					; 00000050H
	mov	rdi, rsp
	mov	ecx, 20
	mov	eax, -858993460				; ccccccccH
	rep stosd
	mov	rcx, QWORD PTR [rsp+96]
; Line 189
	lea	rdx, OFFSET FLAT:IID_IUnknown
	mov	rcx, QWORD PTR riid$[rsp]
	call	==
	test	eax, eax
	jne	SHORT $LN6@DllGetClas
	lea	rdx, OFFSET FLAT:IID_IClassFactory
	mov	rcx, QWORD PTR riid$[rsp]
	call	==
	test	eax, eax
	jne	SHORT $LN6@DllGetClas
; Line 190
	mov	eax, -2147467262			; ffffffff80004002H
	jmp	$LN7@DllGetClas
$LN6@DllGetClas:
; Line 195
	mov	DWORD PTR i$83619[rsp], 0
	jmp	SHORT $LN5@DllGetClas
$LN4@DllGetClas:
	mov	eax, DWORD PTR i$83619[rsp]
	inc	eax
	mov	DWORD PTR i$83619[rsp], eax
$LN5@DllGetClas:
	mov	eax, DWORD PTR ?g_cTemplates@@3HA	; g_cTemplates
	cmp	DWORD PTR i$83619[rsp], eax
	jge	$LN3@DllGetClas
; Line 196
	movsxd	rax, DWORD PTR i$83619[rsp]
	imul	rax, 40					; 00000028H
	lea	rcx, OFFSET FLAT:?g_Templates@@3PAVCFactoryTemplate@@A ; g_Templates
	add	rcx, rax
	mov	rax, rcx
	mov	QWORD PTR pT$83623[rsp], rax
; Line 197
	mov	rdx, QWORD PTR rClsID$[rsp]
	mov	rcx, QWORD PTR pT$83623[rsp]
	call	?IsClassID@CFactoryTemplate@@QEBAHAEBU_GUID@@@Z ; CFactoryTemplate::IsClassID
	test	eax, eax
	je	SHORT $LN2@DllGetClas
; Line 202
	mov	ecx, 32					; 00000020H
	call	??2@YAPEAX_K@Z				; operator new
	mov	QWORD PTR $T84318[rsp], rax
	cmp	QWORD PTR $T84318[rsp], 0
	je	SHORT $LN9@DllGetClas
	mov	rdx, QWORD PTR pT$83623[rsp]
	mov	rcx, QWORD PTR $T84318[rsp]
	call	??0CClassFactory@@QEAA@PEBVCFactoryTemplate@@@Z ; CClassFactory::CClassFactory
	mov	QWORD PTR tv92[rsp], rax
	jmp	SHORT $LN10@DllGetClas
$LN9@DllGetClas:
	mov	QWORD PTR tv92[rsp], 0
$LN10@DllGetClas:
	mov	rax, QWORD PTR tv92[rsp]
	mov	QWORD PTR $T84317[rsp], rax
	mov	rax, QWORD PTR pv$[rsp]
	mov	rcx, QWORD PTR $T84317[rsp]
	mov	QWORD PTR [rax], rcx
; Line 203
	mov	rax, QWORD PTR pv$[rsp]
	cmp	QWORD PTR [rax], 0
	jne	SHORT $LN1@DllGetClas
; Line 204
	mov	eax, -2147024882			; ffffffff8007000eH
	jmp	SHORT $LN7@DllGetClas
$LN1@DllGetClas:
; Line 206
	mov	rax, QWORD PTR pv$[rsp]
	mov	rax, QWORD PTR [rax]
	mov	rcx, QWORD PTR pv$[rsp]
	mov	rcx, QWORD PTR [rcx]
	mov	rax, QWORD PTR [rax]
	call	QWORD PTR [rax+8]
; Line 207
	xor	eax, eax
	jmp	SHORT $LN7@DllGetClas
$LN2@DllGetClas:
; Line 209
	jmp	$LN4@DllGetClas
$LN3@DllGetClas:
; Line 210
	mov	eax, -2147221231			; ffffffff80040111H
$LN7@DllGetClas:
; Line 211
	add	rsp, 80					; 00000050H
	pop	rdi
	ret	0
DllGetClassObject ENDP
_TEXT	ENDS
;	COMDAT pdata
; File c:\downloads\wpf mediakit - copy\src\filters\baseclasses\combase.h
pdata	SEGMENT
$pdata$?IsClassID@CFactoryTemplate@@QEBAHAEBU_GUID@@@Z DD imagerel $LN3
	DD	imagerel $LN3+60
	DD	imagerel $unwind$?IsClassID@CFactoryTemplate@@QEBAHAEBU_GUID@@@Z
pdata	ENDS
;	COMDAT xdata
xdata	SEGMENT
$unwind$?IsClassID@CFactoryTemplate@@QEBAHAEBU_GUID@@@Z DD 022301H
	DD	0700b320fH
; Function compile flags: /Odtp /RTCsu
xdata	ENDS
;	COMDAT ?IsClassID@CFactoryTemplate@@QEBAHAEBU_GUID@@@Z
_TEXT	SEGMENT
this$ = 48
rclsid$ = 56
?IsClassID@CFactoryTemplate@@QEBAHAEBU_GUID@@@Z PROC	; CFactoryTemplate::IsClassID, COMDAT
; Line 284
$LN3:
	mov	QWORD PTR [rsp+16], rdx
	mov	QWORD PTR [rsp+8], rcx
	push	rdi
	sub	rsp, 32					; 00000020H
	mov	rdi, rsp
	mov	ecx, 8
	mov	eax, -858993460				; ccccccccH
	rep stosd
	mov	rcx, QWORD PTR [rsp+48]
; Line 285
	mov	rdx, QWORD PTR rclsid$[rsp]
	mov	rax, QWORD PTR this$[rsp]
	mov	rcx, QWORD PTR [rax+8]
	call	IsEqualGUID
; Line 286
	add	rsp, 32					; 00000020H
	pop	rdi
	ret	0
?IsClassID@CFactoryTemplate@@QEBAHAEBU_GUID@@@Z ENDP	; CFactoryTemplate::IsClassID
_TEXT	ENDS
PUBLIC	?DllInitClasses@@YAXH@Z				; DllInitClasses
;	COMDAT pdata
; File c:\downloads\wpf mediakit - copy\src\filters\baseclasses\dllentry.cpp
pdata	SEGMENT
$pdata$?DllInitClasses@@YAXH@Z DD imagerel $LN7
	DD	imagerel $LN7+128
	DD	imagerel $unwind$?DllInitClasses@@YAXH@Z
pdata	ENDS
;	COMDAT xdata
xdata	SEGMENT
$unwind$?DllInitClasses@@YAXH@Z DD 021c01H
	DD	070055209H
; Function compile flags: /Odtp /RTCsu
xdata	ENDS
;	COMDAT ?DllInitClasses@@YAXH@Z
_TEXT	SEGMENT
i$ = 32
pT$83642 = 40
bLoading$ = 64
?DllInitClasses@@YAXH@Z PROC				; DllInitClasses, COMDAT
; Line 218
$LN7:
	mov	DWORD PTR [rsp+8], ecx
	push	rdi
	sub	rsp, 48					; 00000030H
	mov	rdi, rsp
	mov	ecx, 12
	mov	eax, -858993460				; ccccccccH
	rep stosd
	mov	ecx, DWORD PTR [rsp+64]
; Line 223
	mov	DWORD PTR i$[rsp], 0
	jmp	SHORT $LN4@DllInitCla
$LN3@DllInitCla:
	mov	eax, DWORD PTR i$[rsp]
	inc	eax
	mov	DWORD PTR i$[rsp], eax
$LN4@DllInitCla:
	mov	eax, DWORD PTR ?g_cTemplates@@3HA	; g_cTemplates
	cmp	DWORD PTR i$[rsp], eax
	jge	SHORT $LN2@DllInitCla
; Line 224
	movsxd	rax, DWORD PTR i$[rsp]
	imul	rax, 40					; 00000028H
	lea	rcx, OFFSET FLAT:?g_Templates@@3PAVCFactoryTemplate@@A ; g_Templates
	add	rcx, rax
	mov	rax, rcx
	mov	QWORD PTR pT$83642[rsp], rax
; Line 225
	mov	rax, QWORD PTR pT$83642[rsp]
	cmp	QWORD PTR [rax+24], 0
	je	SHORT $LN1@DllInitCla
; Line 226
	mov	rax, QWORD PTR pT$83642[rsp]
	mov	rdx, QWORD PTR [rax+8]
	mov	ecx, DWORD PTR bLoading$[rsp]
	mov	rax, QWORD PTR pT$83642[rsp]
	call	QWORD PTR [rax+24]
$LN1@DllInitCla:
; Line 228
	jmp	SHORT $LN3@DllInitCla
$LN2@DllInitCla:
; Line 230
	add	rsp, 48					; 00000030H
	pop	rdi
	ret	0
?DllInitClasses@@YAXH@Z ENDP				; DllInitClasses
_TEXT	ENDS
PUBLIC	?IsLocked@CClassFactory@@SAHXZ			; CClassFactory::IsLocked
PUBLIC	?ObjectsActive@CBaseObject@@SAJXZ		; CBaseObject::ObjectsActive
PUBLIC	DllCanUnloadNow
EXTRN	?DbgLogInfo@@YAXKKPEB_WZZ:PROC			; DbgLogInfo
;	COMDAT pdata
pdata	SEGMENT
$pdata$DllCanUnloadNow DD imagerel $LN6
	DD	imagerel $LN6+103
	DD	imagerel $unwind$DllCanUnloadNow
pdata	ENDS
;	COMDAT xdata
xdata	SEGMENT
$unwind$DllCanUnloadNow DD 021501H
	DD	070027206H
; Function compile flags: /Odtp /RTCsu
xdata	ENDS
;	COMDAT DllCanUnloadNow
_TEXT	SEGMENT
tv64 = 48
DllCanUnloadNow PROC					; COMDAT
; Line 241
$LN6:
	push	rdi
	sub	rsp, 64					; 00000040H
	mov	rdi, rsp
	mov	ecx, 16
	mov	eax, -858993460				; ccccccccH
	rep stosd
; Line 244
	call	?ObjectsActive@CBaseObject@@SAJXZ	; CBaseObject::ObjectsActive
	mov	DWORD PTR tv64[rsp], eax
	call	?IsLocked@CClassFactory@@SAHXZ		; CClassFactory::IsLocked
	mov	ecx, DWORD PTR tv64[rsp]
	mov	DWORD PTR [rsp+32], ecx
	mov	r9d, eax
	lea	r8, OFFSET FLAT:$SG83646
	mov	edx, 2
	mov	ecx, 4
	call	?DbgLogInfo@@YAXKKPEB_WZZ		; DbgLogInfo
; Line 246
	call	?IsLocked@CClassFactory@@SAHXZ		; CClassFactory::IsLocked
	test	eax, eax
	jne	SHORT $LN2@DllCanUnlo
	call	?ObjectsActive@CBaseObject@@SAJXZ	; CBaseObject::ObjectsActive
	test	eax, eax
	je	SHORT $LN3@DllCanUnlo
$LN2@DllCanUnlo:
; Line 247
	mov	eax, 1
	jmp	SHORT $LN4@DllCanUnlo
; Line 248
	jmp	SHORT $LN1@DllCanUnlo
$LN3@DllCanUnlo:
; Line 249
	xor	eax, eax
$LN1@DllCanUnlo:
$LN4@DllCanUnlo:
; Line 251
	add	rsp, 64					; 00000040H
	pop	rdi
	ret	0
DllCanUnloadNow ENDP
_TEXT	ENDS
EXTRN	?m_cObjects@CBaseObject@@0JA:DWORD		; CBaseObject::m_cObjects
;	COMDAT pdata
; File c:\downloads\wpf mediakit - copy\src\filters\baseclasses\combase.h
pdata	SEGMENT
$pdata$?ObjectsActive@CBaseObject@@SAJXZ DD imagerel $LN3
	DD	imagerel $LN3+10
	DD	imagerel $unwind$?ObjectsActive@CBaseObject@@SAJXZ
pdata	ENDS
;	COMDAT xdata
xdata	SEGMENT
$unwind$?ObjectsActive@CBaseObject@@SAJXZ DD 010201H
	DD	07002H
; Function compile flags: /Odtp /RTCsu
xdata	ENDS
;	COMDAT ?ObjectsActive@CBaseObject@@SAJXZ
_TEXT	SEGMENT
?ObjectsActive@CBaseObject@@SAJXZ PROC			; CBaseObject::ObjectsActive, COMDAT
; Line 190
$LN3:
	push	rdi
; Line 191
	mov	eax, DWORD PTR ?m_cObjects@CBaseObject@@0JA ; CBaseObject::m_cObjects
; Line 192
	pop	rdi
	ret	0
?ObjectsActive@CBaseObject@@SAJXZ ENDP			; CBaseObject::ObjectsActive
_TEXT	ENDS
;	COMDAT pdata
; File c:\downloads\wpf mediakit - copy\src\filters\baseclasses\dllentry.cpp
pdata	SEGMENT
$pdata$?IsLocked@CClassFactory@@SAHXZ DD imagerel $LN5
	DD	imagerel $LN5+55
	DD	imagerel $unwind$?IsLocked@CClassFactory@@SAHXZ
pdata	ENDS
;	COMDAT xdata
xdata	SEGMENT
$unwind$?IsLocked@CClassFactory@@SAHXZ DD 021501H
	DD	070021206H
; Function compile flags: /Odtp /RTCsu
xdata	ENDS
;	COMDAT ?IsLocked@CClassFactory@@SAHXZ
_TEXT	SEGMENT
tv65 = 0
?IsLocked@CClassFactory@@SAHXZ PROC			; CClassFactory::IsLocked, COMDAT
; Line 58
$LN5:
	push	rdi
	sub	rsp, 16
	mov	rdi, rsp
	mov	ecx, 4
	mov	eax, -858993460				; ccccccccH
	rep stosd
; Line 59
	cmp	DWORD PTR ?m_cLocked@CClassFactory@@0HA, 0 ; CClassFactory::m_cLocked
	jle	SHORT $LN3@IsLocked
	mov	DWORD PTR tv65[rsp], 1
	jmp	SHORT $LN4@IsLocked
$LN3@IsLocked:
	mov	DWORD PTR tv65[rsp], 0
$LN4@IsLocked:
	mov	eax, DWORD PTR tv65[rsp]
; Line 60
	add	rsp, 16
	pop	rdi
	ret	0
?IsLocked@CClassFactory@@SAHXZ ENDP			; CClassFactory::IsLocked
_TEXT	ENDS
PUBLIC	?wcsrchr@@YAPEA_WPEA_W_W@Z			; wcsrchr
PUBLIC	__$ArrayPad$
PUBLIC	DllEntryPoint
EXTRN	__GSHandlerCheck:PROC
EXTRN	?DbgTerminate@@YAXXZ:PROC			; DbgTerminate
EXTRN	?DbgDumpObjectRegister@@YAXXZ:PROC		; DbgDumpObjectRegister
EXTRN	?m_ModuleName@@3PA_WA:BYTE			; m_ModuleName
EXTRN	__imp_wsprintfW:PROC
EXTRN	__imp_GetCurrentProcessId:PROC
EXTRN	__imp_GetCurrentThreadId:PROC
EXTRN	__imp_GetModuleFileNameW:PROC
EXTRN	?DbgSetModuleLevel@@YAXKK@Z:PROC		; DbgSetModuleLevel
EXTRN	__imp_GetVersionExW:PROC
EXTRN	?DbgInitialise@@YAXPEAUHINSTANCE__@@@Z:PROC	; DbgInitialise
EXTRN	__imp_DisableThreadLibraryCalls:PROC
EXTRN	?g_fDbgInDllEntryPoint@@3_NA:BYTE		; g_fDbgInDllEntryPoint
EXTRN	__security_cookie:QWORD
EXTRN	__security_check_cookie:PROC
;	COMDAT pdata
pdata	SEGMENT
$pdata$DllEntryPoint DD imagerel $LN12
	DD	imagerel $LN12+569
	DD	imagerel $unwind$DllEntryPoint
pdata	ENDS
;	COMDAT xdata
xdata	SEGMENT
$unwind$DllEntryPoint DD 033f19H
	DD	0d40116H
	DD	0700fH
	DD	imagerel __GSHandlerCheck
	DD	0698H
xdata	ENDS
;	COMDAT CONST
CONST	SEGMENT
DllEntryPoint$rtcName$0 DB 073H
	DB	07aH
	DB	049H
	DB	06eH
	DB	066H
	DB	06fH
	DB	00H
	ORG $+1
DllEntryPoint$rtcName$1 DB 046H
	DB	075H
	DB	06cH
	DB	06cH
	DB	04eH
	DB	061H
	DB	06dH
	DB	065H
	DB	00H
	ORG $+15
DllEntryPoint$rtcVarDesc DD 0460H
	DD	0208H
	DQ	FLAT:DllEntryPoint$rtcName$1
	DD	040H
	DD	0400H
	DQ	FLAT:DllEntryPoint$rtcName$0
	ORG $+96
DllEntryPoint$rtcFrameData DD 02H
	DD	00H
	DQ	FLAT:DllEntryPoint$rtcVarDesc
; Function compile flags: /Odtp /RTCsu
CONST	ENDS
;	COMDAT DllEntryPoint
_TEXT	SEGMENT
szInfo$83672 = 64
FullName$83674 = 1120
pName$83675 = 1656
cch$83678 = 1664
tv64 = 1680
tv88 = 1684
__$ArrayPad$ = 1688
hInstance$ = 1712
ulReason$ = 1720
pv$ = 1728
DllEntryPoint PROC					; COMDAT
; Line 261
$LN12:
	mov	QWORD PTR [rsp+24], r8
	mov	DWORD PTR [rsp+16], edx
	mov	QWORD PTR [rsp+8], rcx
	push	rdi
	sub	rsp, 1696				; 000006a0H
	mov	rdi, rsp
	mov	ecx, 424				; 000001a8H
	mov	eax, -858993460				; ccccccccH
	rep stosd
	mov	rcx, QWORD PTR [rsp+1712]
	mov	rax, QWORD PTR __security_cookie
	xor	rax, rsp
	mov	QWORD PTR __$ArrayPad$[rsp], rax
; Line 264
	mov	BYTE PTR ?g_fDbgInDllEntryPoint@@3_NA, 1 ; g_fDbgInDllEntryPoint
; Line 267
	mov	eax, DWORD PTR ulReason$[rsp]
	mov	DWORD PTR tv64[rsp], eax
	cmp	DWORD PTR tv64[rsp], 0
	je	$LN4@DllEntryPo
	cmp	DWORD PTR tv64[rsp], 1
	je	SHORT $LN7@DllEntryPo
	jmp	$LN8@DllEntryPo
$LN7@DllEntryPo:
; Line 271
	mov	rcx, QWORD PTR hInstance$[rsp]
	call	QWORD PTR __imp_DisableThreadLibraryCalls
; Line 272
	mov	rcx, QWORD PTR hInstance$[rsp]
	call	?DbgInitialise@@YAXPEAUHINSTANCE__@@@Z	; DbgInitialise
; Line 278
	mov	DWORD PTR ?g_amPlatform@@3KA, 1		; g_amPlatform
; Line 280
	mov	DWORD PTR ?g_osInfo@@3U_OSVERSIONINFOW@@A, 276 ; 00000114H
; Line 281
	lea	rcx, OFFSET FLAT:?g_osInfo@@3U_OSVERSIONINFOW@@A ; g_osInfo
	call	QWORD PTR __imp_GetVersionExW
	test	eax, eax
	je	SHORT $LN6@DllEntryPo
; Line 282
	mov	eax, DWORD PTR ?g_osInfo@@3U_OSVERSIONINFOW@@A+16
	mov	DWORD PTR ?g_amPlatform@@3KA, eax	; g_amPlatform
; Line 283
	jmp	SHORT $LN5@DllEntryPo
$LN6@DllEntryPo:
; Line 284
	lea	r8, OFFSET FLAT:$SG83669
	mov	edx, 1
	mov	ecx, 16
	call	?DbgLogInfo@@YAXKKPEB_WZZ		; DbgLogInfo
$LN5@DllEntryPo:
; Line 288
	mov	rax, QWORD PTR hInstance$[rsp]
	mov	QWORD PTR ?g_hInst@@3PEAUHINSTANCE__@@EA, rax ; g_hInst
; Line 289
	mov	ecx, 1
	call	?DllInitClasses@@YAXH@Z			; DllInitClasses
; Line 290
	jmp	$LN8@DllEntryPo
$LN4@DllEntryPo:
; Line 293
	xor	ecx, ecx
	call	?DllInitClasses@@YAXH@Z			; DllInitClasses
; Line 296
	call	?ObjectsActive@CBaseObject@@SAJXZ	; CBaseObject::ObjectsActive
	test	eax, eax
	je	$LN3@DllEntryPo
; Line 297
	mov	edx, 2
	mov	ecx, 4
	call	?DbgSetModuleLevel@@YAXKK@Z		; DbgSetModuleLevel
; Line 304
	mov	r8d, 260				; 00000104H
	lea	rdx, QWORD PTR FullName$83674[rsp]
	xor	ecx, ecx
	call	QWORD PTR __imp_GetModuleFileNameW
; Line 305
	mov	dx, 92					; 0000005cH
	lea	rcx, QWORD PTR FullName$83674[rsp]
	call	?wcsrchr@@YAPEA_WPEA_W_W@Z		; wcsrchr
	mov	QWORD PTR pName$83675[rsp], rax
; Line 306
	cmp	QWORD PTR pName$83675[rsp], 0
	jne	SHORT $LN2@DllEntryPo
; Line 307
	lea	rax, QWORD PTR FullName$83674[rsp]
	mov	QWORD PTR pName$83675[rsp], rax
; Line 308
	jmp	SHORT $LN1@DllEntryPo
$LN2@DllEntryPo:
; Line 309
	mov	rax, QWORD PTR pName$83675[rsp]
	add	rax, 2
	mov	QWORD PTR pName$83675[rsp], rax
$LN1@DllEntryPo:
; Line 313
	call	QWORD PTR __imp_GetCurrentThreadId
	mov	DWORD PTR tv88[rsp], eax
	call	QWORD PTR __imp_GetCurrentProcessId
	mov	ecx, DWORD PTR tv88[rsp]
	mov	DWORD PTR [rsp+32], ecx
	mov	r9d, eax
	mov	r8, QWORD PTR pName$83675[rsp]
	lea	rdx, OFFSET FLAT:$SG83679
	lea	rcx, QWORD PTR szInfo$83672[rsp]
	call	QWORD PTR __imp_wsprintfW
	mov	DWORD PTR cch$83678[rsp], eax
; Line 316
	call	?ObjectsActive@CBaseObject@@SAJXZ	; CBaseObject::ObjectsActive
	mov	ecx, DWORD PTR cch$83678[rsp]
	lea	rcx, QWORD PTR szInfo$83672[rsp+rcx*2]
	mov	r9d, eax
	lea	r8, OFFSET FLAT:?m_ModuleName@@3PA_WA	; m_ModuleName
	lea	rdx, OFFSET FLAT:$SG83680
	call	QWORD PTR __imp_wsprintfW
; Line 317
	mov	r8d, 317				; 0000013dH
	lea	rdx, OFFSET FLAT:$SG83681
	lea	rcx, QWORD PTR szInfo$83672[rsp]
	call	?DbgAssert@@YAXPEB_W0H@Z		; DbgAssert
; Line 321
	call	?DbgDumpObjectRegister@@YAXXZ		; DbgDumpObjectRegister
$LN3@DllEntryPo:
; Line 323
	call	?DbgTerminate@@YAXXZ			; DbgTerminate
$LN8@DllEntryPo:
; Line 329
	mov	BYTE PTR ?g_fDbgInDllEntryPoint@@3_NA, 0 ; g_fDbgInDllEntryPoint
; Line 331
	mov	eax, 1
; Line 332
	mov	edi, eax
	mov	rcx, rsp
	lea	rdx, OFFSET FLAT:DllEntryPoint$rtcFrameData
	call	_RTC_CheckStackVars
	mov	eax, edi
	mov	rcx, QWORD PTR __$ArrayPad$[rsp]
	xor	rcx, rsp
	call	__security_check_cookie
	add	rsp, 1696				; 000006a0H
	pop	rdi
	ret	0
DllEntryPoint ENDP
_TEXT	ENDS
EXTRN	wcsrchr:PROC
;	COMDAT pdata
; File c:\program files (x86)\microsoft visual studio 10.0\vc\include\string.h
pdata	SEGMENT
$pdata$?wcsrchr@@YAPEA_WPEA_W_W@Z DD imagerel $LN3
	DD	imagerel $LN3+56
	DD	imagerel $unwind$?wcsrchr@@YAPEA_WPEA_W_W@Z
pdata	ENDS
;	COMDAT xdata
xdata	SEGMENT
$unwind$?wcsrchr@@YAPEA_WPEA_W_W@Z DD 022301H
	DD	0700b320fH
; Function compile flags: /Odtp /RTCsu
xdata	ENDS
;	COMDAT ?wcsrchr@@YAPEA_WPEA_W_W@Z
_TEXT	SEGMENT
_Str$ = 48
_Ch$ = 56
?wcsrchr@@YAPEA_WPEA_W_W@Z PROC				; wcsrchr, COMDAT
; Line 366
$LN3:
	mov	WORD PTR [rsp+16], dx
	mov	QWORD PTR [rsp+8], rcx
	push	rdi
	sub	rsp, 32					; 00000020H
	mov	rdi, rsp
	mov	ecx, 8
	mov	eax, -858993460				; ccccccccH
	rep stosd
	mov	rcx, QWORD PTR [rsp+48]
	movzx	edx, WORD PTR _Ch$[rsp]
	mov	rcx, QWORD PTR _Str$[rsp]
	call	wcsrchr
	add	rsp, 32					; 00000020H
	pop	rdi
	ret	0
?wcsrchr@@YAPEA_WPEA_W_W@Z ENDP				; wcsrchr
_TEXT	ENDS
END
