; Listing generated by Microsoft (R) Optimizing Compiler Version 16.00.30319.01 

include listing.inc

INCLUDELIB LIBCMTD
INCLUDELIB OLDNAMES

PUBLIC	IID_IAMFilterGraphCallback
CONST	SEGMENT
$SG82241 DB	'.', 00H, '.', 00H, '\', 00H, 'o', 00H, 'u', 00H, 't', 00H
	DB	'p', 00H, 'u', 00H, 't', 00H, 'q', 00H, '.', 00H, 'c', 00H, 'p'
	DB	00H, 'p', 00H, 00H, 00H
	ORG $+2
$SG82242 DB	'm', 00H, '_', 00H, 'l', 00H, 'B', 00H, 'a', 00H, 't', 00H
	DB	'c', 00H, 'h', 00H, 'S', 00H, 'i', 00H, 'z', 00H, 'e', 00H, ' '
	DB	00H, '>', 00H, ' ', 00H, '0', 00H, 00H, 00H
	ORG $+6
$SG82258 DB	'C', 00H, 'r', 00H, 'e', 00H, 'a', 00H, 't', 00H, 'i', 00H
	DB	'n', 00H, 'g', 00H, ' ', 00H, 't', 00H, 'h', 00H, 'r', 00H, 'e'
	DB	00H, 'a', 00H, 'd', 00H, ' ', 00H, 'f', 00H, 'o', 00H, 'r', 00H
	DB	' ', 00H, 'o', 00H, 'u', 00H, 't', 00H, 'p', 00H, 'u', 00H, 't'
	DB	00H, ' ', 00H, 'p', 00H, 'i', 00H, 'n', 00H, 00H, 00H
	ORG $+2
$SG82324 DB	'S', 00H, 'a', 00H, 'm', 00H, 'p', 00H, 'l', 00H, 'e', 00H
	DB	' ', 00H, 'Q', 00H, 'u', 00H, 'e', 00H, 'u', 00H, 'e', 00H, ' '
	DB	00H, 'L', 00H, 'i', 00H, 's', 00H, 't', 00H, 00H, 00H
	ORG $+4
$SG82336 DB	'C', 00H, 'a', 00H, 'l', 00H, 'l', 00H, 'i', 00H, 'n', 00H
	DB	'g', 00H, ' ', 00H, 'i', 00H, 'n', 00H, 'p', 00H, 'u', 00H, 't'
	DB	00H, ' ', 00H, 'p', 00H, 'i', 00H, 'n', 00H, ' ', 00H, 'd', 00H
	DB	'i', 00H, 'r', 00H, 'e', 00H, 'c', 00H, 't', 00H, 'l', 00H, 'y'
	DB	00H, ' ', 00H, '-', 00H, ' ', 00H, 'n', 00H, 'o', 00H, ' ', 00H
	DB	't', 00H, 'h', 00H, 'r', 00H, 'e', 00H, 'a', 00H, 'd', 00H, 00H
	DB	00H
	ORG $+2
$SG82340 DB	'C', 00H, 'O', 00H, 'u', 00H, 't', 00H, 'p', 00H, 'u', 00H
	DB	't', 00H, 'Q', 00H, 'u', 00H, 'e', 00H, 'u', 00H, 'e', 00H, ':'
	DB	00H, ':', 00H, '~', 00H, 'C', 00H, 'O', 00H, 'u', 00H, 't', 00H
	DB	'p', 00H, 'u', 00H, 't', 00H, 'Q', 00H, 'u', 00H, 'e', 00H, 'u'
	DB	00H, 'e', 00H, 00H, 00H
$SG82346 DB	'.', 00H, '.', 00H, '\', 00H, 'o', 00H, 'u', 00H, 't', 00H
	DB	'p', 00H, 'u', 00H, 't', 00H, 'q', 00H, '.', 00H, 'c', 00H, 'p'
	DB	00H, 'p', 00H, 00H, 00H
	ORG $+2
$SG82347 DB	'C', 00H, 'l', 00H, 'o', 00H, 's', 00H, 'e', 00H, 'H', 00H
	DB	'a', 00H, 'n', 00H, 'd', 00H, 'l', 00H, 'e', 00H, '(', 00H, 'm'
	DB	00H, '_', 00H, 'h', 00H, 'T', 00H, 'h', 00H, 'r', 00H, 'e', 00H
	DB	'a', 00H, 'd', 00H, ')', 00H, 00H, 00H
	ORG $+2
$SG82349 DB	'.', 00H, '.', 00H, '\', 00H, 'o', 00H, 'u', 00H, 't', 00H
	DB	'p', 00H, 'u', 00H, 't', 00H, 'q', 00H, '.', 00H, 'c', 00H, 'p'
	DB	00H, 'p', 00H, 00H, 00H
	ORG $+2
$SG82350 DB	'm', 00H, '_', 00H, 'L', 00H, 'i', 00H, 's', 00H, 't', 00H
	DB	'-', 00H, '>', 00H, 'G', 00H, 'e', 00H, 't', 00H, 'C', 00H, 'o'
	DB	00H, 'u', 00H, 'n', 00H, 't', 00H, '(', 00H, ')', 00H, ' ', 00H
	DB	'=', 00H, '=', 00H, ' ', 00H, '0', 00H, 00H, 00H
$SG82356 DB	'.', 00H, '.', 00H, '\', 00H, 'o', 00H, 'u', 00H, 't', 00H
	DB	'p', 00H, 'u', 00H, 't', 00H, 'q', 00H, '.', 00H, 'c', 00H, 'p'
	DB	00H, 'p', 00H, 00H, 00H
	ORG $+2
$SG82357 DB	'C', 00H, 'l', 00H, 'o', 00H, 's', 00H, 'e', 00H, 'H', 00H
	DB	'a', 00H, 'n', 00H, 'd', 00H, 'l', 00H, 'e', 00H, '(', 00H, 'm'
	DB	00H, '_', 00H, 'h', 00H, 'S', 00H, 'e', 00H, 'm', 00H, ')', 00H
	DB	00H, 00H
$SG82398 DB	'.', 00H, '.', 00H, '\', 00H, 'o', 00H, 'u', 00H, 't', 00H
	DB	'p', 00H, 'u', 00H, 't', 00H, 'q', 00H, '.', 00H, 'c', 00H, 'p'
	DB	00H, 'p', 00H, 00H, 00H
	ORG $+2
$SG82399 DB	'm', 00H, '_', 00H, 'l', 00H, 'W', 00H, 'a', 00H, 'i', 00H
	DB	't', 00H, 'i', 00H, 'n', 00H, 'g', 00H, ' ', 00H, '=', 00H, '='
	DB	00H, ' ', 00H, '0', 00H, 00H, 00H
$SG82410 DB	'.', 00H, '.', 00H, '\', 00H, 'o', 00H, 'u', 00H, 't', 00H
	DB	'p', 00H, 'u', 00H, 't', 00H, 'q', 00H, '.', 00H, 'c', 00H, 'p'
	DB	00H, 'p', 00H, 00H, 00H
	ORG $+2
$SG82411 DB	'p', 00H, 'p', 00H, 'a', 00H, 'c', 00H, 'k', 00H, 'e', 00H
	DB	't', 00H, 00H, 00H
$SG82419 DB	'.', 00H, '.', 00H, '\', 00H, 'o', 00H, 'u', 00H, 't', 00H
	DB	'p', 00H, 'u', 00H, 't', 00H, 'q', 00H, '.', 00H, 'c', 00H, 'p'
	DB	00H, 'p', 00H, 00H, 00H
	ORG $+2
$SG82420 DB	'!', 00H, 'm', 00H, '_', 00H, 'b', 00H, 'F', 00H, 'l', 00H
	DB	'u', 00H, 's', 00H, 'h', 00H, 'e', 00H, 'd', 00H, 00H, 00H
$SG82426 DB	'.', 00H, '.', 00H, '\', 00H, 'o', 00H, 'u', 00H, 't', 00H
	DB	'p', 00H, 'u', 00H, 't', 00H, 'q', 00H, '.', 00H, 'c', 00H, 'p'
	DB	00H, 'p', 00H, 00H, 00H
	ORG $+2
$SG82427 DB	'!', 00H, 'm', 00H, '_', 00H, 'b', 00H, 'F', 00H, 'l', 00H
	DB	'u', 00H, 's', 00H, 'h', 00H, 'e', 00H, 'd', 00H, 00H, 00H
$SG82433 DB	'R', 00H, 'e', 00H, 'c', 00H, 'e', 00H, 'i', 00H, 'v', 00H
	DB	'e', 00H, 'M', 00H, 'u', 00H, 'l', 00H, 't', 00H, 'i', 00H, 'p'
	DB	00H, 'l', 00H, 'e', 00H, ' ', 00H, 'r', 00H, 'e', 00H, 't', 00H
	DB	'u', 00H, 'r', 00H, 'n', 00H, 'e', 00H, 'd', 00H, ' ', 00H, '%'
	DB	00H, '8', 00H, '.', 00H, '8', 00H, 'X', 00H, 00H, 00H
	ORG $+2
$SG82439 DB	'C', 00H, 'O', 00H, 'u', 00H, 't', 00H, 'p', 00H, 'u', 00H
	DB	't', 00H, 'Q', 00H, 'u', 00H, 'e', 00H, 'u', 00H, 'e', 00H, ' '
	DB	00H, 's', 00H, 'e', 00H, 'n', 00H, 'd', 00H, 'i', 00H, 'n', 00H
	DB	'g', 00H, ' ', 00H, 'E', 00H, 'n', 00H, 'd', 00H, 'O', 00H, 'f'
	DB	00H, 'S', 00H, 't', 00H, 'r', 00H, 'e', 00H, 'a', 00H, 'm', 00H
	DB	'(', 00H, ')', 00H, 00H, 00H
	ORG $+10
$SG82443 DB	'C', 00H, 'O', 00H, 'u', 00H, 't', 00H, 'p', 00H, 'u', 00H
	DB	't', 00H, 'Q', 00H, 'u', 00H, 'e', 00H, 'u', 00H, 'e', 00H, ' '
	DB	00H, 'g', 00H, 'o', 00H, 't', 00H, ' ', 00H, 'c', 00H, 'o', 00H
	DB	'd', 00H, 'e', 00H, ' ', 00H, '0', 00H, 'x', 00H, '%', 00H, '8'
	DB	00H, '.', 00H, '8', 00H, 'X', 00H, ' ', 00H, 'f', 00H, 'r', 00H
	DB	'o', 00H, 'm', 00H, ' ', 00H, 'E', 00H, 'n', 00H, 'd', 00H, 'O'
	DB	00H, 'f', 00H, 'S', 00H, 't', 00H, 'r', 00H, 'e', 00H, 'a', 00H
	DB	'm', 00H, '(', 00H, ')', 00H, 00H, 00H
	ORG $+14
$SG82490 DB	'C', 00H, 'O', 00H, 'u', 00H, 't', 00H, 'p', 00H, 'u', 00H
	DB	't', 00H, 'Q', 00H, 'u', 00H, 'e', 00H, 'u', 00H, 'e', 00H, ' '
	DB	00H, 's', 00H, 'e', 00H, 'n', 00H, 'd', 00H, 'i', 00H, 'n', 00H
	DB	'g', 00H, ' ', 00H, 'E', 00H, 'n', 00H, 'd', 00H, 'O', 00H, 'f'
	DB	00H, 'S', 00H, 't', 00H, 'r', 00H, 'e', 00H, 'a', 00H, 'm', 00H
	DB	'(', 00H, ')', 00H, 00H, 00H
	ORG $+10
$SG82494 DB	'C', 00H, 'O', 00H, 'u', 00H, 't', 00H, 'p', 00H, 'u', 00H
	DB	't', 00H, 'Q', 00H, 'u', 00H, 'e', 00H, 'u', 00H, 'e', 00H, ' '
	DB	00H, 'g', 00H, 'o', 00H, 't', 00H, ' ', 00H, 'c', 00H, 'o', 00H
	DB	'd', 00H, 'e', 00H, ' ', 00H, '0', 00H, 'x', 00H, '%', 00H, '8'
	DB	00H, '.', 00H, '8', 00H, 'X', 00H, ' ', 00H, 'f', 00H, 'r', 00H
	DB	'o', 00H, 'm', 00H, ' ', 00H, 'E', 00H, 'n', 00H, 'd', 00H, 'O'
	DB	00H, 'f', 00H, 'S', 00H, 't', 00H, 'r', 00H, 'e', 00H, 'a', 00H
	DB	'm', 00H, '(', 00H, ')', 00H, 00H, 00H
	ORG $+6
$SG82519 DB	'.', 00H, '.', 00H, '\', 00H, 'o', 00H, 'u', 00H, 't', 00H
	DB	'p', 00H, 'u', 00H, 't', 00H, 'q', 00H, '.', 00H, 'c', 00H, 'p'
	DB	00H, 'p', 00H, 00H, 00H
	ORG $+2
$SG82520 DB	'm', 00H, '_', 00H, 'b', 00H, 'F', 00H, 'l', 00H, 'u', 00H
	DB	's', 00H, 'h', 00H, 'i', 00H, 'n', 00H, 'g', 00H, 00H, 00H
$SG82548 DB	'.', 00H, '.', 00H, '\', 00H, 'o', 00H, 'u', 00H, 't', 00H
	DB	'p', 00H, 'u', 00H, 't', 00H, 'q', 00H, '.', 00H, 'c', 00H, 'p'
	DB	00H, 'p', 00H, 00H, 00H
	ORG $+2
$SG82549 DB	'!', 00H, 'm', 00H, '_', 00H, 'b', 00H, 'F', 00H, 'l', 00H
	DB	'u', 00H, 's', 00H, 'h', 00H, 'e', 00H, 'd', 00H, ' ', 00H, '|'
	DB	00H, '|', 00H, ' ', 00H, 'm', 00H, '_', 00H, 'b', 00H, 'F', 00H
	DB	'l', 00H, 'u', 00H, 's', 00H, 'h', 00H, 'i', 00H, 'n', 00H, 'g'
	DB	00H, 00H, 00H
	ORG $+10
$SG82554 DB	'C', 00H, 'O', 00H, 'u', 00H, 't', 00H, 'p', 00H, 'u', 00H
	DB	't', 00H, 'Q', 00H, 'u', 00H, 'e', 00H, 'u', 00H, 'e', 00H, ' '
	DB	00H, '(', 00H, 'd', 00H, 'i', 00H, 'r', 00H, 'e', 00H, 'c', 00H
	DB	't', 00H, ')', 00H, ' ', 00H, ':', 00H, ' ', 00H, 'D', 00H, 'i'
	DB	00H, 's', 00H, 'c', 00H, 'a', 00H, 'r', 00H, 'd', 00H, 'i', 00H
	DB	'n', 00H, 'g', 00H, ' ', 00H, '%', 00H, 'd', 00H, ' ', 00H, 's'
	DB	00H, 'a', 00H, 'm', 00H, 'p', 00H, 'l', 00H, 'e', 00H, 's', 00H
	DB	' ', 00H, 'c', 00H, 'o', 00H, 'd', 00H, 'e', 00H, ' ', 00H, '0'
	DB	00H, 'x', 00H, '%', 00H, '8', 00H, '.', 00H, '8', 00H, 'X', 00H
	DB	00H, 00H
	ORG $+2
$SG82557 DB	'.', 00H, '.', 00H, '\', 00H, 'o', 00H, 'u', 00H, 't', 00H
	DB	'p', 00H, 'u', 00H, 't', 00H, 'q', 00H, '.', 00H, 'c', 00H, 'p'
	DB	00H, 'p', 00H, 00H, 00H
	ORG $+2
$SG82558 DB	'!', 00H, 'm', 00H, '_', 00H, 'b', 00H, 'F', 00H, 'l', 00H
	DB	'u', 00H, 's', 00H, 'h', 00H, 'i', 00H, 'n', 00H, 'g', 00H, 00H
	DB	00H
	ORG $+6
$SG82560 DB	'.', 00H, '.', 00H, '\', 00H, 'o', 00H, 'u', 00H, 't', 00H
	DB	'p', 00H, 'u', 00H, 't', 00H, 'q', 00H, '.', 00H, 'c', 00H, 'p'
	DB	00H, 'p', 00H, 00H, 00H
	ORG $+2
$SG82561 DB	'm', 00H, '_', 00H, 'n', 00H, 'B', 00H, 'a', 00H, 't', 00H
	DB	'c', 00H, 'h', 00H, 'e', 00H, 'd', 00H, ' ', 00H, '<', 00H, ' '
	DB	00H, 'm', 00H, '_', 00H, 'l', 00H, 'B', 00H, 'a', 00H, 't', 00H
	DB	'c', 00H, 'h', 00H, 'S', 00H, 'i', 00H, 'z', 00H, 'e', 00H, 00H
	DB	00H
	ORG $+4
$SG82563 DB	'.', 00H, '.', 00H, '\', 00H, 'o', 00H, 'u', 00H, 't', 00H
	DB	'p', 00H, 'u', 00H, 't', 00H, 'q', 00H, '.', 00H, 'c', 00H, 'p'
	DB	00H, 'p', 00H, 00H, 00H
	ORG $+2
$SG82564 DB	'm', 00H, '_', 00H, 'n', 00H, 'B', 00H, 'a', 00H, 't', 00H
	DB	'c', 00H, 'h', 00H, 'e', 00H, 'd', 00H, ' ', 00H, '=', 00H, '='
	DB	00H, ' ', 00H, '0', 00H, ' ', 00H, '|', 00H, '|', 00H, ' ', 00H
	DB	'm', 00H, '_', 00H, 'b', 00H, 'B', 00H, 'a', 00H, 't', 00H, 'c'
	DB	00H, 'h', 00H, 'E', 00H, 'x', 00H, 'a', 00H, 'c', 00H, 't', 00H
	DB	00H, 00H
	ORG $+6
$SG82572 DB	'.', 00H, '.', 00H, '\', 00H, 'o', 00H, 'u', 00H, 't', 00H
	DB	'p', 00H, 'u', 00H, 't', 00H, 'q', 00H, '.', 00H, 'c', 00H, 'p'
	DB	00H, 'p', 00H, 00H, 00H
	ORG $+2
$SG82573 DB	'm', 00H, '_', 00H, 'n', 00H, 'B', 00H, 'a', 00H, 't', 00H
	DB	'c', 00H, 'h', 00H, 'e', 00H, 'd', 00H, ' ', 00H, '<', 00H, ' '
	DB	00H, 'm', 00H, '_', 00H, 'l', 00H, 'B', 00H, 'a', 00H, 't', 00H
	DB	'c', 00H, 'h', 00H, 'S', 00H, 'i', 00H, 'z', 00H, 'e', 00H, 00H
	DB	00H
	ORG $+4
$SG82579 DB	'B', 00H, 'a', 00H, 't', 00H, 'c', 00H, 'h', 00H, 'i', 00H
	DB	'n', 00H, 'g', 00H, ' ', 00H, '%', 00H, 'd', 00H, ' ', 00H, 's'
	DB	00H, 'a', 00H, 'm', 00H, 'p', 00H, 'l', 00H, 'e', 00H, 's', 00H
	DB	00H, 00H
	ORG $+8
$SG82592 DB	'C', 00H, 'O', 00H, 'u', 00H, 't', 00H, 'p', 00H, 'u', 00H
	DB	't', 00H, 'Q', 00H, 'u', 00H, 'e', 00H, 'u', 00H, 'e', 00H, ' '
	DB	00H, '(', 00H, 'q', 00H, 'u', 00H, 'e', 00H, 'u', 00H, 'e', 00H
	DB	'd', 00H, ')', 00H, ' ', 00H, ':', 00H, ' ', 00H, 'D', 00H, 'i'
	DB	00H, 's', 00H, 'c', 00H, 'a', 00H, 'r', 00H, 'd', 00H, 'i', 00H
	DB	'n', 00H, 'g', 00H, ' ', 00H, '%', 00H, 'd', 00H, ' ', 00H, 's'
	DB	00H, 'a', 00H, 'm', 00H, 'p', 00H, 'l', 00H, 'e', 00H, 's', 00H
	DB	' ', 00H, 'c', 00H, 'o', 00H, 'd', 00H, 'e', 00H, ' ', 00H, '0'
	DB	00H, 'x', 00H, '%', 00H, '8', 00H, '.', 00H, '8', 00H, 'X', 00H
	DB	00H, 00H
	ORG $+2
$SG82635 DB	'.', 00H, '.', 00H, '\', 00H, 'o', 00H, 'u', 00H, 't', 00H
	DB	'p', 00H, 'u', 00H, 't', 00H, 'q', 00H, '.', 00H, 'c', 00H, 'p'
	DB	00H, 'p', 00H, 00H, 00H
	ORG $+2
$SG82636 DB	'p', 00H, 'p', 00H, 'a', 00H, 'c', 00H, 'k', 00H, 'e', 00H
	DB	't', 00H, ' ', 00H, '!', 00H, '=', 00H, ' ', 00H, 'N', 00H, 'U'
	DB	00H, 'L', 00H, 'L', 00H, 00H, 00H
$SG82646 DB	'.', 00H, '.', 00H, '\', 00H, 'o', 00H, 'u', 00H, 't', 00H
	DB	'p', 00H, 'u', 00H, 't', 00H, 'q', 00H, '.', 00H, 'c', 00H, 'p'
	DB	00H, 'p', 00H, 00H, 00H
	ORG $+2
$SG82647 DB	'I', 00H, 's', 00H, 'Q', 00H, 'u', 00H, 'e', 00H, 'u', 00H
	DB	'e', 00H, 'd', 00H, '(', 00H, ')', 00H, 00H, 00H
	ORG $+2
$SG82659 DB	'.', 00H, '.', 00H, '\', 00H, 'o', 00H, 'u', 00H, 't', 00H
	DB	'p', 00H, 'u', 00H, 't', 00H, 'q', 00H, '.', 00H, 'c', 00H, 'p'
	DB	00H, 'p', 00H, 00H, 00H
	ORG $+2
$SG82660 DB	'!', 00H, 'I', 00H, 's', 00H, 'Q', 00H, 'u', 00H, 'e', 00H
	DB	'u', 00H, 'e', 00H, 'd', 00H, '(', 00H, ')', 00H, ' ', 00H, '|'
	DB	00H, '|', 00H, ' ', 00H, 'm', 00H, '_', 00H, 'L', 00H, 'i', 00H
	DB	's', 00H, 't', 00H, '-', 00H, '>', 00H, 'G', 00H, 'e', 00H, 't'
	DB	00H, 'C', 00H, 'o', 00H, 'u', 00H, 'n', 00H, 't', 00H, '(', 00H
	DB	')', 00H, ' ', 00H, '=', 00H, '=', 00H, ' ', 00H, '0', 00H, 00H
	DB	00H
CONST	ENDS
;	COMDAT IID_IAMFilterGraphCallback
CONST	SEGMENT
IID_IAMFilterGraphCallback DD 056a868fdH
	DW	0ad4H
	DW	011ceH
	DB	0b0H
	DB	0a3H
	DB	00H
	DB	020H
	DB	0afH
	DB	0bH
	DB	0a7H
	DB	070H
CONST	ENDS
PUBLIC	?InitialThreadProc@COutputQueue@@KAKPEAX@Z	; COutputQueue::InitialThreadProc
PUBLIC	??0?$CGenericList@UIMediaSample@@@@QEAA@PEA_WHHH@Z ; CGenericList<IMediaSample>::CGenericList<IMediaSample>
PUBLIC	??0COutputQueue@@QEAA@PEAUIPin@@PEAJHHJHJK_N@Z	; COutputQueue::COutputQueue
EXTRN	__CxxFrameHandler3:PROC
EXTRN	??3@YAXPEAX@Z:PROC				; operator delete
EXTRN	??1CAMEvent@@QEAA@XZ:PROC			; CAMEvent::~CAMEvent
EXTRN	??1CCritSec@@QEAA@XZ:PROC			; CCritSec::~CCritSec
EXTRN	__imp_SetThreadPriority:PROC
EXTRN	__imp_CreateThread:PROC
EXTRN	__imp_GetLastError:PROC
EXTRN	__imp_CreateSemaphoreW:PROC
EXTRN	?DbgLogInfo@@YAXKKPEB_WZZ:PROC			; DbgLogInfo
EXTRN	??2@YAPEAX_K@Z:PROC				; operator new
EXTRN	IID_IMemInputPin:BYTE
EXTRN	?DbgAssert@@YAXPEB_W0H@Z:PROC			; DbgAssert
EXTRN	??0CAMEvent@@QEAA@H@Z:PROC			; CAMEvent::CAMEvent
EXTRN	??0CCritSec@@QEAA@XZ:PROC			; CCritSec::CCritSec
EXTRN	_RTC_CheckStackVars:PROC
EXTRN	_RTC_Shutdown:PROC
EXTRN	_RTC_InitBase:PROC
;	COMDAT pdata
; File c:\downloads\wpf mediakit - copy\src\filters\baseclasses\outputq.cpp
pdata	SEGMENT
$pdata$??0COutputQueue@@QEAA@PEAUIPin@@PEAJHHJHJK_N@Z DD imagerel $LN23
	DD	imagerel $LN23+1230
	DD	imagerel $unwind$??0COutputQueue@@QEAA@PEAUIPin@@PEAJHHJHJK_N@Z
pdata	ENDS
;	COMDAT pdata
pdata	SEGMENT
$pdata$?dtor$0@?0???0COutputQueue@@QEAA@PEAUIPin@@PEAJHHJHJK_N@Z@4HA DD imagerel ?dtor$0@?0???0COutputQueue@@QEAA@PEAUIPin@@PEAJHHJHJK_N@Z@4HA
	DD	imagerel ?dtor$0@?0???0COutputQueue@@QEAA@PEAUIPin@@PEAJHHJHJK_N@Z@4HA+38
	DD	imagerel $unwind$?dtor$0@?0???0COutputQueue@@QEAA@PEAUIPin@@PEAJHHJHJK_N@Z@4HA
pdata	ENDS
;	COMDAT pdata
pdata	SEGMENT
$pdata$?dtor$1@?0???0COutputQueue@@QEAA@PEAUIPin@@PEAJHHJHJK_N@Z@4HA DD imagerel ?dtor$1@?0???0COutputQueue@@QEAA@PEAUIPin@@PEAJHHJHJK_N@Z@4HA
	DD	imagerel ?dtor$1@?0???0COutputQueue@@QEAA@PEAUIPin@@PEAJHHJHJK_N@Z@4HA+42
	DD	imagerel $unwind$?dtor$1@?0???0COutputQueue@@QEAA@PEAUIPin@@PEAJHHJHJK_N@Z@4HA
pdata	ENDS
;	COMDAT pdata
pdata	SEGMENT
$pdata$?dtor$2@?0???0COutputQueue@@QEAA@PEAUIPin@@PEAJHHJHJK_N@Z@4HA DD imagerel ?dtor$2@?0???0COutputQueue@@QEAA@PEAUIPin@@PEAJHHJHJK_N@Z@4HA
	DD	imagerel ?dtor$2@?0???0COutputQueue@@QEAA@PEAUIPin@@PEAJHHJHJK_N@Z@4HA+35
	DD	imagerel $unwind$?dtor$2@?0???0COutputQueue@@QEAA@PEAUIPin@@PEAJHHJHJK_N@Z@4HA
pdata	ENDS
;	COMDAT xdata
xdata	SEGMENT
$ip2state$??0COutputQueue@@QEAA@PEAUIPin@@PEAJHHJHJK_N@Z DD imagerel ??0COutputQueue@@QEAA@PEAUIPin@@PEAJHHJHJK_N@Z
	DD	0ffffffffH
	DD	imagerel ??0COutputQueue@@QEAA@PEAUIPin@@PEAJHHJHJK_N@Z+74
	DD	00H
	DD	imagerel ??0COutputQueue@@QEAA@PEAUIPin@@PEAJHHJHJK_N@Z+236
	DD	01H
	DD	imagerel ??0COutputQueue@@QEAA@PEAUIPin@@PEAJHHJHJK_N@Z+911
	DD	02H
	DD	imagerel ??0COutputQueue@@QEAA@PEAUIPin@@PEAJHHJHJK_N@Z+990
	DD	01H
	DD	imagerel ??0COutputQueue@@QEAA@PEAUIPin@@PEAJHHJHJK_N@Z+1192
	DD	0ffffffffH
xdata	ENDS
;	COMDAT xdata
xdata	SEGMENT
$unwind$?dtor$2@?0???0COutputQueue@@QEAA@PEAUIPin@@PEAJHHJHJK_N@Z@4HA DD 031001H
	DD	0700c4210H
	DD	0500bH
xdata	ENDS
;	COMDAT xdata
xdata	SEGMENT
$unwind$?dtor$1@?0???0COutputQueue@@QEAA@PEAUIPin@@PEAJHHJHJK_N@Z@4HA DD 031001H
	DD	0700c4210H
	DD	0500bH
xdata	ENDS
;	COMDAT xdata
xdata	SEGMENT
$unwind$?dtor$0@?0???0COutputQueue@@QEAA@PEAUIPin@@PEAJHHJHJK_N@Z@4HA DD 031001H
	DD	0700c4210H
	DD	0500bH
xdata	ENDS
;	COMDAT xdata
xdata	SEGMENT
$unwind$??0COutputQueue@@QEAA@PEAUIPin@@PEAJHHJHJK_N@Z DD 033c11H
	DD	014011cH
	DD	07015H
	DD	imagerel __CxxFrameHandler3
	DD	imagerel $cppxdata$??0COutputQueue@@QEAA@PEAUIPin@@PEAJHHJHJK_N@Z
xdata	ENDS
;	COMDAT xdata
xdata	SEGMENT
$stateUnwindMap$??0COutputQueue@@QEAA@PEAUIPin@@PEAJHHJHJK_N@Z DD 0ffffffffH
	DD	imagerel ?dtor$0@?0???0COutputQueue@@QEAA@PEAUIPin@@PEAJHHJHJK_N@Z@4HA
	DD	00H
	DD	imagerel ?dtor$1@?0???0COutputQueue@@QEAA@PEAUIPin@@PEAJHHJHJK_N@Z@4HA
	DD	01H
	DD	imagerel ?dtor$2@?0???0COutputQueue@@QEAA@PEAUIPin@@PEAJHHJHJK_N@Z@4HA
xdata	ENDS
;	COMDAT CONST
CONST	SEGMENT
??0COutputQueue@@QEAA@PEAUIPin@@PEAJHHJHJK_N@Z$rtcName$0 DB 064H ; COutputQueue::COutputQueue
	DB	077H
	DB	054H
	DB	068H
	DB	072H
	DB	065H
	DB	061H
	DB	064H
	DB	049H
	DB	064H
	DB	00H
	ORG $+5
??0COutputQueue@@QEAA@PEAUIPin@@PEAJHHJHJK_N@Z$rtcVarDesc DD 044H ; COutputQueue::COutputQueue
	DD	04H
	DQ	FLAT:??0COutputQueue@@QEAA@PEAUIPin@@PEAJHHJHJK_N@Z$rtcName$0
	ORG $+48
??0COutputQueue@@QEAA@PEAUIPin@@PEAJHHJHJK_N@Z$rtcFrameData DD 01H ; COutputQueue::COutputQueue
	DD	00H
	DQ	FLAT:??0COutputQueue@@QEAA@PEAUIPin@@PEAJHHJHJK_N@Z$rtcVarDesc
$cppxdata$??0COutputQueue@@QEAA@PEAUIPin@@PEAJHHJHJK_N@Z DD 019930522H
	DD	03H
	DD	imagerel $stateUnwindMap$??0COutputQueue@@QEAA@PEAUIPin@@PEAJHHJHJK_N@Z
	DD	00H
	DD	00H
	DD	06H
	DD	imagerel $ip2state$??0COutputQueue@@QEAA@PEAUIPin@@PEAJHHJHJK_N@Z
	DD	070H
	DD	00H
	DD	01H
CONST	ENDS
;	COMDAT rtc$TMZ
rtc$TMZ	SEGMENT
_RTC_Shutdown.rtc$TMZ DQ FLAT:_RTC_Shutdown
rtc$TMZ	ENDS
;	COMDAT rtc$IMZ
rtc$IMZ	SEGMENT
_RTC_InitBase.rtc$IMZ DQ FLAT:_RTC_InitBase
; Function compile flags: /Odtp /RTCsu
rtc$IMZ	ENDS
;	COMDAT ??0COutputQueue@@QEAA@PEAUIPin@@PEAJHHJHJK_N@Z
_TEXT	SEGMENT
hr$82249 = 48
dwError$82260 = 52
dwThreadId$82327 = 68
dwError$82330 = 84
$T83179 = 88
$T83180 = 96
$T83181 = 104
$T83201 = 112
tv80 = 120
tv144 = 128
tv162 = 136
tv166 = 144
tv201 = 152
this$ = 176
pInputPin$ = 184
phr$ = 192
bAuto$ = 200
bQueue$ = 208
lBatchSize$ = 216
bBatchExact$ = 224
lListSize$ = 232
dwPriority$ = 240
bFlushingOpt$ = 248
??0COutputQueue@@QEAA@PEAUIPin@@PEAJHHJHJK_N@Z PROC	; COutputQueue::COutputQueue, COMDAT
; Line 70
$LN23:
	mov	DWORD PTR [rsp+32], r9d
	mov	QWORD PTR [rsp+24], r8
	mov	QWORD PTR [rsp+16], rdx
	mov	QWORD PTR [rsp+8], rcx
	push	rdi
	sub	rsp, 160				; 000000a0H
	mov	rdi, rsp
	mov	ecx, 40					; 00000028H
	mov	eax, -858993460				; ccccccccH
	rep stosd
	mov	rcx, QWORD PTR [rsp+176]
	mov	QWORD PTR $T83201[rsp], -2
	mov	rcx, QWORD PTR this$[rsp]
	call	??0CCritSec@@QEAA@XZ			; CCritSec::CCritSec
	npad	1
	mov	rax, QWORD PTR this$[rsp]
	mov	rcx, QWORD PTR pInputPin$[rsp]
	mov	QWORD PTR [rax+56], rcx
	mov	rax, QWORD PTR this$[rsp]
	mov	QWORD PTR [rax+64], 0
	cmp	DWORD PTR bBatchExact$[rsp], 0
	je	SHORT $LN14@COutputQue
	cmp	DWORD PTR lBatchSize$[rsp], 1
	jle	SHORT $LN14@COutputQue
	mov	DWORD PTR tv80[rsp], 1
	jmp	SHORT $LN15@COutputQue
$LN14@COutputQue:
	mov	DWORD PTR tv80[rsp], 0
$LN15@COutputQue:
	mov	rax, QWORD PTR this$[rsp]
	mov	ecx, DWORD PTR tv80[rsp]
	mov	DWORD PTR [rax+72], ecx
	mov	rax, QWORD PTR this$[rsp]
	mov	ecx, DWORD PTR lBatchSize$[rsp]
	mov	DWORD PTR [rax+76], ecx
	mov	rax, QWORD PTR this$[rsp]
	mov	QWORD PTR [rax+80], 0
	mov	rax, QWORD PTR this$[rsp]
	mov	QWORD PTR [rax+88], 0
	mov	rax, QWORD PTR this$[rsp]
	add	rax, 96					; 00000060H
	xor	edx, edx
	mov	rcx, rax
	call	??0CAMEvent@@QEAA@H@Z			; CAMEvent::CAMEvent
	npad	1
	mov	rax, QWORD PTR this$[rsp]
	mov	QWORD PTR [rax+104], 0
	mov	rax, QWORD PTR this$[rsp]
	mov	QWORD PTR [rax+112], 0
	mov	rax, QWORD PTR this$[rsp]
	mov	DWORD PTR [rax+120], 0
	mov	rax, QWORD PTR this$[rsp]
	mov	DWORD PTR [rax+124], 0
	mov	rax, QWORD PTR this$[rsp]
	mov	DWORD PTR [rax+128], 0
	mov	rax, QWORD PTR this$[rsp]
	mov	DWORD PTR [rax+132], 1
	mov	rax, QWORD PTR this$[rsp]
	movzx	ecx, BYTE PTR bFlushingOpt$[rsp]
	mov	BYTE PTR [rax+136], cl
	mov	rax, QWORD PTR this$[rsp]
	mov	DWORD PTR [rax+140], 0
	mov	rax, QWORD PTR this$[rsp]
	mov	DWORD PTR [rax+144], 0
	mov	rax, QWORD PTR this$[rsp]
	mov	DWORD PTR [rax+148], 0
	mov	rax, QWORD PTR this$[rsp]
	mov	QWORD PTR [rax+152], 0
; Line 71
	mov	rax, QWORD PTR this$[rsp]
	cmp	DWORD PTR [rax+76], 0
	jg	SHORT $LN11@COutputQue
	mov	r8d, 71					; 00000047H
	lea	rdx, OFFSET FLAT:$SG82241
	lea	rcx, OFFSET FLAT:$SG82242
	call	?DbgAssert@@YAXPEB_W0H@Z		; DbgAssert
$LN11@COutputQue:
; Line 74
	mov	rax, QWORD PTR phr$[rsp]
	cmp	DWORD PTR [rax], 0
	jge	SHORT $LN10@COutputQue
; Line 75
	jmp	$LN12@COutputQue
$LN10@COutputQue:
; Line 80
	mov	rax, QWORD PTR this$[rsp]
	add	rax, 64					; 00000040H
	mov	rcx, QWORD PTR pInputPin$[rsp]
	mov	rcx, QWORD PTR [rcx]
	mov	QWORD PTR tv144[rsp], rcx
	mov	r8, rax
	lea	rdx, OFFSET FLAT:IID_IMemInputPin
	mov	rcx, QWORD PTR pInputPin$[rsp]
	mov	rax, QWORD PTR tv144[rsp]
	call	QWORD PTR [rax]
	mov	rcx, QWORD PTR phr$[rsp]
	mov	DWORD PTR [rcx], eax
; Line 81
	mov	rax, QWORD PTR phr$[rsp]
	cmp	DWORD PTR [rax], 0
	jge	SHORT $LN9@COutputQue
; Line 82
	jmp	$LN12@COutputQue
$LN9@COutputQue:
; Line 87
	cmp	DWORD PTR bAuto$[rsp], 0
	je	SHORT $LN8@COutputQue
; Line 88
	mov	rax, QWORD PTR this$[rsp]
	mov	rax, QWORD PTR [rax+64]
	mov	rcx, QWORD PTR this$[rsp]
	mov	rcx, QWORD PTR [rcx+64]
	mov	rax, QWORD PTR [rax]
	call	QWORD PTR [rax+64]
	mov	DWORD PTR hr$82249[rsp], eax
; Line 89
	cmp	DWORD PTR hr$82249[rsp], 0
	jl	SHORT $LN8@COutputQue
; Line 90
	cmp	DWORD PTR hr$82249[rsp], 0
	jne	SHORT $LN16@COutputQue
	mov	DWORD PTR tv162[rsp], 1
	jmp	SHORT $LN17@COutputQue
$LN16@COutputQue:
	mov	DWORD PTR tv162[rsp], 0
$LN17@COutputQue:
	mov	eax, DWORD PTR tv162[rsp]
	mov	DWORD PTR bQueue$[rsp], eax
$LN8@COutputQue:
; Line 96
	mov	rax, QWORD PTR this$[rsp]
	movsxd	rax, DWORD PTR [rax+76]
	mov	QWORD PTR tv166[rsp], rax
	mov	eax, 8
	mov	rcx, QWORD PTR tv166[rsp]
	mul	rcx
	mov	rcx, -1
	cmovo	rax, rcx
	mov	rcx, rax
	call	??2@YAPEAX_K@Z				; operator new
	mov	QWORD PTR $T83179[rsp], rax
	mov	rax, QWORD PTR this$[rsp]
	mov	rcx, QWORD PTR $T83179[rsp]
	mov	QWORD PTR [rax+112], rcx
; Line 97
	mov	rax, QWORD PTR this$[rsp]
	cmp	QWORD PTR [rax+112], 0
	jne	SHORT $LN6@COutputQue
; Line 98
	mov	rax, QWORD PTR phr$[rsp]
	mov	DWORD PTR [rax], -2147024882		; ffffffff8007000eH
; Line 99
	jmp	$LN12@COutputQue
$LN6@COutputQue:
; Line 104
	cmp	DWORD PTR bQueue$[rsp], 0
	je	$LN5@COutputQue
; Line 105
	lea	r8, OFFSET FLAT:$SG82258
	mov	edx, 2
	mov	ecx, 2
	call	?DbgLogInfo@@YAXKKPEB_WZZ		; DbgLogInfo
; Line 106
	xor	r9d, r9d
	mov	r8d, 2147483647				; 7fffffffH
	xor	edx, edx
	xor	ecx, ecx
	call	QWORD PTR __imp_CreateSemaphoreW
	mov	rcx, QWORD PTR this$[rsp]
	mov	QWORD PTR [rcx+88], rax
; Line 107
	mov	rax, QWORD PTR this$[rsp]
	cmp	QWORD PTR [rax+88], 0
	jne	SHORT $LN4@COutputQue
; Line 108
	call	QWORD PTR __imp_GetLastError
	mov	DWORD PTR dwError$82260[rsp], eax
; Line 109
	mov	eax, DWORD PTR dwError$82260[rsp]
	or	eax, -2147024896			; 80070000H
	mov	rcx, QWORD PTR phr$[rsp]
	mov	DWORD PTR [rcx], eax
; Line 110
	jmp	$LN12@COutputQue
$LN4@COutputQue:
; Line 115
	mov	ecx, 48					; 00000030H
	call	??2@YAPEAX_K@Z				; operator new
	mov	QWORD PTR $T83181[rsp], rax
	cmp	QWORD PTR $T83181[rsp], 0
	je	SHORT $LN18@COutputQue
	mov	DWORD PTR [rsp+32], 0
	xor	r9d, r9d
	mov	r8d, DWORD PTR lListSize$[rsp]
	lea	rdx, OFFSET FLAT:$SG82324
	mov	rcx, QWORD PTR $T83181[rsp]
	call	??0?$CGenericList@UIMediaSample@@@@QEAA@PEA_WHHH@Z ; CGenericList<IMediaSample>::CGenericList<IMediaSample>
	mov	QWORD PTR tv201[rsp], rax
	jmp	SHORT $LN19@COutputQue
$LN18@COutputQue:
	mov	QWORD PTR tv201[rsp], 0
$LN19@COutputQue:
	mov	rax, QWORD PTR tv201[rsp]
	mov	QWORD PTR $T83180[rsp], rax
	mov	rax, QWORD PTR this$[rsp]
	mov	rcx, QWORD PTR $T83180[rsp]
	mov	QWORD PTR [rax+80], rcx
; Line 116
	mov	rax, QWORD PTR this$[rsp]
	cmp	QWORD PTR [rax+80], 0
	jne	SHORT $LN3@COutputQue
; Line 117
	mov	rax, QWORD PTR phr$[rsp]
	mov	DWORD PTR [rax], -2147024882		; ffffffff8007000eH
; Line 118
	jmp	$LN12@COutputQue
$LN3@COutputQue:
; Line 128
	lea	rax, QWORD PTR dwThreadId$82327[rsp]
	mov	QWORD PTR [rsp+40], rax
	mov	DWORD PTR [rsp+32], 0
	mov	r9, QWORD PTR this$[rsp]
	lea	r8, OFFSET FLAT:?InitialThreadProc@COutputQueue@@KAKPEAX@Z ; COutputQueue::InitialThreadProc
	xor	edx, edx
	xor	ecx, ecx
	call	QWORD PTR __imp_CreateThread
	mov	rcx, QWORD PTR this$[rsp]
	mov	QWORD PTR [rcx+104], rax
; Line 129
	mov	rax, QWORD PTR this$[rsp]
	cmp	QWORD PTR [rax+104], 0
	jne	SHORT $LN2@COutputQue
; Line 130
	call	QWORD PTR __imp_GetLastError
	mov	DWORD PTR dwError$82330[rsp], eax
; Line 131
	mov	eax, DWORD PTR dwError$82330[rsp]
	or	eax, -2147024896			; 80070000H
	mov	rcx, QWORD PTR phr$[rsp]
	mov	DWORD PTR [rcx], eax
; Line 132
	jmp	SHORT $LN12@COutputQue
$LN2@COutputQue:
; Line 134
	mov	edx, DWORD PTR dwPriority$[rsp]
	mov	rax, QWORD PTR this$[rsp]
	mov	rcx, QWORD PTR [rax+104]
	call	QWORD PTR __imp_SetThreadPriority
; Line 135
	jmp	SHORT $LN12@COutputQue
$LN5@COutputQue:
; Line 136
	lea	r8, OFFSET FLAT:$SG82336
	mov	edx, 2
	mov	ecx, 2
	call	?DbgLogInfo@@YAXKKPEB_WZZ		; DbgLogInfo
	npad	1
$LN12@COutputQue:
; Line 138
	mov	rax, QWORD PTR this$[rsp]
	mov	rdi, rax
	mov	rcx, rsp
	lea	rdx, OFFSET FLAT:??0COutputQueue@@QEAA@PEAUIPin@@PEAJHHJHJK_N@Z$rtcFrameData
	call	_RTC_CheckStackVars
	mov	rax, rdi
	add	rsp, 160				; 000000a0H
	pop	rdi
	ret	0
??0COutputQueue@@QEAA@PEAUIPin@@PEAJHHJHJK_N@Z ENDP	; COutputQueue::COutputQueue
; Function compile flags: /Odtp /RTCsu
_TEXT	ENDS
;	COMDAT text$x
text$x	SEGMENT
hr$82249 = 48
dwError$82260 = 52
dwThreadId$82327 = 68
dwError$82330 = 84
$T83179 = 88
$T83180 = 96
$T83181 = 104
$T83201 = 112
tv80 = 120
tv144 = 128
tv162 = 136
tv166 = 144
tv201 = 152
this$ = 176
pInputPin$ = 184
phr$ = 192
bAuto$ = 200
bQueue$ = 208
lBatchSize$ = 216
bBatchExact$ = 224
lListSize$ = 232
dwPriority$ = 240
bFlushingOpt$ = 248
?dtor$0@?0???0COutputQueue@@QEAA@PEAUIPin@@PEAJHHJHJK_N@Z@4HA PROC ; `COutputQueue::COutputQueue'::`1'::dtor$0
	mov	QWORD PTR [rsp+8], rcx
	mov	QWORD PTR [rsp+16], rdx
	push	rbp
	push	rdi
	sub	rsp, 40					; 00000028H
	mov	rbp, rdx
	mov	rcx, QWORD PTR this$[rbp]
	call	??1CCritSec@@QEAA@XZ			; CCritSec::~CCritSec
	add	rsp, 40					; 00000028H
	pop	rdi
	pop	rbp
	ret	0
?dtor$0@?0???0COutputQueue@@QEAA@PEAUIPin@@PEAJHHJHJK_N@Z@4HA ENDP ; `COutputQueue::COutputQueue'::`1'::dtor$0
; Function compile flags: /Odtp /RTCsu
hr$82249 = 48
dwError$82260 = 52
dwThreadId$82327 = 68
dwError$82330 = 84
$T83179 = 88
$T83180 = 96
$T83181 = 104
$T83201 = 112
tv80 = 120
tv144 = 128
tv162 = 136
tv166 = 144
tv201 = 152
this$ = 176
pInputPin$ = 184
phr$ = 192
bAuto$ = 200
bQueue$ = 208
lBatchSize$ = 216
bBatchExact$ = 224
lListSize$ = 232
dwPriority$ = 240
bFlushingOpt$ = 248
?dtor$1@?0???0COutputQueue@@QEAA@PEAUIPin@@PEAJHHJHJK_N@Z@4HA PROC ; `COutputQueue::COutputQueue'::`1'::dtor$1
	mov	QWORD PTR [rsp+8], rcx
	mov	QWORD PTR [rsp+16], rdx
	push	rbp
	push	rdi
	sub	rsp, 40					; 00000028H
	mov	rbp, rdx
	mov	rcx, QWORD PTR this$[rbp]
	add	rcx, 96					; 00000060H
	call	??1CAMEvent@@QEAA@XZ			; CAMEvent::~CAMEvent
	add	rsp, 40					; 00000028H
	pop	rdi
	pop	rbp
	ret	0
?dtor$1@?0???0COutputQueue@@QEAA@PEAUIPin@@PEAJHHJHJK_N@Z@4HA ENDP ; `COutputQueue::COutputQueue'::`1'::dtor$1
; Function compile flags: /Odtp /RTCsu
hr$82249 = 48
dwError$82260 = 52
dwThreadId$82327 = 68
dwError$82330 = 84
$T83179 = 88
$T83180 = 96
$T83181 = 104
$T83201 = 112
tv80 = 120
tv144 = 128
tv162 = 136
tv166 = 144
tv201 = 152
this$ = 176
pInputPin$ = 184
phr$ = 192
bAuto$ = 200
bQueue$ = 208
lBatchSize$ = 216
bBatchExact$ = 224
lListSize$ = 232
dwPriority$ = 240
bFlushingOpt$ = 248
?dtor$2@?0???0COutputQueue@@QEAA@PEAUIPin@@PEAJHHJHJK_N@Z@4HA PROC ; `COutputQueue::COutputQueue'::`1'::dtor$2
	mov	QWORD PTR [rsp+8], rcx
	mov	QWORD PTR [rsp+16], rdx
	push	rbp
	push	rdi
	sub	rsp, 40					; 00000028H
	mov	rbp, rdx
	mov	rcx, QWORD PTR $T83181[rbp]
	call	??3@YAXPEAX@Z				; operator delete
	add	rsp, 40					; 00000028H
	pop	rdi
	pop	rbp
	ret	0
?dtor$2@?0???0COutputQueue@@QEAA@PEAUIPin@@PEAJHHJHJK_N@Z@4HA ENDP ; `COutputQueue::COutputQueue'::`1'::dtor$2
text$x	ENDS
PUBLIC	?FreeSamples@COutputQueue@@IEAAXXZ		; COutputQueue::FreeSamples
PUBLIC	??_G?$CGenericList@UIMediaSample@@@@QEAAPEAXI@Z	; CGenericList<IMediaSample>::`scalar deleting destructor'
PUBLIC	?GetCount@?$CGenericList@UIMediaSample@@@@QEBAHXZ ; CGenericList<IMediaSample>::GetCount
PUBLIC	??1CAutoLock@@QEAA@XZ				; CAutoLock::~CAutoLock
PUBLIC	?NotifyThread@COutputQueue@@IEAAXXZ		; COutputQueue::NotifyThread
PUBLIC	??0CAutoLock@@QEAA@PEAVCCritSec@@@Z		; CAutoLock::CAutoLock
PUBLIC	??1COutputQueue@@QEAA@XZ			; COutputQueue::~COutputQueue
EXTRN	__imp_CloseHandle:PROC
EXTRN	?DbgWaitForSingleObject@@YAKPEAX@Z:PROC		; DbgWaitForSingleObject
;	COMDAT pdata
pdata	SEGMENT
$pdata$??1COutputQueue@@QEAA@XZ DD imagerel $LN15
	DD	imagerel $LN15+486
	DD	imagerel $unwind$??1COutputQueue@@QEAA@XZ
pdata	ENDS
;	COMDAT pdata
pdata	SEGMENT
$pdata$?dtor$0@?0???1COutputQueue@@QEAA@XZ@4HA DD imagerel ?dtor$0@?0???1COutputQueue@@QEAA@XZ@4HA
	DD	imagerel ?dtor$0@?0???1COutputQueue@@QEAA@XZ@4HA+35
	DD	imagerel $unwind$?dtor$0@?0???1COutputQueue@@QEAA@XZ@4HA
pdata	ENDS
;	COMDAT pdata
pdata	SEGMENT
$pdata$?dtor$1@?0???1COutputQueue@@QEAA@XZ@4HA DD imagerel ?dtor$1@?0???1COutputQueue@@QEAA@XZ@4HA
	DD	imagerel ?dtor$1@?0???1COutputQueue@@QEAA@XZ@4HA+39
	DD	imagerel $unwind$?dtor$1@?0???1COutputQueue@@QEAA@XZ@4HA
pdata	ENDS
;	COMDAT pdata
pdata	SEGMENT
$pdata$?dtor$2@?0???1COutputQueue@@QEAA@XZ@4HA DD imagerel ?dtor$2@?0???1COutputQueue@@QEAA@XZ@4HA
	DD	imagerel ?dtor$2@?0???1COutputQueue@@QEAA@XZ@4HA+35
	DD	imagerel $unwind$?dtor$2@?0???1COutputQueue@@QEAA@XZ@4HA
pdata	ENDS
;	COMDAT xdata
xdata	SEGMENT
$ip2state$??1COutputQueue@@QEAA@XZ DD imagerel ??1COutputQueue@@QEAA@XZ
	DD	0ffffffffH
	DD	imagerel ??1COutputQueue@@QEAA@XZ+39
	DD	01H
	DD	imagerel ??1COutputQueue@@QEAA@XZ+129
	DD	02H
	DD	imagerel ??1COutputQueue@@QEAA@XZ+170
	DD	01H
	DD	imagerel ??1COutputQueue@@QEAA@XZ+437
	DD	00H
	DD	imagerel ??1COutputQueue@@QEAA@XZ+455
	DD	0ffffffffH
xdata	ENDS
;	COMDAT xdata
xdata	SEGMENT
$unwind$?dtor$2@?0???1COutputQueue@@QEAA@XZ@4HA DD 031001H
	DD	0700c4210H
	DD	0500bH
xdata	ENDS
;	COMDAT xdata
xdata	SEGMENT
$unwind$?dtor$1@?0???1COutputQueue@@QEAA@XZ@4HA DD 031001H
	DD	0700c4210H
	DD	0500bH
xdata	ENDS
;	COMDAT xdata
xdata	SEGMENT
$unwind$?dtor$0@?0???1COutputQueue@@QEAA@XZ@4HA DD 031001H
	DD	0700c4210H
	DD	0500bH
xdata	ENDS
;	COMDAT xdata
xdata	SEGMENT
$unwind$??1COutputQueue@@QEAA@XZ DD 022711H
	DD	07006b20aH
	DD	imagerel __CxxFrameHandler3
	DD	imagerel $cppxdata$??1COutputQueue@@QEAA@XZ
xdata	ENDS
;	COMDAT xdata
xdata	SEGMENT
$stateUnwindMap$??1COutputQueue@@QEAA@XZ DD 0ffffffffH
	DD	imagerel ?dtor$0@?0???1COutputQueue@@QEAA@XZ@4HA
	DD	00H
	DD	imagerel ?dtor$1@?0???1COutputQueue@@QEAA@XZ@4HA
	DD	01H
	DD	imagerel ?dtor$2@?0???1COutputQueue@@QEAA@XZ@4HA
xdata	ENDS
;	COMDAT CONST
CONST	SEGMENT
??1COutputQueue@@QEAA@XZ$rtcName$0 DB 06cH		; COutputQueue::~COutputQueue
	DB	063H
	DB	06bH
	DB	00H
	ORG $+12
??1COutputQueue@@QEAA@XZ$rtcVarDesc DD 028H		; COutputQueue::~COutputQueue
	DD	08H
	DQ	FLAT:??1COutputQueue@@QEAA@XZ$rtcName$0
	ORG $+48
??1COutputQueue@@QEAA@XZ$rtcFrameData DD 01H		; COutputQueue::~COutputQueue
	DD	00H
	DQ	FLAT:??1COutputQueue@@QEAA@XZ$rtcVarDesc
$cppxdata$??1COutputQueue@@QEAA@XZ DD 019930522H
	DD	03H
	DD	imagerel $stateUnwindMap$??1COutputQueue@@QEAA@XZ
	DD	00H
	DD	00H
	DD	06H
	DD	imagerel $ip2state$??1COutputQueue@@QEAA@XZ
	DD	050H
	DD	00H
	DD	01H
; Function compile flags: /Odtp /RTCsu
CONST	ENDS
;	COMDAT ??1COutputQueue@@QEAA@XZ
_TEXT	SEGMENT
lck$82343 = 40
$T83234 = 56
$T83235 = 64
$T83238 = 72
$T83248 = 80
tv153 = 88
this$ = 112
??1COutputQueue@@QEAA@XZ PROC				; COutputQueue::~COutputQueue, COMDAT
; Line 149
$LN15:
	mov	QWORD PTR [rsp+8], rcx
	push	rdi
	sub	rsp, 96					; 00000060H
	mov	rdi, rsp
	mov	ecx, 24
	mov	eax, -858993460				; ccccccccH
	rep stosd
	mov	rcx, QWORD PTR [rsp+112]
	mov	QWORD PTR $T83248[rsp], -2
; Line 150
	lea	r8, OFFSET FLAT:$SG82340
	mov	edx, 3
	mov	ecx, 2
	call	?DbgLogInfo@@YAXKKPEB_WZZ		; DbgLogInfo
; Line 152
	mov	rax, QWORD PTR this$[rsp]
	cmp	QWORD PTR [rax+64], 0
	je	SHORT $LN7@COutputQue@2
; Line 153
	mov	rax, QWORD PTR this$[rsp]
	mov	rax, QWORD PTR [rax+64]
	mov	rcx, QWORD PTR this$[rsp]
	mov	rcx, QWORD PTR [rcx+64]
	mov	rax, QWORD PTR [rax]
	call	QWORD PTR [rax+16]
$LN7@COutputQue@2:
; Line 155
	mov	rax, QWORD PTR this$[rsp]
	cmp	QWORD PTR [rax+104], 0
	je	$LN6@COutputQue@2
; Line 157
	mov	rdx, QWORD PTR this$[rsp]
	lea	rcx, QWORD PTR lck$82343[rsp]
	call	??0CAutoLock@@QEAA@PEAVCCritSec@@@Z	; CAutoLock::CAutoLock
	npad	1
; Line 158
	mov	rax, QWORD PTR this$[rsp]
	mov	DWORD PTR [rax+140], 1
; Line 159
	mov	rax, QWORD PTR this$[rsp]
	mov	DWORD PTR [rax+148], 1
; Line 160
	mov	rcx, QWORD PTR this$[rsp]
	call	?NotifyThread@COutputQueue@@IEAAXXZ	; COutputQueue::NotifyThread
	npad	1
; Line 161
	lea	rcx, QWORD PTR lck$82343[rsp]
	call	??1CAutoLock@@QEAA@XZ			; CAutoLock::~CAutoLock
; Line 162
	mov	rax, QWORD PTR this$[rsp]
	mov	rcx, QWORD PTR [rax+104]
	call	?DbgWaitForSingleObject@@YAKPEAX@Z	; DbgWaitForSingleObject
; Line 163
	mov	rax, QWORD PTR this$[rsp]
	mov	rcx, QWORD PTR [rax+104]
	call	QWORD PTR __imp_CloseHandle
	test	eax, eax
	jne	SHORT $LN5@COutputQue@2
	mov	r8d, 163				; 000000a3H
	lea	rdx, OFFSET FLAT:$SG82346
	lea	rcx, OFFSET FLAT:$SG82347
	call	?DbgAssert@@YAXPEB_W0H@Z		; DbgAssert
$LN5@COutputQue@2:
; Line 167
	mov	rax, QWORD PTR this$[rsp]
	mov	rcx, QWORD PTR [rax+80]
	call	?GetCount@?$CGenericList@UIMediaSample@@@@QEBAHXZ ; CGenericList<IMediaSample>::GetCount
	test	eax, eax
	je	SHORT $LN4@COutputQue@2
	mov	r8d, 167				; 000000a7H
	lea	rdx, OFFSET FLAT:$SG82349
	lea	rcx, OFFSET FLAT:$SG82350
	call	?DbgAssert@@YAXPEB_W0H@Z		; DbgAssert
$LN4@COutputQue@2:
; Line 168
	mov	rax, QWORD PTR this$[rsp]
	mov	rax, QWORD PTR [rax+80]
	mov	QWORD PTR $T83235[rsp], rax
	mov	rax, QWORD PTR $T83235[rsp]
	mov	QWORD PTR $T83234[rsp], rax
	cmp	QWORD PTR $T83234[rsp], 0
	je	SHORT $LN10@COutputQue@2
	mov	edx, 1
	mov	rcx, QWORD PTR $T83234[rsp]
	call	??_G?$CGenericList@UIMediaSample@@@@QEAAPEAXI@Z
	mov	QWORD PTR tv153[rsp], rax
	jmp	SHORT $LN11@COutputQue@2
$LN10@COutputQue@2:
	mov	QWORD PTR tv153[rsp], 0
$LN11@COutputQue@2:
; Line 169
	jmp	SHORT $LN3@COutputQue@2
$LN6@COutputQue@2:
; Line 170
	mov	rcx, QWORD PTR this$[rsp]
	call	?FreeSamples@COutputQueue@@IEAAXXZ	; COutputQueue::FreeSamples
$LN3@COutputQue@2:
; Line 172
	mov	rax, QWORD PTR this$[rsp]
	cmp	QWORD PTR [rax+88], 0
	je	SHORT $LN2@COutputQue@2
; Line 173
	mov	rax, QWORD PTR this$[rsp]
	mov	rcx, QWORD PTR [rax+88]
	call	QWORD PTR __imp_CloseHandle
	test	eax, eax
	jne	SHORT $LN2@COutputQue@2
	mov	r8d, 173				; 000000adH
	lea	rdx, OFFSET FLAT:$SG82356
	lea	rcx, OFFSET FLAT:$SG82357
	call	?DbgAssert@@YAXPEB_W0H@Z		; DbgAssert
$LN2@COutputQue@2:
; Line 175
	mov	rax, QWORD PTR this$[rsp]
	mov	rax, QWORD PTR [rax+112]
	mov	QWORD PTR $T83238[rsp], rax
	mov	rcx, QWORD PTR $T83238[rsp]
	call	??3@YAXPEAX@Z				; operator delete
	npad	1
; Line 176
	mov	rax, QWORD PTR this$[rsp]
	add	rax, 96					; 00000060H
	mov	rcx, rax
	call	??1CAMEvent@@QEAA@XZ			; CAMEvent::~CAMEvent
	npad	1
	mov	rcx, QWORD PTR this$[rsp]
	call	??1CCritSec@@QEAA@XZ			; CCritSec::~CCritSec
	mov	rcx, rsp
	lea	rdx, OFFSET FLAT:??1COutputQueue@@QEAA@XZ$rtcFrameData
	call	_RTC_CheckStackVars
	add	rsp, 96					; 00000060H
	pop	rdi
	ret	0
??1COutputQueue@@QEAA@XZ ENDP				; COutputQueue::~COutputQueue
; Function compile flags: /Odtp /RTCsu
_TEXT	ENDS
;	COMDAT text$x
text$x	SEGMENT
lck$82343 = 40
$T83234 = 56
$T83235 = 64
$T83238 = 72
$T83248 = 80
tv153 = 88
this$ = 112
?dtor$0@?0???1COutputQueue@@QEAA@XZ@4HA PROC		; `COutputQueue::~COutputQueue'::`1'::dtor$0
	mov	QWORD PTR [rsp+8], rcx
	mov	QWORD PTR [rsp+16], rdx
	push	rbp
	push	rdi
	sub	rsp, 40					; 00000028H
	mov	rbp, rdx
	mov	rcx, QWORD PTR this$[rbp]
	call	??1CCritSec@@QEAA@XZ			; CCritSec::~CCritSec
	add	rsp, 40					; 00000028H
	pop	rdi
	pop	rbp
	ret	0
?dtor$0@?0???1COutputQueue@@QEAA@XZ@4HA ENDP		; `COutputQueue::~COutputQueue'::`1'::dtor$0
; Function compile flags: /Odtp /RTCsu
lck$82343 = 40
$T83234 = 56
$T83235 = 64
$T83238 = 72
$T83248 = 80
tv153 = 88
this$ = 112
?dtor$1@?0???1COutputQueue@@QEAA@XZ@4HA PROC		; `COutputQueue::~COutputQueue'::`1'::dtor$1
	mov	QWORD PTR [rsp+8], rcx
	mov	QWORD PTR [rsp+16], rdx
	push	rbp
	push	rdi
	sub	rsp, 40					; 00000028H
	mov	rbp, rdx
	mov	rcx, QWORD PTR this$[rbp]
	add	rcx, 96					; 00000060H
	call	??1CAMEvent@@QEAA@XZ			; CAMEvent::~CAMEvent
	add	rsp, 40					; 00000028H
	pop	rdi
	pop	rbp
	ret	0
?dtor$1@?0???1COutputQueue@@QEAA@XZ@4HA ENDP		; `COutputQueue::~COutputQueue'::`1'::dtor$1
; Function compile flags: /Odtp /RTCsu
lck$82343 = 40
$T83234 = 56
$T83235 = 64
$T83238 = 72
$T83248 = 80
tv153 = 88
this$ = 112
?dtor$2@?0???1COutputQueue@@QEAA@XZ@4HA PROC		; `COutputQueue::~COutputQueue'::`1'::dtor$2
	mov	QWORD PTR [rsp+8], rcx
	mov	QWORD PTR [rsp+16], rdx
	push	rbp
	push	rdi
	sub	rsp, 40					; 00000028H
	mov	rbp, rdx
	lea	rcx, QWORD PTR lck$82343[rbp]
	call	??1CAutoLock@@QEAA@XZ			; CAutoLock::~CAutoLock
	add	rsp, 40					; 00000028H
	pop	rdi
	pop	rbp
	ret	0
?dtor$2@?0???1COutputQueue@@QEAA@XZ@4HA ENDP		; `COutputQueue::~COutputQueue'::`1'::dtor$2
text$x	ENDS
EXTRN	?Lock@CCritSec@@QEAAXXZ:PROC			; CCritSec::Lock
;	COMDAT pdata
; File c:\downloads\wpf mediakit - copy\src\filters\baseclasses\wxutil.h
pdata	SEGMENT
$pdata$??0CAutoLock@@QEAA@PEAVCCritSec@@@Z DD imagerel $LN3
	DD	imagerel $LN3+72
	DD	imagerel $unwind$??0CAutoLock@@QEAA@PEAVCCritSec@@@Z
pdata	ENDS
;	COMDAT xdata
xdata	SEGMENT
$unwind$??0CAutoLock@@QEAA@PEAVCCritSec@@@Z DD 022301H
	DD	0700b320fH
; Function compile flags: /Odtp /RTCsu
xdata	ENDS
;	COMDAT ??0CAutoLock@@QEAA@PEAVCCritSec@@@Z
_TEXT	SEGMENT
this$ = 48
plock$ = 56
??0CAutoLock@@QEAA@PEAVCCritSec@@@Z PROC		; CAutoLock::CAutoLock, COMDAT
; Line 94
$LN3:
	mov	QWORD PTR [rsp+16], rdx
	mov	QWORD PTR [rsp+8], rcx
	push	rdi
	sub	rsp, 32					; 00000020H
	mov	rdi, rsp
	mov	ecx, 8
	mov	eax, -858993460				; ccccccccH
	rep stosd
	mov	rcx, QWORD PTR [rsp+48]
; Line 96
	mov	rax, QWORD PTR this$[rsp]
	mov	rcx, QWORD PTR plock$[rsp]
	mov	QWORD PTR [rax], rcx
; Line 97
	mov	rax, QWORD PTR this$[rsp]
	mov	rcx, QWORD PTR [rax]
	call	?Lock@CCritSec@@QEAAXXZ			; CCritSec::Lock
; Line 98
	mov	rax, QWORD PTR this$[rsp]
	add	rsp, 32					; 00000020H
	pop	rdi
	ret	0
??0CAutoLock@@QEAA@PEAVCCritSec@@@Z ENDP		; CAutoLock::CAutoLock
_TEXT	ENDS
EXTRN	?Unlock@CCritSec@@QEAAXXZ:PROC			; CCritSec::Unlock
;	COMDAT pdata
pdata	SEGMENT
$pdata$??1CAutoLock@@QEAA@XZ DD imagerel $LN3
	DD	imagerel $LN3+49
	DD	imagerel $unwind$??1CAutoLock@@QEAA@XZ
pdata	ENDS
;	COMDAT xdata
xdata	SEGMENT
$unwind$??1CAutoLock@@QEAA@XZ DD 021e01H
	DD	07006320aH
; Function compile flags: /Odtp /RTCsu
xdata	ENDS
;	COMDAT ??1CAutoLock@@QEAA@XZ
_TEXT	SEGMENT
this$ = 48
??1CAutoLock@@QEAA@XZ PROC				; CAutoLock::~CAutoLock, COMDAT
; Line 100
$LN3:
	mov	QWORD PTR [rsp+8], rcx
	push	rdi
	sub	rsp, 32					; 00000020H
	mov	rdi, rsp
	mov	ecx, 8
	mov	eax, -858993460				; ccccccccH
	rep stosd
	mov	rcx, QWORD PTR [rsp+48]
; Line 101
	mov	rax, QWORD PTR this$[rsp]
	mov	rcx, QWORD PTR [rax]
	call	?Unlock@CCritSec@@QEAAXXZ		; CCritSec::Unlock
; Line 102
	add	rsp, 32					; 00000020H
	pop	rdi
	ret	0
??1CAutoLock@@QEAA@XZ ENDP				; CAutoLock::~CAutoLock
_TEXT	ENDS
PUBLIC	??1?$CGenericList@UIMediaSample@@@@QEAA@XZ	; CGenericList<IMediaSample>::~CGenericList<IMediaSample>
;	COMDAT pdata
pdata	SEGMENT
$pdata$??_G?$CGenericList@UIMediaSample@@@@QEAAPEAXI@Z DD imagerel $LN4
	DD	imagerel $LN4+76
	DD	imagerel $unwind$??_G?$CGenericList@UIMediaSample@@@@QEAAPEAXI@Z
pdata	ENDS
;	COMDAT xdata
xdata	SEGMENT
$unwind$??_G?$CGenericList@UIMediaSample@@@@QEAAPEAXI@Z DD 022201H
	DD	0700a320eH
; Function compile flags: /Odtp /RTCsu
xdata	ENDS
;	COMDAT ??_G?$CGenericList@UIMediaSample@@@@QEAAPEAXI@Z
_TEXT	SEGMENT
this$ = 48
__flags$ = 56
??_G?$CGenericList@UIMediaSample@@@@QEAAPEAXI@Z PROC	; CGenericList<IMediaSample>::`scalar deleting destructor', COMDAT
$LN4:
	mov	DWORD PTR [rsp+16], edx
	mov	QWORD PTR [rsp+8], rcx
	push	rdi
	sub	rsp, 32					; 00000020H
	mov	rdi, rsp
	mov	ecx, 8
	mov	eax, -858993460				; ccccccccH
	rep stosd
	mov	rcx, QWORD PTR [rsp+48]
	mov	rcx, QWORD PTR this$[rsp]
	call	??1?$CGenericList@UIMediaSample@@@@QEAA@XZ
	mov	eax, DWORD PTR __flags$[rsp]
	and	eax, 1
	test	eax, eax
	je	SHORT $LN1@scalar
	mov	rcx, QWORD PTR this$[rsp]
	call	??3@YAXPEAX@Z				; operator delete
$LN1@scalar:
	mov	rax, QWORD PTR this$[rsp]
	add	rsp, 32					; 00000020H
	pop	rdi
	ret	0
??_G?$CGenericList@UIMediaSample@@@@QEAAPEAXI@Z ENDP	; CGenericList<IMediaSample>::`scalar deleting destructor'
_TEXT	ENDS
EXTRN	??1CBaseList@@QEAA@XZ:PROC			; CBaseList::~CBaseList
;	COMDAT pdata
pdata	SEGMENT
$pdata$??1?$CGenericList@UIMediaSample@@@@QEAA@XZ DD imagerel $LN4
	DD	imagerel $LN4+46
	DD	imagerel $unwind$??1?$CGenericList@UIMediaSample@@@@QEAA@XZ
pdata	ENDS
;	COMDAT xdata
xdata	SEGMENT
$unwind$??1?$CGenericList@UIMediaSample@@@@QEAA@XZ DD 021e01H
	DD	07006320aH
; Function compile flags: /Odtp /RTCsu
xdata	ENDS
;	COMDAT ??1?$CGenericList@UIMediaSample@@@@QEAA@XZ
_TEXT	SEGMENT
this$ = 48
??1?$CGenericList@UIMediaSample@@@@QEAA@XZ PROC		; CGenericList<IMediaSample>::~CGenericList<IMediaSample>, COMDAT
$LN4:
	mov	QWORD PTR [rsp+8], rcx
	push	rdi
	sub	rsp, 32					; 00000020H
	mov	rdi, rsp
	mov	ecx, 8
	mov	eax, -858993460				; ccccccccH
	rep stosd
	mov	rcx, QWORD PTR [rsp+48]
	mov	rcx, QWORD PTR this$[rsp]
	call	??1CBaseList@@QEAA@XZ			; CBaseList::~CBaseList
	add	rsp, 32					; 00000020H
	pop	rdi
	ret	0
??1?$CGenericList@UIMediaSample@@@@QEAA@XZ ENDP		; CGenericList<IMediaSample>::~CGenericList<IMediaSample>
_TEXT	ENDS
PUBLIC	?ThreadProc@COutputQueue@@IEAAKXZ		; COutputQueue::ThreadProc
EXTRN	__imp_CoUninitialize:PROC
EXTRN	?CoInitializeHelper@CAMThread@@SAJXZ:PROC	; CAMThread::CoInitializeHelper
;	COMDAT pdata
; File c:\downloads\wpf mediakit - copy\src\filters\baseclasses\outputq.cpp
pdata	SEGMENT
$pdata$?InitialThreadProc@COutputQueue@@KAKPEAX@Z DD imagerel $LN4
	DD	imagerel $LN4+86
	DD	imagerel $unwind$?InitialThreadProc@COutputQueue@@KAKPEAX@Z
pdata	ENDS
;	COMDAT xdata
xdata	SEGMENT
$unwind$?InitialThreadProc@COutputQueue@@KAKPEAX@Z DD 021e01H
	DD	07006720aH
; Function compile flags: /Odtp /RTCsu
xdata	ENDS
;	COMDAT ?InitialThreadProc@COutputQueue@@KAKPEAX@Z
_TEXT	SEGMENT
hrCoInit$ = 32
pSampleQueue$ = 40
dwReturn$ = 48
pv$ = 80
?InitialThreadProc@COutputQueue@@KAKPEAX@Z PROC		; COutputQueue::InitialThreadProc, COMDAT
; Line 182
$LN4:
	mov	QWORD PTR [rsp+8], rcx
	push	rdi
	sub	rsp, 64					; 00000040H
	mov	rdi, rsp
	mov	ecx, 16
	mov	eax, -858993460				; ccccccccH
	rep stosd
	mov	rcx, QWORD PTR [rsp+80]
; Line 183
	call	?CoInitializeHelper@CAMThread@@SAJXZ	; CAMThread::CoInitializeHelper
	mov	DWORD PTR hrCoInit$[rsp], eax
; Line 185
	mov	rax, QWORD PTR pv$[rsp]
	mov	QWORD PTR pSampleQueue$[rsp], rax
; Line 186
	mov	rcx, QWORD PTR pSampleQueue$[rsp]
	call	?ThreadProc@COutputQueue@@IEAAKXZ	; COutputQueue::ThreadProc
	mov	DWORD PTR dwReturn$[rsp], eax
; Line 188
	cmp	DWORD PTR hrCoInit$[rsp], 0
	jne	SHORT $LN1@InitialThr
; Line 189
	call	QWORD PTR __imp_CoUninitialize
$LN1@InitialThr:
; Line 192
	mov	eax, DWORD PTR dwReturn$[rsp]
; Line 193
	add	rsp, 64					; 00000040H
	pop	rdi
	ret	0
?InitialThreadProc@COutputQueue@@KAKPEAX@Z ENDP		; COutputQueue::InitialThreadProc
_TEXT	ENDS
PUBLIC	?IsSpecialSample@COutputQueue@@IEAAHPEAUIMediaSample@@@Z ; COutputQueue::IsSpecialSample
PUBLIC	?RemoveHead@?$CGenericList@UIMediaSample@@@@QEAAPEAUIMediaSample@@XZ ; CGenericList<IMediaSample>::RemoveHead
PUBLIC	??BCAMEvent@@QEBAPEAXXZ				; CAMEvent::operator void * __ptr64
EXTRN	__imp_SetEvent:PROC
EXTRN	_fltused:DWORD
EXTRN	_RTC_UninitUse:PROC
;	COMDAT pdata
pdata	SEGMENT
$pdata$?ThreadProc@COutputQueue@@IEAAKXZ DD imagerel $LN51
	DD	imagerel $LN51+1705
	DD	imagerel $unwind$?ThreadProc@COutputQueue@@IEAAKXZ
pdata	ENDS
;	COMDAT pdata
pdata	SEGMENT
$pdata$?dtor$0@?0??ThreadProc@COutputQueue@@IEAAKXZ@4HA DD imagerel ?dtor$0@?0??ThreadProc@COutputQueue@@IEAAKXZ@4HA
	DD	imagerel ?dtor$0@?0??ThreadProc@COutputQueue@@IEAAKXZ@4HA+35
	DD	imagerel $unwind$?dtor$0@?0??ThreadProc@COutputQueue@@IEAAKXZ@4HA
pdata	ENDS
;	COMDAT pdata
pdata	SEGMENT
$pdata$?dtor$1@?0??ThreadProc@COutputQueue@@IEAAKXZ@4HA DD imagerel ?dtor$1@?0??ThreadProc@COutputQueue@@IEAAKXZ@4HA
	DD	imagerel ?dtor$1@?0??ThreadProc@COutputQueue@@IEAAKXZ@4HA+38
	DD	imagerel $unwind$?dtor$1@?0??ThreadProc@COutputQueue@@IEAAKXZ@4HA
pdata	ENDS
;	COMDAT xdata
xdata	SEGMENT
$ip2state$?ThreadProc@COutputQueue@@IEAAKXZ DD imagerel ?ThreadProc@COutputQueue@@IEAAKXZ
	DD	0ffffffffH
	DD	imagerel ?ThreadProc@COutputQueue@@IEAAKXZ+102
	DD	00H
	DD	imagerel ?ThreadProc@COutputQueue@@IEAAKXZ+154
	DD	0ffffffffH
	DD	imagerel ?ThreadProc@COutputQueue@@IEAAKXZ+176
	DD	00H
	DD	imagerel ?ThreadProc@COutputQueue@@IEAAKXZ+740
	DD	0ffffffffH
	DD	imagerel ?ThreadProc@COutputQueue@@IEAAKXZ+976
	DD	01H
	DD	imagerel ?ThreadProc@COutputQueue@@IEAAKXZ+1055
	DD	0ffffffffH
xdata	ENDS
;	COMDAT xdata
xdata	SEGMENT
$unwind$?dtor$1@?0??ThreadProc@COutputQueue@@IEAAKXZ@4HA DD 031001H
	DD	0700c4210H
	DD	0500bH
xdata	ENDS
;	COMDAT xdata
xdata	SEGMENT
$unwind$?dtor$0@?0??ThreadProc@COutputQueue@@IEAAKXZ@4HA DD 031001H
	DD	0700c4210H
	DD	0500bH
xdata	ENDS
;	COMDAT xdata
xdata	SEGMENT
$unwind$?ThreadProc@COutputQueue@@IEAAKXZ DD 033011H
	DD	018010dH
	DD	07006H
	DD	imagerel __CxxFrameHandler3
	DD	imagerel $cppxdata$?ThreadProc@COutputQueue@@IEAAKXZ
xdata	ENDS
;	COMDAT xdata
xdata	SEGMENT
$stateUnwindMap$?ThreadProc@COutputQueue@@IEAAKXZ DD 0ffffffffH
	DD	imagerel ?dtor$0@?0??ThreadProc@COutputQueue@@IEAAKXZ@4HA
	DD	0ffffffffH
	DD	imagerel ?dtor$1@?0??ThreadProc@COutputQueue@@IEAAKXZ@4HA
xdata	ENDS
;	COMDAT CONST
CONST	SEGMENT
?ThreadProc@COutputQueue@@IEAAKXZ$rtcName$0 DB 070H	; COutputQueue::ThreadProc
	DB	070H
	DB	061H
	DB	063H
	DB	06bH
	DB	065H
	DB	074H
	DB	00H
?ThreadProc@COutputQueue@@IEAAKXZ$rtcName$1 DB 06cH	; COutputQueue::ThreadProc
	DB	04eH
	DB	075H
	DB	06dH
	DB	062H
	DB	065H
	DB	072H
	DB	054H
	DB	06fH
	DB	053H
	DB	065H
	DB	06eH
	DB	064H
	DB	00H
	ORG $+2
?ThreadProc@COutputQueue@@IEAAKXZ$rtcName$2 DB 06cH	; COutputQueue::ThreadProc
	DB	063H
	DB	06bH
	DB	00H
?ThreadProc@COutputQueue@@IEAAKXZ$rtcName$4 DB 06cH	; COutputQueue::ThreadProc
	DB	063H
	DB	06bH
	DB	00H
?ThreadProc@COutputQueue@@IEAAKXZ$rtcName$3 DB 06eH	; COutputQueue::ThreadProc
	DB	050H
	DB	072H
	DB	06fH
	DB	063H
	DB	065H
	DB	073H
	DB	073H
	DB	065H
	DB	064H
	DB	00H
	ORG $+5
?ThreadProc@COutputQueue@@IEAAKXZ$rtcVarDesc DD 088H	; COutputQueue::ThreadProc
	DD	08H
	DQ	FLAT:?ThreadProc@COutputQueue@@IEAAKXZ$rtcName$4
	DD	064H
	DD	04H
	DQ	FLAT:?ThreadProc@COutputQueue@@IEAAKXZ$rtcName$3
	DD	048H
	DD	08H
	DQ	FLAT:?ThreadProc@COutputQueue@@IEAAKXZ$rtcName$2
	ORG $+144
?ThreadProc@COutputQueue@@IEAAKXZ$rtcFrameData DD 03H	; COutputQueue::ThreadProc
	DD	00H
	DQ	FLAT:?ThreadProc@COutputQueue@@IEAAKXZ$rtcVarDesc
$cppxdata$?ThreadProc@COutputQueue@@IEAAKXZ DD 019930522H
	DD	02H
	DD	imagerel $stateUnwindMap$?ThreadProc@COutputQueue@@IEAAKXZ
	DD	00H
	DD	00H
	DD	07H
	DD	imagerel $ip2state$?ThreadProc@COutputQueue@@IEAAKXZ
	DD	0b0H
	DD	00H
	DD	01H
; Function compile flags: /Odtp /RTCsu
CONST	ENDS
;	COMDAT ?ThreadProc@COutputQueue@@IEAAKXZ
_TEXT	SEGMENT
bWait$82380 = 32
pSample$82381 = 40
lNumberToSend$82382 = 48
ppacket$82383 = 56
lck$82384 = 72
nProcessed$82415 = 100
hr$82421 = 116
lck$82422 = 136
hr$82440 = 148
$T83316 = 152
$T83317 = 160
$T83327 = 168
$T83328 = 169
$T83343 = 176
tv304 = 184
this$ = 208
?ThreadProc@COutputQueue@@IEAAKXZ PROC			; COutputQueue::ThreadProc, COMDAT
; Line 203
$LN51:
	mov	QWORD PTR [rsp+8], rcx
	push	rdi
	sub	rsp, 192				; 000000c0H
	mov	rdi, rsp
	mov	ecx, 48					; 00000030H
	mov	eax, -858993460				; ccccccccH
	rep stosd
	mov	rcx, QWORD PTR [rsp+208]
	mov	QWORD PTR $T83343[rsp], -2
$LN33@ThreadProc:
; Line 204
	xor	eax, eax
	cmp	eax, 1
	je	$LN34@ThreadProc
	mov	BYTE PTR $T83328[rsp], 0
	mov	BYTE PTR $T83327[rsp], 0
; Line 205
	mov	DWORD PTR bWait$82380[rsp], 0
; Line 216
	mov	rdx, QWORD PTR this$[rsp]
	lea	rcx, QWORD PTR lck$82384[rsp]
	call	??0CAutoLock@@QEAA@PEAVCCritSec@@@Z	; CAutoLock::CAutoLock
	npad	1
$LN31@ThreadProc:
; Line 217
	xor	eax, eax
	cmp	eax, 1
	je	$LN30@ThreadProc
; Line 219
	mov	rax, QWORD PTR this$[rsp]
	cmp	DWORD PTR [rax+140], 0
	je	SHORT $LN29@ThreadProc
; Line 220
	mov	rcx, QWORD PTR this$[rsp]
	call	?FreeSamples@COutputQueue@@IEAAXXZ	; COutputQueue::FreeSamples
; Line 221
	mov	DWORD PTR $T83316[rsp], 0
	lea	rcx, QWORD PTR lck$82384[rsp]
	call	??1CAutoLock@@QEAA@XZ			; CAutoLock::~CAutoLock
	mov	eax, DWORD PTR $T83316[rsp]
	jmp	$LN34@ThreadProc
$LN29@ThreadProc:
; Line 223
	mov	rax, QWORD PTR this$[rsp]
	cmp	DWORD PTR [rax+128], 0
	je	SHORT $LN28@ThreadProc
; Line 224
	mov	rcx, QWORD PTR this$[rsp]
	call	?FreeSamples@COutputQueue@@IEAAXXZ	; COutputQueue::FreeSamples
; Line 225
	mov	rax, QWORD PTR this$[rsp]
	add	rax, 96					; 00000060H
	mov	rcx, rax
	call	??BCAMEvent@@QEBAPEAXXZ			; CAMEvent::operator void * __ptr64
	mov	rcx, rax
	call	QWORD PTR __imp_SetEvent
$LN28@ThreadProc:
; Line 230
	mov	rax, QWORD PTR this$[rsp]
	mov	rcx, QWORD PTR [rax+80]
	call	?RemoveHead@?$CGenericList@UIMediaSample@@@@QEAAPEAUIMediaSample@@XZ ; CGenericList<IMediaSample>::RemoveHead
	mov	QWORD PTR pSample$82381[rsp], rax
; Line 232
	mov	rax, QWORD PTR this$[rsp]
	cmp	QWORD PTR [rax+152], 0
	je	SHORT $LN27@ThreadProc
; Line 234
	mov	rax, QWORD PTR this$[rsp]
	mov	rcx, QWORD PTR [rax+152]
	call	QWORD PTR __imp_SetEvent
$LN27@ThreadProc:
; Line 238
	cmp	QWORD PTR pSample$82381[rsp], 0
	je	SHORT $LN26@ThreadProc
	mov	rdx, QWORD PTR pSample$82381[rsp]
	mov	rcx, QWORD PTR this$[rsp]
	call	?IsSpecialSample@COutputQueue@@IEAAHPEAUIMediaSample@@@Z ; COutputQueue::IsSpecialSample
	test	eax, eax
	jne	SHORT $LN26@ThreadProc
; Line 243
	mov	rax, QWORD PTR this$[rsp]
	movsxd	rax, DWORD PTR [rax+120]
	mov	rcx, QWORD PTR this$[rsp]
	mov	rcx, QWORD PTR [rcx+112]
	mov	rdx, QWORD PTR pSample$82381[rsp]
	mov	QWORD PTR [rcx+rax*8], rdx
	mov	rax, QWORD PTR this$[rsp]
	mov	eax, DWORD PTR [rax+120]
	inc	eax
	mov	rcx, QWORD PTR this$[rsp]
	mov	DWORD PTR [rcx+120], eax
; Line 244
	mov	rax, QWORD PTR this$[rsp]
	mov	rcx, QWORD PTR this$[rsp]
	mov	ecx, DWORD PTR [rcx+76]
	cmp	DWORD PTR [rax+120], ecx
	jne	SHORT $LN25@ThreadProc
; Line 245
	jmp	$LN30@ThreadProc
$LN25@ThreadProc:
; Line 247
	jmp	$LN24@ThreadProc
$LN26@ThreadProc:
; Line 254
	cmp	QWORD PTR pSample$82381[rsp], 0
	jne	SHORT $LN23@ThreadProc
	mov	rax, QWORD PTR this$[rsp]
	cmp	DWORD PTR [rax+72], 0
	jne	SHORT $LN22@ThreadProc
	mov	rax, QWORD PTR this$[rsp]
	cmp	DWORD PTR [rax+120], 0
	jne	SHORT $LN23@ThreadProc
$LN22@ThreadProc:
; Line 259
	mov	rax, QWORD PTR this$[rsp]
	cmp	DWORD PTR [rax+124], 0
	je	SHORT $LN21@ThreadProc
	mov	r8d, 259				; 00000103H
	lea	rdx, OFFSET FLAT:$SG82398
	lea	rcx, OFFSET FLAT:$SG82399
	call	?DbgAssert@@YAXPEB_W0H@Z		; DbgAssert
$LN21@ThreadProc:
; Line 260
	mov	rax, QWORD PTR this$[rsp]
	mov	eax, DWORD PTR [rax+124]
	inc	eax
	mov	rcx, QWORD PTR this$[rsp]
	mov	DWORD PTR [rcx+124], eax
; Line 261
	mov	DWORD PTR bWait$82380[rsp], 1
; Line 262
	jmp	$LN20@ThreadProc
$LN23@ThreadProc:
; Line 267
	cmp	QWORD PTR pSample$82381[rsp], -2
	jne	SHORT $LN19@ThreadProc
	mov	rax, QWORD PTR this$[rsp]
	cmp	DWORD PTR [rax+120], 0
	jne	SHORT $LN19@ThreadProc
; Line 268
	jmp	$LN31@ThreadProc
$LN19@ThreadProc:
; Line 271
	cmp	QWORD PTR pSample$82381[rsp], -5
	jne	SHORT $LN20@ThreadProc
; Line 274
	mov	rax, QWORD PTR this$[rsp]
	mov	rcx, QWORD PTR [rax+80]
	call	?RemoveHead@?$CGenericList@UIMediaSample@@@@QEAAPEAUIMediaSample@@XZ ; CGenericList<IMediaSample>::RemoveHead
	mov	BYTE PTR $T83327[rsp], 1
	mov	QWORD PTR ppacket$82383[rsp], rax
; Line 276
	mov	rax, QWORD PTR this$[rsp]
	cmp	QWORD PTR [rax+152], 0
	je	SHORT $LN17@ThreadProc
; Line 278
	mov	rax, QWORD PTR this$[rsp]
	mov	rcx, QWORD PTR [rax+152]
	call	QWORD PTR __imp_SetEvent
$LN17@ThreadProc:
; Line 281
	cmp	BYTE PTR $T83327[rsp], 0
	jne	SHORT $LN40@ThreadProc
	lea	rcx, OFFSET FLAT:?ThreadProc@COutputQueue@@IEAAKXZ$rtcName$0
	call	_RTC_UninitUse
$LN40@ThreadProc:
	cmp	QWORD PTR ppacket$82383[rsp], 0
	jne	SHORT $LN20@ThreadProc
	mov	r8d, 281				; 00000119H
	lea	rdx, OFFSET FLAT:$SG82410
	lea	rcx, OFFSET FLAT:$SG82411
	call	?DbgAssert@@YAXPEB_W0H@Z		; DbgAssert
$LN20@ThreadProc:
; Line 286
	jmp	SHORT $LN30@ThreadProc
$LN24@ThreadProc:
; Line 288
	jmp	$LN31@ThreadProc
$LN30@ThreadProc:
; Line 289
	cmp	DWORD PTR bWait$82380[rsp], 0
	jne	SHORT $LN15@ThreadProc
; Line 292
	mov	BYTE PTR $T83328[rsp], 1
	mov	rax, QWORD PTR this$[rsp]
	mov	eax, DWORD PTR [rax+120]
	mov	DWORD PTR lNumberToSend$82382[rsp], eax
; Line 293
	mov	rax, QWORD PTR this$[rsp]
	mov	DWORD PTR [rax+120], 0
$LN15@ThreadProc:
; Line 295
	lea	rcx, QWORD PTR lck$82384[rsp]
	call	??1CAutoLock@@QEAA@XZ			; CAutoLock::~CAutoLock
; Line 299
	cmp	DWORD PTR bWait$82380[rsp], 0
	je	SHORT $LN14@ThreadProc
; Line 300
	mov	rax, QWORD PTR this$[rsp]
	mov	rcx, QWORD PTR [rax+88]
	call	?DbgWaitForSingleObject@@YAKPEAX@Z	; DbgWaitForSingleObject
; Line 301
	jmp	$LN33@ThreadProc
$LN14@ThreadProc:
; Line 312
	cmp	BYTE PTR $T83328[rsp], 0
	jne	SHORT $LN41@ThreadProc
	lea	rcx, OFFSET FLAT:?ThreadProc@COutputQueue@@IEAAKXZ$rtcName$1
	call	_RTC_UninitUse
$LN41@ThreadProc:
	cmp	DWORD PTR lNumberToSend$82382[rsp], 0
	je	$LN13@ThreadProc
; Line 314
	mov	rax, QWORD PTR this$[rsp]
	mov	eax, DWORD PTR [rax+148]
	test	eax, eax
	jne	$LN8@ThreadProc
; Line 315
	mov	rax, QWORD PTR this$[rsp]
	cmp	DWORD PTR [rax+132], 0
	je	SHORT $LN11@ThreadProc
	mov	r8d, 315				; 0000013bH
	lea	rdx, OFFSET FLAT:$SG82419
	lea	rcx, OFFSET FLAT:$SG82420
	call	?DbgAssert@@YAXPEB_W0H@Z		; DbgAssert
$LN11@ThreadProc:
; Line 318
	cmp	BYTE PTR $T83328[rsp], 0
	jne	SHORT $LN42@ThreadProc
	lea	rcx, OFFSET FLAT:?ThreadProc@COutputQueue@@IEAAKXZ$rtcName$1
	call	_RTC_UninitUse
$LN42@ThreadProc:
	mov	rax, QWORD PTR this$[rsp]
	mov	rax, QWORD PTR [rax+64]
	mov	rcx, QWORD PTR this$[rsp]
	mov	rcx, QWORD PTR [rcx+64]
	mov	rax, QWORD PTR [rax]
	lea	r9, QWORD PTR nProcessed$82415[rsp]
	mov	r8d, DWORD PTR lNumberToSend$82382[rsp]
	mov	rdx, QWORD PTR this$[rsp]
	mov	rdx, QWORD PTR [rdx+112]
	call	QWORD PTR [rax+56]
	mov	DWORD PTR hr$82421[rsp], eax
; Line 320
	mov	rdx, QWORD PTR this$[rsp]
	lea	rcx, QWORD PTR lck$82422[rsp]
	call	??0CAutoLock@@QEAA@PEAVCCritSec@@@Z	; CAutoLock::CAutoLock
	npad	1
; Line 321
	mov	rax, QWORD PTR this$[rsp]
	mov	eax, DWORD PTR [rax+148]
	test	eax, eax
	jne	SHORT $LN10@ThreadProc
; Line 322
	mov	rax, QWORD PTR this$[rsp]
	mov	ecx, DWORD PTR hr$82421[rsp]
	mov	DWORD PTR [rax+148], ecx
$LN10@ThreadProc:
; Line 324
	mov	rax, QWORD PTR this$[rsp]
	cmp	DWORD PTR [rax+132], 0
	je	SHORT $LN9@ThreadProc
	mov	r8d, 324				; 00000144H
	lea	rdx, OFFSET FLAT:$SG82426
	lea	rcx, OFFSET FLAT:$SG82427
	call	?DbgAssert@@YAXPEB_W0H@Z		; DbgAssert
	npad	1
$LN9@ThreadProc:
; Line 325
	lea	rcx, QWORD PTR lck$82422[rsp]
	call	??1CAutoLock@@QEAA@XZ			; CAutoLock::~CAutoLock
$LN8@ThreadProc:
; Line 326
	cmp	BYTE PTR $T83328[rsp], 0
	jne	SHORT $LN43@ThreadProc
	lea	rcx, OFFSET FLAT:?ThreadProc@COutputQueue@@IEAAKXZ$rtcName$1
	call	_RTC_UninitUse
$LN43@ThreadProc:
	cmp	DWORD PTR lNumberToSend$82382[rsp], 0
	je	$LN7@ThreadProc
; Line 327
	cmp	BYTE PTR $T83328[rsp], 0
	jne	SHORT $LN44@ThreadProc
	lea	rcx, OFFSET FLAT:?ThreadProc@COutputQueue@@IEAAKXZ$rtcName$1
	call	_RTC_UninitUse
$LN44@ThreadProc:
	mov	eax, DWORD PTR lNumberToSend$82382[rsp]
	dec	eax
	mov	BYTE PTR $T83328[rsp], 1
	mov	DWORD PTR lNumberToSend$82382[rsp], eax
	cmp	BYTE PTR $T83328[rsp], 0
	jne	SHORT $LN45@ThreadProc
	lea	rcx, OFFSET FLAT:?ThreadProc@COutputQueue@@IEAAKXZ$rtcName$1
	call	_RTC_UninitUse
$LN45@ThreadProc:
	cmp	BYTE PTR $T83328[rsp], 0
	jne	SHORT $LN46@ThreadProc
	lea	rcx, OFFSET FLAT:?ThreadProc@COutputQueue@@IEAAKXZ$rtcName$1
	call	_RTC_UninitUse
$LN46@ThreadProc:
	movsxd	rax, DWORD PTR lNumberToSend$82382[rsp]
	mov	rcx, QWORD PTR this$[rsp]
	mov	rcx, QWORD PTR [rcx+112]
	mov	rax, QWORD PTR [rcx+rax*8]
	movsxd	rcx, DWORD PTR lNumberToSend$82382[rsp]
	mov	rdx, QWORD PTR this$[rsp]
	mov	rdx, QWORD PTR [rdx+112]
	mov	rcx, QWORD PTR [rdx+rcx*8]
	mov	rcx, QWORD PTR [rcx]
	mov	QWORD PTR tv304[rsp], rcx
	mov	rcx, rax
	mov	rax, QWORD PTR tv304[rsp]
	call	QWORD PTR [rax+16]
; Line 328
	jmp	$LN8@ThreadProc
$LN7@ThreadProc:
; Line 329
	mov	rax, QWORD PTR this$[rsp]
	mov	eax, DWORD PTR [rax+148]
	test	eax, eax
	je	SHORT $LN13@ThreadProc
; Line 335
	mov	rax, QWORD PTR this$[rsp]
	mov	r9d, DWORD PTR [rax+148]
	lea	r8, OFFSET FLAT:$SG82433
	mov	edx, 2
	mov	ecx, 16
	call	?DbgLogInfo@@YAXKKPEB_WZZ		; DbgLogInfo
$LN13@ThreadProc:
; Line 341
	cmp	QWORD PTR pSample$82381[rsp], -3
	jne	SHORT $LN5@ThreadProc
; Line 349
	mov	rax, QWORD PTR this$[rsp]
	mov	eax, DWORD PTR [rax+148]
	test	eax, eax
	jne	SHORT $LN5@ThreadProc
; Line 350
	lea	r8, OFFSET FLAT:$SG82439
	mov	edx, 2
	mov	ecx, 2
	call	?DbgLogInfo@@YAXKKPEB_WZZ		; DbgLogInfo
; Line 351
	mov	rax, QWORD PTR this$[rsp]
	mov	rax, QWORD PTR [rax+56]
	mov	rcx, QWORD PTR this$[rsp]
	mov	rcx, QWORD PTR [rcx+56]
	mov	rax, QWORD PTR [rax]
	call	QWORD PTR [rax+112]
	mov	DWORD PTR hr$82440[rsp], eax
; Line 352
	cmp	DWORD PTR hr$82440[rsp], 0
	jge	SHORT $LN5@ThreadProc
; Line 353
	lea	r8, OFFSET FLAT:$SG82443
	mov	edx, 2
	mov	ecx, 16
	call	?DbgLogInfo@@YAXKKPEB_WZZ		; DbgLogInfo
$LN5@ThreadProc:
; Line 360
	cmp	QWORD PTR pSample$82381[rsp], -4
	jne	SHORT $LN2@ThreadProc
; Line 361
	mov	rax, QWORD PTR this$[rsp]
	mov	DWORD PTR [rax+148], 0
; Line 362
	mov	rax, QWORD PTR this$[rsp]
	add	rax, 96					; 00000060H
	mov	rcx, rax
	call	??BCAMEvent@@QEBAPEAXXZ			; CAMEvent::operator void * __ptr64
	mov	rcx, rax
	call	QWORD PTR __imp_SetEvent
$LN2@ThreadProc:
; Line 365
	cmp	QWORD PTR pSample$82381[rsp], -5
	jne	$LN1@ThreadProc
; Line 366
	cmp	BYTE PTR $T83327[rsp], 0
	jne	SHORT $LN47@ThreadProc
	lea	rcx, OFFSET FLAT:?ThreadProc@COutputQueue@@IEAAKXZ$rtcName$0
	call	_RTC_UninitUse
$LN47@ThreadProc:
	cmp	BYTE PTR $T83327[rsp], 0
	jne	SHORT $LN48@ThreadProc
	lea	rcx, OFFSET FLAT:?ThreadProc@COutputQueue@@IEAAKXZ$rtcName$0
	call	_RTC_UninitUse
$LN48@ThreadProc:
	cmp	BYTE PTR $T83327[rsp], 0
	jne	SHORT $LN49@ThreadProc
	lea	rcx, OFFSET FLAT:?ThreadProc@COutputQueue@@IEAAKXZ$rtcName$0
	call	_RTC_UninitUse
$LN49@ThreadProc:
	mov	rax, QWORD PTR this$[rsp]
	mov	rax, QWORD PTR [rax+56]
	mov	rcx, QWORD PTR this$[rsp]
	mov	rcx, QWORD PTR [rcx+56]
	mov	rax, QWORD PTR [rax]
	mov	rdx, QWORD PTR ppacket$82383[rsp]
	movsdx	xmm3, QWORD PTR [rdx+16]
	mov	rdx, QWORD PTR ppacket$82383[rsp]
	mov	r8, QWORD PTR [rdx+8]
	mov	rdx, QWORD PTR ppacket$82383[rsp]
	mov	rdx, QWORD PTR [rdx]
	call	QWORD PTR [rax+136]
; Line 367
	cmp	BYTE PTR $T83327[rsp], 0
	jne	SHORT $LN50@ThreadProc
	lea	rcx, OFFSET FLAT:?ThreadProc@COutputQueue@@IEAAKXZ$rtcName$0
	call	_RTC_UninitUse
$LN50@ThreadProc:
	mov	rax, QWORD PTR ppacket$82383[rsp]
	mov	QWORD PTR $T83317[rsp], rax
	mov	rcx, QWORD PTR $T83317[rsp]
	call	??3@YAXPEAX@Z				; operator delete
$LN1@ThreadProc:
; Line 369
	jmp	$LN33@ThreadProc
$LN34@ThreadProc:
; Line 370
	mov	rdi, rax
	mov	rcx, rsp
	lea	rdx, OFFSET FLAT:?ThreadProc@COutputQueue@@IEAAKXZ$rtcFrameData
	call	_RTC_CheckStackVars
	mov	rax, rdi
	add	rsp, 192				; 000000c0H
	pop	rdi
	ret	0
?ThreadProc@COutputQueue@@IEAAKXZ ENDP			; COutputQueue::ThreadProc
; Function compile flags: /Odtp /RTCsu
_TEXT	ENDS
;	COMDAT text$x
text$x	SEGMENT
bWait$82380 = 32
pSample$82381 = 40
lNumberToSend$82382 = 48
ppacket$82383 = 56
lck$82384 = 72
nProcessed$82415 = 100
hr$82421 = 116
lck$82422 = 136
hr$82440 = 148
$T83316 = 152
$T83317 = 160
$T83327 = 168
$T83328 = 169
$T83343 = 176
tv304 = 184
this$ = 208
?dtor$0@?0??ThreadProc@COutputQueue@@IEAAKXZ@4HA PROC	; `COutputQueue::ThreadProc'::`1'::dtor$0
	mov	QWORD PTR [rsp+8], rcx
	mov	QWORD PTR [rsp+16], rdx
	push	rbp
	push	rdi
	sub	rsp, 40					; 00000028H
	mov	rbp, rdx
	lea	rcx, QWORD PTR lck$82384[rbp]
	call	??1CAutoLock@@QEAA@XZ			; CAutoLock::~CAutoLock
	add	rsp, 40					; 00000028H
	pop	rdi
	pop	rbp
	ret	0
?dtor$0@?0??ThreadProc@COutputQueue@@IEAAKXZ@4HA ENDP	; `COutputQueue::ThreadProc'::`1'::dtor$0
; Function compile flags: /Odtp /RTCsu
bWait$82380 = 32
pSample$82381 = 40
lNumberToSend$82382 = 48
ppacket$82383 = 56
lck$82384 = 72
nProcessed$82415 = 100
hr$82421 = 116
lck$82422 = 136
hr$82440 = 148
$T83316 = 152
$T83317 = 160
$T83327 = 168
$T83328 = 169
$T83343 = 176
tv304 = 184
this$ = 208
?dtor$1@?0??ThreadProc@COutputQueue@@IEAAKXZ@4HA PROC	; `COutputQueue::ThreadProc'::`1'::dtor$1
	mov	QWORD PTR [rsp+8], rcx
	mov	QWORD PTR [rsp+16], rdx
	push	rbp
	push	rdi
	sub	rsp, 40					; 00000028H
	mov	rbp, rdx
	lea	rcx, QWORD PTR lck$82422[rbp]
	call	??1CAutoLock@@QEAA@XZ			; CAutoLock::~CAutoLock
	add	rsp, 40					; 00000028H
	pop	rdi
	pop	rbp
	ret	0
?dtor$1@?0??ThreadProc@COutputQueue@@IEAAKXZ@4HA ENDP	; `COutputQueue::ThreadProc'::`1'::dtor$1
text$x	ENDS
;	COMDAT pdata
; File c:\downloads\wpf mediakit - copy\src\filters\baseclasses\wxutil.h
pdata	SEGMENT
$pdata$??BCAMEvent@@QEBAPEAXXZ DD imagerel $LN3
	DD	imagerel $LN3+16
	DD	imagerel $unwind$??BCAMEvent@@QEBAPEAXXZ
pdata	ENDS
;	COMDAT xdata
xdata	SEGMENT
$unwind$??BCAMEvent@@QEBAPEAXXZ DD 010601H
	DD	07006H
; Function compile flags: /Odtp /RTCsu
xdata	ENDS
;	COMDAT ??BCAMEvent@@QEBAPEAXXZ
_TEXT	SEGMENT
this$ = 16
??BCAMEvent@@QEBAPEAXXZ PROC				; CAMEvent::operator void * __ptr64, COMDAT
; Line 123
$LN3:
	mov	QWORD PTR [rsp+8], rcx
	push	rdi
	mov	rax, QWORD PTR this$[rsp]
	mov	rax, QWORD PTR [rax]
	pop	rdi
	ret	0
??BCAMEvent@@QEBAPEAXXZ ENDP				; CAMEvent::operator void * __ptr64
_TEXT	ENDS
;	COMDAT pdata
; File c:\downloads\wpf mediakit - copy\src\filters\baseclasses\outputq.h
pdata	SEGMENT
$pdata$?IsSpecialSample@COutputQueue@@IEAAHPEAUIMediaSample@@@Z DD imagerel $LN5
	DD	imagerel $LN5+68
	DD	imagerel $unwind$?IsSpecialSample@COutputQueue@@IEAAHPEAUIMediaSample@@@Z
pdata	ENDS
;	COMDAT xdata
xdata	SEGMENT
$unwind$?IsSpecialSample@COutputQueue@@IEAAHPEAUIMediaSample@@@Z DD 022301H
	DD	0700b120fH
; Function compile flags: /Odtp /RTCsu
xdata	ENDS
;	COMDAT ?IsSpecialSample@COutputQueue@@IEAAHPEAUIMediaSample@@@Z
_TEXT	SEGMENT
tv65 = 0
this$ = 32
pSample$ = 40
?IsSpecialSample@COutputQueue@@IEAAHPEAUIMediaSample@@@Z PROC ; COutputQueue::IsSpecialSample, COMDAT
; Line 77
$LN5:
	mov	QWORD PTR [rsp+16], rdx
	mov	QWORD PTR [rsp+8], rcx
	push	rdi
	sub	rsp, 16
	mov	rdi, rsp
	mov	ecx, 4
	mov	eax, -858993460				; ccccccccH
	rep stosd
	mov	rcx, QWORD PTR [rsp+32]
; Line 78
	cmp	QWORD PTR pSample$[rsp], -16
	jbe	SHORT $LN3@IsSpecialS
	mov	DWORD PTR tv65[rsp], 1
	jmp	SHORT $LN4@IsSpecialS
$LN3@IsSpecialS:
	mov	DWORD PTR tv65[rsp], 0
$LN4@IsSpecialS:
	mov	eax, DWORD PTR tv65[rsp]
; Line 79
	add	rsp, 16
	pop	rdi
	ret	0
?IsSpecialSample@COutputQueue@@IEAAHPEAUIMediaSample@@@Z ENDP ; COutputQueue::IsSpecialSample
_TEXT	ENDS
PUBLIC	?QueueSample@COutputQueue@@IEAAXPEAUIMediaSample@@@Z ; COutputQueue::QueueSample
PUBLIC	?ReceiveMultiple@COutputQueue@@QEAAJPEAPEAUIMediaSample@@JPEAJ@Z ; COutputQueue::ReceiveMultiple
PUBLIC	?IsQueued@COutputQueue@@IEAAHXZ			; COutputQueue::IsQueued
PUBLIC	?SendAnyway@COutputQueue@@QEAAXXZ		; COutputQueue::SendAnyway
;	COMDAT pdata
; File c:\downloads\wpf mediakit - copy\src\filters\baseclasses\outputq.cpp
pdata	SEGMENT
$pdata$?SendAnyway@COutputQueue@@QEAAXXZ DD imagerel $LN6
	DD	imagerel $LN6+180
	DD	imagerel $unwind$?SendAnyway@COutputQueue@@QEAAXXZ
pdata	ENDS
;	COMDAT pdata
pdata	SEGMENT
$pdata$?dtor$0@?0??SendAnyway@COutputQueue@@QEAAXXZ@4HA DD imagerel ?dtor$0@?0??SendAnyway@COutputQueue@@QEAAXXZ@4HA
	DD	imagerel ?dtor$0@?0??SendAnyway@COutputQueue@@QEAAXXZ@4HA+35
	DD	imagerel $unwind$?dtor$0@?0??SendAnyway@COutputQueue@@QEAAXXZ@4HA
pdata	ENDS
;	COMDAT xdata
xdata	SEGMENT
$ip2state$?SendAnyway@COutputQueue@@QEAAXXZ DD imagerel ?SendAnyway@COutputQueue@@QEAAXXZ
	DD	0ffffffffH
	DD	imagerel ?SendAnyway@COutputQueue@@QEAAXXZ+121
	DD	00H
	DD	imagerel ?SendAnyway@COutputQueue@@QEAAXXZ+149
	DD	0ffffffffH
xdata	ENDS
;	COMDAT xdata
xdata	SEGMENT
$unwind$?dtor$0@?0??SendAnyway@COutputQueue@@QEAAXXZ@4HA DD 031001H
	DD	0700c4210H
	DD	0500bH
xdata	ENDS
;	COMDAT xdata
xdata	SEGMENT
$unwind$?SendAnyway@COutputQueue@@QEAAXXZ DD 022711H
	DD	07006b20aH
	DD	imagerel __CxxFrameHandler3
	DD	imagerel $cppxdata$?SendAnyway@COutputQueue@@QEAAXXZ
xdata	ENDS
;	COMDAT xdata
xdata	SEGMENT
$stateUnwindMap$?SendAnyway@COutputQueue@@QEAAXXZ DD 0ffffffffH
	DD	imagerel ?dtor$0@?0??SendAnyway@COutputQueue@@QEAAXXZ@4HA
xdata	ENDS
;	COMDAT CONST
CONST	SEGMENT
?SendAnyway@COutputQueue@@QEAAXXZ$rtcName$0 DB 06eH	; COutputQueue::SendAnyway
	DB	050H
	DB	072H
	DB	06fH
	DB	063H
	DB	065H
	DB	073H
	DB	073H
	DB	065H
	DB	064H
	DB	00H
	ORG $+1
?SendAnyway@COutputQueue@@QEAAXXZ$rtcName$1 DB 06cH	; COutputQueue::SendAnyway
	DB	063H
	DB	06bH
	DB	00H
?SendAnyway@COutputQueue@@QEAAXXZ$rtcVarDesc DD 048H	; COutputQueue::SendAnyway
	DD	08H
	DQ	FLAT:?SendAnyway@COutputQueue@@QEAAXXZ$rtcName$1
	DD	024H
	DD	04H
	DQ	FLAT:?SendAnyway@COutputQueue@@QEAAXXZ$rtcName$0
	ORG $+96
?SendAnyway@COutputQueue@@QEAAXXZ$rtcFrameData DD 02H	; COutputQueue::SendAnyway
	DD	00H
	DQ	FLAT:?SendAnyway@COutputQueue@@QEAAXXZ$rtcVarDesc
$cppxdata$?SendAnyway@COutputQueue@@QEAAXXZ DD 019930522H
	DD	01H
	DD	imagerel $stateUnwindMap$?SendAnyway@COutputQueue@@QEAAXXZ
	DD	00H
	DD	00H
	DD	03H
	DD	imagerel $ip2state$?SendAnyway@COutputQueue@@QEAAXXZ
	DD	058H
	DD	00H
	DD	01H
; Function compile flags: /Odtp /RTCsu
CONST	ENDS
;	COMDAT ?SendAnyway@COutputQueue@@QEAAXXZ
_TEXT	SEGMENT
nProcessed$82456 = 36
lck$82458 = 72
$T83392 = 88
this$ = 112
?SendAnyway@COutputQueue@@QEAAXXZ PROC			; COutputQueue::SendAnyway, COMDAT
; Line 374
$LN6:
	mov	QWORD PTR [rsp+8], rcx
	push	rdi
	sub	rsp, 96					; 00000060H
	mov	rdi, rsp
	mov	ecx, 24
	mov	eax, -858993460				; ccccccccH
	rep stosd
	mov	rcx, QWORD PTR [rsp+112]
	mov	QWORD PTR $T83392[rsp], -2
; Line 375
	mov	rcx, QWORD PTR this$[rsp]
	call	?IsQueued@COutputQueue@@IEAAHXZ		; COutputQueue::IsQueued
	test	eax, eax
	jne	SHORT $LN2@SendAnyway
; Line 379
	mov	rax, QWORD PTR this$[rsp]
	mov	DWORD PTR [rax+144], 1
; Line 381
	lea	r9, QWORD PTR nProcessed$82456[rsp]
	xor	r8d, r8d
	xor	edx, edx
	mov	rcx, QWORD PTR this$[rsp]
	call	?ReceiveMultiple@COutputQueue@@QEAAJPEAPEAUIMediaSample@@JPEAJ@Z ; COutputQueue::ReceiveMultiple
; Line 382
	mov	rax, QWORD PTR this$[rsp]
	mov	DWORD PTR [rax+144], 0
; Line 384
	jmp	SHORT $LN1@SendAnyway
$LN2@SendAnyway:
; Line 385
	mov	rdx, QWORD PTR this$[rsp]
	lea	rcx, QWORD PTR lck$82458[rsp]
	call	??0CAutoLock@@QEAA@PEAVCCritSec@@@Z	; CAutoLock::CAutoLock
	npad	1
; Line 386
	mov	rdx, -2
	mov	rcx, QWORD PTR this$[rsp]
	call	?QueueSample@COutputQueue@@IEAAXPEAUIMediaSample@@@Z ; COutputQueue::QueueSample
; Line 387
	mov	rcx, QWORD PTR this$[rsp]
	call	?NotifyThread@COutputQueue@@IEAAXXZ	; COutputQueue::NotifyThread
	npad	1
; Line 388
	lea	rcx, QWORD PTR lck$82458[rsp]
	call	??1CAutoLock@@QEAA@XZ			; CAutoLock::~CAutoLock
$LN1@SendAnyway:
; Line 389
	mov	rcx, rsp
	lea	rdx, OFFSET FLAT:?SendAnyway@COutputQueue@@QEAAXXZ$rtcFrameData
	call	_RTC_CheckStackVars
	add	rsp, 96					; 00000060H
	pop	rdi
	ret	0
?SendAnyway@COutputQueue@@QEAAXXZ ENDP			; COutputQueue::SendAnyway
; Function compile flags: /Odtp /RTCsu
_TEXT	ENDS
;	COMDAT text$x
text$x	SEGMENT
nProcessed$82456 = 36
lck$82458 = 72
$T83392 = 88
this$ = 112
?dtor$0@?0??SendAnyway@COutputQueue@@QEAAXXZ@4HA PROC	; `COutputQueue::SendAnyway'::`1'::dtor$0
	mov	QWORD PTR [rsp+8], rcx
	mov	QWORD PTR [rsp+16], rdx
	push	rbp
	push	rdi
	sub	rsp, 40					; 00000028H
	mov	rbp, rdx
	lea	rcx, QWORD PTR lck$82458[rbp]
	call	??1CAutoLock@@QEAA@XZ			; CAutoLock::~CAutoLock
	add	rsp, 40					; 00000028H
	pop	rdi
	pop	rbp
	ret	0
?dtor$0@?0??SendAnyway@COutputQueue@@QEAAXXZ@4HA ENDP	; `COutputQueue::SendAnyway'::`1'::dtor$0
text$x	ENDS
;	COMDAT pdata
; File c:\downloads\wpf mediakit - copy\src\filters\baseclasses\outputq.h
pdata	SEGMENT
$pdata$?IsQueued@COutputQueue@@IEAAHXZ DD imagerel $LN5
	DD	imagerel $LN5+67
	DD	imagerel $unwind$?IsQueued@COutputQueue@@IEAAHXZ
pdata	ENDS
;	COMDAT xdata
xdata	SEGMENT
$unwind$?IsQueued@COutputQueue@@IEAAHXZ DD 021e01H
	DD	07006120aH
; Function compile flags: /Odtp /RTCsu
xdata	ENDS
;	COMDAT ?IsQueued@COutputQueue@@IEAAHXZ
_TEXT	SEGMENT
tv66 = 0
this$ = 32
?IsQueued@COutputQueue@@IEAAHXZ PROC			; COutputQueue::IsQueued, COMDAT
; Line 69
$LN5:
	mov	QWORD PTR [rsp+8], rcx
	push	rdi
	sub	rsp, 16
	mov	rdi, rsp
	mov	ecx, 4
	mov	eax, -858993460				; ccccccccH
	rep stosd
	mov	rcx, QWORD PTR [rsp+32]
; Line 70
	mov	rax, QWORD PTR this$[rsp]
	cmp	QWORD PTR [rax+80], 0
	je	SHORT $LN3@IsQueued
	mov	DWORD PTR tv66[rsp], 1
	jmp	SHORT $LN4@IsQueued
$LN3@IsQueued:
	mov	DWORD PTR tv66[rsp], 0
$LN4@IsQueued:
	mov	eax, DWORD PTR tv66[rsp]
; Line 71
	add	rsp, 16
	pop	rdi
	ret	0
?IsQueued@COutputQueue@@IEAAHXZ ENDP			; COutputQueue::IsQueued
_TEXT	ENDS
PUBLIC	?NewSegment@COutputQueue@@QEAAX_J0N@Z		; COutputQueue::NewSegment
;	COMDAT pdata
; File c:\downloads\wpf mediakit - copy\src\filters\baseclasses\outputq.cpp
pdata	SEGMENT
$pdata$?NewSegment@COutputQueue@@QEAAX_J0N@Z DD imagerel $LN10
	DD	imagerel $LN10+352
	DD	imagerel $unwind$?NewSegment@COutputQueue@@QEAAX_J0N@Z
pdata	ENDS
;	COMDAT pdata
pdata	SEGMENT
$pdata$?dtor$0@?0??NewSegment@COutputQueue@@QEAAX_J0N@Z@4HA DD imagerel ?dtor$0@?0??NewSegment@COutputQueue@@QEAAX_J0N@Z@4HA
	DD	imagerel ?dtor$0@?0??NewSegment@COutputQueue@@QEAAX_J0N@Z@4HA+35
	DD	imagerel $unwind$?dtor$0@?0??NewSegment@COutputQueue@@QEAAX_J0N@Z@4HA
pdata	ENDS
;	COMDAT xdata
xdata	SEGMENT
$ip2state$?NewSegment@COutputQueue@@QEAAX_J0N@Z DD imagerel ?NewSegment@COutputQueue@@QEAAX_J0N@Z
	DD	0ffffffffH
	DD	imagerel ?NewSegment@COutputQueue@@QEAAX_J0N@Z+278
	DD	00H
	DD	imagerel ?NewSegment@COutputQueue@@QEAAX_J0N@Z+321
	DD	0ffffffffH
xdata	ENDS
;	COMDAT xdata
xdata	SEGMENT
$unwind$?dtor$0@?0??NewSegment@COutputQueue@@QEAAX_J0N@Z@4HA DD 031001H
	DD	0700c4210H
	DD	0500bH
xdata	ENDS
;	COMDAT xdata
xdata	SEGMENT
$unwind$?NewSegment@COutputQueue@@QEAAX_J0N@Z DD 023711H
	DD	07016b21aH
	DD	imagerel __CxxFrameHandler3
	DD	imagerel $cppxdata$?NewSegment@COutputQueue@@QEAAX_J0N@Z
xdata	ENDS
;	COMDAT xdata
xdata	SEGMENT
$stateUnwindMap$?NewSegment@COutputQueue@@QEAAX_J0N@Z DD 0ffffffffH
	DD	imagerel ?dtor$0@?0??NewSegment@COutputQueue@@QEAAX_J0N@Z@4HA
xdata	ENDS
;	COMDAT CONST
CONST	SEGMENT
?NewSegment@COutputQueue@@QEAAX_J0N@Z$rtcName$0 DB 06cH	; COutputQueue::NewSegment
	DB	063H
	DB	06bH
	DB	00H
	ORG $+12
?NewSegment@COutputQueue@@QEAAX_J0N@Z$rtcVarDesc DD 038H ; COutputQueue::NewSegment
	DD	08H
	DQ	FLAT:?NewSegment@COutputQueue@@QEAAX_J0N@Z$rtcName$0
	ORG $+48
?NewSegment@COutputQueue@@QEAAX_J0N@Z$rtcFrameData DD 01H ; COutputQueue::NewSegment
	DD	00H
	DQ	FLAT:?NewSegment@COutputQueue@@QEAAX_J0N@Z$rtcVarDesc
$cppxdata$?NewSegment@COutputQueue@@QEAAX_J0N@Z DD 019930522H
	DD	01H
	DD	imagerel $stateUnwindMap$?NewSegment@COutputQueue@@QEAAX_J0N@Z
	DD	00H
	DD	00H
	DD	03H
	DD	imagerel $ip2state$?NewSegment@COutputQueue@@QEAAX_J0N@Z
	DD	050H
	DD	00H
	DD	01H
; Function compile flags: /Odtp /RTCsu
CONST	ENDS
;	COMDAT ?NewSegment@COutputQueue@@QEAAX_J0N@Z
_TEXT	SEGMENT
ppack$82474 = 32
lck$82478 = 56
$T83423 = 72
$T83429 = 80
this$ = 112
tStart$ = 120
tStop$ = 128
dRate$ = 136
?NewSegment@COutputQueue@@QEAAX_J0N@Z PROC		; COutputQueue::NewSegment, COMDAT
; Line 396
$LN10:
	movsdx	QWORD PTR [rsp+32], xmm3
	mov	QWORD PTR [rsp+24], r8
	mov	QWORD PTR [rsp+16], rdx
	mov	QWORD PTR [rsp+8], rcx
	push	rdi
	sub	rsp, 96					; 00000060H
	mov	rdi, rsp
	mov	ecx, 24
	mov	eax, -858993460				; ccccccccH
	rep stosd
	mov	rcx, QWORD PTR [rsp+112]
	mov	QWORD PTR $T83429[rsp], -2
; Line 397
	mov	rcx, QWORD PTR this$[rsp]
	call	?IsQueued@COutputQueue@@IEAAHXZ		; COutputQueue::IsQueued
	test	eax, eax
	jne	SHORT $LN6@NewSegment
; Line 398
	mov	rax, QWORD PTR this$[rsp]
	mov	eax, DWORD PTR [rax+148]
	test	eax, eax
	jne	SHORT $LN5@NewSegment
; Line 399
	mov	rax, QWORD PTR this$[rsp]
	cmp	DWORD PTR [rax+72], 0
	je	SHORT $LN4@NewSegment
; Line 400
	mov	rcx, QWORD PTR this$[rsp]
	call	?SendAnyway@COutputQueue@@QEAAXXZ	; COutputQueue::SendAnyway
$LN4@NewSegment:
; Line 402
	mov	rax, QWORD PTR this$[rsp]
	mov	rax, QWORD PTR [rax+56]
	mov	rcx, QWORD PTR this$[rsp]
	mov	rcx, QWORD PTR [rcx+56]
	mov	rax, QWORD PTR [rax]
	movsdx	xmm3, QWORD PTR dRate$[rsp]
	mov	r8, QWORD PTR tStop$[rsp]
	mov	rdx, QWORD PTR tStart$[rsp]
	call	QWORD PTR [rax+136]
$LN5@NewSegment:
; Line 404
	jmp	$LN7@NewSegment
$LN6@NewSegment:
; Line 405
	mov	rax, QWORD PTR this$[rsp]
	mov	eax, DWORD PTR [rax+148]
	test	eax, eax
	jne	$LN7@NewSegment
; Line 415
	mov	ecx, 24
	call	??2@YAPEAX_K@Z				; operator new
	mov	QWORD PTR $T83423[rsp], rax
	mov	rax, QWORD PTR $T83423[rsp]
	mov	QWORD PTR ppack$82474[rsp], rax
; Line 416
	cmp	QWORD PTR ppack$82474[rsp], 0
	jne	SHORT $LN1@NewSegment
; Line 417
	jmp	SHORT $LN7@NewSegment
$LN1@NewSegment:
; Line 419
	mov	rax, QWORD PTR ppack$82474[rsp]
	mov	rcx, QWORD PTR tStart$[rsp]
	mov	QWORD PTR [rax], rcx
; Line 420
	mov	rax, QWORD PTR ppack$82474[rsp]
	mov	rcx, QWORD PTR tStop$[rsp]
	mov	QWORD PTR [rax+8], rcx
; Line 421
	mov	rax, QWORD PTR ppack$82474[rsp]
	movsdx	xmm0, QWORD PTR dRate$[rsp]
	movsdx	QWORD PTR [rax+16], xmm0
; Line 423
	mov	rdx, QWORD PTR this$[rsp]
	lea	rcx, QWORD PTR lck$82478[rsp]
	call	??0CAutoLock@@QEAA@PEAVCCritSec@@@Z	; CAutoLock::CAutoLock
	npad	1
; Line 424
	mov	rdx, -5
	mov	rcx, QWORD PTR this$[rsp]
	call	?QueueSample@COutputQueue@@IEAAXPEAUIMediaSample@@@Z ; COutputQueue::QueueSample
; Line 425
	mov	rdx, QWORD PTR ppack$82474[rsp]
	mov	rcx, QWORD PTR this$[rsp]
	call	?QueueSample@COutputQueue@@IEAAXPEAUIMediaSample@@@Z ; COutputQueue::QueueSample
; Line 426
	mov	rcx, QWORD PTR this$[rsp]
	call	?NotifyThread@COutputQueue@@IEAAXXZ	; COutputQueue::NotifyThread
	npad	1
; Line 427
	lea	rcx, QWORD PTR lck$82478[rsp]
	call	??1CAutoLock@@QEAA@XZ			; CAutoLock::~CAutoLock
$LN7@NewSegment:
; Line 429
	mov	rcx, rsp
	lea	rdx, OFFSET FLAT:?NewSegment@COutputQueue@@QEAAX_J0N@Z$rtcFrameData
	call	_RTC_CheckStackVars
	add	rsp, 96					; 00000060H
	pop	rdi
	ret	0
?NewSegment@COutputQueue@@QEAAX_J0N@Z ENDP		; COutputQueue::NewSegment
; Function compile flags: /Odtp /RTCsu
_TEXT	ENDS
;	COMDAT text$x
text$x	SEGMENT
ppack$82474 = 32
lck$82478 = 56
$T83423 = 72
$T83429 = 80
this$ = 112
tStart$ = 120
tStop$ = 128
dRate$ = 136
?dtor$0@?0??NewSegment@COutputQueue@@QEAAX_J0N@Z@4HA PROC ; `COutputQueue::NewSegment'::`1'::dtor$0
	mov	QWORD PTR [rsp+8], rcx
	mov	QWORD PTR [rsp+16], rdx
	push	rbp
	push	rdi
	sub	rsp, 40					; 00000028H
	mov	rbp, rdx
	lea	rcx, QWORD PTR lck$82478[rbp]
	call	??1CAutoLock@@QEAA@XZ			; CAutoLock::~CAutoLock
	add	rsp, 40					; 00000028H
	pop	rdi
	pop	rbp
	ret	0
?dtor$0@?0??NewSegment@COutputQueue@@QEAAX_J0N@Z@4HA ENDP ; `COutputQueue::NewSegment'::`1'::dtor$0
text$x	ENDS
PUBLIC	?EOS@COutputQueue@@QEAAXXZ			; COutputQueue::EOS
;	COMDAT pdata
pdata	SEGMENT
$pdata$?EOS@COutputQueue@@QEAAXXZ DD imagerel $LN10
	DD	imagerel $LN10+294
	DD	imagerel $unwind$?EOS@COutputQueue@@QEAAXXZ
pdata	ENDS
;	COMDAT pdata
pdata	SEGMENT
$pdata$?dtor$0@?0??EOS@COutputQueue@@QEAAXXZ@4HA DD imagerel ?dtor$0@?0??EOS@COutputQueue@@QEAAXXZ@4HA
	DD	imagerel ?dtor$0@?0??EOS@COutputQueue@@QEAAXXZ@4HA+35
	DD	imagerel $unwind$?dtor$0@?0??EOS@COutputQueue@@QEAAXXZ@4HA
pdata	ENDS
;	COMDAT xdata
xdata	SEGMENT
$ip2state$?EOS@COutputQueue@@QEAAXXZ DD imagerel ?EOS@COutputQueue@@QEAAXXZ
	DD	0ffffffffH
	DD	imagerel ?EOS@COutputQueue@@QEAAXXZ+55
	DD	00H
	DD	imagerel ?EOS@COutputQueue@@QEAAXXZ+263
	DD	0ffffffffH
xdata	ENDS
;	COMDAT xdata
xdata	SEGMENT
$unwind$?dtor$0@?0??EOS@COutputQueue@@QEAAXXZ@4HA DD 031001H
	DD	0700c4210H
	DD	0500bH
xdata	ENDS
;	COMDAT xdata
xdata	SEGMENT
$unwind$?EOS@COutputQueue@@QEAAXXZ DD 022711H
	DD	07006720aH
	DD	imagerel __CxxFrameHandler3
	DD	imagerel $cppxdata$?EOS@COutputQueue@@QEAAXXZ
xdata	ENDS
;	COMDAT xdata
xdata	SEGMENT
$stateUnwindMap$?EOS@COutputQueue@@QEAAXXZ DD 0ffffffffH
	DD	imagerel ?dtor$0@?0??EOS@COutputQueue@@QEAAXXZ@4HA
xdata	ENDS
;	COMDAT CONST
CONST	SEGMENT
?EOS@COutputQueue@@QEAAXXZ$rtcName$0 DB 06cH		; COutputQueue::EOS
	DB	063H
	DB	06bH
	DB	00H
	ORG $+12
?EOS@COutputQueue@@QEAAXXZ$rtcVarDesc DD 028H		; COutputQueue::EOS
	DD	08H
	DQ	FLAT:?EOS@COutputQueue@@QEAAXXZ$rtcName$0
	ORG $+48
?EOS@COutputQueue@@QEAAXXZ$rtcFrameData DD 01H		; COutputQueue::EOS
	DD	00H
	DQ	FLAT:?EOS@COutputQueue@@QEAAXXZ$rtcVarDesc
$cppxdata$?EOS@COutputQueue@@QEAAXXZ DD 019930522H
	DD	01H
	DD	imagerel $stateUnwindMap$?EOS@COutputQueue@@QEAAXXZ
	DD	00H
	DD	00H
	DD	03H
	DD	imagerel $ip2state$?EOS@COutputQueue@@QEAAXXZ
	DD	038H
	DD	00H
	DD	01H
; Function compile flags: /Odtp /RTCsu
CONST	ENDS
;	COMDAT ?EOS@COutputQueue@@QEAAXXZ
_TEXT	SEGMENT
lck$ = 40
hr$82491 = 52
$T83455 = 56
this$ = 80
?EOS@COutputQueue@@QEAAXXZ PROC				; COutputQueue::EOS, COMDAT
; Line 436
$LN10:
	mov	QWORD PTR [rsp+8], rcx
	push	rdi
	sub	rsp, 64					; 00000040H
	mov	rdi, rsp
	mov	ecx, 16
	mov	eax, -858993460				; ccccccccH
	rep stosd
	mov	rcx, QWORD PTR [rsp+80]
	mov	QWORD PTR $T83455[rsp], -2
; Line 437
	mov	rdx, QWORD PTR this$[rsp]
	lea	rcx, QWORD PTR lck$[rsp]
	call	??0CAutoLock@@QEAA@PEAVCCritSec@@@Z	; CAutoLock::CAutoLock
	npad	1
; Line 438
	mov	rcx, QWORD PTR this$[rsp]
	call	?IsQueued@COutputQueue@@IEAAHXZ		; COutputQueue::IsQueued
	test	eax, eax
	jne	$LN6@EOS
; Line 439
	mov	rax, QWORD PTR this$[rsp]
	cmp	DWORD PTR [rax+72], 0
	je	SHORT $LN5@EOS
; Line 440
	mov	rcx, QWORD PTR this$[rsp]
	call	?SendAnyway@COutputQueue@@QEAAXXZ	; COutputQueue::SendAnyway
$LN5@EOS:
; Line 442
	mov	rax, QWORD PTR this$[rsp]
	mov	eax, DWORD PTR [rax+148]
	test	eax, eax
	jne	SHORT $LN4@EOS
; Line 443
	lea	r8, OFFSET FLAT:$SG82490
	mov	edx, 2
	mov	ecx, 2
	call	?DbgLogInfo@@YAXKKPEB_WZZ		; DbgLogInfo
; Line 444
	mov	rax, QWORD PTR this$[rsp]
	mov	DWORD PTR [rax+132], 0
; Line 445
	mov	rax, QWORD PTR this$[rsp]
	mov	rax, QWORD PTR [rax+56]
	mov	rcx, QWORD PTR this$[rsp]
	mov	rcx, QWORD PTR [rcx+56]
	mov	rax, QWORD PTR [rax]
	call	QWORD PTR [rax+112]
	mov	DWORD PTR hr$82491[rsp], eax
; Line 446
	cmp	DWORD PTR hr$82491[rsp], 0
	jge	SHORT $LN4@EOS
; Line 447
	lea	r8, OFFSET FLAT:$SG82494
	mov	edx, 2
	mov	ecx, 16
	call	?DbgLogInfo@@YAXKKPEB_WZZ		; DbgLogInfo
$LN4@EOS:
; Line 450
	jmp	SHORT $LN2@EOS
$LN6@EOS:
; Line 451
	mov	rax, QWORD PTR this$[rsp]
	mov	eax, DWORD PTR [rax+148]
	test	eax, eax
	jne	SHORT $LN2@EOS
; Line 452
	mov	rax, QWORD PTR this$[rsp]
	mov	DWORD PTR [rax+132], 0
; Line 453
	mov	rdx, -3
	mov	rcx, QWORD PTR this$[rsp]
	call	?QueueSample@COutputQueue@@IEAAXPEAUIMediaSample@@@Z ; COutputQueue::QueueSample
; Line 454
	mov	rcx, QWORD PTR this$[rsp]
	call	?NotifyThread@COutputQueue@@IEAAXXZ	; COutputQueue::NotifyThread
	npad	1
$LN2@EOS:
; Line 457
	lea	rcx, QWORD PTR lck$[rsp]
	call	??1CAutoLock@@QEAA@XZ			; CAutoLock::~CAutoLock
	mov	rcx, rsp
	lea	rdx, OFFSET FLAT:?EOS@COutputQueue@@QEAAXXZ$rtcFrameData
	call	_RTC_CheckStackVars
	add	rsp, 64					; 00000040H
	pop	rdi
	ret	0
?EOS@COutputQueue@@QEAAXXZ ENDP				; COutputQueue::EOS
; Function compile flags: /Odtp /RTCsu
_TEXT	ENDS
;	COMDAT text$x
text$x	SEGMENT
lck$ = 40
hr$82491 = 52
$T83455 = 56
this$ = 80
?dtor$0@?0??EOS@COutputQueue@@QEAAXXZ@4HA PROC		; `COutputQueue::EOS'::`1'::dtor$0
	mov	QWORD PTR [rsp+8], rcx
	mov	QWORD PTR [rsp+16], rdx
	push	rbp
	push	rdi
	sub	rsp, 40					; 00000028H
	mov	rbp, rdx
	lea	rcx, QWORD PTR lck$[rbp]
	call	??1CAutoLock@@QEAA@XZ			; CAutoLock::~CAutoLock
	add	rsp, 40					; 00000028H
	pop	rdi
	pop	rbp
	ret	0
?dtor$0@?0??EOS@COutputQueue@@QEAAXXZ@4HA ENDP		; `COutputQueue::EOS'::`1'::dtor$0
text$x	ENDS
PUBLIC	?Reset@CAMEvent@@QEAAXXZ			; CAMEvent::Reset
PUBLIC	?BeginFlush@COutputQueue@@QEAAXXZ		; COutputQueue::BeginFlush
;	COMDAT pdata
pdata	SEGMENT
$pdata$?BeginFlush@COutputQueue@@QEAAXXZ DD imagerel $LN10
	DD	imagerel $LN10+342
	DD	imagerel $unwind$?BeginFlush@COutputQueue@@QEAAXXZ
pdata	ENDS
;	COMDAT pdata
pdata	SEGMENT
$pdata$?dtor$0@?0??BeginFlush@COutputQueue@@QEAAXXZ@4HA DD imagerel ?dtor$0@?0??BeginFlush@COutputQueue@@QEAAXXZ@4HA
	DD	imagerel ?dtor$0@?0??BeginFlush@COutputQueue@@QEAAXXZ@4HA+35
	DD	imagerel $unwind$?dtor$0@?0??BeginFlush@COutputQueue@@QEAAXXZ@4HA
pdata	ENDS
;	COMDAT xdata
xdata	SEGMENT
$ip2state$?BeginFlush@COutputQueue@@QEAAXXZ DD imagerel ?BeginFlush@COutputQueue@@QEAAXXZ
	DD	0ffffffffH
	DD	imagerel ?BeginFlush@COutputQueue@@QEAAXXZ+73
	DD	00H
	DD	imagerel ?BeginFlush@COutputQueue@@QEAAXXZ+148
	DD	0ffffffffH
	DD	imagerel ?BeginFlush@COutputQueue@@QEAAXXZ+163
	DD	00H
	DD	imagerel ?BeginFlush@COutputQueue@@QEAAXXZ+191
	DD	0ffffffffH
xdata	ENDS
;	COMDAT xdata
xdata	SEGMENT
$unwind$?dtor$0@?0??BeginFlush@COutputQueue@@QEAAXXZ@4HA DD 031001H
	DD	0700c4210H
	DD	0500bH
xdata	ENDS
;	COMDAT xdata
xdata	SEGMENT
$unwind$?BeginFlush@COutputQueue@@QEAAXXZ DD 022711H
	DD	07006b20aH
	DD	imagerel __CxxFrameHandler3
	DD	imagerel $cppxdata$?BeginFlush@COutputQueue@@QEAAXXZ
xdata	ENDS
;	COMDAT xdata
xdata	SEGMENT
$stateUnwindMap$?BeginFlush@COutputQueue@@QEAAXXZ DD 0ffffffffH
	DD	imagerel ?dtor$0@?0??BeginFlush@COutputQueue@@QEAAXXZ@4HA
xdata	ENDS
;	COMDAT CONST
CONST	SEGMENT
?BeginFlush@COutputQueue@@QEAAXXZ$rtcName$0 DB 06cH	; COutputQueue::BeginFlush
	DB	063H
	DB	06bH
	DB	00H
?BeginFlush@COutputQueue@@QEAAXXZ$rtcName$1 DB 06cH	; COutputQueue::BeginFlush
	DB	063H
	DB	06bH
	DB	00H
$cppxdata$?BeginFlush@COutputQueue@@QEAAXXZ DD 019930522H
	DD	01H
	DD	imagerel $stateUnwindMap$?BeginFlush@COutputQueue@@QEAAXXZ
	DD	00H
	DD	00H
	DD	05H
	DD	imagerel $ip2state$?BeginFlush@COutputQueue@@QEAAXXZ
	DD	058H
	DD	00H
	DD	01H
?BeginFlush@COutputQueue@@QEAAXXZ$rtcVarDesc DD 048H	; COutputQueue::BeginFlush
	DD	08H
	DQ	FLAT:?BeginFlush@COutputQueue@@QEAAXXZ$rtcName$1
	DD	028H
	DD	08H
	DQ	FLAT:?BeginFlush@COutputQueue@@QEAAXXZ$rtcName$0
	ORG $+96
?BeginFlush@COutputQueue@@QEAAXXZ$rtcFrameData DD 02H	; COutputQueue::BeginFlush
	DD	00H
	DQ	FLAT:?BeginFlush@COutputQueue@@QEAAXXZ$rtcVarDesc
; Function compile flags: /Odtp /RTCsu
CONST	ENDS
;	COMDAT ?BeginFlush@COutputQueue@@QEAAXXZ
_TEXT	SEGMENT
lck$82504 = 40
lck$82510 = 72
$T83483 = 88
this$ = 112
?BeginFlush@COutputQueue@@QEAAXXZ PROC			; COutputQueue::BeginFlush, COMDAT
; Line 463
$LN10:
	mov	QWORD PTR [rsp+8], rcx
	push	rdi
	sub	rsp, 96					; 00000060H
	mov	rdi, rsp
	mov	ecx, 24
	mov	eax, -858993460				; ccccccccH
	rep stosd
	mov	rcx, QWORD PTR [rsp+112]
	mov	QWORD PTR $T83483[rsp], -2
; Line 464
	mov	rcx, QWORD PTR this$[rsp]
	call	?IsQueued@COutputQueue@@IEAAHXZ		; COutputQueue::IsQueued
	test	eax, eax
	je	$LN5@BeginFlush
; Line 466
	mov	rdx, QWORD PTR this$[rsp]
	lea	rcx, QWORD PTR lck$82504[rsp]
	call	??0CAutoLock@@QEAA@PEAVCCritSec@@@Z	; CAutoLock::CAutoLock
	npad	1
; Line 473
	mov	rax, QWORD PTR this$[rsp]
	mov	DWORD PTR [rax+128], 1
; Line 477
	mov	rax, QWORD PTR this$[rsp]
	mov	eax, DWORD PTR [rax+148]
	test	eax, eax
	jne	SHORT $LN4@BeginFlush
; Line 478
	mov	rax, QWORD PTR this$[rsp]
	mov	DWORD PTR [rax+148], 1
$LN4@BeginFlush:
; Line 483
	mov	rax, QWORD PTR this$[rsp]
	cmp	DWORD PTR [rax+132], 0
	je	SHORT $LN3@BeginFlush
	mov	rax, QWORD PTR this$[rsp]
	movzx	eax, BYTE PTR [rax+136]
	test	eax, eax
	je	SHORT $LN3@BeginFlush
; Line 484
	lea	rcx, QWORD PTR lck$82504[rsp]
	call	??1CAutoLock@@QEAA@XZ			; CAutoLock::~CAutoLock
	jmp	$LN6@BeginFlush
$LN3@BeginFlush:
; Line 488
	mov	rax, QWORD PTR this$[rsp]
	add	rax, 96					; 00000060H
	mov	rcx, rax
	call	?Reset@CAMEvent@@QEAAXXZ		; CAMEvent::Reset
; Line 490
	mov	rcx, QWORD PTR this$[rsp]
	call	?NotifyThread@COutputQueue@@IEAAXXZ	; COutputQueue::NotifyThread
	npad	1
; Line 491
	lea	rcx, QWORD PTR lck$82504[rsp]
	call	??1CAutoLock@@QEAA@XZ			; CAutoLock::~CAutoLock
; Line 495
	mov	rax, QWORD PTR this$[rsp]
	mov	rax, QWORD PTR [rax+56]
	mov	rcx, QWORD PTR this$[rsp]
	mov	rcx, QWORD PTR [rcx+56]
	mov	rax, QWORD PTR [rax]
	call	QWORD PTR [rax+120]
; Line 496
	jmp	SHORT $LN6@BeginFlush
$LN5@BeginFlush:
; Line 498
	mov	rax, QWORD PTR this$[rsp]
	mov	rax, QWORD PTR [rax+56]
	mov	rcx, QWORD PTR this$[rsp]
	mov	rcx, QWORD PTR [rcx+56]
	mov	rax, QWORD PTR [rax]
	call	QWORD PTR [rax+120]
; Line 499
	mov	rdx, QWORD PTR this$[rsp]
	lea	rcx, QWORD PTR lck$82510[rsp]
	call	??0CAutoLock@@QEAA@PEAVCCritSec@@@Z	; CAutoLock::CAutoLock
; Line 502
	mov	rax, QWORD PTR this$[rsp]
	mov	DWORD PTR [rax+128], 1
; Line 506
	mov	rax, QWORD PTR this$[rsp]
	mov	eax, DWORD PTR [rax+148]
	test	eax, eax
	jne	SHORT $LN1@BeginFlush
; Line 507
	mov	rax, QWORD PTR this$[rsp]
	mov	DWORD PTR [rax+148], 1
$LN1@BeginFlush:
; Line 509
	lea	rcx, QWORD PTR lck$82510[rsp]
	call	??1CAutoLock@@QEAA@XZ			; CAutoLock::~CAutoLock
$LN6@BeginFlush:
; Line 511
	mov	rcx, rsp
	lea	rdx, OFFSET FLAT:?BeginFlush@COutputQueue@@QEAAXXZ$rtcFrameData
	call	_RTC_CheckStackVars
	add	rsp, 96					; 00000060H
	pop	rdi
	ret	0
?BeginFlush@COutputQueue@@QEAAXXZ ENDP			; COutputQueue::BeginFlush
; Function compile flags: /Odtp /RTCsu
_TEXT	ENDS
;	COMDAT text$x
text$x	SEGMENT
lck$82504 = 40
lck$82510 = 72
$T83483 = 88
this$ = 112
?dtor$0@?0??BeginFlush@COutputQueue@@QEAAXXZ@4HA PROC	; `COutputQueue::BeginFlush'::`1'::dtor$0
	mov	QWORD PTR [rsp+8], rcx
	mov	QWORD PTR [rsp+16], rdx
	push	rbp
	push	rdi
	sub	rsp, 40					; 00000028H
	mov	rbp, rdx
	lea	rcx, QWORD PTR lck$82504[rbp]
	call	??1CAutoLock@@QEAA@XZ			; CAutoLock::~CAutoLock
	add	rsp, 40					; 00000028H
	pop	rdi
	pop	rbp
	ret	0
?dtor$0@?0??BeginFlush@COutputQueue@@QEAAXXZ@4HA ENDP	; `COutputQueue::BeginFlush'::`1'::dtor$0
text$x	ENDS
EXTRN	__imp_ResetEvent:PROC
;	COMDAT pdata
; File c:\downloads\wpf mediakit - copy\src\filters\baseclasses\wxutil.h
pdata	SEGMENT
$pdata$?Reset@CAMEvent@@QEAAXXZ DD imagerel $LN3
	DD	imagerel $LN3+50
	DD	imagerel $unwind$?Reset@CAMEvent@@QEAAXXZ
pdata	ENDS
;	COMDAT xdata
xdata	SEGMENT
$unwind$?Reset@CAMEvent@@QEAAXXZ DD 021e01H
	DD	07006320aH
; Function compile flags: /Odtp /RTCsu
xdata	ENDS
;	COMDAT ?Reset@CAMEvent@@QEAAXXZ
_TEXT	SEGMENT
this$ = 48
?Reset@CAMEvent@@QEAAXXZ PROC				; CAMEvent::Reset, COMDAT
; Line 129
$LN3:
	mov	QWORD PTR [rsp+8], rcx
	push	rdi
	sub	rsp, 32					; 00000020H
	mov	rdi, rsp
	mov	ecx, 8
	mov	eax, -858993460				; ccccccccH
	rep stosd
	mov	rcx, QWORD PTR [rsp+48]
	mov	rax, QWORD PTR this$[rsp]
	mov	rcx, QWORD PTR [rax]
	call	QWORD PTR __imp_ResetEvent
	add	rsp, 32					; 00000020H
	pop	rdi
	ret	0
?Reset@CAMEvent@@QEAAXXZ ENDP				; CAMEvent::Reset
_TEXT	ENDS
PUBLIC	?Wait@CAMEvent@@QEAAHK@Z			; CAMEvent::Wait
PUBLIC	?EndFlush@COutputQueue@@QEAAXXZ			; COutputQueue::EndFlush
;	COMDAT pdata
; File c:\downloads\wpf mediakit - copy\src\filters\baseclasses\outputq.cpp
pdata	SEGMENT
$pdata$?EndFlush@COutputQueue@@QEAAXXZ DD imagerel $LN8
	DD	imagerel $LN8+334
	DD	imagerel $unwind$?EndFlush@COutputQueue@@QEAAXXZ
pdata	ENDS
;	COMDAT pdata
pdata	SEGMENT
$pdata$?dtor$0@?0??EndFlush@COutputQueue@@QEAAXXZ@4HA DD imagerel ?dtor$0@?0??EndFlush@COutputQueue@@QEAAXXZ@4HA
	DD	imagerel ?dtor$0@?0??EndFlush@COutputQueue@@QEAAXXZ@4HA+35
	DD	imagerel $unwind$?dtor$0@?0??EndFlush@COutputQueue@@QEAAXXZ@4HA
pdata	ENDS
;	COMDAT xdata
xdata	SEGMENT
$ip2state$?EndFlush@COutputQueue@@QEAAXXZ DD imagerel ?EndFlush@COutputQueue@@QEAAXXZ
	DD	0ffffffffH
	DD	imagerel ?EndFlush@COutputQueue@@QEAAXXZ+55
	DD	00H
	DD	imagerel ?EndFlush@COutputQueue@@QEAAXXZ+168
	DD	0ffffffffH
xdata	ENDS
;	COMDAT xdata
xdata	SEGMENT
$unwind$?dtor$0@?0??EndFlush@COutputQueue@@QEAAXXZ@4HA DD 031001H
	DD	0700c4210H
	DD	0500bH
xdata	ENDS
;	COMDAT xdata
xdata	SEGMENT
$unwind$?EndFlush@COutputQueue@@QEAAXXZ DD 022711H
	DD	07006720aH
	DD	imagerel __CxxFrameHandler3
	DD	imagerel $cppxdata$?EndFlush@COutputQueue@@QEAAXXZ
xdata	ENDS
;	COMDAT xdata
xdata	SEGMENT
$stateUnwindMap$?EndFlush@COutputQueue@@QEAAXXZ DD 0ffffffffH
	DD	imagerel ?dtor$0@?0??EndFlush@COutputQueue@@QEAAXXZ@4HA
xdata	ENDS
;	COMDAT CONST
CONST	SEGMENT
?EndFlush@COutputQueue@@QEAAXXZ$rtcName$0 DB 06cH	; COutputQueue::EndFlush
	DB	063H
	DB	06bH
	DB	00H
	ORG $+12
?EndFlush@COutputQueue@@QEAAXXZ$rtcVarDesc DD 028H	; COutputQueue::EndFlush
	DD	08H
	DQ	FLAT:?EndFlush@COutputQueue@@QEAAXXZ$rtcName$0
	ORG $+48
?EndFlush@COutputQueue@@QEAAXXZ$rtcFrameData DD 01H	; COutputQueue::EndFlush
	DD	00H
	DQ	FLAT:?EndFlush@COutputQueue@@QEAAXXZ$rtcVarDesc
$cppxdata$?EndFlush@COutputQueue@@QEAAXXZ DD 019930522H
	DD	01H
	DD	imagerel $stateUnwindMap$?EndFlush@COutputQueue@@QEAAXXZ
	DD	00H
	DD	00H
	DD	03H
	DD	imagerel $ip2state$?EndFlush@COutputQueue@@QEAAXXZ
	DD	038H
	DD	00H
	DD	01H
; Function compile flags: /Odtp /RTCsu
CONST	ENDS
;	COMDAT ?EndFlush@COutputQueue@@QEAAXXZ
_TEXT	SEGMENT
lck$82517 = 40
$T83517 = 56
this$ = 80
?EndFlush@COutputQueue@@QEAAXXZ PROC			; COutputQueue::EndFlush, COMDAT
; Line 516
$LN8:
	mov	QWORD PTR [rsp+8], rcx
	push	rdi
	sub	rsp, 64					; 00000040H
	mov	rdi, rsp
	mov	ecx, 16
	mov	eax, -858993460				; ccccccccH
	rep stosd
	mov	rcx, QWORD PTR [rsp+80]
	mov	QWORD PTR $T83517[rsp], -2
; Line 518
	mov	rdx, QWORD PTR this$[rsp]
	lea	rcx, QWORD PTR lck$82517[rsp]
	call	??0CAutoLock@@QEAA@PEAVCCritSec@@@Z	; CAutoLock::CAutoLock
	npad	1
; Line 519
	mov	rax, QWORD PTR this$[rsp]
	cmp	DWORD PTR [rax+128], 0
	jne	SHORT $LN4@EndFlush
	mov	r8d, 519				; 00000207H
	lea	rdx, OFFSET FLAT:$SG82519
	lea	rcx, OFFSET FLAT:$SG82520
	call	?DbgAssert@@YAXPEB_W0H@Z		; DbgAssert
$LN4@EndFlush:
; Line 520
	mov	rax, QWORD PTR this$[rsp]
	movzx	eax, BYTE PTR [rax+136]
	test	eax, eax
	je	SHORT $LN3@EndFlush
	mov	rax, QWORD PTR this$[rsp]
	cmp	DWORD PTR [rax+132], 0
	je	SHORT $LN3@EndFlush
	mov	rcx, QWORD PTR this$[rsp]
	call	?IsQueued@COutputQueue@@IEAAHXZ		; COutputQueue::IsQueued
	test	eax, eax
	je	SHORT $LN3@EndFlush
; Line 521
	mov	rax, QWORD PTR this$[rsp]
	mov	DWORD PTR [rax+128], 0
; Line 522
	mov	rax, QWORD PTR this$[rsp]
	mov	DWORD PTR [rax+148], 0
; Line 523
	lea	rcx, QWORD PTR lck$82517[rsp]
	call	??1CAutoLock@@QEAA@XZ			; CAutoLock::~CAutoLock
	jmp	$LN5@EndFlush
$LN3@EndFlush:
; Line 525
	lea	rcx, QWORD PTR lck$82517[rsp]
	call	??1CAutoLock@@QEAA@XZ			; CAutoLock::~CAutoLock
; Line 533
	mov	rcx, QWORD PTR this$[rsp]
	call	?IsQueued@COutputQueue@@IEAAHXZ		; COutputQueue::IsQueued
	test	eax, eax
	je	SHORT $LN2@EndFlush
; Line 534
	mov	rax, QWORD PTR this$[rsp]
	add	rax, 96					; 00000060H
	mov	edx, -1					; ffffffffH
	mov	rcx, rax
	call	?Wait@CAMEvent@@QEAAHK@Z		; CAMEvent::Wait
; Line 535
	jmp	SHORT $LN1@EndFlush
$LN2@EndFlush:
; Line 536
	mov	rcx, QWORD PTR this$[rsp]
	call	?FreeSamples@COutputQueue@@IEAAXXZ	; COutputQueue::FreeSamples
$LN1@EndFlush:
; Line 542
	mov	rax, QWORD PTR this$[rsp]
	mov	DWORD PTR [rax+128], 0
; Line 543
	mov	rax, QWORD PTR this$[rsp]
	mov	DWORD PTR [rax+132], 1
; Line 547
	mov	rax, QWORD PTR this$[rsp]
	mov	rax, QWORD PTR [rax+56]
	mov	rcx, QWORD PTR this$[rsp]
	mov	rcx, QWORD PTR [rcx+56]
	mov	rax, QWORD PTR [rax]
	call	QWORD PTR [rax+128]
; Line 549
	mov	rax, QWORD PTR this$[rsp]
	mov	DWORD PTR [rax+148], 0
$LN5@EndFlush:
; Line 550
	mov	rcx, rsp
	lea	rdx, OFFSET FLAT:?EndFlush@COutputQueue@@QEAAXXZ$rtcFrameData
	call	_RTC_CheckStackVars
	add	rsp, 64					; 00000040H
	pop	rdi
	ret	0
?EndFlush@COutputQueue@@QEAAXXZ ENDP			; COutputQueue::EndFlush
; Function compile flags: /Odtp /RTCsu
_TEXT	ENDS
;	COMDAT text$x
text$x	SEGMENT
lck$82517 = 40
$T83517 = 56
this$ = 80
?dtor$0@?0??EndFlush@COutputQueue@@QEAAXXZ@4HA PROC	; `COutputQueue::EndFlush'::`1'::dtor$0
	mov	QWORD PTR [rsp+8], rcx
	mov	QWORD PTR [rsp+16], rdx
	push	rbp
	push	rdi
	sub	rsp, 40					; 00000028H
	mov	rbp, rdx
	lea	rcx, QWORD PTR lck$82517[rbp]
	call	??1CAutoLock@@QEAA@XZ			; CAutoLock::~CAutoLock
	add	rsp, 40					; 00000028H
	pop	rdi
	pop	rbp
	ret	0
?dtor$0@?0??EndFlush@COutputQueue@@QEAAXXZ@4HA ENDP	; `COutputQueue::EndFlush'::`1'::dtor$0
text$x	ENDS
EXTRN	__imp_WaitForSingleObject:PROC
;	COMDAT pdata
; File c:\downloads\wpf mediakit - copy\src\filters\baseclasses\wxutil.h
pdata	SEGMENT
$pdata$?Wait@CAMEvent@@QEAAHK@Z DD imagerel $LN5
	DD	imagerel $LN5+84
	DD	imagerel $unwind$?Wait@CAMEvent@@QEAAHK@Z
pdata	ENDS
;	COMDAT xdata
xdata	SEGMENT
$unwind$?Wait@CAMEvent@@QEAAHK@Z DD 022201H
	DD	0700a520eH
; Function compile flags: /Odtp /RTCsu
xdata	ENDS
;	COMDAT ?Wait@CAMEvent@@QEAAHK@Z
_TEXT	SEGMENT
tv68 = 32
this$ = 64
dwTimeout$ = 72
?Wait@CAMEvent@@QEAAHK@Z PROC				; CAMEvent::Wait, COMDAT
; Line 126
$LN5:
	mov	DWORD PTR [rsp+16], edx
	mov	QWORD PTR [rsp+8], rcx
	push	rdi
	sub	rsp, 48					; 00000030H
	mov	rdi, rsp
	mov	ecx, 12
	mov	eax, -858993460				; ccccccccH
	rep stosd
	mov	rcx, QWORD PTR [rsp+64]
; Line 127
	mov	edx, DWORD PTR dwTimeout$[rsp]
	mov	rax, QWORD PTR this$[rsp]
	mov	rcx, QWORD PTR [rax]
	call	QWORD PTR __imp_WaitForSingleObject
	test	eax, eax
	jne	SHORT $LN3@Wait
	mov	DWORD PTR tv68[rsp], 1
	jmp	SHORT $LN4@Wait
$LN3@Wait:
	mov	DWORD PTR tv68[rsp], 0
$LN4@Wait:
	mov	eax, DWORD PTR tv68[rsp]
; Line 128
	add	rsp, 48					; 00000030H
	pop	rdi
	ret	0
?Wait@CAMEvent@@QEAAHK@Z ENDP				; CAMEvent::Wait
_TEXT	ENDS
PUBLIC	?AddTail@?$CGenericList@UIMediaSample@@@@QEAAPEAU__POSITION@@PEAUIMediaSample@@@Z ; CGenericList<IMediaSample>::AddTail
;	COMDAT pdata
; File c:\downloads\wpf mediakit - copy\src\filters\baseclasses\outputq.cpp
pdata	SEGMENT
$pdata$?QueueSample@COutputQueue@@IEAAXPEAUIMediaSample@@@Z DD imagerel $LN5
	DD	imagerel $LN5+100
	DD	imagerel $unwind$?QueueSample@COutputQueue@@IEAAXPEAUIMediaSample@@@Z
pdata	ENDS
;	COMDAT xdata
xdata	SEGMENT
$unwind$?QueueSample@COutputQueue@@IEAAXPEAUIMediaSample@@@Z DD 022301H
	DD	0700b320fH
; Function compile flags: /Odtp /RTCsu
xdata	ENDS
;	COMDAT ?QueueSample@COutputQueue@@IEAAXPEAUIMediaSample@@@Z
_TEXT	SEGMENT
this$ = 48
pSample$ = 56
?QueueSample@COutputQueue@@IEAAXPEAUIMediaSample@@@Z PROC ; COutputQueue::QueueSample, COMDAT
; Line 558
$LN5:
	mov	QWORD PTR [rsp+16], rdx
	mov	QWORD PTR [rsp+8], rcx
	push	rdi
	sub	rsp, 32					; 00000020H
	mov	rdi, rsp
	mov	ecx, 8
	mov	eax, -858993460				; ccccccccH
	rep stosd
	mov	rcx, QWORD PTR [rsp+48]
; Line 559
	mov	rdx, QWORD PTR pSample$[rsp]
	mov	rax, QWORD PTR this$[rsp]
	mov	rcx, QWORD PTR [rax+80]
	call	?AddTail@?$CGenericList@UIMediaSample@@@@QEAAPEAU__POSITION@@PEAUIMediaSample@@@Z ; CGenericList<IMediaSample>::AddTail
	test	rax, rax
	jne	SHORT $LN2@QueueSampl
; Line 560
	mov	rdx, QWORD PTR pSample$[rsp]
	mov	rcx, QWORD PTR this$[rsp]
	call	?IsSpecialSample@COutputQueue@@IEAAHPEAUIMediaSample@@@Z ; COutputQueue::IsSpecialSample
	test	eax, eax
	jne	SHORT $LN1@QueueSampl
; Line 561
	mov	rax, QWORD PTR pSample$[rsp]
	mov	rax, QWORD PTR [rax]
	mov	rcx, QWORD PTR pSample$[rsp]
	call	QWORD PTR [rax+16]
$LN1@QueueSampl:
$LN2@QueueSampl:
; Line 564
	add	rsp, 32					; 00000020H
	pop	rdi
	ret	0
?QueueSample@COutputQueue@@IEAAXPEAUIMediaSample@@@Z ENDP ; COutputQueue::QueueSample
_TEXT	ENDS
PUBLIC	?Receive@COutputQueue@@QEAAJPEAUIMediaSample@@@Z ; COutputQueue::Receive
;	COMDAT pdata
pdata	SEGMENT
$pdata$?Receive@COutputQueue@@QEAAJPEAUIMediaSample@@@Z DD imagerel $LN3
	DD	imagerel $LN3+88
	DD	imagerel $unwind$?Receive@COutputQueue@@QEAAJPEAUIMediaSample@@@Z
pdata	ENDS
;	COMDAT xdata
xdata	SEGMENT
$unwind$?Receive@COutputQueue@@QEAAJPEAUIMediaSample@@@Z DD 022301H
	DD	0700b720fH
xdata	ENDS
;	COMDAT CONST
CONST	SEGMENT
?Receive@COutputQueue@@QEAAJPEAUIMediaSample@@@Z$rtcName$0 DB 06eH ; COutputQueue::Receive
	DB	050H
	DB	072H
	DB	06fH
	DB	063H
	DB	065H
	DB	073H
	DB	073H
	DB	065H
	DB	064H
	DB	00H
	ORG $+5
?Receive@COutputQueue@@QEAAJPEAUIMediaSample@@@Z$rtcVarDesc DD 024H ; COutputQueue::Receive
	DD	04H
	DQ	FLAT:?Receive@COutputQueue@@QEAAJPEAUIMediaSample@@@Z$rtcName$0
	ORG $+48
?Receive@COutputQueue@@QEAAJPEAUIMediaSample@@@Z$rtcFrameData DD 01H ; COutputQueue::Receive
	DD	00H
	DQ	FLAT:?Receive@COutputQueue@@QEAAJPEAUIMediaSample@@@Z$rtcVarDesc
; Function compile flags: /Odtp /RTCsu
CONST	ENDS
;	COMDAT ?Receive@COutputQueue@@QEAAJPEAUIMediaSample@@@Z
_TEXT	SEGMENT
nProcessed$ = 36
this$ = 80
pSample$ = 88
?Receive@COutputQueue@@QEAAJPEAUIMediaSample@@@Z PROC	; COutputQueue::Receive, COMDAT
; Line 576
$LN3:
	mov	QWORD PTR [rsp+16], rdx
	mov	QWORD PTR [rsp+8], rcx
	push	rdi
	sub	rsp, 64					; 00000040H
	mov	rdi, rsp
	mov	ecx, 16
	mov	eax, -858993460				; ccccccccH
	rep stosd
	mov	rcx, QWORD PTR [rsp+80]
; Line 578
	lea	r9, QWORD PTR nProcessed$[rsp]
	mov	r8d, 1
	lea	rdx, QWORD PTR pSample$[rsp]
	mov	rcx, QWORD PTR this$[rsp]
	call	?ReceiveMultiple@COutputQueue@@QEAAJPEAPEAUIMediaSample@@JPEAJ@Z ; COutputQueue::ReceiveMultiple
; Line 579
	mov	rdi, rax
	mov	rcx, rsp
	lea	rdx, OFFSET FLAT:?Receive@COutputQueue@@QEAAJPEAUIMediaSample@@@Z$rtcFrameData
	call	_RTC_CheckStackVars
	mov	rax, rdi
	add	rsp, 64					; 00000040H
	pop	rdi
	ret	0
?Receive@COutputQueue@@QEAAJPEAUIMediaSample@@@Z ENDP	; COutputQueue::Receive
_TEXT	ENDS
;	COMDAT pdata
pdata	SEGMENT
$pdata$?ReceiveMultiple@COutputQueue@@QEAAJPEAPEAUIMediaSample@@JPEAJ@Z DD imagerel $LN37
	DD	imagerel $LN37+1601
	DD	imagerel $unwind$?ReceiveMultiple@COutputQueue@@QEAAJPEAPEAUIMediaSample@@JPEAJ@Z
pdata	ENDS
;	COMDAT pdata
pdata	SEGMENT
$pdata$?dtor$0@?0??ReceiveMultiple@COutputQueue@@QEAAJPEAPEAUIMediaSample@@JPEAJ@Z@4HA DD imagerel ?dtor$0@?0??ReceiveMultiple@COutputQueue@@QEAAJPEAPEAUIMediaSample@@JPEAJ@Z@4HA
	DD	imagerel ?dtor$0@?0??ReceiveMultiple@COutputQueue@@QEAAJPEAPEAUIMediaSample@@JPEAJ@Z@4HA+35
	DD	imagerel $unwind$?dtor$0@?0??ReceiveMultiple@COutputQueue@@QEAAJPEAPEAUIMediaSample@@JPEAJ@Z@4HA
pdata	ENDS
;	COMDAT xdata
xdata	SEGMENT
$ip2state$?ReceiveMultiple@COutputQueue@@QEAAJPEAPEAUIMediaSample@@JPEAJ@Z DD imagerel ?ReceiveMultiple@COutputQueue@@QEAAJPEAPEAUIMediaSample@@JPEAJ@Z
	DD	0ffffffffH
	DD	imagerel ?ReceiveMultiple@COutputQueue@@QEAAJPEAPEAUIMediaSample@@JPEAJ@Z+82
	DD	00H
	DD	imagerel ?ReceiveMultiple@COutputQueue@@QEAAJPEAPEAUIMediaSample@@JPEAJ@Z+339
	DD	0ffffffffH
	DD	imagerel ?ReceiveMultiple@COutputQueue@@QEAAJPEAPEAUIMediaSample@@JPEAJ@Z+358
	DD	00H
	DD	imagerel ?ReceiveMultiple@COutputQueue@@QEAAJPEAPEAUIMediaSample@@JPEAJ@Z+1148
	DD	0ffffffffH
	DD	imagerel ?ReceiveMultiple@COutputQueue@@QEAAJPEAPEAUIMediaSample@@JPEAJ@Z+1172
	DD	00H
	DD	imagerel ?ReceiveMultiple@COutputQueue@@QEAAJPEAPEAUIMediaSample@@JPEAJ@Z+1349
	DD	0ffffffffH
	DD	imagerel ?ReceiveMultiple@COutputQueue@@QEAAJPEAPEAUIMediaSample@@JPEAJ@Z+1368
	DD	00H
	DD	imagerel ?ReceiveMultiple@COutputQueue@@QEAAJPEAPEAUIMediaSample@@JPEAJ@Z+1544
	DD	0ffffffffH
xdata	ENDS
;	COMDAT xdata
xdata	SEGMENT
$unwind$?dtor$0@?0??ReceiveMultiple@COutputQueue@@QEAAJPEAPEAUIMediaSample@@JPEAJ@Z@4HA DD 031001H
	DD	0700c4210H
	DD	0500bH
xdata	ENDS
;	COMDAT xdata
xdata	SEGMENT
$unwind$?ReceiveMultiple@COutputQueue@@QEAAJPEAPEAUIMediaSample@@JPEAJ@Z DD 033f11H
	DD	012011cH
	DD	07015H
	DD	imagerel __CxxFrameHandler3
	DD	imagerel $cppxdata$?ReceiveMultiple@COutputQueue@@QEAAJPEAPEAUIMediaSample@@JPEAJ@Z
xdata	ENDS
;	COMDAT xdata
xdata	SEGMENT
$stateUnwindMap$?ReceiveMultiple@COutputQueue@@QEAAJPEAPEAUIMediaSample@@JPEAJ@Z DD 0ffffffffH
	DD	imagerel ?dtor$0@?0??ReceiveMultiple@COutputQueue@@QEAAJPEAPEAUIMediaSample@@JPEAJ@Z@4HA
xdata	ENDS
;	COMDAT CONST
CONST	SEGMENT
?ReceiveMultiple@COutputQueue@@QEAAJPEAPEAUIMediaSample@@JPEAJ@Z$rtcName$0 DB 06cH ; COutputQueue::ReceiveMultiple
	DB	063H
	DB	06bH
	DB	00H
?ReceiveMultiple@COutputQueue@@QEAAJPEAPEAUIMediaSample@@JPEAJ@Z$rtcName$1 DB 06eH ; COutputQueue::ReceiveMultiple
	DB	044H
	DB	06fH
	DB	06eH
	DB	065H
	DB	00H
	ORG $+6
?ReceiveMultiple@COutputQueue@@QEAAJPEAPEAUIMediaSample@@JPEAJ@Z$rtcVarDesc DD 054H ; COutputQueue::ReceiveMultiple
	DD	04H
	DQ	FLAT:?ReceiveMultiple@COutputQueue@@QEAAJPEAPEAUIMediaSample@@JPEAJ@Z$rtcName$1
	DD	038H
	DD	08H
	DQ	FLAT:?ReceiveMultiple@COutputQueue@@QEAAJPEAPEAUIMediaSample@@JPEAJ@Z$rtcName$0
	ORG $+96
?ReceiveMultiple@COutputQueue@@QEAAJPEAPEAUIMediaSample@@JPEAJ@Z$rtcFrameData DD 02H ; COutputQueue::ReceiveMultiple
	DD	00H
	DQ	FLAT:?ReceiveMultiple@COutputQueue@@QEAAJPEAPEAUIMediaSample@@JPEAJ@Z$rtcVarDesc
$cppxdata$?ReceiveMultiple@COutputQueue@@QEAAJPEAPEAUIMediaSample@@JPEAJ@Z DD 019930522H
	DD	01H
	DD	imagerel $stateUnwindMap$?ReceiveMultiple@COutputQueue@@QEAAJPEAPEAUIMediaSample@@JPEAJ@Z
	DD	00H
	DD	00H
	DD	09H
	DD	imagerel $ip2state$?ReceiveMultiple@COutputQueue@@QEAAJPEAPEAUIMediaSample@@JPEAJ@Z
	DD	080H
	DD	00H
	DD	01H
; Function compile flags: /Odtp /RTCsu
CONST	ENDS
;	COMDAT ?ReceiveMultiple@COutputQueue@@QEAAJPEAPEAUIMediaSample@@JPEAJ@Z
_TEXT	SEGMENT
lck$ = 56
i$82550 = 68
iLost$82565 = 72
iDone$82566 = 76
nDone$82578 = 84
i$82583 = 100
i$82593 = 104
i$82598 = 108
$T83565 = 112
$T83566 = 116
$T83567 = 120
$T83568 = 124
$T83574 = 128
this$ = 160
ppSamples$ = 168
nSamples$ = 176
nSamplesProcessed$ = 184
?ReceiveMultiple@COutputQueue@@QEAAJPEAPEAUIMediaSample@@JPEAJ@Z PROC ; COutputQueue::ReceiveMultiple, COMDAT
; Line 597
$LN37:
	mov	QWORD PTR [rsp+32], r9
	mov	DWORD PTR [rsp+24], r8d
	mov	QWORD PTR [rsp+16], rdx
	mov	QWORD PTR [rsp+8], rcx
	push	rdi
	sub	rsp, 144				; 00000090H
	mov	rdi, rsp
	mov	ecx, 36					; 00000024H
	mov	eax, -858993460				; ccccccccH
	rep stosd
	mov	rcx, QWORD PTR [rsp+160]
	mov	QWORD PTR $T83574[rsp], -2
; Line 598
	mov	rdx, QWORD PTR this$[rsp]
	lea	rcx, QWORD PTR lck$[rsp]
	call	??0CAutoLock@@QEAA@PEAVCCritSec@@@Z	; CAutoLock::CAutoLock
	npad	1
; Line 601
	mov	rcx, QWORD PTR this$[rsp]
	call	?IsQueued@COutputQueue@@IEAAHXZ		; COutputQueue::IsQueued
	test	eax, eax
	jne	$LN33@ReceiveMul
; Line 605
	mov	rax, QWORD PTR this$[rsp]
	mov	eax, DWORD PTR [rax+148]
	test	eax, eax
	je	$LN32@ReceiveMul
; Line 611
	mov	rax, QWORD PTR this$[rsp]
	cmp	DWORD PTR [rax+132], 0
	je	SHORT $LN31@ReceiveMul
	mov	rax, QWORD PTR this$[rsp]
	cmp	DWORD PTR [rax+128], 0
	jne	SHORT $LN31@ReceiveMul
	mov	r8d, 611				; 00000263H
	lea	rdx, OFFSET FLAT:$SG82548
	lea	rcx, OFFSET FLAT:$SG82549
	call	?DbgAssert@@YAXPEB_W0H@Z		; DbgAssert
$LN31@ReceiveMul:
; Line 614
	mov	rax, QWORD PTR nSamplesProcessed$[rsp]
	mov	DWORD PTR [rax], 0
; Line 615
	mov	DWORD PTR i$82550[rsp], 0
	jmp	SHORT $LN30@ReceiveMul
$LN29@ReceiveMul:
	mov	eax, DWORD PTR i$82550[rsp]
	inc	eax
	mov	DWORD PTR i$82550[rsp], eax
$LN30@ReceiveMul:
	mov	eax, DWORD PTR nSamples$[rsp]
	cmp	DWORD PTR i$82550[rsp], eax
	jge	SHORT $LN28@ReceiveMul
; Line 617
	mov	rax, QWORD PTR this$[rsp]
	mov	eax, DWORD PTR [rax+148]
	mov	DWORD PTR [rsp+32], eax
	mov	r9d, DWORD PTR nSamples$[rsp]
	lea	r8, OFFSET FLAT:$SG82554
	mov	edx, 3
	mov	ecx, 2
	call	?DbgLogInfo@@YAXKKPEB_WZZ		; DbgLogInfo
; Line 618
	movsxd	rax, DWORD PTR i$82550[rsp]
	mov	rcx, QWORD PTR ppSamples$[rsp]
	mov	rax, QWORD PTR [rcx+rax*8]
	movsxd	rcx, DWORD PTR i$82550[rsp]
	mov	rdx, QWORD PTR ppSamples$[rsp]
	mov	rcx, QWORD PTR [rdx+rcx*8]
	mov	rax, QWORD PTR [rax]
	call	QWORD PTR [rax+16]
; Line 619
	jmp	SHORT $LN29@ReceiveMul
$LN28@ReceiveMul:
; Line 621
	mov	rax, QWORD PTR this$[rsp]
	mov	eax, DWORD PTR [rax+148]
	mov	DWORD PTR $T83565[rsp], eax
	lea	rcx, QWORD PTR lck$[rsp]
	call	??1CAutoLock@@QEAA@XZ			; CAutoLock::~CAutoLock
	mov	eax, DWORD PTR $T83565[rsp]
	jmp	$LN34@ReceiveMul
$LN32@ReceiveMul:
; Line 626
	mov	rax, QWORD PTR this$[rsp]
	cmp	DWORD PTR [rax+128], 0
	je	SHORT $LN27@ReceiveMul
	mov	r8d, 626				; 00000272H
	lea	rdx, OFFSET FLAT:$SG82557
	lea	rcx, OFFSET FLAT:$SG82558
	call	?DbgAssert@@YAXPEB_W0H@Z		; DbgAssert
$LN27@ReceiveMul:
; Line 627
	mov	rax, QWORD PTR this$[rsp]
	mov	DWORD PTR [rax+132], 0
; Line 629
	mov	rax, QWORD PTR this$[rsp]
	mov	rcx, QWORD PTR this$[rsp]
	mov	ecx, DWORD PTR [rcx+76]
	cmp	DWORD PTR [rax+120], ecx
	jl	SHORT $LN26@ReceiveMul
	mov	r8d, 629				; 00000275H
	lea	rdx, OFFSET FLAT:$SG82560
	lea	rcx, OFFSET FLAT:$SG82561
	call	?DbgAssert@@YAXPEB_W0H@Z		; DbgAssert
$LN26@ReceiveMul:
; Line 630
	mov	rax, QWORD PTR this$[rsp]
	cmp	DWORD PTR [rax+120], 0
	je	SHORT $LN25@ReceiveMul
	mov	rax, QWORD PTR this$[rsp]
	cmp	DWORD PTR [rax+72], 0
	jne	SHORT $LN25@ReceiveMul
	mov	r8d, 630				; 00000276H
	lea	rdx, OFFSET FLAT:$SG82563
	lea	rcx, OFFSET FLAT:$SG82564
	call	?DbgAssert@@YAXPEB_W0H@Z		; DbgAssert
$LN25@ReceiveMul:
; Line 634
	mov	DWORD PTR iLost$82565[rsp], 0
; Line 635
	mov	DWORD PTR iDone$82566[rsp], 0
; Line 636
	mov	DWORD PTR iDone$82566[rsp], 0
$LN24@ReceiveMul:
; Line 638
	mov	eax, DWORD PTR nSamples$[rsp]
	cmp	DWORD PTR iDone$82566[rsp], eax
	jl	SHORT $LN22@ReceiveMul
	mov	rax, QWORD PTR this$[rsp]
	cmp	DWORD PTR [rax+120], 0
	je	$LN23@ReceiveMul
	mov	rax, QWORD PTR this$[rsp]
	cmp	DWORD PTR [rax+144], 0
	je	$LN23@ReceiveMul
$LN22@ReceiveMul:
; Line 641
	mov	rax, QWORD PTR this$[rsp]
	mov	rcx, QWORD PTR this$[rsp]
	mov	ecx, DWORD PTR [rcx+76]
	cmp	DWORD PTR [rax+120], ecx
	jl	SHORT $LN21@ReceiveMul
	mov	r8d, 641				; 00000281H
	lea	rdx, OFFSET FLAT:$SG82572
	lea	rcx, OFFSET FLAT:$SG82573
	call	?DbgAssert@@YAXPEB_W0H@Z		; DbgAssert
$LN21@ReceiveMul:
; Line 642
	mov	eax, DWORD PTR nSamples$[rsp]
	cmp	DWORD PTR iDone$82566[rsp], eax
	jge	SHORT $LN20@ReceiveMul
; Line 643
	movsxd	rax, DWORD PTR iDone$82566[rsp]
	mov	rcx, QWORD PTR this$[rsp]
	movsxd	rcx, DWORD PTR [rcx+120]
	mov	rdx, QWORD PTR this$[rsp]
	mov	rdx, QWORD PTR [rdx+112]
	mov	r8, QWORD PTR ppSamples$[rsp]
	mov	rax, QWORD PTR [r8+rax*8]
	mov	QWORD PTR [rdx+rcx*8], rax
	mov	rax, QWORD PTR this$[rsp]
	mov	eax, DWORD PTR [rax+120]
	inc	eax
	mov	rcx, QWORD PTR this$[rsp]
	mov	DWORD PTR [rcx+120], eax
	mov	eax, DWORD PTR iDone$82566[rsp]
	inc	eax
	mov	DWORD PTR iDone$82566[rsp], eax
$LN20@ReceiveMul:
; Line 646
	mov	rax, QWORD PTR this$[rsp]
	mov	rcx, QWORD PTR this$[rsp]
	mov	ecx, DWORD PTR [rcx+76]
	cmp	DWORD PTR [rax+120], ecx
	je	SHORT $LN18@ReceiveMul
	cmp	DWORD PTR nSamples$[rsp], 0
	jne	$LN19@ReceiveMul
	mov	rax, QWORD PTR this$[rsp]
	cmp	DWORD PTR [rax+144], 0
	jne	SHORT $LN18@ReceiveMul
	mov	rax, QWORD PTR this$[rsp]
	cmp	DWORD PTR [rax+72], 0
	jne	$LN19@ReceiveMul
$LN18@ReceiveMul:
; Line 649
	mov	rax, QWORD PTR this$[rsp]
	mov	r9d, DWORD PTR [rax+120]
	lea	r8, OFFSET FLAT:$SG82579
	mov	edx, 4
	mov	ecx, 2
	call	?DbgLogInfo@@YAXKKPEB_WZZ		; DbgLogInfo
; Line 651
	mov	rax, QWORD PTR this$[rsp]
	mov	eax, DWORD PTR [rax+148]
	test	eax, eax
	jne	SHORT $LN16@ReceiveMul
; Line 654
	mov	rax, QWORD PTR this$[rsp]
	mov	rax, QWORD PTR [rax+64]
	mov	rcx, QWORD PTR this$[rsp]
	mov	rcx, QWORD PTR [rcx+64]
	mov	rax, QWORD PTR [rax]
	lea	r9, QWORD PTR nDone$82578[rsp]
	mov	rdx, QWORD PTR this$[rsp]
	mov	r8d, DWORD PTR [rdx+120]
	mov	rdx, QWORD PTR this$[rsp]
	mov	rdx, QWORD PTR [rdx+112]
	call	QWORD PTR [rax+56]
	mov	rcx, QWORD PTR this$[rsp]
	mov	DWORD PTR [rcx+148], eax
; Line 655
	jmp	SHORT $LN15@ReceiveMul
$LN16@ReceiveMul:
; Line 656
	mov	DWORD PTR nDone$82578[rsp], 0
$LN15@ReceiveMul:
; Line 658
	mov	rax, QWORD PTR this$[rsp]
	mov	ecx, DWORD PTR nDone$82578[rsp]
	mov	eax, DWORD PTR [rax+120]
	sub	eax, ecx
	mov	ecx, DWORD PTR iLost$82565[rsp]
	add	ecx, eax
	mov	eax, ecx
	mov	DWORD PTR iLost$82565[rsp], eax
; Line 659
	mov	DWORD PTR i$82583[rsp], 0
	jmp	SHORT $LN14@ReceiveMul
$LN13@ReceiveMul:
	mov	eax, DWORD PTR i$82583[rsp]
	inc	eax
	mov	DWORD PTR i$82583[rsp], eax
$LN14@ReceiveMul:
	mov	rax, QWORD PTR this$[rsp]
	mov	eax, DWORD PTR [rax+120]
	cmp	DWORD PTR i$82583[rsp], eax
	jge	SHORT $LN12@ReceiveMul
; Line 660
	movsxd	rax, DWORD PTR i$82583[rsp]
	mov	rcx, QWORD PTR this$[rsp]
	mov	rcx, QWORD PTR [rcx+112]
	mov	rax, QWORD PTR [rcx+rax*8]
	movsxd	rcx, DWORD PTR i$82583[rsp]
	mov	rdx, QWORD PTR this$[rsp]
	mov	rdx, QWORD PTR [rdx+112]
	mov	rcx, QWORD PTR [rdx+rcx*8]
	mov	rax, QWORD PTR [rax]
	call	QWORD PTR [rax+16]
; Line 661
	jmp	SHORT $LN13@ReceiveMul
$LN12@ReceiveMul:
; Line 662
	mov	rax, QWORD PTR this$[rsp]
	mov	DWORD PTR [rax+120], 0
$LN19@ReceiveMul:
; Line 664
	jmp	$LN24@ReceiveMul
$LN23@ReceiveMul:
; Line 665
	mov	eax, DWORD PTR iLost$82565[rsp]
	mov	ecx, DWORD PTR iDone$82566[rsp]
	sub	ecx, eax
	mov	eax, ecx
	mov	rcx, QWORD PTR nSamplesProcessed$[rsp]
	mov	DWORD PTR [rcx], eax
; Line 666
	mov	rax, QWORD PTR nSamplesProcessed$[rsp]
	cmp	DWORD PTR [rax], 0
	jge	SHORT $LN11@ReceiveMul
; Line 667
	mov	rax, QWORD PTR nSamplesProcessed$[rsp]
	mov	DWORD PTR [rax], 0
$LN11@ReceiveMul:
; Line 669
	mov	rax, QWORD PTR this$[rsp]
	mov	eax, DWORD PTR [rax+148]
	mov	DWORD PTR $T83566[rsp], eax
	lea	rcx, QWORD PTR lck$[rsp]
	call	??1CAutoLock@@QEAA@XZ			; CAutoLock::~CAutoLock
	mov	eax, DWORD PTR $T83566[rsp]
	jmp	$LN34@ReceiveMul
	jmp	$LN10@ReceiveMul
$LN33@ReceiveMul:
; Line 673
	mov	rax, QWORD PTR this$[rsp]
	mov	eax, DWORD PTR [rax+148]
	test	eax, eax
	je	$LN9@ReceiveMul
; Line 674
	mov	rax, QWORD PTR nSamplesProcessed$[rsp]
	mov	DWORD PTR [rax], 0
; Line 676
	mov	rax, QWORD PTR this$[rsp]
	mov	eax, DWORD PTR [rax+148]
	mov	DWORD PTR [rsp+32], eax
	mov	r9d, DWORD PTR nSamples$[rsp]
	lea	r8, OFFSET FLAT:$SG82592
	mov	edx, 3
	mov	ecx, 2
	call	?DbgLogInfo@@YAXKKPEB_WZZ		; DbgLogInfo
; Line 677
	mov	DWORD PTR i$82593[rsp], 0
	jmp	SHORT $LN8@ReceiveMul
$LN7@ReceiveMul:
	mov	eax, DWORD PTR i$82593[rsp]
	inc	eax
	mov	DWORD PTR i$82593[rsp], eax
$LN8@ReceiveMul:
	mov	eax, DWORD PTR nSamples$[rsp]
	cmp	DWORD PTR i$82593[rsp], eax
	jge	SHORT $LN6@ReceiveMul
; Line 678
	movsxd	rax, DWORD PTR i$82593[rsp]
	mov	rcx, QWORD PTR ppSamples$[rsp]
	mov	rax, QWORD PTR [rcx+rax*8]
	movsxd	rcx, DWORD PTR i$82593[rsp]
	mov	rdx, QWORD PTR ppSamples$[rsp]
	mov	rcx, QWORD PTR [rdx+rcx*8]
	mov	rax, QWORD PTR [rax]
	call	QWORD PTR [rax+16]
; Line 679
	jmp	SHORT $LN7@ReceiveMul
$LN6@ReceiveMul:
; Line 680
	mov	rax, QWORD PTR this$[rsp]
	mov	eax, DWORD PTR [rax+148]
	mov	DWORD PTR $T83567[rsp], eax
	lea	rcx, QWORD PTR lck$[rsp]
	call	??1CAutoLock@@QEAA@XZ			; CAutoLock::~CAutoLock
	mov	eax, DWORD PTR $T83567[rsp]
	jmp	$LN34@ReceiveMul
$LN9@ReceiveMul:
; Line 682
	mov	rax, QWORD PTR this$[rsp]
	mov	DWORD PTR [rax+132], 0
; Line 683
	mov	DWORD PTR i$82598[rsp], 0
	jmp	SHORT $LN5@ReceiveMul
$LN4@ReceiveMul:
	mov	eax, DWORD PTR i$82598[rsp]
	inc	eax
	mov	DWORD PTR i$82598[rsp], eax
$LN5@ReceiveMul:
	mov	eax, DWORD PTR nSamples$[rsp]
	cmp	DWORD PTR i$82598[rsp], eax
	jge	SHORT $LN3@ReceiveMul
; Line 684
	movsxd	rax, DWORD PTR i$82598[rsp]
	mov	rcx, QWORD PTR ppSamples$[rsp]
	mov	rdx, QWORD PTR [rcx+rax*8]
	mov	rcx, QWORD PTR this$[rsp]
	call	?QueueSample@COutputQueue@@IEAAXPEAUIMediaSample@@@Z ; COutputQueue::QueueSample
; Line 685
	jmp	SHORT $LN4@ReceiveMul
$LN3@ReceiveMul:
; Line 686
	mov	rax, QWORD PTR nSamplesProcessed$[rsp]
	mov	ecx, DWORD PTR nSamples$[rsp]
	mov	DWORD PTR [rax], ecx
; Line 688
	mov	rax, QWORD PTR this$[rsp]
	cmp	DWORD PTR [rax+72], 0
	je	SHORT $LN1@ReceiveMul
	mov	rax, QWORD PTR this$[rsp]
	mov	rcx, QWORD PTR [rax+80]
	call	?GetCount@?$CGenericList@UIMediaSample@@@@QEBAHXZ ; CGenericList<IMediaSample>::GetCount
	mov	rcx, QWORD PTR this$[rsp]
	add	eax, DWORD PTR [rcx+120]
	mov	rcx, QWORD PTR this$[rsp]
	cmp	eax, DWORD PTR [rcx+76]
	jl	SHORT $LN2@ReceiveMul
$LN1@ReceiveMul:
; Line 689
	mov	rcx, QWORD PTR this$[rsp]
	call	?NotifyThread@COutputQueue@@IEAAXXZ	; COutputQueue::NotifyThread
$LN2@ReceiveMul:
; Line 691
	mov	DWORD PTR $T83568[rsp], 0
	lea	rcx, QWORD PTR lck$[rsp]
	call	??1CAutoLock@@QEAA@XZ			; CAutoLock::~CAutoLock
	mov	eax, DWORD PTR $T83568[rsp]
	jmp	SHORT $LN34@ReceiveMul
$LN10@ReceiveMul:
; Line 693
	lea	rcx, QWORD PTR lck$[rsp]
	call	??1CAutoLock@@QEAA@XZ			; CAutoLock::~CAutoLock
	npad	1
$LN34@ReceiveMul:
	mov	rdi, rax
	mov	rcx, rsp
	lea	rdx, OFFSET FLAT:?ReceiveMultiple@COutputQueue@@QEAAJPEAPEAUIMediaSample@@JPEAJ@Z$rtcFrameData
	call	_RTC_CheckStackVars
	mov	rax, rdi
	add	rsp, 144				; 00000090H
	pop	rdi
	ret	0
?ReceiveMultiple@COutputQueue@@QEAAJPEAPEAUIMediaSample@@JPEAJ@Z ENDP ; COutputQueue::ReceiveMultiple
; Function compile flags: /Odtp /RTCsu
_TEXT	ENDS
;	COMDAT text$x
text$x	SEGMENT
lck$ = 56
i$82550 = 68
iLost$82565 = 72
iDone$82566 = 76
nDone$82578 = 84
i$82583 = 100
i$82593 = 104
i$82598 = 108
$T83565 = 112
$T83566 = 116
$T83567 = 120
$T83568 = 124
$T83574 = 128
this$ = 160
ppSamples$ = 168
nSamples$ = 176
nSamplesProcessed$ = 184
?dtor$0@?0??ReceiveMultiple@COutputQueue@@QEAAJPEAPEAUIMediaSample@@JPEAJ@Z@4HA PROC ; `COutputQueue::ReceiveMultiple'::`1'::dtor$0
	mov	QWORD PTR [rsp+8], rcx
	mov	QWORD PTR [rsp+16], rdx
	push	rbp
	push	rdi
	sub	rsp, 40					; 00000028H
	mov	rbp, rdx
	lea	rcx, QWORD PTR lck$[rbp]
	call	??1CAutoLock@@QEAA@XZ			; CAutoLock::~CAutoLock
	add	rsp, 40					; 00000028H
	pop	rdi
	pop	rbp
	ret	0
?dtor$0@?0??ReceiveMultiple@COutputQueue@@QEAAJPEAPEAUIMediaSample@@JPEAJ@Z@4HA ENDP ; `COutputQueue::ReceiveMultiple'::`1'::dtor$0
text$x	ENDS
PUBLIC	?Reset@COutputQueue@@QEAAXXZ			; COutputQueue::Reset
;	COMDAT pdata
pdata	SEGMENT
$pdata$?Reset@COutputQueue@@QEAAXXZ DD imagerel $LN6
	DD	imagerel $LN6+167
	DD	imagerel $unwind$?Reset@COutputQueue@@QEAAXXZ
pdata	ENDS
;	COMDAT pdata
pdata	SEGMENT
$pdata$?dtor$0@?0??Reset@COutputQueue@@QEAAXXZ@4HA DD imagerel ?dtor$0@?0??Reset@COutputQueue@@QEAAXXZ@4HA
	DD	imagerel ?dtor$0@?0??Reset@COutputQueue@@QEAAXXZ@4HA+35
	DD	imagerel $unwind$?dtor$0@?0??Reset@COutputQueue@@QEAAXXZ@4HA
pdata	ENDS
;	COMDAT xdata
xdata	SEGMENT
$ip2state$?Reset@COutputQueue@@QEAAXXZ DD imagerel ?Reset@COutputQueue@@QEAAXXZ
	DD	0ffffffffH
	DD	imagerel ?Reset@COutputQueue@@QEAAXXZ+86
	DD	00H
	DD	imagerel ?Reset@COutputQueue@@QEAAXXZ+136
	DD	0ffffffffH
xdata	ENDS
;	COMDAT xdata
xdata	SEGMENT
$unwind$?dtor$0@?0??Reset@COutputQueue@@QEAAXXZ@4HA DD 031001H
	DD	0700c4210H
	DD	0500bH
xdata	ENDS
;	COMDAT xdata
xdata	SEGMENT
$unwind$?Reset@COutputQueue@@QEAAXXZ DD 022711H
	DD	07006720aH
	DD	imagerel __CxxFrameHandler3
	DD	imagerel $cppxdata$?Reset@COutputQueue@@QEAAXXZ
xdata	ENDS
;	COMDAT xdata
xdata	SEGMENT
$stateUnwindMap$?Reset@COutputQueue@@QEAAXXZ DD 0ffffffffH
	DD	imagerel ?dtor$0@?0??Reset@COutputQueue@@QEAAXXZ@4HA
xdata	ENDS
;	COMDAT CONST
CONST	SEGMENT
?Reset@COutputQueue@@QEAAXXZ$rtcName$0 DB 06cH		; COutputQueue::Reset
	DB	063H
	DB	06bH
	DB	00H
	ORG $+12
?Reset@COutputQueue@@QEAAXXZ$rtcVarDesc DD 028H		; COutputQueue::Reset
	DD	08H
	DQ	FLAT:?Reset@COutputQueue@@QEAAXXZ$rtcName$0
	ORG $+48
?Reset@COutputQueue@@QEAAXXZ$rtcFrameData DD 01H	; COutputQueue::Reset
	DD	00H
	DQ	FLAT:?Reset@COutputQueue@@QEAAXXZ$rtcVarDesc
$cppxdata$?Reset@COutputQueue@@QEAAXXZ DD 019930522H
	DD	01H
	DD	imagerel $stateUnwindMap$?Reset@COutputQueue@@QEAAXXZ
	DD	00H
	DD	00H
	DD	03H
	DD	imagerel $ip2state$?Reset@COutputQueue@@QEAAXXZ
	DD	038H
	DD	00H
	DD	01H
; Function compile flags: /Odtp /RTCsu
CONST	ENDS
;	COMDAT ?Reset@COutputQueue@@QEAAXXZ
_TEXT	SEGMENT
lck$82612 = 40
$T83601 = 56
this$ = 80
?Reset@COutputQueue@@QEAAXXZ PROC			; COutputQueue::Reset, COMDAT
; Line 697
$LN6:
	mov	QWORD PTR [rsp+8], rcx
	push	rdi
	sub	rsp, 64					; 00000040H
	mov	rdi, rsp
	mov	ecx, 16
	mov	eax, -858993460				; ccccccccH
	rep stosd
	mov	rcx, QWORD PTR [rsp+80]
	mov	QWORD PTR $T83601[rsp], -2
; Line 698
	mov	rcx, QWORD PTR this$[rsp]
	call	?IsQueued@COutputQueue@@IEAAHXZ		; COutputQueue::IsQueued
	test	eax, eax
	jne	SHORT $LN2@Reset
; Line 699
	mov	rax, QWORD PTR this$[rsp]
	mov	DWORD PTR [rax+148], 0
; Line 700
	jmp	SHORT $LN1@Reset
$LN2@Reset:
; Line 701
	mov	rdx, QWORD PTR this$[rsp]
	lea	rcx, QWORD PTR lck$82612[rsp]
	call	??0CAutoLock@@QEAA@PEAVCCritSec@@@Z	; CAutoLock::CAutoLock
	npad	1
; Line 702
	mov	rdx, -4
	mov	rcx, QWORD PTR this$[rsp]
	call	?QueueSample@COutputQueue@@IEAAXPEAUIMediaSample@@@Z ; COutputQueue::QueueSample
; Line 703
	mov	rcx, QWORD PTR this$[rsp]
	call	?NotifyThread@COutputQueue@@IEAAXXZ	; COutputQueue::NotifyThread
; Line 704
	mov	rax, QWORD PTR this$[rsp]
	add	rax, 96					; 00000060H
	mov	edx, -1					; ffffffffH
	mov	rcx, rax
	call	?Wait@CAMEvent@@QEAAHK@Z		; CAMEvent::Wait
	npad	1
; Line 705
	lea	rcx, QWORD PTR lck$82612[rsp]
	call	??1CAutoLock@@QEAA@XZ			; CAutoLock::~CAutoLock
$LN1@Reset:
; Line 706
	mov	rcx, rsp
	lea	rdx, OFFSET FLAT:?Reset@COutputQueue@@QEAAXXZ$rtcFrameData
	call	_RTC_CheckStackVars
	add	rsp, 64					; 00000040H
	pop	rdi
	ret	0
?Reset@COutputQueue@@QEAAXXZ ENDP			; COutputQueue::Reset
; Function compile flags: /Odtp /RTCsu
_TEXT	ENDS
;	COMDAT text$x
text$x	SEGMENT
lck$82612 = 40
$T83601 = 56
this$ = 80
?dtor$0@?0??Reset@COutputQueue@@QEAAXXZ@4HA PROC	; `COutputQueue::Reset'::`1'::dtor$0
	mov	QWORD PTR [rsp+8], rcx
	mov	QWORD PTR [rsp+16], rdx
	push	rbp
	push	rdi
	sub	rsp, 40					; 00000028H
	mov	rbp, rdx
	lea	rcx, QWORD PTR lck$82612[rbp]
	call	??1CAutoLock@@QEAA@XZ			; CAutoLock::~CAutoLock
	add	rsp, 40					; 00000028H
	pop	rdi
	pop	rbp
	ret	0
?dtor$0@?0??Reset@COutputQueue@@QEAAXXZ@4HA ENDP	; `COutputQueue::Reset'::`1'::dtor$0
text$x	ENDS
;	COMDAT pdata
pdata	SEGMENT
$pdata$?FreeSamples@COutputQueue@@IEAAXXZ DD imagerel $LN17
	DD	imagerel $LN17+425
	DD	imagerel $unwind$?FreeSamples@COutputQueue@@IEAAXXZ
pdata	ENDS
;	COMDAT pdata
pdata	SEGMENT
$pdata$?dtor$0@?0??FreeSamples@COutputQueue@@IEAAXXZ@4HA DD imagerel ?dtor$0@?0??FreeSamples@COutputQueue@@IEAAXXZ@4HA
	DD	imagerel ?dtor$0@?0??FreeSamples@COutputQueue@@IEAAXXZ@4HA+35
	DD	imagerel $unwind$?dtor$0@?0??FreeSamples@COutputQueue@@IEAAXXZ@4HA
pdata	ENDS
;	COMDAT xdata
xdata	SEGMENT
$ip2state$?FreeSamples@COutputQueue@@IEAAXXZ DD imagerel ?FreeSamples@COutputQueue@@IEAAXXZ
	DD	0ffffffffH
	DD	imagerel ?FreeSamples@COutputQueue@@IEAAXXZ+55
	DD	00H
	DD	imagerel ?FreeSamples@COutputQueue@@IEAAXXZ+394
	DD	0ffffffffH
xdata	ENDS
;	COMDAT xdata
xdata	SEGMENT
$unwind$?dtor$0@?0??FreeSamples@COutputQueue@@IEAAXXZ@4HA DD 031001H
	DD	0700c4210H
	DD	0500bH
xdata	ENDS
;	COMDAT xdata
xdata	SEGMENT
$unwind$?FreeSamples@COutputQueue@@IEAAXXZ DD 022711H
	DD	07006b20aH
	DD	imagerel __CxxFrameHandler3
	DD	imagerel $cppxdata$?FreeSamples@COutputQueue@@IEAAXXZ
xdata	ENDS
;	COMDAT xdata
xdata	SEGMENT
$stateUnwindMap$?FreeSamples@COutputQueue@@IEAAXXZ DD 0ffffffffH
	DD	imagerel ?dtor$0@?0??FreeSamples@COutputQueue@@IEAAXXZ@4HA
xdata	ENDS
;	COMDAT CONST
CONST	SEGMENT
?FreeSamples@COutputQueue@@IEAAXXZ$rtcName$0 DB 06cH	; COutputQueue::FreeSamples
	DB	063H
	DB	06bH
	DB	00H
	ORG $+12
?FreeSamples@COutputQueue@@IEAAXXZ$rtcVarDesc DD 028H	; COutputQueue::FreeSamples
	DD	08H
	DQ	FLAT:?FreeSamples@COutputQueue@@IEAAXXZ$rtcName$0
	ORG $+48
?FreeSamples@COutputQueue@@IEAAXXZ$rtcFrameData DD 01H	; COutputQueue::FreeSamples
	DD	00H
	DQ	FLAT:?FreeSamples@COutputQueue@@IEAAXXZ$rtcVarDesc
$cppxdata$?FreeSamples@COutputQueue@@IEAAXXZ DD 019930522H
	DD	01H
	DD	imagerel $stateUnwindMap$?FreeSamples@COutputQueue@@IEAAXXZ
	DD	00H
	DD	00H
	DD	03H
	DD	imagerel $ip2state$?FreeSamples@COutputQueue@@IEAAXXZ
	DD	058H
	DD	00H
	DD	01H
; Function compile flags: /Odtp /RTCsu
CONST	ENDS
;	COMDAT ?FreeSamples@COutputQueue@@IEAAXXZ
_TEXT	SEGMENT
lck$ = 40
pSample$82623 = 56
ppacket$82631 = 64
i$82638 = 72
$T83622 = 80
$T83628 = 88
this$ = 112
?FreeSamples@COutputQueue@@IEAAXXZ PROC			; COutputQueue::FreeSamples, COMDAT
; Line 710
$LN17:
	mov	QWORD PTR [rsp+8], rcx
	push	rdi
	sub	rsp, 96					; 00000060H
	mov	rdi, rsp
	mov	ecx, 24
	mov	eax, -858993460				; ccccccccH
	rep stosd
	mov	rcx, QWORD PTR [rsp+112]
	mov	QWORD PTR $T83628[rsp], -2
; Line 711
	mov	rdx, QWORD PTR this$[rsp]
	lea	rcx, QWORD PTR lck$[rsp]
	call	??0CAutoLock@@QEAA@PEAVCCritSec@@@Z	; CAutoLock::CAutoLock
	npad	1
; Line 712
	mov	rcx, QWORD PTR this$[rsp]
	call	?IsQueued@COutputQueue@@IEAAHXZ		; COutputQueue::IsQueued
	test	eax, eax
	je	$LN13@FreeSample
$LN12@FreeSample:
; Line 713
	xor	eax, eax
	cmp	eax, 1
	je	$LN13@FreeSample
; Line 714
	mov	rax, QWORD PTR this$[rsp]
	mov	rcx, QWORD PTR [rax+80]
	call	?RemoveHead@?$CGenericList@UIMediaSample@@@@QEAAPEAUIMediaSample@@XZ ; CGenericList<IMediaSample>::RemoveHead
	mov	QWORD PTR pSample$82623[rsp], rax
; Line 716
	mov	rax, QWORD PTR this$[rsp]
	cmp	QWORD PTR [rax+152], 0
	je	SHORT $LN10@FreeSample
; Line 718
	mov	rax, QWORD PTR this$[rsp]
	mov	rcx, QWORD PTR [rax+152]
	call	QWORD PTR __imp_SetEvent
$LN10@FreeSample:
; Line 721
	cmp	QWORD PTR pSample$82623[rsp], 0
	jne	SHORT $LN9@FreeSample
; Line 722
	jmp	$LN13@FreeSample
$LN9@FreeSample:
; Line 724
	mov	rdx, QWORD PTR pSample$82623[rsp]
	mov	rcx, QWORD PTR this$[rsp]
	call	?IsSpecialSample@COutputQueue@@IEAAHPEAUIMediaSample@@@Z ; COutputQueue::IsSpecialSample
	test	eax, eax
	jne	SHORT $LN8@FreeSample
; Line 725
	mov	rax, QWORD PTR pSample$82623[rsp]
	mov	rax, QWORD PTR [rax]
	mov	rcx, QWORD PTR pSample$82623[rsp]
	call	QWORD PTR [rax+16]
; Line 726
	jmp	SHORT $LN7@FreeSample
$LN8@FreeSample:
; Line 727
	cmp	QWORD PTR pSample$82623[rsp], -5
	jne	SHORT $LN7@FreeSample
; Line 730
	mov	rax, QWORD PTR this$[rsp]
	mov	rcx, QWORD PTR [rax+80]
	call	?RemoveHead@?$CGenericList@UIMediaSample@@@@QEAAPEAUIMediaSample@@XZ ; CGenericList<IMediaSample>::RemoveHead
	mov	QWORD PTR ppacket$82631[rsp], rax
; Line 732
	mov	rax, QWORD PTR this$[rsp]
	cmp	QWORD PTR [rax+152], 0
	je	SHORT $LN5@FreeSample
; Line 734
	mov	rax, QWORD PTR this$[rsp]
	mov	rcx, QWORD PTR [rax+152]
	call	QWORD PTR __imp_SetEvent
$LN5@FreeSample:
; Line 737
	cmp	QWORD PTR ppacket$82631[rsp], 0
	jne	SHORT $LN4@FreeSample
	mov	r8d, 737				; 000002e1H
	lea	rdx, OFFSET FLAT:$SG82635
	lea	rcx, OFFSET FLAT:$SG82636
	call	?DbgAssert@@YAXPEB_W0H@Z		; DbgAssert
$LN4@FreeSample:
; Line 738
	mov	rax, QWORD PTR ppacket$82631[rsp]
	mov	QWORD PTR $T83622[rsp], rax
	mov	rcx, QWORD PTR $T83622[rsp]
	call	??3@YAXPEAX@Z				; operator delete
$LN7@FreeSample:
; Line 741
	jmp	$LN12@FreeSample
$LN13@FreeSample:
; Line 743
	mov	DWORD PTR i$82638[rsp], 0
	jmp	SHORT $LN3@FreeSample
$LN2@FreeSample:
	mov	eax, DWORD PTR i$82638[rsp]
	inc	eax
	mov	DWORD PTR i$82638[rsp], eax
$LN3@FreeSample:
	mov	rax, QWORD PTR this$[rsp]
	mov	eax, DWORD PTR [rax+120]
	cmp	DWORD PTR i$82638[rsp], eax
	jge	SHORT $LN1@FreeSample
; Line 744
	movsxd	rax, DWORD PTR i$82638[rsp]
	mov	rcx, QWORD PTR this$[rsp]
	mov	rcx, QWORD PTR [rcx+112]
	mov	rax, QWORD PTR [rcx+rax*8]
	movsxd	rcx, DWORD PTR i$82638[rsp]
	mov	rdx, QWORD PTR this$[rsp]
	mov	rdx, QWORD PTR [rdx+112]
	mov	rcx, QWORD PTR [rdx+rcx*8]
	mov	rax, QWORD PTR [rax]
	call	QWORD PTR [rax+16]
; Line 745
	jmp	SHORT $LN2@FreeSample
$LN1@FreeSample:
; Line 746
	mov	rax, QWORD PTR this$[rsp]
	mov	DWORD PTR [rax+120], 0
; Line 747
	lea	rcx, QWORD PTR lck$[rsp]
	call	??1CAutoLock@@QEAA@XZ			; CAutoLock::~CAutoLock
	mov	rcx, rsp
	lea	rdx, OFFSET FLAT:?FreeSamples@COutputQueue@@IEAAXXZ$rtcFrameData
	call	_RTC_CheckStackVars
	add	rsp, 96					; 00000060H
	pop	rdi
	ret	0
?FreeSamples@COutputQueue@@IEAAXXZ ENDP			; COutputQueue::FreeSamples
; Function compile flags: /Odtp /RTCsu
_TEXT	ENDS
;	COMDAT text$x
text$x	SEGMENT
lck$ = 40
pSample$82623 = 56
ppacket$82631 = 64
i$82638 = 72
$T83622 = 80
$T83628 = 88
this$ = 112
?dtor$0@?0??FreeSamples@COutputQueue@@IEAAXXZ@4HA PROC	; `COutputQueue::FreeSamples'::`1'::dtor$0
	mov	QWORD PTR [rsp+8], rcx
	mov	QWORD PTR [rsp+16], rdx
	push	rbp
	push	rdi
	sub	rsp, 40					; 00000028H
	mov	rbp, rdx
	lea	rcx, QWORD PTR lck$[rbp]
	call	??1CAutoLock@@QEAA@XZ			; CAutoLock::~CAutoLock
	add	rsp, 40					; 00000028H
	pop	rdi
	pop	rbp
	ret	0
?dtor$0@?0??FreeSamples@COutputQueue@@IEAAXXZ@4HA ENDP	; `COutputQueue::FreeSamples'::`1'::dtor$0
text$x	ENDS
EXTRN	__imp_ReleaseSemaphore:PROC
;	COMDAT pdata
pdata	SEGMENT
$pdata$?NotifyThread@COutputQueue@@IEAAXXZ DD imagerel $LN5
	DD	imagerel $LN5+124
	DD	imagerel $unwind$?NotifyThread@COutputQueue@@IEAAXXZ
pdata	ENDS
;	COMDAT xdata
xdata	SEGMENT
$unwind$?NotifyThread@COutputQueue@@IEAAXXZ DD 021e01H
	DD	07006320aH
; Function compile flags: /Odtp /RTCsu
xdata	ENDS
;	COMDAT ?NotifyThread@COutputQueue@@IEAAXXZ
_TEXT	SEGMENT
this$ = 48
?NotifyThread@COutputQueue@@IEAAXXZ PROC		; COutputQueue::NotifyThread, COMDAT
; Line 753
$LN5:
	mov	QWORD PTR [rsp+8], rcx
	push	rdi
	sub	rsp, 32					; 00000020H
	mov	rdi, rsp
	mov	ecx, 8
	mov	eax, -858993460				; ccccccccH
	rep stosd
	mov	rcx, QWORD PTR [rsp+48]
; Line 755
	mov	rcx, QWORD PTR this$[rsp]
	call	?IsQueued@COutputQueue@@IEAAHXZ		; COutputQueue::IsQueued
	test	eax, eax
	jne	SHORT $LN2@NotifyThre
	mov	r8d, 755				; 000002f3H
	lea	rdx, OFFSET FLAT:$SG82646
	lea	rcx, OFFSET FLAT:$SG82647
	call	?DbgAssert@@YAXPEB_W0H@Z		; DbgAssert
$LN2@NotifyThre:
; Line 756
	mov	rax, QWORD PTR this$[rsp]
	cmp	DWORD PTR [rax+124], 0
	je	SHORT $LN1@NotifyThre
; Line 757
	xor	r8d, r8d
	mov	rax, QWORD PTR this$[rsp]
	mov	edx, DWORD PTR [rax+124]
	mov	rax, QWORD PTR this$[rsp]
	mov	rcx, QWORD PTR [rax+88]
	call	QWORD PTR __imp_ReleaseSemaphore
; Line 758
	mov	rax, QWORD PTR this$[rsp]
	mov	DWORD PTR [rax+124], 0
$LN1@NotifyThre:
; Line 760
	add	rsp, 32					; 00000020H
	pop	rdi
	ret	0
?NotifyThread@COutputQueue@@IEAAXXZ ENDP		; COutputQueue::NotifyThread
_TEXT	ENDS
PUBLIC	?IsIdle@COutputQueue@@QEAAHXZ			; COutputQueue::IsIdle
;	COMDAT pdata
pdata	SEGMENT
$pdata$?IsIdle@COutputQueue@@QEAAHXZ DD imagerel $LN9
	DD	imagerel $LN9+236
	DD	imagerel $unwind$?IsIdle@COutputQueue@@QEAAHXZ
pdata	ENDS
;	COMDAT pdata
pdata	SEGMENT
$pdata$?dtor$0@?0??IsIdle@COutputQueue@@QEAAHXZ@4HA DD imagerel ?dtor$0@?0??IsIdle@COutputQueue@@QEAAHXZ@4HA
	DD	imagerel ?dtor$0@?0??IsIdle@COutputQueue@@QEAAHXZ@4HA+35
	DD	imagerel $unwind$?dtor$0@?0??IsIdle@COutputQueue@@QEAAHXZ@4HA
pdata	ENDS
;	COMDAT xdata
xdata	SEGMENT
$ip2state$?IsIdle@COutputQueue@@QEAAHXZ DD imagerel ?IsIdle@COutputQueue@@QEAAHXZ
	DD	0ffffffffH
	DD	imagerel ?IsIdle@COutputQueue@@QEAAHXZ+55
	DD	00H
	DD	imagerel ?IsIdle@COutputQueue@@QEAAHXZ+99
	DD	0ffffffffH
	DD	imagerel ?IsIdle@COutputQueue@@QEAAHXZ+117
	DD	00H
	DD	imagerel ?IsIdle@COutputQueue@@QEAAHXZ+182
	DD	0ffffffffH
xdata	ENDS
;	COMDAT xdata
xdata	SEGMENT
$unwind$?dtor$0@?0??IsIdle@COutputQueue@@QEAAHXZ@4HA DD 031001H
	DD	0700c4210H
	DD	0500bH
xdata	ENDS
;	COMDAT xdata
xdata	SEGMENT
$unwind$?IsIdle@COutputQueue@@QEAAHXZ DD 022711H
	DD	07006920aH
	DD	imagerel __CxxFrameHandler3
	DD	imagerel $cppxdata$?IsIdle@COutputQueue@@QEAAHXZ
xdata	ENDS
;	COMDAT xdata
xdata	SEGMENT
$stateUnwindMap$?IsIdle@COutputQueue@@QEAAHXZ DD 0ffffffffH
	DD	imagerel ?dtor$0@?0??IsIdle@COutputQueue@@QEAAHXZ@4HA
xdata	ENDS
;	COMDAT CONST
CONST	SEGMENT
?IsIdle@COutputQueue@@QEAAHXZ$rtcName$0 DB 06cH		; COutputQueue::IsIdle
	DB	063H
	DB	06bH
	DB	00H
	ORG $+12
?IsIdle@COutputQueue@@QEAAHXZ$rtcVarDesc DD 028H	; COutputQueue::IsIdle
	DD	08H
	DQ	FLAT:?IsIdle@COutputQueue@@QEAAHXZ$rtcName$0
	ORG $+48
?IsIdle@COutputQueue@@QEAAHXZ$rtcFrameData DD 01H	; COutputQueue::IsIdle
	DD	00H
	DQ	FLAT:?IsIdle@COutputQueue@@QEAAHXZ$rtcVarDesc
$cppxdata$?IsIdle@COutputQueue@@QEAAHXZ DD 019930522H
	DD	01H
	DD	imagerel $stateUnwindMap$?IsIdle@COutputQueue@@QEAAHXZ
	DD	00H
	DD	00H
	DD	05H
	DD	imagerel $ip2state$?IsIdle@COutputQueue@@QEAAHXZ
	DD	040H
	DD	00H
	DD	01H
; Function compile flags: /Odtp /RTCsu
CONST	ENDS
;	COMDAT ?IsIdle@COutputQueue@@QEAAHXZ
_TEXT	SEGMENT
lck$ = 40
$T83656 = 52
$T83657 = 56
$T83663 = 64
this$ = 96
?IsIdle@COutputQueue@@QEAAHXZ PROC			; COutputQueue::IsIdle, COMDAT
; Line 769
$LN9:
	mov	QWORD PTR [rsp+8], rcx
	push	rdi
	sub	rsp, 80					; 00000050H
	mov	rdi, rsp
	mov	ecx, 20
	mov	eax, -858993460				; ccccccccH
	rep stosd
	mov	rcx, QWORD PTR [rsp+96]
	mov	QWORD PTR $T83663[rsp], -2
; Line 770
	mov	rdx, QWORD PTR this$[rsp]
	lea	rcx, QWORD PTR lck$[rsp]
	call	??0CAutoLock@@QEAA@PEAVCCritSec@@@Z	; CAutoLock::CAutoLock
	npad	1
; Line 778
	mov	rcx, QWORD PTR this$[rsp]
	call	?IsQueued@COutputQueue@@IEAAHXZ		; COutputQueue::IsQueued
	test	eax, eax
	je	SHORT $LN3@IsIdle
	mov	rax, QWORD PTR this$[rsp]
	cmp	DWORD PTR [rax+124], 0
	je	SHORT $LN4@IsIdle
$LN3@IsIdle:
	mov	rax, QWORD PTR this$[rsp]
	cmp	DWORD PTR [rax+120], 0
	je	SHORT $LN5@IsIdle
$LN4@IsIdle:
; Line 779
	mov	DWORD PTR $T83656[rsp], 0
	lea	rcx, QWORD PTR lck$[rsp]
	call	??1CAutoLock@@QEAA@XZ			; CAutoLock::~CAutoLock
	mov	eax, DWORD PTR $T83656[rsp]
	jmp	SHORT $LN6@IsIdle
; Line 780
	jmp	SHORT $LN2@IsIdle
$LN5@IsIdle:
; Line 785
	mov	rcx, QWORD PTR this$[rsp]
	call	?IsQueued@COutputQueue@@IEAAHXZ		; COutputQueue::IsQueued
	test	eax, eax
	je	SHORT $LN1@IsIdle
	mov	rax, QWORD PTR this$[rsp]
	mov	rcx, QWORD PTR [rax+80]
	call	?GetCount@?$CGenericList@UIMediaSample@@@@QEBAHXZ ; CGenericList<IMediaSample>::GetCount
	test	eax, eax
	je	SHORT $LN1@IsIdle
	mov	r8d, 785				; 00000311H
	lea	rdx, OFFSET FLAT:$SG82659
	lea	rcx, OFFSET FLAT:$SG82660
	call	?DbgAssert@@YAXPEB_W0H@Z		; DbgAssert
$LN1@IsIdle:
; Line 786
	mov	DWORD PTR $T83657[rsp], 1
	lea	rcx, QWORD PTR lck$[rsp]
	call	??1CAutoLock@@QEAA@XZ			; CAutoLock::~CAutoLock
	mov	eax, DWORD PTR $T83657[rsp]
	jmp	SHORT $LN6@IsIdle
$LN2@IsIdle:
; Line 788
	lea	rcx, QWORD PTR lck$[rsp]
	call	??1CAutoLock@@QEAA@XZ			; CAutoLock::~CAutoLock
	npad	1
$LN6@IsIdle:
	mov	rdi, rax
	mov	rcx, rsp
	lea	rdx, OFFSET FLAT:?IsIdle@COutputQueue@@QEAAHXZ$rtcFrameData
	call	_RTC_CheckStackVars
	mov	rax, rdi
	add	rsp, 80					; 00000050H
	pop	rdi
	ret	0
?IsIdle@COutputQueue@@QEAAHXZ ENDP			; COutputQueue::IsIdle
; Function compile flags: /Odtp /RTCsu
_TEXT	ENDS
;	COMDAT text$x
text$x	SEGMENT
lck$ = 40
$T83656 = 52
$T83657 = 56
$T83663 = 64
this$ = 96
?dtor$0@?0??IsIdle@COutputQueue@@QEAAHXZ@4HA PROC	; `COutputQueue::IsIdle'::`1'::dtor$0
	mov	QWORD PTR [rsp+8], rcx
	mov	QWORD PTR [rsp+16], rdx
	push	rbp
	push	rdi
	sub	rsp, 40					; 00000028H
	mov	rbp, rdx
	lea	rcx, QWORD PTR lck$[rbp]
	call	??1CAutoLock@@QEAA@XZ			; CAutoLock::~CAutoLock
	add	rsp, 40					; 00000028H
	pop	rdi
	pop	rbp
	ret	0
?dtor$0@?0??IsIdle@COutputQueue@@QEAAHXZ@4HA ENDP	; `COutputQueue::IsIdle'::`1'::dtor$0
text$x	ENDS
PUBLIC	?SetPopEvent@COutputQueue@@QEAAXPEAX@Z		; COutputQueue::SetPopEvent
;	COMDAT pdata
pdata	SEGMENT
$pdata$?SetPopEvent@COutputQueue@@QEAAXPEAX@Z DD imagerel $LN3
	DD	imagerel $LN3+30
	DD	imagerel $unwind$?SetPopEvent@COutputQueue@@QEAAXPEAX@Z
pdata	ENDS
;	COMDAT xdata
xdata	SEGMENT
$unwind$?SetPopEvent@COutputQueue@@QEAAXPEAX@Z DD 010b01H
	DD	0700bH
; Function compile flags: /Odtp /RTCsu
xdata	ENDS
;	COMDAT ?SetPopEvent@COutputQueue@@QEAAXPEAX@Z
_TEXT	SEGMENT
this$ = 16
hEvent$ = 24
?SetPopEvent@COutputQueue@@QEAAXPEAX@Z PROC		; COutputQueue::SetPopEvent, COMDAT
; Line 792
$LN3:
	mov	QWORD PTR [rsp+16], rdx
	mov	QWORD PTR [rsp+8], rcx
	push	rdi
; Line 793
	mov	rax, QWORD PTR this$[rsp]
	mov	rcx, QWORD PTR hEvent$[rsp]
	mov	QWORD PTR [rax+152], rcx
; Line 794
	pop	rdi
	ret	0
?SetPopEvent@COutputQueue@@QEAAXPEAX@Z ENDP		; COutputQueue::SetPopEvent
_TEXT	ENDS
EXTRN	??0CBaseList@@QEAA@PEA_WH@Z:PROC		; CBaseList::CBaseList
;	COMDAT pdata
; File c:\downloads\wpf mediakit - copy\src\filters\baseclasses\wxlist.h
pdata	SEGMENT
$pdata$??0?$CGenericList@UIMediaSample@@@@QEAA@PEA_WHHH@Z DD imagerel $LN4
	DD	imagerel $LN4+76
	DD	imagerel $unwind$??0?$CGenericList@UIMediaSample@@@@QEAA@PEA_WHHH@Z
pdata	ENDS
;	COMDAT xdata
xdata	SEGMENT
$unwind$??0?$CGenericList@UIMediaSample@@@@QEAA@PEA_WHHH@Z DD 022d01H
	DD	070153219H
; Function compile flags: /Odtp /RTCsu
xdata	ENDS
;	COMDAT ??0?$CGenericList@UIMediaSample@@@@QEAA@PEA_WHHH@Z
_TEXT	SEGMENT
this$ = 48
pName$ = 56
iItems$ = 64
bLock$ = 72
bAlert$ = 80
??0?$CGenericList@UIMediaSample@@@@QEAA@PEA_WHHH@Z PROC	; CGenericList<IMediaSample>::CGenericList<IMediaSample>, COMDAT
; Line 500
$LN4:
	mov	DWORD PTR [rsp+32], r9d
	mov	DWORD PTR [rsp+24], r8d
	mov	QWORD PTR [rsp+16], rdx
	mov	QWORD PTR [rsp+8], rcx
	push	rdi
	sub	rsp, 32					; 00000020H
	mov	rdi, rsp
	mov	ecx, 8
	mov	eax, -858993460				; ccccccccH
	rep stosd
	mov	rcx, QWORD PTR [rsp+48]
	mov	r8d, DWORD PTR iItems$[rsp]
	mov	rdx, QWORD PTR pName$[rsp]
	mov	rcx, QWORD PTR this$[rsp]
	call	??0CBaseList@@QEAA@PEA_WH@Z		; CBaseList::CBaseList
; Line 503
	mov	rax, QWORD PTR this$[rsp]
	add	rsp, 32					; 00000020H
	pop	rdi
	ret	0
??0?$CGenericList@UIMediaSample@@@@QEAA@PEA_WHHH@Z ENDP	; CGenericList<IMediaSample>::CGenericList<IMediaSample>
_TEXT	ENDS
;	COMDAT pdata
pdata	SEGMENT
$pdata$?GetCount@?$CGenericList@UIMediaSample@@@@QEBAHXZ DD imagerel $LN3
	DD	imagerel $LN3+16
	DD	imagerel $unwind$?GetCount@?$CGenericList@UIMediaSample@@@@QEBAHXZ
pdata	ENDS
;	COMDAT xdata
xdata	SEGMENT
$unwind$?GetCount@?$CGenericList@UIMediaSample@@@@QEBAHXZ DD 010601H
	DD	07006H
; Function compile flags: /Odtp /RTCsu
xdata	ENDS
;	COMDAT ?GetCount@?$CGenericList@UIMediaSample@@@@QEBAHXZ
_TEXT	SEGMENT
this$ = 16
?GetCount@?$CGenericList@UIMediaSample@@@@QEBAHXZ PROC	; CGenericList<IMediaSample>::GetCount, COMDAT
; Line 510
$LN3:
	mov	QWORD PTR [rsp+8], rcx
	push	rdi
	mov	rax, QWORD PTR this$[rsp]
	mov	eax, DWORD PTR [rax+24]
	pop	rdi
	ret	0
?GetCount@?$CGenericList@UIMediaSample@@@@QEBAHXZ ENDP	; CGenericList<IMediaSample>::GetCount
_TEXT	ENDS
EXTRN	?RemoveHeadI@CBaseList@@IEAAPEAXXZ:PROC		; CBaseList::RemoveHeadI
;	COMDAT pdata
pdata	SEGMENT
$pdata$?RemoveHead@?$CGenericList@UIMediaSample@@@@QEAAPEAUIMediaSample@@XZ DD imagerel $LN3
	DD	imagerel $LN3+46
	DD	imagerel $unwind$?RemoveHead@?$CGenericList@UIMediaSample@@@@QEAAPEAUIMediaSample@@XZ
pdata	ENDS
;	COMDAT xdata
xdata	SEGMENT
$unwind$?RemoveHead@?$CGenericList@UIMediaSample@@@@QEAAPEAUIMediaSample@@XZ DD 021e01H
	DD	07006320aH
; Function compile flags: /Odtp /RTCsu
xdata	ENDS
;	COMDAT ?RemoveHead@?$CGenericList@UIMediaSample@@@@QEAAPEAUIMediaSample@@XZ
_TEXT	SEGMENT
this$ = 48
?RemoveHead@?$CGenericList@UIMediaSample@@@@QEAAPEAUIMediaSample@@XZ PROC ; CGenericList<IMediaSample>::RemoveHead, COMDAT
; Line 517
$LN3:
	mov	QWORD PTR [rsp+8], rcx
	push	rdi
	sub	rsp, 32					; 00000020H
	mov	rdi, rsp
	mov	ecx, 8
	mov	eax, -858993460				; ccccccccH
	rep stosd
	mov	rcx, QWORD PTR [rsp+48]
	mov	rcx, QWORD PTR this$[rsp]
	call	?RemoveHeadI@CBaseList@@IEAAPEAXXZ	; CBaseList::RemoveHeadI
	add	rsp, 32					; 00000020H
	pop	rdi
	ret	0
?RemoveHead@?$CGenericList@UIMediaSample@@@@QEAAPEAUIMediaSample@@XZ ENDP ; CGenericList<IMediaSample>::RemoveHead
_TEXT	ENDS
EXTRN	?AddTailI@CBaseList@@IEAAPEAU__POSITION@@PEAX@Z:PROC ; CBaseList::AddTailI
;	COMDAT pdata
pdata	SEGMENT
$pdata$?AddTail@?$CGenericList@UIMediaSample@@@@QEAAPEAU__POSITION@@PEAUIMediaSample@@@Z DD imagerel $LN3
	DD	imagerel $LN3+56
	DD	imagerel $unwind$?AddTail@?$CGenericList@UIMediaSample@@@@QEAAPEAU__POSITION@@PEAUIMediaSample@@@Z
pdata	ENDS
;	COMDAT xdata
xdata	SEGMENT
$unwind$?AddTail@?$CGenericList@UIMediaSample@@@@QEAAPEAU__POSITION@@PEAUIMediaSample@@@Z DD 022301H
	DD	0700b320fH
; Function compile flags: /Odtp /RTCsu
xdata	ENDS
;	COMDAT ?AddTail@?$CGenericList@UIMediaSample@@@@QEAAPEAU__POSITION@@PEAUIMediaSample@@@Z
_TEXT	SEGMENT
this$ = 48
pObj$ = 56
?AddTail@?$CGenericList@UIMediaSample@@@@QEAAPEAU__POSITION@@PEAUIMediaSample@@@Z PROC ; CGenericList<IMediaSample>::AddTail, COMDAT
; Line 525
$LN3:
	mov	QWORD PTR [rsp+16], rdx
	mov	QWORD PTR [rsp+8], rcx
	push	rdi
	sub	rsp, 32					; 00000020H
	mov	rdi, rsp
	mov	ecx, 8
	mov	eax, -858993460				; ccccccccH
	rep stosd
	mov	rcx, QWORD PTR [rsp+48]
	mov	rdx, QWORD PTR pObj$[rsp]
	mov	rcx, QWORD PTR this$[rsp]
	call	?AddTailI@CBaseList@@IEAAPEAU__POSITION@@PEAX@Z ; CBaseList::AddTailI
	add	rsp, 32					; 00000020H
	pop	rdi
	ret	0
?AddTail@?$CGenericList@UIMediaSample@@@@QEAAPEAU__POSITION@@PEAUIMediaSample@@@Z ENDP ; CGenericList<IMediaSample>::AddTail
_TEXT	ENDS
END
