; Listing generated by Microsoft (R) Optimizing Compiler Version 16.00.30319.01 

include listing.inc

INCLUDELIB LIBCMTD
INCLUDELIB OLDNAMES

PUBLIC	IID_IAMFilterGraphCallback
CONST	SEGMENT
$SG82269 DB	'%', 00H, '0', 00H, '1', 00H, '1', 00H, 'd', 00H, ' ', 00H
	DB	00H, 00H
CONST	ENDS
;	COMDAT IID_IAMFilterGraphCallback
CONST	SEGMENT
IID_IAMFilterGraphCallback DD 056a868fdH
	DW	0ad4H
	DW	011ceH
	DB	0b0H
	DB	0a3H
	DB	00H
	DB	020H
	DB	0afH
	DB	0bH
	DB	0a7H
	DB	070H
CONST	ENDS
PUBLIC	?GetSoftwareVersion@CPersistStream@@UEAAKXZ	; CPersistStream::GetSoftwareVersion
PUBLIC	??_7CPersistStream@@6B@				; CPersistStream::`vftable'
PUBLIC	??0IPersistStream@@QEAA@XZ			; IPersistStream::IPersistStream
PUBLIC	??0CPersistStream@@QEAA@PEAUIUnknown@@PEAJ@Z	; CPersistStream::CPersistStream
PUBLIC	??_R4CPersistStream@@6B@			; CPersistStream::`RTTI Complete Object Locator'
PUBLIC	??_R0?AVCPersistStream@@@8			; CPersistStream `RTTI Type Descriptor'
PUBLIC	??_R3CPersistStream@@8				; CPersistStream::`RTTI Class Hierarchy Descriptor'
PUBLIC	??_R2CPersistStream@@8				; CPersistStream::`RTTI Base Class Array'
PUBLIC	??_R1A@?0A@EA@CPersistStream@@8			; CPersistStream::`RTTI Base Class Descriptor at (0,-1,0,64)'
PUBLIC	??_R1A@?0A@EA@IPersistStream@@8			; IPersistStream::`RTTI Base Class Descriptor at (0,-1,0,64)'
PUBLIC	??_R0?AUIPersistStream@@@8			; IPersistStream `RTTI Type Descriptor'
PUBLIC	??_R3IPersistStream@@8				; IPersistStream::`RTTI Class Hierarchy Descriptor'
PUBLIC	??_R2IPersistStream@@8				; IPersistStream::`RTTI Base Class Array'
PUBLIC	??_R1A@?0A@EA@IPersist@@8			; IPersist::`RTTI Base Class Descriptor at (0,-1,0,64)'
PUBLIC	??_R0?AUIPersist@@@8				; IPersist `RTTI Type Descriptor'
PUBLIC	??_R3IPersist@@8				; IPersist::`RTTI Class Hierarchy Descriptor'
PUBLIC	??_R2IPersist@@8				; IPersist::`RTTI Base Class Array'
PUBLIC	??_R1A@?0A@EA@IUnknown@@8			; IUnknown::`RTTI Base Class Descriptor at (0,-1,0,64)'
PUBLIC	??_R0?AUIUnknown@@@8				; IUnknown `RTTI Type Descriptor'
PUBLIC	??_R3IUnknown@@8				; IUnknown::`RTTI Class Hierarchy Descriptor'
PUBLIC	??_R2IUnknown@@8				; IUnknown::`RTTI Base Class Array'
PUBLIC	?IsDirty@CPersistStream@@UEAAJXZ		; CPersistStream::IsDirty
PUBLIC	?Load@CPersistStream@@UEAAJPEAUIStream@@@Z	; CPersistStream::Load
PUBLIC	?Save@CPersistStream@@UEAAJPEAUIStream@@H@Z	; CPersistStream::Save
PUBLIC	?GetSizeMax@CPersistStream@@UEAAJPEAT_ULARGE_INTEGER@@@Z ; CPersistStream::GetSizeMax
PUBLIC	?SizeMax@CPersistStream@@UEAAHXZ		; CPersistStream::SizeMax
PUBLIC	?WriteToStream@CPersistStream@@UEAAJPEAUIStream@@@Z ; CPersistStream::WriteToStream
PUBLIC	?ReadFromStream@CPersistStream@@UEAAJPEAUIStream@@@Z ; CPersistStream::ReadFromStream
EXTRN	_RTC_Shutdown:PROC
EXTRN	_RTC_InitBase:PROC
EXTRN	??_7type_info@@6B@:BYTE				; type_info::`vftable'
EXTRN	_purecall:PROC
;	COMDAT pdata
; File c:\downloads\wpf mediakit - copy\src\filters\baseclasses\pstream.cpp
pdata	SEGMENT
$pdata$??0CPersistStream@@QEAA@PEAUIUnknown@@PEAJ@Z DD imagerel $LN3
	DD	imagerel $LN3+106
	DD	imagerel $unwind$??0CPersistStream@@QEAA@PEAUIUnknown@@PEAJ@Z
pdata	ENDS
;	COMDAT ??_R2IUnknown@@8
rdata$r	SEGMENT
??_R2IUnknown@@8 DD imagerel ??_R1A@?0A@EA@IUnknown@@8	; IUnknown::`RTTI Base Class Array'
	ORG $+3
rdata$r	ENDS
;	COMDAT ??_R3IUnknown@@8
rdata$r	SEGMENT
??_R3IUnknown@@8 DD 00H					; IUnknown::`RTTI Class Hierarchy Descriptor'
	DD	00H
	DD	01H
	DD	imagerel ??_R2IUnknown@@8
rdata$r	ENDS
;	COMDAT ??_R0?AUIUnknown@@@8
_DATA	SEGMENT
??_R0?AUIUnknown@@@8 DQ FLAT:??_7type_info@@6B@		; IUnknown `RTTI Type Descriptor'
	DQ	0000000000000000H
	DB	'.?AUIUnknown@@', 00H
_DATA	ENDS
;	COMDAT ??_R1A@?0A@EA@IUnknown@@8
rdata$r	SEGMENT
??_R1A@?0A@EA@IUnknown@@8 DD imagerel ??_R0?AUIUnknown@@@8 ; IUnknown::`RTTI Base Class Descriptor at (0,-1,0,64)'
	DD	00H
	DD	00H
	DD	0ffffffffH
	DD	00H
	DD	040H
	DD	imagerel ??_R3IUnknown@@8
rdata$r	ENDS
;	COMDAT ??_R2IPersist@@8
rdata$r	SEGMENT
??_R2IPersist@@8 DD imagerel ??_R1A@?0A@EA@IPersist@@8	; IPersist::`RTTI Base Class Array'
	DD	imagerel ??_R1A@?0A@EA@IUnknown@@8
	ORG $+3
rdata$r	ENDS
;	COMDAT ??_R3IPersist@@8
rdata$r	SEGMENT
??_R3IPersist@@8 DD 00H					; IPersist::`RTTI Class Hierarchy Descriptor'
	DD	00H
	DD	02H
	DD	imagerel ??_R2IPersist@@8
rdata$r	ENDS
;	COMDAT ??_R0?AUIPersist@@@8
_DATA	SEGMENT
??_R0?AUIPersist@@@8 DQ FLAT:??_7type_info@@6B@		; IPersist `RTTI Type Descriptor'
	DQ	0000000000000000H
	DB	'.?AUIPersist@@', 00H
_DATA	ENDS
;	COMDAT ??_R1A@?0A@EA@IPersist@@8
rdata$r	SEGMENT
??_R1A@?0A@EA@IPersist@@8 DD imagerel ??_R0?AUIPersist@@@8 ; IPersist::`RTTI Base Class Descriptor at (0,-1,0,64)'
	DD	01H
	DD	00H
	DD	0ffffffffH
	DD	00H
	DD	040H
	DD	imagerel ??_R3IPersist@@8
rdata$r	ENDS
;	COMDAT ??_R2IPersistStream@@8
rdata$r	SEGMENT
??_R2IPersistStream@@8 DD imagerel ??_R1A@?0A@EA@IPersistStream@@8 ; IPersistStream::`RTTI Base Class Array'
	DD	imagerel ??_R1A@?0A@EA@IPersist@@8
	DD	imagerel ??_R1A@?0A@EA@IUnknown@@8
	ORG $+3
rdata$r	ENDS
;	COMDAT ??_R3IPersistStream@@8
rdata$r	SEGMENT
??_R3IPersistStream@@8 DD 00H				; IPersistStream::`RTTI Class Hierarchy Descriptor'
	DD	00H
	DD	03H
	DD	imagerel ??_R2IPersistStream@@8
rdata$r	ENDS
;	COMDAT ??_R0?AUIPersistStream@@@8
_DATA	SEGMENT
??_R0?AUIPersistStream@@@8 DQ FLAT:??_7type_info@@6B@	; IPersistStream `RTTI Type Descriptor'
	DQ	0000000000000000H
	DB	'.?AUIPersistStream@@', 00H
_DATA	ENDS
;	COMDAT ??_R1A@?0A@EA@IPersistStream@@8
rdata$r	SEGMENT
??_R1A@?0A@EA@IPersistStream@@8 DD imagerel ??_R0?AUIPersistStream@@@8 ; IPersistStream::`RTTI Base Class Descriptor at (0,-1,0,64)'
	DD	02H
	DD	00H
	DD	0ffffffffH
	DD	00H
	DD	040H
	DD	imagerel ??_R3IPersistStream@@8
rdata$r	ENDS
;	COMDAT ??_R1A@?0A@EA@CPersistStream@@8
rdata$r	SEGMENT
??_R1A@?0A@EA@CPersistStream@@8 DD imagerel ??_R0?AVCPersistStream@@@8 ; CPersistStream::`RTTI Base Class Descriptor at (0,-1,0,64)'
	DD	03H
	DD	00H
	DD	0ffffffffH
	DD	00H
	DD	040H
	DD	imagerel ??_R3CPersistStream@@8
rdata$r	ENDS
;	COMDAT ??_R2CPersistStream@@8
rdata$r	SEGMENT
??_R2CPersistStream@@8 DD imagerel ??_R1A@?0A@EA@CPersistStream@@8 ; CPersistStream::`RTTI Base Class Array'
	DD	imagerel ??_R1A@?0A@EA@IPersistStream@@8
	DD	imagerel ??_R1A@?0A@EA@IPersist@@8
	DD	imagerel ??_R1A@?0A@EA@IUnknown@@8
	ORG $+3
rdata$r	ENDS
;	COMDAT ??_R3CPersistStream@@8
rdata$r	SEGMENT
??_R3CPersistStream@@8 DD 00H				; CPersistStream::`RTTI Class Hierarchy Descriptor'
	DD	00H
	DD	04H
	DD	imagerel ??_R2CPersistStream@@8
rdata$r	ENDS
;	COMDAT ??_R0?AVCPersistStream@@@8
_DATA	SEGMENT
??_R0?AVCPersistStream@@@8 DQ FLAT:??_7type_info@@6B@	; CPersistStream `RTTI Type Descriptor'
	DQ	0000000000000000H
	DB	'.?AVCPersistStream@@', 00H
_DATA	ENDS
;	COMDAT ??_R4CPersistStream@@6B@
rdata$r	SEGMENT
??_R4CPersistStream@@6B@ DD 01H				; CPersistStream::`RTTI Complete Object Locator'
	DD	00H
	DD	00H
	DD	imagerel ??_R0?AVCPersistStream@@@8
	DD	imagerel ??_R3CPersistStream@@8
	DD	imagerel ??_R4CPersistStream@@6B@
rdata$r	ENDS
;	COMDAT xdata
xdata	SEGMENT
$unwind$??0CPersistStream@@QEAA@PEAUIUnknown@@PEAJ@Z DD 022801H
	DD	070103214H
xdata	ENDS
;	COMDAT ??_7CPersistStream@@6B@
CONST	SEGMENT
??_7CPersistStream@@6B@ DQ FLAT:??_R4CPersistStream@@6B@ ; CPersistStream::`vftable'
	DQ	FLAT:_purecall
	DQ	FLAT:_purecall
	DQ	FLAT:_purecall
	DQ	FLAT:_purecall
	DQ	FLAT:?IsDirty@CPersistStream@@UEAAJXZ
	DQ	FLAT:?Load@CPersistStream@@UEAAJPEAUIStream@@@Z
	DQ	FLAT:?Save@CPersistStream@@UEAAJPEAUIStream@@H@Z
	DQ	FLAT:?GetSizeMax@CPersistStream@@UEAAJPEAT_ULARGE_INTEGER@@@Z
	DQ	FLAT:?GetSoftwareVersion@CPersistStream@@UEAAKXZ
	DQ	FLAT:?SizeMax@CPersistStream@@UEAAHXZ
	DQ	FLAT:?WriteToStream@CPersistStream@@UEAAJPEAUIStream@@@Z
	DQ	FLAT:?ReadFromStream@CPersistStream@@UEAAJPEAUIStream@@@Z
CONST	ENDS
;	COMDAT rtc$TMZ
rtc$TMZ	SEGMENT
_RTC_Shutdown.rtc$TMZ DQ FLAT:_RTC_Shutdown
rtc$TMZ	ENDS
;	COMDAT rtc$IMZ
rtc$IMZ	SEGMENT
_RTC_InitBase.rtc$IMZ DQ FLAT:_RTC_InitBase
; Function compile flags: /Odtp /RTCsu
rtc$IMZ	ENDS
;	COMDAT ??0CPersistStream@@QEAA@PEAUIUnknown@@PEAJ@Z
_TEXT	SEGMENT
this$ = 48
punk$ = 56
phr$ = 64
??0CPersistStream@@QEAA@PEAUIUnknown@@PEAJ@Z PROC	; CPersistStream::CPersistStream, COMDAT
; Line 22
$LN3:
	mov	QWORD PTR [rsp+24], r8
	mov	QWORD PTR [rsp+16], rdx
	mov	QWORD PTR [rsp+8], rcx
	push	rdi
	sub	rsp, 32					; 00000020H
	mov	rdi, rsp
	mov	ecx, 8
	mov	eax, -858993460				; ccccccccH
	rep stosd
	mov	rcx, QWORD PTR [rsp+48]
	mov	rcx, QWORD PTR this$[rsp]
	call	??0IPersistStream@@QEAA@XZ
	mov	rax, QWORD PTR this$[rsp]
	lea	rcx, OFFSET FLAT:??_7CPersistStream@@6B@
	mov	QWORD PTR [rax], rcx
	mov	rax, QWORD PTR this$[rsp]
	mov	DWORD PTR [rax+12], 0
; Line 23
	mov	rcx, QWORD PTR this$[rsp]
	call	?GetSoftwareVersion@CPersistStream@@UEAAKXZ ; CPersistStream::GetSoftwareVersion
	mov	rcx, QWORD PTR this$[rsp]
	mov	DWORD PTR [rcx+8], eax
; Line 24
	mov	rax, QWORD PTR this$[rsp]
	add	rsp, 32					; 00000020H
	pop	rdi
	ret	0
??0CPersistStream@@QEAA@PEAUIUnknown@@PEAJ@Z ENDP	; CPersistStream::CPersistStream
_TEXT	ENDS
;	COMDAT pdata
; File c:\downloads\wpf mediakit - copy\src\filters\baseclasses\pstream.h
pdata	SEGMENT
$pdata$?IsDirty@CPersistStream@@UEAAJXZ DD imagerel $LN5
	DD	imagerel $LN5+66
	DD	imagerel $unwind$?IsDirty@CPersistStream@@UEAAJXZ
pdata	ENDS
;	COMDAT xdata
xdata	SEGMENT
$unwind$?IsDirty@CPersistStream@@UEAAJXZ DD 021e01H
	DD	07006120aH
; Function compile flags: /Odtp /RTCsu
xdata	ENDS
;	COMDAT ?IsDirty@CPersistStream@@UEAAJXZ
_TEXT	SEGMENT
tv66 = 0
this$ = 32
?IsDirty@CPersistStream@@UEAAJXZ PROC			; CPersistStream::IsDirty, COMDAT
; Line 61
$LN5:
	mov	QWORD PTR [rsp+8], rcx
	push	rdi
	sub	rsp, 16
	mov	rdi, rsp
	mov	ecx, 4
	mov	eax, -858993460				; ccccccccH
	rep stosd
	mov	rcx, QWORD PTR [rsp+32]
	mov	rax, QWORD PTR this$[rsp]
	cmp	DWORD PTR [rax+12], 0
	je	SHORT $LN3@IsDirty
	mov	DWORD PTR tv66[rsp], 0
	jmp	SHORT $LN4@IsDirty
$LN3@IsDirty:
	mov	DWORD PTR tv66[rsp], 1
$LN4@IsDirty:
	mov	eax, DWORD PTR tv66[rsp]
	add	rsp, 16
	pop	rdi
	ret	0
?IsDirty@CPersistStream@@UEAAJXZ ENDP			; CPersistStream::IsDirty
_TEXT	ENDS
;	COMDAT pdata
pdata	SEGMENT
$pdata$?GetSizeMax@CPersistStream@@UEAAJPEAT_ULARGE_INTEGER@@@Z DD imagerel $LN3
	DD	imagerel $LN3+73
	DD	imagerel $unwind$?GetSizeMax@CPersistStream@@UEAAJPEAT_ULARGE_INTEGER@@@Z
pdata	ENDS
;	COMDAT xdata
xdata	SEGMENT
$unwind$?GetSizeMax@CPersistStream@@UEAAJPEAT_ULARGE_INTEGER@@@Z DD 022301H
	DD	0700b320fH
; Function compile flags: /Odtp /RTCsu
xdata	ENDS
;	COMDAT ?GetSizeMax@CPersistStream@@UEAAJPEAT_ULARGE_INTEGER@@@Z
_TEXT	SEGMENT
this$ = 48
pcbSize$ = 56
?GetSizeMax@CPersistStream@@UEAAJPEAT_ULARGE_INTEGER@@@Z PROC ; CPersistStream::GetSizeMax, COMDAT
; Line 66
$LN3:
	mov	QWORD PTR [rsp+16], rdx
	mov	QWORD PTR [rsp+8], rcx
	push	rdi
	sub	rsp, 32					; 00000020H
	mov	rdi, rsp
	mov	ecx, 8
	mov	eax, -858993460				; ccccccccH
	rep stosd
	mov	rcx, QWORD PTR [rsp+48]
	mov	rax, QWORD PTR this$[rsp]
	mov	rax, QWORD PTR [rax]
	mov	rcx, QWORD PTR this$[rsp]
	call	QWORD PTR [rax+72]
	cdqe
	add	rax, 24
	mov	rcx, QWORD PTR pcbSize$[rsp]
	mov	QWORD PTR [rcx], rax
	xor	eax, eax
	add	rsp, 32					; 00000020H
	pop	rdi
	ret	0
?GetSizeMax@CPersistStream@@UEAAJPEAT_ULARGE_INTEGER@@@Z ENDP ; CPersistStream::GetSizeMax
_TEXT	ENDS
;	COMDAT pdata
pdata	SEGMENT
$pdata$?GetSoftwareVersion@CPersistStream@@UEAAKXZ DD imagerel $LN3
	DD	imagerel $LN3+10
	DD	imagerel $unwind$?GetSoftwareVersion@CPersistStream@@UEAAKXZ
pdata	ENDS
;	COMDAT xdata
xdata	SEGMENT
$unwind$?GetSoftwareVersion@CPersistStream@@UEAAKXZ DD 010601H
	DD	07006H
; Function compile flags: /Odtp /RTCsu
xdata	ENDS
;	COMDAT ?GetSoftwareVersion@CPersistStream@@UEAAKXZ
_TEXT	SEGMENT
this$ = 16
?GetSoftwareVersion@CPersistStream@@UEAAKXZ PROC	; CPersistStream::GetSoftwareVersion, COMDAT
; Line 87
$LN3:
	mov	QWORD PTR [rsp+8], rcx
	push	rdi
	xor	eax, eax
	pop	rdi
	ret	0
?GetSoftwareVersion@CPersistStream@@UEAAKXZ ENDP	; CPersistStream::GetSoftwareVersion
_TEXT	ENDS
;	COMDAT pdata
pdata	SEGMENT
$pdata$?SizeMax@CPersistStream@@UEAAHXZ DD imagerel $LN3
	DD	imagerel $LN3+10
	DD	imagerel $unwind$?SizeMax@CPersistStream@@UEAAHXZ
pdata	ENDS
;	COMDAT xdata
xdata	SEGMENT
$unwind$?SizeMax@CPersistStream@@UEAAHXZ DD 010601H
	DD	07006H
; Function compile flags: /Odtp /RTCsu
xdata	ENDS
;	COMDAT ?SizeMax@CPersistStream@@UEAAHXZ
_TEXT	SEGMENT
this$ = 16
?SizeMax@CPersistStream@@UEAAHXZ PROC			; CPersistStream::SizeMax, COMDAT
; Line 95
$LN3:
	mov	QWORD PTR [rsp+8], rcx
	push	rdi
	xor	eax, eax
	pop	rdi
	ret	0
?SizeMax@CPersistStream@@UEAAHXZ ENDP			; CPersistStream::SizeMax
_TEXT	ENDS
PUBLIC	??0IPersist@@QEAA@XZ				; IPersist::IPersist
;	COMDAT pdata
pdata	SEGMENT
$pdata$??0IPersistStream@@QEAA@XZ DD imagerel $LN3
	DD	imagerel $LN3+51
	DD	imagerel $unwind$??0IPersistStream@@QEAA@XZ
pdata	ENDS
;	COMDAT xdata
xdata	SEGMENT
$unwind$??0IPersistStream@@QEAA@XZ DD 021e01H
	DD	07006320aH
; Function compile flags: /Odtp /RTCsu
xdata	ENDS
;	COMDAT ??0IPersistStream@@QEAA@XZ
_TEXT	SEGMENT
this$ = 48
??0IPersistStream@@QEAA@XZ PROC				; IPersistStream::IPersistStream, COMDAT
$LN3:
	mov	QWORD PTR [rsp+8], rcx
	push	rdi
	sub	rsp, 32					; 00000020H
	mov	rdi, rsp
	mov	ecx, 8
	mov	eax, -858993460				; ccccccccH
	rep stosd
	mov	rcx, QWORD PTR [rsp+48]
	mov	rcx, QWORD PTR this$[rsp]
	call	??0IPersist@@QEAA@XZ
	mov	rax, QWORD PTR this$[rsp]
	add	rsp, 32					; 00000020H
	pop	rdi
	ret	0
??0IPersistStream@@QEAA@XZ ENDP				; IPersistStream::IPersistStream
_TEXT	ENDS
PUBLIC	??0IUnknown@@QEAA@XZ				; IUnknown::IUnknown
;	COMDAT pdata
pdata	SEGMENT
$pdata$??0IPersist@@QEAA@XZ DD imagerel $LN3
	DD	imagerel $LN3+51
	DD	imagerel $unwind$??0IPersist@@QEAA@XZ
pdata	ENDS
;	COMDAT xdata
xdata	SEGMENT
$unwind$??0IPersist@@QEAA@XZ DD 021e01H
	DD	07006320aH
; Function compile flags: /Odtp /RTCsu
xdata	ENDS
;	COMDAT ??0IPersist@@QEAA@XZ
_TEXT	SEGMENT
this$ = 48
??0IPersist@@QEAA@XZ PROC				; IPersist::IPersist, COMDAT
$LN3:
	mov	QWORD PTR [rsp+8], rcx
	push	rdi
	sub	rsp, 32					; 00000020H
	mov	rdi, rsp
	mov	ecx, 8
	mov	eax, -858993460				; ccccccccH
	rep stosd
	mov	rcx, QWORD PTR [rsp+48]
	mov	rcx, QWORD PTR this$[rsp]
	call	??0IUnknown@@QEAA@XZ
	mov	rax, QWORD PTR this$[rsp]
	add	rsp, 32					; 00000020H
	pop	rdi
	ret	0
??0IPersist@@QEAA@XZ ENDP				; IPersist::IPersist
_TEXT	ENDS
;	COMDAT pdata
pdata	SEGMENT
$pdata$??0IUnknown@@QEAA@XZ DD imagerel $LN3
	DD	imagerel $LN3+13
	DD	imagerel $unwind$??0IUnknown@@QEAA@XZ
pdata	ENDS
;	COMDAT xdata
xdata	SEGMENT
$unwind$??0IUnknown@@QEAA@XZ DD 010601H
	DD	07006H
; Function compile flags: /Odtp /RTCsu
xdata	ENDS
;	COMDAT ??0IUnknown@@QEAA@XZ
_TEXT	SEGMENT
this$ = 16
??0IUnknown@@QEAA@XZ PROC				; IUnknown::IUnknown, COMDAT
$LN3:
	mov	QWORD PTR [rsp+8], rcx
	push	rdi
	mov	rax, QWORD PTR this$[rsp]
	pop	rdi
	ret	0
??0IUnknown@@QEAA@XZ ENDP				; IUnknown::IUnknown
_TEXT	ENDS
PUBLIC	??1CPersistStream@@QEAA@XZ			; CPersistStream::~CPersistStream
;	COMDAT pdata
; File c:\downloads\wpf mediakit - copy\src\filters\baseclasses\pstream.cpp
pdata	SEGMENT
$pdata$??1CPersistStream@@QEAA@XZ DD imagerel $LN3
	DD	imagerel $LN3+23
	DD	imagerel $unwind$??1CPersistStream@@QEAA@XZ
pdata	ENDS
;	COMDAT xdata
xdata	SEGMENT
$unwind$??1CPersistStream@@QEAA@XZ DD 010601H
	DD	07006H
; Function compile flags: /Odtp /RTCsu
xdata	ENDS
;	COMDAT ??1CPersistStream@@QEAA@XZ
_TEXT	SEGMENT
this$ = 16
??1CPersistStream@@QEAA@XZ PROC				; CPersistStream::~CPersistStream, COMDAT
; Line 30
$LN3:
	mov	QWORD PTR [rsp+8], rcx
	push	rdi
	mov	rax, QWORD PTR this$[rsp]
	lea	rcx, OFFSET FLAT:??_7CPersistStream@@6B@
	mov	QWORD PTR [rax], rcx
; Line 32
	pop	rdi
	ret	0
??1CPersistStream@@QEAA@XZ ENDP				; CPersistStream::~CPersistStream
_TEXT	ENDS
;	COMDAT pdata
pdata	SEGMENT
$pdata$?WriteToStream@CPersistStream@@UEAAJPEAUIStream@@@Z DD imagerel $LN3
	DD	imagerel $LN3+15
	DD	imagerel $unwind$?WriteToStream@CPersistStream@@UEAAJPEAUIStream@@@Z
pdata	ENDS
;	COMDAT xdata
xdata	SEGMENT
$unwind$?WriteToStream@CPersistStream@@UEAAJPEAUIStream@@@Z DD 010b01H
	DD	0700bH
; Function compile flags: /Odtp /RTCsu
xdata	ENDS
;	COMDAT ?WriteToStream@CPersistStream@@UEAAJPEAUIStream@@@Z
_TEXT	SEGMENT
this$ = 16
pStream$ = 24
?WriteToStream@CPersistStream@@UEAAJPEAUIStream@@@Z PROC ; CPersistStream::WriteToStream, COMDAT
; Line 61
$LN3:
	mov	QWORD PTR [rsp+16], rdx
	mov	QWORD PTR [rsp+8], rcx
	push	rdi
; Line 65
	xor	eax, eax
; Line 66
	pop	rdi
	ret	0
?WriteToStream@CPersistStream@@UEAAJPEAUIStream@@@Z ENDP ; CPersistStream::WriteToStream
_TEXT	ENDS
;	COMDAT pdata
pdata	SEGMENT
$pdata$?ReadFromStream@CPersistStream@@UEAAJPEAUIStream@@@Z DD imagerel $LN3
	DD	imagerel $LN3+15
	DD	imagerel $unwind$?ReadFromStream@CPersistStream@@UEAAJPEAUIStream@@@Z
pdata	ENDS
;	COMDAT xdata
xdata	SEGMENT
$unwind$?ReadFromStream@CPersistStream@@UEAAJPEAUIStream@@@Z DD 010b01H
	DD	0700bH
; Function compile flags: /Odtp /RTCsu
xdata	ENDS
;	COMDAT ?ReadFromStream@CPersistStream@@UEAAJPEAUIStream@@@Z
_TEXT	SEGMENT
this$ = 16
pStream$ = 24
?ReadFromStream@CPersistStream@@UEAAJPEAUIStream@@@Z PROC ; CPersistStream::ReadFromStream, COMDAT
; Line 71
$LN3:
	mov	QWORD PTR [rsp+16], rdx
	mov	QWORD PTR [rsp+8], rcx
	push	rdi
; Line 75
	xor	eax, eax
; Line 76
	pop	rdi
	ret	0
?ReadFromStream@CPersistStream@@UEAAJPEAUIStream@@@Z ENDP ; CPersistStream::ReadFromStream
_TEXT	ENDS
PUBLIC	ReadInt
EXTRN	_RTC_CheckStackVars:PROC
;	COMDAT pdata
pdata	SEGMENT
$pdata$?Load@CPersistStream@@UEAAJPEAUIStream@@@Z DD imagerel $LN4
	DD	imagerel $LN4+119
	DD	imagerel $unwind$?Load@CPersistStream@@UEAAJPEAUIStream@@@Z
pdata	ENDS
;	COMDAT xdata
xdata	SEGMENT
$unwind$?Load@CPersistStream@@UEAAJPEAUIStream@@@Z DD 022301H
	DD	0700b720fH
xdata	ENDS
;	COMDAT CONST
CONST	SEGMENT
?Load@CPersistStream@@UEAAJPEAUIStream@@@Z$rtcName$0 DB 068H ; CPersistStream::Load
	DB	072H
	DB	00H
	ORG $+13
?Load@CPersistStream@@UEAAJPEAUIStream@@@Z$rtcVarDesc DD 024H ; CPersistStream::Load
	DD	04H
	DQ	FLAT:?Load@CPersistStream@@UEAAJPEAUIStream@@@Z$rtcName$0
	ORG $+48
?Load@CPersistStream@@UEAAJPEAUIStream@@@Z$rtcFrameData DD 01H ; CPersistStream::Load
	DD	00H
	DQ	FLAT:?Load@CPersistStream@@UEAAJPEAUIStream@@@Z$rtcVarDesc
; Function compile flags: /Odtp /RTCsu
CONST	ENDS
;	COMDAT ?Load@CPersistStream@@UEAAJPEAUIStream@@@Z
_TEXT	SEGMENT
hr$ = 36
this$ = 80
pStm$ = 88
?Load@CPersistStream@@UEAAJPEAUIStream@@@Z PROC		; CPersistStream::Load, COMDAT
; Line 84
$LN4:
	mov	QWORD PTR [rsp+16], rdx
	mov	QWORD PTR [rsp+8], rcx
	push	rdi
	sub	rsp, 64					; 00000040H
	mov	rdi, rsp
	mov	ecx, 16
	mov	eax, -858993460				; ccccccccH
	rep stosd
	mov	rcx, QWORD PTR [rsp+80]
; Line 87
	lea	rdx, QWORD PTR hr$[rsp]
	mov	rcx, QWORD PTR pStm$[rsp]
	call	ReadInt
	mov	rcx, QWORD PTR this$[rsp]
	mov	DWORD PTR [rcx+8], eax
; Line 88
	cmp	DWORD PTR hr$[rsp], 0
	jge	SHORT $LN1@Load
; Line 89
	mov	eax, DWORD PTR hr$[rsp]
	jmp	SHORT $LN2@Load
$LN1@Load:
; Line 92
	mov	rax, QWORD PTR this$[rsp]
	mov	rax, QWORD PTR [rax]
	mov	rdx, QWORD PTR pStm$[rsp]
	mov	rcx, QWORD PTR this$[rsp]
	call	QWORD PTR [rax+88]
$LN2@Load:
; Line 93
	mov	rdi, rax
	mov	rcx, rsp
	lea	rdx, OFFSET FLAT:?Load@CPersistStream@@UEAAJPEAUIStream@@@Z$rtcFrameData
	call	_RTC_CheckStackVars
	mov	rax, rdi
	add	rsp, 64					; 00000040H
	pop	rdi
	ret	0
?Load@CPersistStream@@UEAAJPEAUIStream@@@Z ENDP		; CPersistStream::Load
_TEXT	ENDS
PUBLIC	WriteInt
;	COMDAT pdata
pdata	SEGMENT
$pdata$?Save@CPersistStream@@UEAAJPEAUIStream@@H@Z DD imagerel $LN7
	DD	imagerel $LN7+170
	DD	imagerel $unwind$?Save@CPersistStream@@UEAAJPEAUIStream@@H@Z
pdata	ENDS
;	COMDAT xdata
xdata	SEGMENT
$unwind$?Save@CPersistStream@@UEAAJPEAUIStream@@H@Z DD 022801H
	DD	070105214H
; Function compile flags: /Odtp /RTCsu
xdata	ENDS
;	COMDAT ?Save@CPersistStream@@UEAAJPEAUIStream@@H@Z
_TEXT	SEGMENT
hr$ = 32
tv80 = 36
this$ = 64
pStm$ = 72
fClearDirty$ = 80
?Save@CPersistStream@@UEAAJPEAUIStream@@H@Z PROC	; CPersistStream::Save, COMDAT
; Line 102
$LN7:
	mov	DWORD PTR [rsp+24], r8d
	mov	QWORD PTR [rsp+16], rdx
	mov	QWORD PTR [rsp+8], rcx
	push	rdi
	sub	rsp, 48					; 00000030H
	mov	rdi, rsp
	mov	ecx, 12
	mov	eax, -858993460				; ccccccccH
	rep stosd
	mov	rcx, QWORD PTR [rsp+64]
; Line 104
	mov	rax, QWORD PTR this$[rsp]
	mov	rax, QWORD PTR [rax]
	mov	rcx, QWORD PTR this$[rsp]
	call	QWORD PTR [rax+64]
	mov	edx, eax
	mov	rcx, QWORD PTR pStm$[rsp]
	call	WriteInt
	mov	DWORD PTR hr$[rsp], eax
; Line 105
	cmp	DWORD PTR hr$[rsp], 0
	jge	SHORT $LN2@Save
; Line 106
	mov	eax, DWORD PTR hr$[rsp]
	jmp	SHORT $LN3@Save
$LN2@Save:
; Line 109
	mov	rax, QWORD PTR this$[rsp]
	mov	rax, QWORD PTR [rax]
	mov	rdx, QWORD PTR pStm$[rsp]
	mov	rcx, QWORD PTR this$[rsp]
	call	QWORD PTR [rax+80]
	mov	DWORD PTR hr$[rsp], eax
; Line 110
	cmp	DWORD PTR hr$[rsp], 0
	jge	SHORT $LN1@Save
; Line 111
	mov	eax, DWORD PTR hr$[rsp]
	jmp	SHORT $LN3@Save
$LN1@Save:
; Line 114
	cmp	DWORD PTR fClearDirty$[rsp], 0
	jne	SHORT $LN5@Save
	mov	DWORD PTR tv80[rsp], 1
	jmp	SHORT $LN6@Save
$LN5@Save:
	mov	DWORD PTR tv80[rsp], 0
$LN6@Save:
	mov	rax, QWORD PTR this$[rsp]
	mov	ecx, DWORD PTR tv80[rsp]
	mov	DWORD PTR [rax+12], ecx
; Line 116
	mov	eax, DWORD PTR hr$[rsp]
$LN3@Save:
; Line 117
	add	rsp, 48					; 00000030H
	pop	rdi
	ret	0
?Save@CPersistStream@@UEAAJPEAUIStream@@H@Z ENDP	; CPersistStream::Save
_TEXT	ENDS
PUBLIC	__$ArrayPad$
EXTRN	__GSHandlerCheck:PROC
EXTRN	__imp_wsprintfW:PROC
EXTRN	__security_cookie:QWORD
EXTRN	__security_check_cookie:PROC
;	COMDAT pdata
pdata	SEGMENT
$pdata$WriteInt DD imagerel $LN3
	DD	imagerel $LN3+154
	DD	imagerel $unwind$WriteInt
pdata	ENDS
;	COMDAT xdata
xdata	SEGMENT
$unwind$WriteInt DD 023419H
	DD	0700ad20eH
	DD	imagerel __GSHandlerCheck
	DD	060H
xdata	ENDS
;	COMDAT CONST
CONST	SEGMENT
WriteInt$rtcName$0 DB 042H
	DB	075H
	DB	066H
	DB	066H
	DB	00H
	ORG $+11
WriteInt$rtcVarDesc DD 028H
	DD	01aH
	DQ	FLAT:WriteInt$rtcName$0
	ORG $+48
WriteInt$rtcFrameData DD 01H
	DD	00H
	DQ	FLAT:WriteInt$rtcVarDesc
; Function compile flags: /Odtp /RTCsu
CONST	ENDS
;	COMDAT WriteInt
_TEXT	SEGMENT
Buff$ = 40
__$ArrayPad$ = 96
pIStream$ = 128
n$ = 136
WriteInt PROC						; COMDAT
; Line 129
$LN3:
	mov	DWORD PTR [rsp+16], edx
	mov	QWORD PTR [rsp+8], rcx
	push	rdi
	sub	rsp, 112				; 00000070H
	mov	rdi, rsp
	mov	ecx, 28
	mov	eax, -858993460				; ccccccccH
	rep stosd
	mov	rcx, QWORD PTR [rsp+128]
	mov	rax, QWORD PTR __security_cookie
	xor	rax, rsp
	mov	QWORD PTR __$ArrayPad$[rsp], rax
; Line 131
	mov	r8d, DWORD PTR n$[rsp]
	lea	rdx, OFFSET FLAT:$SG82269
	lea	rcx, QWORD PTR Buff$[rsp]
	call	QWORD PTR __imp_wsprintfW
; Line 132
	mov	rax, QWORD PTR pIStream$[rsp]
	mov	rax, QWORD PTR [rax]
	xor	r9d, r9d
	mov	r8d, 24
	lea	rdx, QWORD PTR Buff$[rsp]
	mov	rcx, QWORD PTR pIStream$[rsp]
	call	QWORD PTR [rax+32]
; Line 133
	mov	rdi, rax
	mov	rcx, rsp
	lea	rdx, OFFSET FLAT:WriteInt$rtcFrameData
	call	_RTC_CheckStackVars
	mov	rax, rdi
	mov	rcx, QWORD PTR __$ArrayPad$[rsp]
	xor	rcx, rsp
	call	__security_check_cookie
	add	rsp, 112				; 00000070H
	pop	rdi
	ret	0
WriteInt ENDP
_TEXT	ENDS
;	COMDAT pdata
pdata	SEGMENT
$pdata$ReadInt DD imagerel $LN16
	DD	imagerel $LN16+404
	DD	imagerel $unwind$ReadInt
pdata	ENDS
;	COMDAT xdata
xdata	SEGMENT
$unwind$ReadInt DD 022301H
	DD	0700b920fH
xdata	ENDS
;	COMDAT CONST
CONST	SEGMENT
ReadInt$rtcName$0 DB 077H
	DB	063H
	DB	068H
	DB	00H
	ORG $+12
ReadInt$rtcVarDesc DD 034H
	DD	02H
	DQ	FLAT:ReadInt$rtcName$0
	ORG $+48
ReadInt$rtcFrameData DD 01H
	DD	00H
	DQ	FLAT:ReadInt$rtcVarDesc
; Function compile flags: /Odtp /RTCsu
CONST	ENDS
;	COMDAT ReadInt
_TEXT	SEGMENT
Sign$ = 32
n$ = 36
wch$ = 52
pIStream$ = 96
hr$ = 104
ReadInt	PROC						; COMDAT
; Line 144
$LN16:
	mov	QWORD PTR [rsp+16], rdx
	mov	QWORD PTR [rsp+8], rcx
	push	rdi
	sub	rsp, 80					; 00000050H
	mov	rdi, rsp
	mov	ecx, 20
	mov	eax, -858993460				; ccccccccH
	rep stosd
	mov	rcx, QWORD PTR [rsp+96]
; Line 146
	mov	DWORD PTR Sign$[rsp], 1
; Line 147
	mov	DWORD PTR n$[rsp], 0
; Line 150
	mov	rax, QWORD PTR pIStream$[rsp]
	mov	rax, QWORD PTR [rax]
	xor	r9d, r9d
	mov	r8d, 2
	lea	rdx, QWORD PTR wch$[rsp]
	mov	rcx, QWORD PTR pIStream$[rsp]
	call	QWORD PTR [rax+24]
	mov	rcx, QWORD PTR hr$[rsp]
	mov	DWORD PTR [rcx], eax
; Line 151
	mov	rax, QWORD PTR hr$[rsp]
	cmp	DWORD PTR [rax], 0
	jge	SHORT $LN13@ReadInt
; Line 152
	xor	eax, eax
	jmp	$LN14@ReadInt
$LN13@ReadInt:
; Line 155
	movzx	eax, WORD PTR wch$[rsp]
	cmp	eax, 45					; 0000002dH
	jne	SHORT $LN12@ReadInt
; Line 156
	mov	DWORD PTR Sign$[rsp], -1
; Line 157
	mov	rax, QWORD PTR pIStream$[rsp]
	mov	rax, QWORD PTR [rax]
	xor	r9d, r9d
	mov	r8d, 2
	lea	rdx, QWORD PTR wch$[rsp]
	mov	rcx, QWORD PTR pIStream$[rsp]
	call	QWORD PTR [rax+24]
	mov	rcx, QWORD PTR hr$[rsp]
	mov	DWORD PTR [rcx], eax
; Line 158
	mov	rax, QWORD PTR hr$[rsp]
	cmp	DWORD PTR [rax], 0
	jge	SHORT $LN11@ReadInt
; Line 159
	xor	eax, eax
	jmp	$LN14@ReadInt
$LN11@ReadInt:
$LN12@ReadInt:
$LN10@ReadInt:
; Line 164
	movzx	eax, WORD PTR wch$[rsp]
	cmp	eax, 48					; 00000030H
	jl	SHORT $LN8@ReadInt
	movzx	eax, WORD PTR wch$[rsp]
	cmp	eax, 57					; 00000039H
	jg	SHORT $LN8@ReadInt
; Line 165
	mov	eax, DWORD PTR n$[rsp]
	imul	eax, 10
	movzx	ecx, WORD PTR wch$[rsp]
	lea	eax, DWORD PTR [rax+rcx-48]
	mov	DWORD PTR n$[rsp], eax
; Line 166
	jmp	SHORT $LN7@ReadInt
$LN8@ReadInt:
; Line 171
	movzx	eax, WORD PTR wch$[rsp]
	cmp	eax, 32					; 00000020H
	je	SHORT $LN5@ReadInt
	movzx	eax, WORD PTR wch$[rsp]
	cmp	eax, 9
	je	SHORT $LN5@ReadInt
	movzx	eax, WORD PTR wch$[rsp]
	cmp	eax, 13
	je	SHORT $LN5@ReadInt
	movzx	eax, WORD PTR wch$[rsp]
	cmp	eax, 10
	je	SHORT $LN5@ReadInt
	movzx	eax, WORD PTR wch$[rsp]
	test	eax, eax
	jne	SHORT $LN6@ReadInt
$LN5@ReadInt:
; Line 172
	jmp	SHORT $LN9@ReadInt
; Line 173
	jmp	SHORT $LN4@ReadInt
$LN6@ReadInt:
; Line 174
	mov	rax, QWORD PTR hr$[rsp]
	mov	DWORD PTR [rax], -2147220945		; ffffffff8004022fH
; Line 175
	xor	eax, eax
	jmp	SHORT $LN14@ReadInt
$LN4@ReadInt:
$LN7@ReadInt:
; Line 178
	mov	rax, QWORD PTR pIStream$[rsp]
	mov	rax, QWORD PTR [rax]
	xor	r9d, r9d
	mov	r8d, 2
	lea	rdx, QWORD PTR wch$[rsp]
	mov	rcx, QWORD PTR pIStream$[rsp]
	call	QWORD PTR [rax+24]
	mov	rcx, QWORD PTR hr$[rsp]
	mov	DWORD PTR [rcx], eax
; Line 179
	mov	rax, QWORD PTR hr$[rsp]
	cmp	DWORD PTR [rax], 0
	jge	SHORT $LN3@ReadInt
; Line 180
	xor	eax, eax
	jmp	SHORT $LN14@ReadInt
$LN3@ReadInt:
; Line 182
	jmp	$LN10@ReadInt
$LN9@ReadInt:
; Line 184
	cmp	DWORD PTR n$[rsp], -2147483648		; 80000000H
	jne	SHORT $LN2@ReadInt
	cmp	DWORD PTR Sign$[rsp], -1
	jne	SHORT $LN2@ReadInt
; Line 186
	mov	eax, DWORD PTR n$[rsp]
	jmp	SHORT $LN14@ReadInt
	jmp	SHORT $LN1@ReadInt
$LN2@ReadInt:
; Line 188
	mov	eax, DWORD PTR n$[rsp]
	imul	eax, DWORD PTR Sign$[rsp]
$LN1@ReadInt:
$LN14@ReadInt:
; Line 189
	mov	rdi, rax
	mov	rcx, rsp
	lea	rdx, OFFSET FLAT:ReadInt$rtcFrameData
	call	_RTC_CheckStackVars
	mov	rax, rdi
	add	rsp, 80					; 00000050H
	pop	rdi
	ret	0
ReadInt	ENDP
_TEXT	ENDS
END
