; Listing generated by Microsoft (R) Optimizing Compiler Version 16.00.30319.01 

include listing.inc

INCLUDELIB LIBCMTD
INCLUDELIB OLDNAMES

PUBLIC	IID_IAMFilterGraphCallback
CONST	SEGMENT
$SG82369 DB	'.', 00H, '.', 00H, '\', 00H, 'p', 00H, 'u', 00H, 'l', 00H
	DB	'l', 00H, 'p', 00H, 'i', 00H, 'n', 00H, '.', 00H, 'c', 00H, 'p'
	DB	00H, 'p', 00H, 00H, 00H
	ORG $+2
$SG82370 DB	'!', 00H, 'T', 00H, 'h', 00H, 'r', 00H, 'e', 00H, 'a', 00H
	DB	'd', 00H, 'E', 00H, 'x', 00H, 'i', 00H, 's', 00H, 't', 00H, 's'
	DB	00H, '(', 00H, ')', 00H, 00H, 00H
CONST	ENDS
;	COMDAT IID_IAMFilterGraphCallback
CONST	SEGMENT
IID_IAMFilterGraphCallback DD 056a868fdH
	DW	0ad4H
	DW	011ceH
	DB	0b0H
	DB	0a3H
	DB	00H
	DB	020H
	DB	0afH
	DB	0bH
	DB	0a7H
	DB	070H
CONST	ENDS
PUBLIC	??_7CPullPin@@6B@				; CPullPin::`vftable'
PUBLIC	??0CPullPin@@QEAA@XZ				; CPullPin::CPullPin
PUBLIC	??_R4CPullPin@@6B@				; CPullPin::`RTTI Complete Object Locator'
PUBLIC	??_R0?AVCPullPin@@@8				; CPullPin `RTTI Type Descriptor'
PUBLIC	??_R3CPullPin@@8				; CPullPin::`RTTI Class Hierarchy Descriptor'
PUBLIC	??_R2CPullPin@@8				; CPullPin::`RTTI Base Class Array'
PUBLIC	??_R1A@?0A@EA@CPullPin@@8			; CPullPin::`RTTI Base Class Descriptor at (0,-1,0,64)'
PUBLIC	??_R1A@?0A@EA@CAMThread@@8			; CAMThread::`RTTI Base Class Descriptor at (0,-1,0,64)'
PUBLIC	??_R0?AVCAMThread@@@8				; CAMThread `RTTI Type Descriptor'
PUBLIC	??_R3CAMThread@@8				; CAMThread::`RTTI Class Hierarchy Descriptor'
PUBLIC	??_R2CAMThread@@8				; CAMThread::`RTTI Base Class Array'
PUBLIC	?ThreadProc@CPullPin@@EEAAKXZ			; CPullPin::ThreadProc
PUBLIC	?DecideAllocator@CPullPin@@UEAAJPEAUIMemAllocator@@PEAU_AllocatorProperties@@@Z ; CPullPin::DecideAllocator
EXTRN	??0CAMThread@@QEAA@XZ:PROC			; CAMThread::CAMThread
EXTRN	_RTC_Shutdown:PROC
EXTRN	_RTC_InitBase:PROC
EXTRN	??_7type_info@@6B@:BYTE				; type_info::`vftable'
EXTRN	??_ECPullPin@@UEAAPEAXI@Z:PROC			; CPullPin::`vector deleting destructor'
EXTRN	_purecall:PROC
;	COMDAT pdata
; File c:\downloads\wpf mediakit - copy\src\filters\baseclasses\pullpin.cpp
pdata	SEGMENT
$pdata$??0CPullPin@@QEAA@XZ DD imagerel $LN4
	DD	imagerel $LN4+113
	DD	imagerel $unwind$??0CPullPin@@QEAA@XZ
pdata	ENDS
;	COMDAT ??_R2CAMThread@@8
rdata$r	SEGMENT
??_R2CAMThread@@8 DD imagerel ??_R1A@?0A@EA@CAMThread@@8 ; CAMThread::`RTTI Base Class Array'
	ORG $+3
rdata$r	ENDS
;	COMDAT ??_R3CAMThread@@8
rdata$r	SEGMENT
??_R3CAMThread@@8 DD 00H				; CAMThread::`RTTI Class Hierarchy Descriptor'
	DD	00H
	DD	01H
	DD	imagerel ??_R2CAMThread@@8
rdata$r	ENDS
;	COMDAT ??_R0?AVCAMThread@@@8
_DATA	SEGMENT
??_R0?AVCAMThread@@@8 DQ FLAT:??_7type_info@@6B@	; CAMThread `RTTI Type Descriptor'
	DQ	0000000000000000H
	DB	'.?AVCAMThread@@', 00H
_DATA	ENDS
;	COMDAT ??_R1A@?0A@EA@CAMThread@@8
rdata$r	SEGMENT
??_R1A@?0A@EA@CAMThread@@8 DD imagerel ??_R0?AVCAMThread@@@8 ; CAMThread::`RTTI Base Class Descriptor at (0,-1,0,64)'
	DD	00H
	DD	00H
	DD	0ffffffffH
	DD	00H
	DD	040H
	DD	imagerel ??_R3CAMThread@@8
rdata$r	ENDS
;	COMDAT ??_R1A@?0A@EA@CPullPin@@8
rdata$r	SEGMENT
??_R1A@?0A@EA@CPullPin@@8 DD imagerel ??_R0?AVCPullPin@@@8 ; CPullPin::`RTTI Base Class Descriptor at (0,-1,0,64)'
	DD	01H
	DD	00H
	DD	0ffffffffH
	DD	00H
	DD	040H
	DD	imagerel ??_R3CPullPin@@8
rdata$r	ENDS
;	COMDAT ??_R2CPullPin@@8
rdata$r	SEGMENT
??_R2CPullPin@@8 DD imagerel ??_R1A@?0A@EA@CPullPin@@8	; CPullPin::`RTTI Base Class Array'
	DD	imagerel ??_R1A@?0A@EA@CAMThread@@8
	ORG $+3
rdata$r	ENDS
;	COMDAT ??_R3CPullPin@@8
rdata$r	SEGMENT
??_R3CPullPin@@8 DD 00H					; CPullPin::`RTTI Class Hierarchy Descriptor'
	DD	00H
	DD	02H
	DD	imagerel ??_R2CPullPin@@8
rdata$r	ENDS
;	COMDAT ??_R0?AVCPullPin@@@8
_DATA	SEGMENT
??_R0?AVCPullPin@@@8 DQ FLAT:??_7type_info@@6B@		; CPullPin `RTTI Type Descriptor'
	DQ	0000000000000000H
	DB	'.?AVCPullPin@@', 00H
_DATA	ENDS
;	COMDAT ??_R4CPullPin@@6B@
rdata$r	SEGMENT
??_R4CPullPin@@6B@ DD 01H				; CPullPin::`RTTI Complete Object Locator'
	DD	00H
	DD	00H
	DD	imagerel ??_R0?AVCPullPin@@@8
	DD	imagerel ??_R3CPullPin@@8
	DD	imagerel ??_R4CPullPin@@6B@
rdata$r	ENDS
;	COMDAT xdata
xdata	SEGMENT
$unwind$??0CPullPin@@QEAA@XZ DD 021e01H
	DD	07006320aH
xdata	ENDS
;	COMDAT ??_7CPullPin@@6B@
CONST	SEGMENT
??_7CPullPin@@6B@ DQ FLAT:??_R4CPullPin@@6B@		; CPullPin::`vftable'
	DQ	FLAT:?ThreadProc@CPullPin@@EEAAKXZ
	DQ	FLAT:??_ECPullPin@@UEAAPEAXI@Z
	DQ	FLAT:?DecideAllocator@CPullPin@@UEAAJPEAUIMemAllocator@@PEAU_AllocatorProperties@@@Z
	DQ	FLAT:_purecall
	DQ	FLAT:_purecall
	DQ	FLAT:_purecall
	DQ	FLAT:_purecall
	DQ	FLAT:_purecall
CONST	ENDS
;	COMDAT rtc$TMZ
rtc$TMZ	SEGMENT
_RTC_Shutdown.rtc$TMZ DQ FLAT:_RTC_Shutdown
rtc$TMZ	ENDS
;	COMDAT rtc$IMZ
rtc$IMZ	SEGMENT
_RTC_InitBase.rtc$IMZ DQ FLAT:_RTC_InitBase
; Function compile flags: /Odtp /RTCsu
rtc$IMZ	ENDS
;	COMDAT ??0CPullPin@@QEAA@XZ
_TEXT	SEGMENT
this$ = 48
??0CPullPin@@QEAA@XZ PROC				; CPullPin::CPullPin, COMDAT
; Line 20
$LN4:
	mov	QWORD PTR [rsp+8], rcx
	push	rdi
	sub	rsp, 32					; 00000020H
	mov	rdi, rsp
	mov	ecx, 8
	mov	eax, -858993460				; ccccccccH
	rep stosd
	mov	rcx, QWORD PTR [rsp+48]
	mov	rcx, QWORD PTR this$[rsp]
	call	??0CAMThread@@QEAA@XZ			; CAMThread::CAMThread
	mov	rax, QWORD PTR this$[rsp]
	lea	rcx, OFFSET FLAT:??_7CPullPin@@6B@
	mov	QWORD PTR [rax], rcx
	mov	rax, QWORD PTR this$[rsp]
	mov	QWORD PTR [rax+152], 0
	mov	rax, QWORD PTR this$[rsp]
	mov	DWORD PTR [rax+188], 2
	mov	rax, QWORD PTR this$[rsp]
	mov	QWORD PTR [rax+192], 0
; Line 21
	mov	rax, QWORD PTR this$[rsp]
	add	rsp, 32					; 00000020H
	pop	rdi
	ret	0
??0CPullPin@@QEAA@XZ ENDP				; CPullPin::CPullPin
_TEXT	ENDS
PUBLIC	??1CPullPin@@UEAA@XZ				; CPullPin::~CPullPin
EXTRN	??3@YAXPEAX@Z:PROC				; operator delete
;	COMDAT pdata
pdata	SEGMENT
$pdata$??_GCPullPin@@UEAAPEAXI@Z DD imagerel $LN4
	DD	imagerel $LN4+76
	DD	imagerel $unwind$??_GCPullPin@@UEAAPEAXI@Z
pdata	ENDS
;	COMDAT xdata
xdata	SEGMENT
$unwind$??_GCPullPin@@UEAAPEAXI@Z DD 022201H
	DD	0700a320eH
; Function compile flags: /Odtp /RTCsu
xdata	ENDS
;	COMDAT ??_GCPullPin@@UEAAPEAXI@Z
_TEXT	SEGMENT
this$ = 48
__flags$ = 56
??_GCPullPin@@UEAAPEAXI@Z PROC				; CPullPin::`scalar deleting destructor', COMDAT
$LN4:
	mov	DWORD PTR [rsp+16], edx
	mov	QWORD PTR [rsp+8], rcx
	push	rdi
	sub	rsp, 32					; 00000020H
	mov	rdi, rsp
	mov	ecx, 8
	mov	eax, -858993460				; ccccccccH
	rep stosd
	mov	rcx, QWORD PTR [rsp+48]
	mov	rcx, QWORD PTR this$[rsp]
	call	??1CPullPin@@UEAA@XZ			; CPullPin::~CPullPin
	mov	eax, DWORD PTR __flags$[rsp]
	and	eax, 1
	test	eax, eax
	je	SHORT $LN1@scalar
	mov	rcx, QWORD PTR this$[rsp]
	call	??3@YAXPEAX@Z				; operator delete
$LN1@scalar:
	mov	rax, QWORD PTR this$[rsp]
	add	rsp, 32					; 00000020H
	pop	rdi
	ret	0
??_GCPullPin@@UEAAPEAXI@Z ENDP				; CPullPin::`scalar deleting destructor'
_TEXT	ENDS
PUBLIC	?Disconnect@CPullPin@@QEAAJXZ			; CPullPin::Disconnect
EXTRN	__CxxFrameHandler3:PROC
EXTRN	??1CAMThread@@UEAA@XZ:PROC			; CAMThread::~CAMThread
;	COMDAT pdata
pdata	SEGMENT
$pdata$??1CPullPin@@UEAA@XZ DD imagerel $LN4
	DD	imagerel $LN4+81
	DD	imagerel $unwind$??1CPullPin@@UEAA@XZ
pdata	ENDS
;	COMDAT pdata
pdata	SEGMENT
$pdata$?dtor$0@?0???1CPullPin@@UEAA@XZ@4HA DD imagerel ?dtor$0@?0???1CPullPin@@UEAA@XZ@4HA
	DD	imagerel ?dtor$0@?0???1CPullPin@@UEAA@XZ@4HA+35
	DD	imagerel $unwind$?dtor$0@?0???1CPullPin@@UEAA@XZ@4HA
pdata	ENDS
;	COMDAT xdata
xdata	SEGMENT
$ip2state$??1CPullPin@@UEAA@XZ DD imagerel ??1CPullPin@@UEAA@XZ
	DD	0ffffffffH
	DD	imagerel ??1CPullPin@@UEAA@XZ+54
	DD	00H
	DD	imagerel ??1CPullPin@@UEAA@XZ+65
	DD	0ffffffffH
xdata	ENDS
;	COMDAT xdata
xdata	SEGMENT
$unwind$?dtor$0@?0???1CPullPin@@UEAA@XZ@4HA DD 031001H
	DD	0700c4210H
	DD	0500bH
xdata	ENDS
;	COMDAT xdata
xdata	SEGMENT
$unwind$??1CPullPin@@UEAA@XZ DD 022711H
	DD	07006520aH
	DD	imagerel __CxxFrameHandler3
	DD	imagerel $cppxdata$??1CPullPin@@UEAA@XZ
xdata	ENDS
;	COMDAT CONST
CONST	SEGMENT
$cppxdata$??1CPullPin@@UEAA@XZ DD 019930522H
	DD	01H
	DD	imagerel $stateUnwindMap$??1CPullPin@@UEAA@XZ
	DD	00H
	DD	00H
	DD	03H
	DD	imagerel $ip2state$??1CPullPin@@UEAA@XZ
	DD	020H
	DD	00H
	DD	01H
CONST	ENDS
;	COMDAT xdata
xdata	SEGMENT
$stateUnwindMap$??1CPullPin@@UEAA@XZ DD 0ffffffffH
	DD	imagerel ?dtor$0@?0???1CPullPin@@UEAA@XZ@4HA
; Function compile flags: /Odtp /RTCsu
xdata	ENDS
;	COMDAT ??1CPullPin@@UEAA@XZ
_TEXT	SEGMENT
$T83096 = 32
this$ = 64
??1CPullPin@@UEAA@XZ PROC				; CPullPin::~CPullPin, COMDAT
; Line 24
$LN4:
	mov	QWORD PTR [rsp+8], rcx
	push	rdi
	sub	rsp, 48					; 00000030H
	mov	rdi, rsp
	mov	ecx, 12
	mov	eax, -858993460				; ccccccccH
	rep stosd
	mov	rcx, QWORD PTR [rsp+64]
	mov	QWORD PTR $T83096[rsp], -2
	mov	rax, QWORD PTR this$[rsp]
	lea	rcx, OFFSET FLAT:??_7CPullPin@@6B@
	mov	QWORD PTR [rax], rcx
; Line 25
	mov	rcx, QWORD PTR this$[rsp]
	call	?Disconnect@CPullPin@@QEAAJXZ		; CPullPin::Disconnect
	npad	1
; Line 26
	mov	rcx, QWORD PTR this$[rsp]
	call	??1CAMThread@@UEAA@XZ			; CAMThread::~CAMThread
	add	rsp, 48					; 00000030H
	pop	rdi
	ret	0
??1CPullPin@@UEAA@XZ ENDP				; CPullPin::~CPullPin
; Function compile flags: /Odtp /RTCsu
_TEXT	ENDS
;	COMDAT text$x
text$x	SEGMENT
$T83096 = 32
this$ = 64
?dtor$0@?0???1CPullPin@@UEAA@XZ@4HA PROC		; `CPullPin::~CPullPin'::`1'::dtor$0
	mov	QWORD PTR [rsp+8], rcx
	mov	QWORD PTR [rsp+16], rdx
	push	rbp
	push	rdi
	sub	rsp, 40					; 00000028H
	mov	rbp, rdx
	mov	rcx, QWORD PTR this$[rbp]
	call	??1CAMThread@@UEAA@XZ			; CAMThread::~CAMThread
	add	rsp, 40					; 00000028H
	pop	rdi
	pop	rbp
	ret	0
?dtor$0@?0???1CPullPin@@UEAA@XZ@4HA ENDP		; `CPullPin::~CPullPin'::`1'::dtor$0
text$x	ENDS
PUBLIC	??1CAutoLock@@QEAA@XZ				; CAutoLock::~CAutoLock
PUBLIC	??0CAutoLock@@QEAA@PEAVCCritSec@@@Z		; CAutoLock::CAutoLock
PUBLIC	?Connect@CPullPin@@QEAAJPEAUIUnknown@@PEAUIMemAllocator@@H@Z ; CPullPin::Connect
EXTRN	IID_IAsyncReader:BYTE
EXTRN	_RTC_CheckStackVars:PROC
;	COMDAT pdata
pdata	SEGMENT
$pdata$?Connect@CPullPin@@QEAAJPEAUIUnknown@@PEAUIMemAllocator@@H@Z DD imagerel $LN8
	DD	imagerel $LN8+572
	DD	imagerel $unwind$?Connect@CPullPin@@QEAAJPEAUIUnknown@@PEAUIMemAllocator@@H@Z
pdata	ENDS
;	COMDAT pdata
pdata	SEGMENT
$pdata$?dtor$0@?0??Connect@CPullPin@@QEAAJPEAUIUnknown@@PEAUIMemAllocator@@H@Z@4HA DD imagerel ?dtor$0@?0??Connect@CPullPin@@QEAAJPEAUIUnknown@@PEAUIMemAllocator@@H@Z@4HA
	DD	imagerel ?dtor$0@?0??Connect@CPullPin@@QEAAJPEAUIUnknown@@PEAUIMemAllocator@@H@Z@4HA+35
	DD	imagerel $unwind$?dtor$0@?0??Connect@CPullPin@@QEAAJPEAUIUnknown@@PEAUIMemAllocator@@H@Z@4HA
pdata	ENDS
;	COMDAT xdata
xdata	SEGMENT
$ip2state$?Connect@CPullPin@@QEAAJPEAUIUnknown@@PEAUIMemAllocator@@H@Z DD imagerel ?Connect@CPullPin@@QEAAJPEAUIUnknown@@PEAUIMemAllocator@@H@Z
	DD	0ffffffffH
	DD	imagerel ?Connect@CPullPin@@QEAAJPEAUIUnknown@@PEAUIMemAllocator@@H@Z+89
	DD	00H
	DD	imagerel ?Connect@CPullPin@@QEAAJPEAUIUnknown@@PEAUIMemAllocator@@H@Z+115
	DD	0ffffffffH
	DD	imagerel ?Connect@CPullPin@@QEAAJPEAUIUnknown@@PEAUIMemAllocator@@H@Z+134
	DD	00H
	DD	imagerel ?Connect@CPullPin@@QEAAJPEAUIUnknown@@PEAUIMemAllocator@@H@Z+214
	DD	0ffffffffH
	DD	imagerel ?Connect@CPullPin@@QEAAJPEAUIUnknown@@PEAUIMemAllocator@@H@Z+233
	DD	00H
	DD	imagerel ?Connect@CPullPin@@QEAAJPEAUIUnknown@@PEAUIMemAllocator@@H@Z+298
	DD	0ffffffffH
	DD	imagerel ?Connect@CPullPin@@QEAAJPEAUIUnknown@@PEAUIMemAllocator@@H@Z+317
	DD	00H
	DD	imagerel ?Connect@CPullPin@@QEAAJPEAUIUnknown@@PEAUIMemAllocator@@H@Z+398
	DD	0ffffffffH
	DD	imagerel ?Connect@CPullPin@@QEAAJPEAUIUnknown@@PEAUIMemAllocator@@H@Z+417
	DD	00H
	DD	imagerel ?Connect@CPullPin@@QEAAJPEAUIUnknown@@PEAUIMemAllocator@@H@Z+525
	DD	0ffffffffH
xdata	ENDS
;	COMDAT xdata
xdata	SEGMENT
$unwind$?dtor$0@?0??Connect@CPullPin@@QEAAJPEAUIUnknown@@PEAUIMemAllocator@@H@Z@4HA DD 031001H
	DD	0700c4210H
	DD	0500bH
xdata	ENDS
;	COMDAT xdata
xdata	SEGMENT
$unwind$?Connect@CPullPin@@QEAAJPEAUIUnknown@@PEAUIMemAllocator@@H@Z DD 033f11H
	DD	014011cH
	DD	07015H
	DD	imagerel __CxxFrameHandler3
	DD	imagerel $cppxdata$?Connect@CPullPin@@QEAAJPEAUIUnknown@@PEAUIMemAllocator@@H@Z
xdata	ENDS
;	COMDAT xdata
xdata	SEGMENT
$stateUnwindMap$?Connect@CPullPin@@QEAAJPEAUIUnknown@@PEAUIMemAllocator@@H@Z DD 0ffffffffH
	DD	imagerel ?dtor$0@?0??Connect@CPullPin@@QEAAJPEAUIUnknown@@PEAUIMemAllocator@@H@Z@4HA
xdata	ENDS
;	COMDAT CONST
CONST	SEGMENT
?Connect@CPullPin@@QEAAJPEAUIUnknown@@PEAUIMemAllocator@@H@Z$rtcName$0 DB 06cH ; CPullPin::Connect
	DB	06fH
	DB	063H
	DB	06bH
	DB	00H
	ORG $+3
?Connect@CPullPin@@QEAAJPEAUIUnknown@@PEAUIMemAllocator@@H@Z$rtcName$1 DB 06cH ; CPullPin::Connect
	DB	06cH
	DB	054H
	DB	06fH
	DB	074H
	DB	061H
	DB	06cH
	DB	00H
?Connect@CPullPin@@QEAAJPEAUIUnknown@@PEAUIMemAllocator@@H@Z$rtcName$2 DB 06cH ; CPullPin::Connect
	DB	06cH
	DB	041H
	DB	076H
	DB	061H
	DB	069H
	DB	06cH
	DB	00H
$cppxdata$?Connect@CPullPin@@QEAAJPEAUIUnknown@@PEAUIMemAllocator@@H@Z DD 019930522H
	DD	01H
	DD	imagerel $stateUnwindMap$?Connect@CPullPin@@QEAAJPEAUIUnknown@@PEAUIMemAllocator@@H@Z
	DD	00H
	DD	00H
	DD	0bH
	DD	imagerel $ip2state$?Connect@CPullPin@@QEAAJPEAUIUnknown@@PEAUIMemAllocator@@H@Z
	DD	088H
	DD	00H
	DD	01H
?Connect@CPullPin@@QEAAJPEAUIUnknown@@PEAUIMemAllocator@@H@Z$rtcVarDesc DD 068H ; CPullPin::Connect
	DD	08H
	DQ	FLAT:?Connect@CPullPin@@QEAAJPEAUIUnknown@@PEAUIMemAllocator@@H@Z$rtcName$2
	DD	048H
	DD	08H
	DQ	FLAT:?Connect@CPullPin@@QEAAJPEAUIUnknown@@PEAUIMemAllocator@@H@Z$rtcName$1
	DD	028H
	DD	08H
	DQ	FLAT:?Connect@CPullPin@@QEAAJPEAUIUnknown@@PEAUIMemAllocator@@H@Z$rtcName$0
	ORG $+144
?Connect@CPullPin@@QEAAJPEAUIUnknown@@PEAUIMemAllocator@@H@Z$rtcFrameData DD 03H ; CPullPin::Connect
	DD	00H
	DQ	FLAT:?Connect@CPullPin@@QEAAJPEAUIUnknown@@PEAUIMemAllocator@@H@Z$rtcVarDesc
; Function compile flags: /Odtp /RTCsu
CONST	ENDS
;	COMDAT ?Connect@CPullPin@@QEAAJPEAUIUnknown@@PEAUIMemAllocator@@H@Z
_TEXT	SEGMENT
lock$ = 40
hr$ = 52
llTotal$ = 72
llAvail$ = 104
$T83115 = 116
$T83116 = 120
$T83117 = 124
$T83118 = 128
$T83119 = 132
$T83125 = 136
tv76 = 144
this$ = 176
pUnk$ = 184
pAlloc$ = 192
bSync$ = 200
?Connect@CPullPin@@QEAAJPEAUIUnknown@@PEAUIMemAllocator@@H@Z PROC ; CPullPin::Connect, COMDAT
; Line 34
$LN8:
	mov	DWORD PTR [rsp+32], r9d
	mov	QWORD PTR [rsp+24], r8
	mov	QWORD PTR [rsp+16], rdx
	mov	QWORD PTR [rsp+8], rcx
	push	rdi
	sub	rsp, 160				; 000000a0H
	mov	rdi, rsp
	mov	ecx, 40					; 00000028H
	mov	eax, -858993460				; ccccccccH
	rep stosd
	mov	rcx, QWORD PTR [rsp+176]
	mov	QWORD PTR $T83125[rsp], -2
; Line 35
	mov	rax, QWORD PTR this$[rsp]
	add	rax, 40					; 00000028H
	mov	rdx, rax
	lea	rcx, QWORD PTR lock$[rsp]
	call	??0CAutoLock@@QEAA@PEAVCCritSec@@@Z	; CAutoLock::CAutoLock
	npad	1
; Line 37
	mov	rax, QWORD PTR this$[rsp]
	cmp	QWORD PTR [rax+152], 0
	je	SHORT $LN4@Connect
; Line 38
	mov	DWORD PTR $T83115[rsp], -2147220988	; ffffffff80040204H
	lea	rcx, QWORD PTR lock$[rsp]
	call	??1CAutoLock@@QEAA@XZ			; CAutoLock::~CAutoLock
	mov	eax, DWORD PTR $T83115[rsp]
	jmp	$LN5@Connect
$LN4@Connect:
; Line 41
	mov	rax, QWORD PTR this$[rsp]
	add	rax, 152				; 00000098H
	mov	rcx, QWORD PTR pUnk$[rsp]
	mov	rcx, QWORD PTR [rcx]
	mov	QWORD PTR tv76[rsp], rcx
	mov	r8, rax
	lea	rdx, OFFSET FLAT:IID_IAsyncReader
	mov	rcx, QWORD PTR pUnk$[rsp]
	mov	rax, QWORD PTR tv76[rsp]
	call	QWORD PTR [rax]
	mov	DWORD PTR hr$[rsp], eax
; Line 42
	cmp	DWORD PTR hr$[rsp], 0
	jge	SHORT $LN3@Connect
; Line 43
	mov	eax, DWORD PTR hr$[rsp]
	mov	DWORD PTR $T83116[rsp], eax
	lea	rcx, QWORD PTR lock$[rsp]
	call	??1CAutoLock@@QEAA@XZ			; CAutoLock::~CAutoLock
	mov	eax, DWORD PTR $T83116[rsp]
	jmp	$LN5@Connect
$LN3@Connect:
; Line 46
	mov	rax, QWORD PTR this$[rsp]
	mov	rax, QWORD PTR [rax]
	xor	r8d, r8d
	mov	rdx, QWORD PTR pAlloc$[rsp]
	mov	rcx, QWORD PTR this$[rsp]
	call	QWORD PTR [rax+16]
	mov	DWORD PTR hr$[rsp], eax
; Line 47
	cmp	DWORD PTR hr$[rsp], 0
	jge	SHORT $LN2@Connect
; Line 48
	mov	rcx, QWORD PTR this$[rsp]
	call	?Disconnect@CPullPin@@QEAAJXZ		; CPullPin::Disconnect
; Line 49
	mov	eax, DWORD PTR hr$[rsp]
	mov	DWORD PTR $T83117[rsp], eax
	lea	rcx, QWORD PTR lock$[rsp]
	call	??1CAutoLock@@QEAA@XZ			; CAutoLock::~CAutoLock
	mov	eax, DWORD PTR $T83117[rsp]
	jmp	$LN5@Connect
$LN2@Connect:
; Line 53
	mov	rax, QWORD PTR this$[rsp]
	mov	rax, QWORD PTR [rax+152]
	mov	rcx, QWORD PTR this$[rsp]
	mov	rcx, QWORD PTR [rcx+152]
	mov	rax, QWORD PTR [rax]
	lea	r8, QWORD PTR llAvail$[rsp]
	lea	rdx, QWORD PTR llTotal$[rsp]
	call	QWORD PTR [rax+64]
	mov	DWORD PTR hr$[rsp], eax
; Line 54
	cmp	DWORD PTR hr$[rsp], 0
	jge	SHORT $LN1@Connect
; Line 55
	mov	rcx, QWORD PTR this$[rsp]
	call	?Disconnect@CPullPin@@QEAAJXZ		; CPullPin::Disconnect
; Line 56
	mov	eax, DWORD PTR hr$[rsp]
	mov	DWORD PTR $T83118[rsp], eax
	lea	rcx, QWORD PTR lock$[rsp]
	call	??1CAutoLock@@QEAA@XZ			; CAutoLock::~CAutoLock
	mov	eax, DWORD PTR $T83118[rsp]
	jmp	SHORT $LN5@Connect
$LN1@Connect:
; Line 60
	mov	rax, QWORD PTR llTotal$[rsp]
	imul	rax, 10000000				; 00989680H
	mov	rcx, QWORD PTR this$[rsp]
	mov	QWORD PTR [rcx+176], rax
; Line 61
	mov	rax, QWORD PTR this$[rsp]
	mov	rcx, QWORD PTR this$[rsp]
	mov	rcx, QWORD PTR [rcx+176]
	mov	QWORD PTR [rax+168], rcx
; Line 62
	mov	rax, QWORD PTR this$[rsp]
	mov	QWORD PTR [rax+160], 0
; Line 64
	mov	rax, QWORD PTR this$[rsp]
	mov	ecx, DWORD PTR bSync$[rsp]
	mov	DWORD PTR [rax+184], ecx
; Line 66
	mov	DWORD PTR $T83119[rsp], 0
	lea	rcx, QWORD PTR lock$[rsp]
	call	??1CAutoLock@@QEAA@XZ			; CAutoLock::~CAutoLock
	mov	eax, DWORD PTR $T83119[rsp]
$LN5@Connect:
; Line 67
	mov	rdi, rax
	mov	rcx, rsp
	lea	rdx, OFFSET FLAT:?Connect@CPullPin@@QEAAJPEAUIUnknown@@PEAUIMemAllocator@@H@Z$rtcFrameData
	call	_RTC_CheckStackVars
	mov	rax, rdi
	add	rsp, 160				; 000000a0H
	pop	rdi
	ret	0
?Connect@CPullPin@@QEAAJPEAUIUnknown@@PEAUIMemAllocator@@H@Z ENDP ; CPullPin::Connect
; Function compile flags: /Odtp /RTCsu
_TEXT	ENDS
;	COMDAT text$x
text$x	SEGMENT
lock$ = 40
hr$ = 52
llTotal$ = 72
llAvail$ = 104
$T83115 = 116
$T83116 = 120
$T83117 = 124
$T83118 = 128
$T83119 = 132
$T83125 = 136
tv76 = 144
this$ = 176
pUnk$ = 184
pAlloc$ = 192
bSync$ = 200
?dtor$0@?0??Connect@CPullPin@@QEAAJPEAUIUnknown@@PEAUIMemAllocator@@H@Z@4HA PROC ; `CPullPin::Connect'::`1'::dtor$0
	mov	QWORD PTR [rsp+8], rcx
	mov	QWORD PTR [rsp+16], rdx
	push	rbp
	push	rdi
	sub	rsp, 40					; 00000028H
	mov	rbp, rdx
	lea	rcx, QWORD PTR lock$[rbp]
	call	??1CAutoLock@@QEAA@XZ			; CAutoLock::~CAutoLock
	add	rsp, 40					; 00000028H
	pop	rdi
	pop	rbp
	ret	0
?dtor$0@?0??Connect@CPullPin@@QEAAJPEAUIUnknown@@PEAUIMemAllocator@@H@Z@4HA ENDP ; `CPullPin::Connect'::`1'::dtor$0
text$x	ENDS
EXTRN	?Lock@CCritSec@@QEAAXXZ:PROC			; CCritSec::Lock
;	COMDAT pdata
; File c:\downloads\wpf mediakit - copy\src\filters\baseclasses\wxutil.h
pdata	SEGMENT
$pdata$??0CAutoLock@@QEAA@PEAVCCritSec@@@Z DD imagerel $LN3
	DD	imagerel $LN3+72
	DD	imagerel $unwind$??0CAutoLock@@QEAA@PEAVCCritSec@@@Z
pdata	ENDS
;	COMDAT xdata
xdata	SEGMENT
$unwind$??0CAutoLock@@QEAA@PEAVCCritSec@@@Z DD 022301H
	DD	0700b320fH
; Function compile flags: /Odtp /RTCsu
xdata	ENDS
;	COMDAT ??0CAutoLock@@QEAA@PEAVCCritSec@@@Z
_TEXT	SEGMENT
this$ = 48
plock$ = 56
??0CAutoLock@@QEAA@PEAVCCritSec@@@Z PROC		; CAutoLock::CAutoLock, COMDAT
; Line 94
$LN3:
	mov	QWORD PTR [rsp+16], rdx
	mov	QWORD PTR [rsp+8], rcx
	push	rdi
	sub	rsp, 32					; 00000020H
	mov	rdi, rsp
	mov	ecx, 8
	mov	eax, -858993460				; ccccccccH
	rep stosd
	mov	rcx, QWORD PTR [rsp+48]
; Line 96
	mov	rax, QWORD PTR this$[rsp]
	mov	rcx, QWORD PTR plock$[rsp]
	mov	QWORD PTR [rax], rcx
; Line 97
	mov	rax, QWORD PTR this$[rsp]
	mov	rcx, QWORD PTR [rax]
	call	?Lock@CCritSec@@QEAAXXZ			; CCritSec::Lock
; Line 98
	mov	rax, QWORD PTR this$[rsp]
	add	rsp, 32					; 00000020H
	pop	rdi
	ret	0
??0CAutoLock@@QEAA@PEAVCCritSec@@@Z ENDP		; CAutoLock::CAutoLock
_TEXT	ENDS
EXTRN	?Unlock@CCritSec@@QEAAXXZ:PROC			; CCritSec::Unlock
;	COMDAT pdata
pdata	SEGMENT
$pdata$??1CAutoLock@@QEAA@XZ DD imagerel $LN3
	DD	imagerel $LN3+49
	DD	imagerel $unwind$??1CAutoLock@@QEAA@XZ
pdata	ENDS
;	COMDAT xdata
xdata	SEGMENT
$unwind$??1CAutoLock@@QEAA@XZ DD 021e01H
	DD	07006320aH
; Function compile flags: /Odtp /RTCsu
xdata	ENDS
;	COMDAT ??1CAutoLock@@QEAA@XZ
_TEXT	SEGMENT
this$ = 48
??1CAutoLock@@QEAA@XZ PROC				; CAutoLock::~CAutoLock, COMDAT
; Line 100
$LN3:
	mov	QWORD PTR [rsp+8], rcx
	push	rdi
	sub	rsp, 32					; 00000020H
	mov	rdi, rsp
	mov	ecx, 8
	mov	eax, -858993460				; ccccccccH
	rep stosd
	mov	rcx, QWORD PTR [rsp+48]
; Line 101
	mov	rax, QWORD PTR this$[rsp]
	mov	rcx, QWORD PTR [rax]
	call	?Unlock@CCritSec@@QEAAXXZ		; CCritSec::Unlock
; Line 102
	add	rsp, 32					; 00000020H
	pop	rdi
	ret	0
??1CAutoLock@@QEAA@XZ ENDP				; CAutoLock::~CAutoLock
_TEXT	ENDS
PUBLIC	?StopThread@CPullPin@@AEAAJXZ			; CPullPin::StopThread
;	COMDAT pdata
; File c:\downloads\wpf mediakit - copy\src\filters\baseclasses\pullpin.cpp
pdata	SEGMENT
$pdata$?Disconnect@CPullPin@@QEAAJXZ DD imagerel $LN6
	DD	imagerel $LN6+241
	DD	imagerel $unwind$?Disconnect@CPullPin@@QEAAJXZ
pdata	ENDS
;	COMDAT pdata
pdata	SEGMENT
$pdata$?dtor$0@?0??Disconnect@CPullPin@@QEAAJXZ@4HA DD imagerel ?dtor$0@?0??Disconnect@CPullPin@@QEAAJXZ@4HA
	DD	imagerel ?dtor$0@?0??Disconnect@CPullPin@@QEAAJXZ@4HA+35
	DD	imagerel $unwind$?dtor$0@?0??Disconnect@CPullPin@@QEAAJXZ@4HA
pdata	ENDS
;	COMDAT xdata
xdata	SEGMENT
$ip2state$?Disconnect@CPullPin@@QEAAJXZ DD imagerel ?Disconnect@CPullPin@@QEAAJXZ
	DD	0ffffffffH
	DD	imagerel ?Disconnect@CPullPin@@QEAAJXZ+62
	DD	00H
	DD	imagerel ?Disconnect@CPullPin@@QEAAJXZ+202
	DD	0ffffffffH
xdata	ENDS
;	COMDAT xdata
xdata	SEGMENT
$unwind$?dtor$0@?0??Disconnect@CPullPin@@QEAAJXZ@4HA DD 031001H
	DD	0700c4210H
	DD	0500bH
xdata	ENDS
;	COMDAT xdata
xdata	SEGMENT
$unwind$?Disconnect@CPullPin@@QEAAJXZ DD 022711H
	DD	07006720aH
	DD	imagerel __CxxFrameHandler3
	DD	imagerel $cppxdata$?Disconnect@CPullPin@@QEAAJXZ
xdata	ENDS
;	COMDAT xdata
xdata	SEGMENT
$stateUnwindMap$?Disconnect@CPullPin@@QEAAJXZ DD 0ffffffffH
	DD	imagerel ?dtor$0@?0??Disconnect@CPullPin@@QEAAJXZ@4HA
xdata	ENDS
;	COMDAT CONST
CONST	SEGMENT
?Disconnect@CPullPin@@QEAAJXZ$rtcName$0 DB 06cH		; CPullPin::Disconnect
	DB	06fH
	DB	063H
	DB	06bH
	DB	00H
	ORG $+11
?Disconnect@CPullPin@@QEAAJXZ$rtcVarDesc DD 028H	; CPullPin::Disconnect
	DD	08H
	DQ	FLAT:?Disconnect@CPullPin@@QEAAJXZ$rtcName$0
	ORG $+48
?Disconnect@CPullPin@@QEAAJXZ$rtcFrameData DD 01H	; CPullPin::Disconnect
	DD	00H
	DQ	FLAT:?Disconnect@CPullPin@@QEAAJXZ$rtcVarDesc
$cppxdata$?Disconnect@CPullPin@@QEAAJXZ DD 019930522H
	DD	01H
	DD	imagerel $stateUnwindMap$?Disconnect@CPullPin@@QEAAJXZ
	DD	00H
	DD	00H
	DD	03H
	DD	imagerel $ip2state$?Disconnect@CPullPin@@QEAAJXZ
	DD	038H
	DD	00H
	DD	01H
; Function compile flags: /Odtp /RTCsu
CONST	ENDS
;	COMDAT ?Disconnect@CPullPin@@QEAAJXZ
_TEXT	SEGMENT
lock$ = 40
$T83163 = 52
$T83169 = 56
this$ = 80
?Disconnect@CPullPin@@QEAAJXZ PROC			; CPullPin::Disconnect, COMDAT
; Line 72
$LN6:
	mov	QWORD PTR [rsp+8], rcx
	push	rdi
	sub	rsp, 64					; 00000040H
	mov	rdi, rsp
	mov	ecx, 16
	mov	eax, -858993460				; ccccccccH
	rep stosd
	mov	rcx, QWORD PTR [rsp+80]
	mov	QWORD PTR $T83169[rsp], -2
; Line 73
	mov	rax, QWORD PTR this$[rsp]
	add	rax, 40					; 00000028H
	mov	rdx, rax
	lea	rcx, QWORD PTR lock$[rsp]
	call	??0CAutoLock@@QEAA@PEAVCCritSec@@@Z	; CAutoLock::CAutoLock
	npad	1
; Line 75
	mov	rcx, QWORD PTR this$[rsp]
	call	?StopThread@CPullPin@@AEAAJXZ		; CPullPin::StopThread
; Line 77
	mov	rax, QWORD PTR this$[rsp]
	cmp	QWORD PTR [rax+152], 0
	je	SHORT $LN2@Disconnect
; Line 78
	mov	rax, QWORD PTR this$[rsp]
	mov	rax, QWORD PTR [rax+152]
	mov	rcx, QWORD PTR this$[rsp]
	mov	rcx, QWORD PTR [rcx+152]
	mov	rax, QWORD PTR [rax]
	call	QWORD PTR [rax+16]
; Line 79
	mov	rax, QWORD PTR this$[rsp]
	mov	QWORD PTR [rax+152], 0
$LN2@Disconnect:
; Line 82
	mov	rax, QWORD PTR this$[rsp]
	cmp	QWORD PTR [rax+192], 0
	je	SHORT $LN1@Disconnect
; Line 83
	mov	rax, QWORD PTR this$[rsp]
	mov	rax, QWORD PTR [rax+192]
	mov	rcx, QWORD PTR this$[rsp]
	mov	rcx, QWORD PTR [rcx+192]
	mov	rax, QWORD PTR [rax]
	call	QWORD PTR [rax+16]
; Line 84
	mov	rax, QWORD PTR this$[rsp]
	mov	QWORD PTR [rax+192], 0
$LN1@Disconnect:
; Line 87
	mov	DWORD PTR $T83163[rsp], 0
	lea	rcx, QWORD PTR lock$[rsp]
	call	??1CAutoLock@@QEAA@XZ			; CAutoLock::~CAutoLock
	mov	eax, DWORD PTR $T83163[rsp]
; Line 88
	mov	edi, eax
	mov	rcx, rsp
	lea	rdx, OFFSET FLAT:?Disconnect@CPullPin@@QEAAJXZ$rtcFrameData
	call	_RTC_CheckStackVars
	mov	eax, edi
	add	rsp, 64					; 00000040H
	pop	rdi
	ret	0
?Disconnect@CPullPin@@QEAAJXZ ENDP			; CPullPin::Disconnect
; Function compile flags: /Odtp /RTCsu
_TEXT	ENDS
;	COMDAT text$x
text$x	SEGMENT
lock$ = 40
$T83163 = 52
$T83169 = 56
this$ = 80
?dtor$0@?0??Disconnect@CPullPin@@QEAAJXZ@4HA PROC	; `CPullPin::Disconnect'::`1'::dtor$0
	mov	QWORD PTR [rsp+8], rcx
	mov	QWORD PTR [rsp+16], rdx
	push	rbp
	push	rdi
	sub	rsp, 40					; 00000028H
	mov	rbp, rdx
	lea	rcx, QWORD PTR lock$[rbp]
	call	??1CAutoLock@@QEAA@XZ			; CAutoLock::~CAutoLock
	add	rsp, 40					; 00000028H
	pop	rdi
	pop	rbp
	ret	0
?dtor$0@?0??Disconnect@CPullPin@@QEAAJXZ@4HA ENDP	; `CPullPin::Disconnect'::`1'::dtor$0
text$x	ENDS
PUBLIC	__$ArrayPad$
EXTRN	__GSHandlerCheck:PROC
EXTRN	__security_cookie:QWORD
EXTRN	__security_check_cookie:PROC
;	COMDAT pdata
pdata	SEGMENT
$pdata$?DecideAllocator@CPullPin@@UEAAJPEAUIMemAllocator@@PEAU_AllocatorProperties@@@Z DD imagerel $LN5
	DD	imagerel $LN5+267
	DD	imagerel $unwind$?DecideAllocator@CPullPin@@UEAAJPEAUIMemAllocator@@PEAU_AllocatorProperties@@@Z
pdata	ENDS
;	COMDAT xdata
xdata	SEGMENT
$unwind$?DecideAllocator@CPullPin@@UEAAJPEAUIMemAllocator@@PEAU_AllocatorProperties@@@Z DD 023d19H
	DD	07010f217H
	DD	imagerel __GSHandlerCheck
	DD	070H
xdata	ENDS
;	COMDAT CONST
CONST	SEGMENT
?DecideAllocator@CPullPin@@UEAAJPEAUIMemAllocator@@PEAU_AllocatorProperties@@@Z$rtcName$0 DB 052H ; CPullPin::DecideAllocator
	DB	065H
	DB	071H
	DB	075H
	DB	065H
	DB	073H
	DB	074H
	DB	00H
	ORG $+8
?DecideAllocator@CPullPin@@UEAAJPEAUIMemAllocator@@PEAU_AllocatorProperties@@@Z$rtcVarDesc DD 038H ; CPullPin::DecideAllocator
	DD	010H
	DQ	FLAT:?DecideAllocator@CPullPin@@UEAAJPEAUIMemAllocator@@PEAU_AllocatorProperties@@@Z$rtcName$0
	ORG $+48
?DecideAllocator@CPullPin@@UEAAJPEAUIMemAllocator@@PEAU_AllocatorProperties@@@Z$rtcFrameData DD 01H ; CPullPin::DecideAllocator
	DD	00H
	DQ	FLAT:?DecideAllocator@CPullPin@@UEAAJPEAUIMemAllocator@@PEAU_AllocatorProperties@@@Z$rtcVarDesc
; Function compile flags: /Odtp /RTCsu
CONST	ENDS
;	COMDAT ?DecideAllocator@CPullPin@@UEAAJPEAUIMemAllocator@@PEAU_AllocatorProperties@@@Z
_TEXT	SEGMENT
pRequest$ = 32
Request$ = 56
hr$ = 84
tv69 = 96
tv77 = 104
__$ArrayPad$ = 112
this$ = 144
pAlloc$ = 152
pProps$ = 160
?DecideAllocator@CPullPin@@UEAAJPEAUIMemAllocator@@PEAU_AllocatorProperties@@@Z PROC ; CPullPin::DecideAllocator, COMDAT
; Line 99
$LN5:
	mov	QWORD PTR [rsp+24], r8
	mov	QWORD PTR [rsp+16], rdx
	mov	QWORD PTR [rsp+8], rcx
	push	rdi
	sub	rsp, 128				; 00000080H
	mov	rdi, rsp
	mov	ecx, 32					; 00000020H
	mov	eax, -858993460				; ccccccccH
	rep stosd
	mov	rcx, QWORD PTR [rsp+144]
	mov	rax, QWORD PTR __security_cookie
	xor	rax, rsp
	mov	QWORD PTR __$ArrayPad$[rsp], rax
; Line 102
	cmp	QWORD PTR pProps$[rsp], 0
	jne	SHORT $LN2@DecideAllo
; Line 103
	mov	DWORD PTR Request$[rsp], 3
; Line 104
	mov	DWORD PTR Request$[rsp+4], 65536	; 00010000H
; Line 105
	mov	DWORD PTR Request$[rsp+8], 0
; Line 106
	mov	DWORD PTR Request$[rsp+12], 0
; Line 107
	lea	rax, QWORD PTR Request$[rsp]
	mov	QWORD PTR pRequest$[rsp], rax
; Line 108
	jmp	SHORT $LN1@DecideAllo
$LN2@DecideAllo:
; Line 109
	mov	rax, QWORD PTR pProps$[rsp]
	mov	QWORD PTR pRequest$[rsp], rax
$LN1@DecideAllo:
; Line 114
	mov	rax, QWORD PTR this$[rsp]
	add	rax, 192				; 000000c0H
	mov	rcx, QWORD PTR this$[rsp]
	mov	rcx, QWORD PTR [rcx+152]
	mov	rdx, QWORD PTR this$[rsp]
	mov	rdx, QWORD PTR [rdx+152]
	mov	QWORD PTR tv69[rsp], rdx
	mov	rcx, QWORD PTR [rcx]
	mov	QWORD PTR tv77[rsp], rcx
	mov	r9, rax
	mov	r8, QWORD PTR pRequest$[rsp]
	mov	rdx, QWORD PTR pAlloc$[rsp]
	mov	rax, QWORD PTR tv69[rsp]
	mov	rcx, rax
	mov	rax, QWORD PTR tv77[rsp]
	call	QWORD PTR [rax+24]
	mov	DWORD PTR hr$[rsp], eax
; Line 115
	mov	eax, DWORD PTR hr$[rsp]
; Line 116
	mov	edi, eax
	mov	rcx, rsp
	lea	rdx, OFFSET FLAT:?DecideAllocator@CPullPin@@UEAAJPEAUIMemAllocator@@PEAU_AllocatorProperties@@@Z$rtcFrameData
	call	_RTC_CheckStackVars
	mov	eax, edi
	mov	rcx, QWORD PTR __$ArrayPad$[rsp]
	xor	rcx, rsp
	call	__security_check_cookie
	add	rsp, 128				; 00000080H
	pop	rdi
	ret	0
?DecideAllocator@CPullPin@@UEAAJPEAUIMemAllocator@@PEAU_AllocatorProperties@@@Z ENDP ; CPullPin::DecideAllocator
_TEXT	ENDS
PUBLIC	?StartThread@CPullPin@@AEAAJXZ			; CPullPin::StartThread
PUBLIC	?ThreadExists@CAMThread@@QEBAHXZ		; CAMThread::ThreadExists
PUBLIC	?Active@CPullPin@@QEAAJXZ			; CPullPin::Active
EXTRN	?DbgAssert@@YAXPEB_W0H@Z:PROC			; DbgAssert
;	COMDAT pdata
pdata	SEGMENT
$pdata$?Active@CPullPin@@QEAAJXZ DD imagerel $LN4
	DD	imagerel $LN4+85
	DD	imagerel $unwind$?Active@CPullPin@@QEAAJXZ
pdata	ENDS
;	COMDAT xdata
xdata	SEGMENT
$unwind$?Active@CPullPin@@QEAAJXZ DD 021e01H
	DD	07006320aH
; Function compile flags: /Odtp /RTCsu
xdata	ENDS
;	COMDAT ?Active@CPullPin@@QEAAJXZ
_TEXT	SEGMENT
this$ = 48
?Active@CPullPin@@QEAAJXZ PROC				; CPullPin::Active, COMDAT
; Line 121
$LN4:
	mov	QWORD PTR [rsp+8], rcx
	push	rdi
	sub	rsp, 32					; 00000020H
	mov	rdi, rsp
	mov	ecx, 8
	mov	eax, -858993460				; ccccccccH
	rep stosd
	mov	rcx, QWORD PTR [rsp+48]
; Line 122
	mov	rcx, QWORD PTR this$[rsp]
	call	?ThreadExists@CAMThread@@QEBAHXZ	; CAMThread::ThreadExists
	test	eax, eax
	je	SHORT $LN1@Active
	mov	r8d, 122				; 0000007aH
	lea	rdx, OFFSET FLAT:$SG82369
	lea	rcx, OFFSET FLAT:$SG82370
	call	?DbgAssert@@YAXPEB_W0H@Z		; DbgAssert
$LN1@Active:
; Line 123
	mov	rcx, QWORD PTR this$[rsp]
	call	?StartThread@CPullPin@@AEAAJXZ		; CPullPin::StartThread
; Line 124
	add	rsp, 32					; 00000020H
	pop	rdi
	ret	0
?Active@CPullPin@@QEAAJXZ ENDP				; CPullPin::Active
_TEXT	ENDS
;	COMDAT pdata
; File c:\downloads\wpf mediakit - copy\src\filters\baseclasses\wxutil.h
pdata	SEGMENT
$pdata$?ThreadExists@CAMThread@@QEBAHXZ DD imagerel $LN5
	DD	imagerel $LN5+31
	DD	imagerel $unwind$?ThreadExists@CAMThread@@QEBAHXZ
pdata	ENDS
;	COMDAT xdata
xdata	SEGMENT
$unwind$?ThreadExists@CAMThread@@QEBAHXZ DD 010601H
	DD	07006H
; Function compile flags: /Odtp /RTCsu
xdata	ENDS
;	COMDAT ?ThreadExists@CAMThread@@QEBAHXZ
_TEXT	SEGMENT
this$ = 16
?ThreadExists@CAMThread@@QEBAHXZ PROC			; CAMThread::ThreadExists, COMDAT
; Line 205
$LN5:
	mov	QWORD PTR [rsp+8], rcx
	push	rdi
; Line 206
	mov	rax, QWORD PTR this$[rsp]
	cmp	QWORD PTR [rax+32], 0
	jne	SHORT $LN2@ThreadExis
; Line 207
	xor	eax, eax
	jmp	SHORT $LN3@ThreadExis
; Line 208
	jmp	SHORT $LN1@ThreadExis
$LN2@ThreadExis:
; Line 209
	mov	eax, 1
$LN1@ThreadExis:
$LN3@ThreadExis:
; Line 211
	pop	rdi
	ret	0
?ThreadExists@CAMThread@@QEBAHXZ ENDP			; CAMThread::ThreadExists
_TEXT	ENDS
PUBLIC	?Inactive@CPullPin@@QEAAJXZ			; CPullPin::Inactive
;	COMDAT pdata
; File c:\downloads\wpf mediakit - copy\src\filters\baseclasses\pullpin.cpp
pdata	SEGMENT
$pdata$?Inactive@CPullPin@@QEAAJXZ DD imagerel $LN3
	DD	imagerel $LN3+48
	DD	imagerel $unwind$?Inactive@CPullPin@@QEAAJXZ
pdata	ENDS
;	COMDAT xdata
xdata	SEGMENT
$unwind$?Inactive@CPullPin@@QEAAJXZ DD 021e01H
	DD	07006320aH
; Function compile flags: /Odtp /RTCsu
xdata	ENDS
;	COMDAT ?Inactive@CPullPin@@QEAAJXZ
_TEXT	SEGMENT
this$ = 48
?Inactive@CPullPin@@QEAAJXZ PROC			; CPullPin::Inactive, COMDAT
; Line 129
$LN3:
	mov	QWORD PTR [rsp+8], rcx
	push	rdi
	sub	rsp, 32					; 00000020H
	mov	rdi, rsp
	mov	ecx, 8
	mov	eax, -858993460				; ccccccccH
	rep stosd
	mov	rcx, QWORD PTR [rsp+48]
; Line 130
	mov	rcx, QWORD PTR this$[rsp]
	call	?StopThread@CPullPin@@AEAAJXZ		; CPullPin::StopThread
; Line 132
	xor	eax, eax
; Line 133
	add	rsp, 32					; 00000020H
	pop	rdi
	ret	0
?Inactive@CPullPin@@QEAAJXZ ENDP			; CPullPin::Inactive
_TEXT	ENDS
PUBLIC	?PauseThread@CPullPin@@AEAAJXZ			; CPullPin::PauseThread
PUBLIC	?Seek@CPullPin@@QEAAJ_J0@Z			; CPullPin::Seek
;	COMDAT pdata
pdata	SEGMENT
$pdata$?Seek@CPullPin@@QEAAJ_J0@Z DD imagerel $LN6
	DD	imagerel $LN6+246
	DD	imagerel $unwind$?Seek@CPullPin@@QEAAJ_J0@Z
pdata	ENDS
;	COMDAT pdata
pdata	SEGMENT
$pdata$?dtor$0@?0??Seek@CPullPin@@QEAAJ_J0@Z@4HA DD imagerel ?dtor$0@?0??Seek@CPullPin@@QEAAJ_J0@Z@4HA
	DD	imagerel ?dtor$0@?0??Seek@CPullPin@@QEAAJ_J0@Z@4HA+35
	DD	imagerel $unwind$?dtor$0@?0??Seek@CPullPin@@QEAAJ_J0@Z@4HA
pdata	ENDS
;	COMDAT xdata
xdata	SEGMENT
$ip2state$?Seek@CPullPin@@QEAAJ_J0@Z DD imagerel ?Seek@CPullPin@@QEAAJ_J0@Z
	DD	0ffffffffH
	DD	imagerel ?Seek@CPullPin@@QEAAJ_J0@Z+72
	DD	00H
	DD	imagerel ?Seek@CPullPin@@QEAAJ_J0@Z+207
	DD	0ffffffffH
xdata	ENDS
;	COMDAT xdata
xdata	SEGMENT
$unwind$?dtor$0@?0??Seek@CPullPin@@QEAAJ_J0@Z@4HA DD 031001H
	DD	0700c4210H
	DD	0500bH
xdata	ENDS
;	COMDAT xdata
xdata	SEGMENT
$unwind$?Seek@CPullPin@@QEAAJ_J0@Z DD 023111H
	DD	070109214H
	DD	imagerel __CxxFrameHandler3
	DD	imagerel $cppxdata$?Seek@CPullPin@@QEAAJ_J0@Z
xdata	ENDS
;	COMDAT xdata
xdata	SEGMENT
$stateUnwindMap$?Seek@CPullPin@@QEAAJ_J0@Z DD 0ffffffffH
	DD	imagerel ?dtor$0@?0??Seek@CPullPin@@QEAAJ_J0@Z@4HA
xdata	ENDS
;	COMDAT CONST
CONST	SEGMENT
?Seek@CPullPin@@QEAAJ_J0@Z$rtcName$0 DB 06cH		; CPullPin::Seek
	DB	06fH
	DB	063H
	DB	06bH
	DB	00H
	ORG $+11
?Seek@CPullPin@@QEAAJ_J0@Z$rtcVarDesc DD 028H		; CPullPin::Seek
	DD	08H
	DQ	FLAT:?Seek@CPullPin@@QEAAJ_J0@Z$rtcName$0
	ORG $+48
?Seek@CPullPin@@QEAAJ_J0@Z$rtcFrameData DD 01H		; CPullPin::Seek
	DD	00H
	DQ	FLAT:?Seek@CPullPin@@QEAAJ_J0@Z$rtcVarDesc
$cppxdata$?Seek@CPullPin@@QEAAJ_J0@Z DD 019930522H
	DD	01H
	DD	imagerel $stateUnwindMap$?Seek@CPullPin@@QEAAJ_J0@Z
	DD	00H
	DD	00H
	DD	03H
	DD	imagerel $ip2state$?Seek@CPullPin@@QEAAJ_J0@Z
	DD	040H
	DD	00H
	DD	01H
; Function compile flags: /Odtp /RTCsu
CONST	ENDS
;	COMDAT ?Seek@CPullPin@@QEAAJ_J0@Z
_TEXT	SEGMENT
lock$ = 40
AtStart$ = 52
hr$ = 56
$T83226 = 60
$T83232 = 64
this$ = 96
tStart$ = 104
tStop$ = 112
?Seek@CPullPin@@QEAAJ_J0@Z PROC				; CPullPin::Seek, COMDAT
; Line 137
$LN6:
	mov	QWORD PTR [rsp+24], r8
	mov	QWORD PTR [rsp+16], rdx
	mov	QWORD PTR [rsp+8], rcx
	push	rdi
	sub	rsp, 80					; 00000050H
	mov	rdi, rsp
	mov	ecx, 20
	mov	eax, -858993460				; ccccccccH
	rep stosd
	mov	rcx, QWORD PTR [rsp+96]
	mov	QWORD PTR $T83232[rsp], -2
; Line 138
	mov	rax, QWORD PTR this$[rsp]
	add	rax, 40					; 00000028H
	mov	rdx, rax
	lea	rcx, QWORD PTR lock$[rsp]
	call	??0CAutoLock@@QEAA@PEAVCCritSec@@@Z	; CAutoLock::CAutoLock
	npad	1
; Line 140
	mov	rax, QWORD PTR this$[rsp]
	mov	eax, DWORD PTR [rax+188]
	mov	DWORD PTR AtStart$[rsp], eax
; Line 142
	cmp	DWORD PTR AtStart$[rsp], 1
	jne	SHORT $LN2@Seek
; Line 143
	mov	rax, QWORD PTR this$[rsp]
	mov	rax, QWORD PTR [rax]
	mov	rcx, QWORD PTR this$[rsp]
	call	QWORD PTR [rax+48]
; Line 144
	mov	rcx, QWORD PTR this$[rsp]
	call	?PauseThread@CPullPin@@AEAAJXZ		; CPullPin::PauseThread
; Line 145
	mov	rax, QWORD PTR this$[rsp]
	mov	rax, QWORD PTR [rax]
	mov	rcx, QWORD PTR this$[rsp]
	call	QWORD PTR [rax+56]
$LN2@Seek:
; Line 148
	mov	rax, QWORD PTR this$[rsp]
	mov	rcx, QWORD PTR tStart$[rsp]
	mov	QWORD PTR [rax+160], rcx
; Line 149
	mov	rax, QWORD PTR this$[rsp]
	mov	rcx, QWORD PTR tStop$[rsp]
	mov	QWORD PTR [rax+168], rcx
; Line 151
	mov	DWORD PTR hr$[rsp], 0
; Line 152
	cmp	DWORD PTR AtStart$[rsp], 1
	jne	SHORT $LN1@Seek
; Line 153
	mov	rcx, QWORD PTR this$[rsp]
	call	?StartThread@CPullPin@@AEAAJXZ		; CPullPin::StartThread
	mov	DWORD PTR hr$[rsp], eax
$LN1@Seek:
; Line 156
	mov	eax, DWORD PTR hr$[rsp]
	mov	DWORD PTR $T83226[rsp], eax
	lea	rcx, QWORD PTR lock$[rsp]
	call	??1CAutoLock@@QEAA@XZ			; CAutoLock::~CAutoLock
	mov	eax, DWORD PTR $T83226[rsp]
; Line 157
	mov	edi, eax
	mov	rcx, rsp
	lea	rdx, OFFSET FLAT:?Seek@CPullPin@@QEAAJ_J0@Z$rtcFrameData
	call	_RTC_CheckStackVars
	mov	eax, edi
	add	rsp, 80					; 00000050H
	pop	rdi
	ret	0
?Seek@CPullPin@@QEAAJ_J0@Z ENDP				; CPullPin::Seek
; Function compile flags: /Odtp /RTCsu
_TEXT	ENDS
;	COMDAT text$x
text$x	SEGMENT
lock$ = 40
AtStart$ = 52
hr$ = 56
$T83226 = 60
$T83232 = 64
this$ = 96
tStart$ = 104
tStop$ = 112
?dtor$0@?0??Seek@CPullPin@@QEAAJ_J0@Z@4HA PROC		; `CPullPin::Seek'::`1'::dtor$0
	mov	QWORD PTR [rsp+8], rcx
	mov	QWORD PTR [rsp+16], rdx
	push	rbp
	push	rdi
	sub	rsp, 40					; 00000028H
	mov	rbp, rdx
	lea	rcx, QWORD PTR lock$[rbp]
	call	??1CAutoLock@@QEAA@XZ			; CAutoLock::~CAutoLock
	add	rsp, 40					; 00000028H
	pop	rdi
	pop	rbp
	ret	0
?dtor$0@?0??Seek@CPullPin@@QEAAJ_J0@Z@4HA ENDP		; `CPullPin::Seek'::`1'::dtor$0
text$x	ENDS
PUBLIC	?Duration@CPullPin@@QEAAJPEA_J@Z		; CPullPin::Duration
;	COMDAT pdata
pdata	SEGMENT
$pdata$?Duration@CPullPin@@QEAAJPEA_J@Z DD imagerel $LN3
	DD	imagerel $LN3+35
	DD	imagerel $unwind$?Duration@CPullPin@@QEAAJPEA_J@Z
pdata	ENDS
;	COMDAT xdata
xdata	SEGMENT
$unwind$?Duration@CPullPin@@QEAAJPEA_J@Z DD 010b01H
	DD	0700bH
; Function compile flags: /Odtp /RTCsu
xdata	ENDS
;	COMDAT ?Duration@CPullPin@@QEAAJPEA_J@Z
_TEXT	SEGMENT
this$ = 16
ptDuration$ = 24
?Duration@CPullPin@@QEAAJPEA_J@Z PROC			; CPullPin::Duration, COMDAT
; Line 161
$LN3:
	mov	QWORD PTR [rsp+16], rdx
	mov	QWORD PTR [rsp+8], rcx
	push	rdi
; Line 162
	mov	rax, QWORD PTR ptDuration$[rsp]
	mov	rcx, QWORD PTR this$[rsp]
	mov	rcx, QWORD PTR [rcx+176]
	mov	QWORD PTR [rax], rcx
; Line 163
	xor	eax, eax
; Line 164
	pop	rdi
	ret	0
?Duration@CPullPin@@QEAAJPEA_J@Z ENDP			; CPullPin::Duration
_TEXT	ENDS
EXTRN	?CallWorker@CAMThread@@QEAAKK@Z:PROC		; CAMThread::CallWorker
EXTRN	?Create@CAMThread@@QEAAHXZ:PROC			; CAMThread::Create
;	COMDAT pdata
pdata	SEGMENT
$pdata$?StartThread@CPullPin@@AEAAJXZ DD imagerel $LN9
	DD	imagerel $LN9+325
	DD	imagerel $unwind$?StartThread@CPullPin@@AEAAJXZ
pdata	ENDS
;	COMDAT pdata
pdata	SEGMENT
$pdata$?dtor$0@?0??StartThread@CPullPin@@AEAAJXZ@4HA DD imagerel ?dtor$0@?0??StartThread@CPullPin@@AEAAJXZ@4HA
	DD	imagerel ?dtor$0@?0??StartThread@CPullPin@@AEAAJXZ@4HA+35
	DD	imagerel $unwind$?dtor$0@?0??StartThread@CPullPin@@AEAAJXZ@4HA
pdata	ENDS
;	COMDAT xdata
xdata	SEGMENT
$ip2state$?StartThread@CPullPin@@AEAAJXZ DD imagerel ?StartThread@CPullPin@@AEAAJXZ
	DD	0ffffffffH
	DD	imagerel ?StartThread@CPullPin@@AEAAJXZ+62
	DD	00H
	DD	imagerel ?StartThread@CPullPin@@AEAAJXZ+100
	DD	0ffffffffH
	DD	imagerel ?StartThread@CPullPin@@AEAAJXZ+119
	DD	00H
	DD	imagerel ?StartThread@CPullPin@@AEAAJXZ+182
	DD	0ffffffffH
	DD	imagerel ?StartThread@CPullPin@@AEAAJXZ+198
	DD	00H
	DD	imagerel ?StartThread@CPullPin@@AEAAJXZ+220
	DD	0ffffffffH
	DD	imagerel ?StartThread@CPullPin@@AEAAJXZ+236
	DD	00H
	DD	imagerel ?StartThread@CPullPin@@AEAAJXZ+284
	DD	0ffffffffH
xdata	ENDS
;	COMDAT xdata
xdata	SEGMENT
$unwind$?dtor$0@?0??StartThread@CPullPin@@AEAAJXZ@4HA DD 031001H
	DD	0700c4210H
	DD	0500bH
xdata	ENDS
;	COMDAT xdata
xdata	SEGMENT
$unwind$?StartThread@CPullPin@@AEAAJXZ DD 022711H
	DD	07006920aH
	DD	imagerel __CxxFrameHandler3
	DD	imagerel $cppxdata$?StartThread@CPullPin@@AEAAJXZ
xdata	ENDS
;	COMDAT xdata
xdata	SEGMENT
$stateUnwindMap$?StartThread@CPullPin@@AEAAJXZ DD 0ffffffffH
	DD	imagerel ?dtor$0@?0??StartThread@CPullPin@@AEAAJXZ@4HA
xdata	ENDS
;	COMDAT CONST
CONST	SEGMENT
?StartThread@CPullPin@@AEAAJXZ$rtcName$0 DB 06cH	; CPullPin::StartThread
	DB	06fH
	DB	063H
	DB	06bH
	DB	00H
	ORG $+11
?StartThread@CPullPin@@AEAAJXZ$rtcVarDesc DD 028H	; CPullPin::StartThread
	DD	08H
	DQ	FLAT:?StartThread@CPullPin@@AEAAJXZ$rtcName$0
	ORG $+48
?StartThread@CPullPin@@AEAAJXZ$rtcFrameData DD 01H	; CPullPin::StartThread
	DD	00H
	DQ	FLAT:?StartThread@CPullPin@@AEAAJXZ$rtcVarDesc
$cppxdata$?StartThread@CPullPin@@AEAAJXZ DD 019930522H
	DD	01H
	DD	imagerel $stateUnwindMap$?StartThread@CPullPin@@AEAAJXZ
	DD	00H
	DD	00H
	DD	09H
	DD	imagerel $ip2state$?StartThread@CPullPin@@AEAAJXZ
	DD	048H
	DD	00H
	DD	01H
; Function compile flags: /Odtp /RTCsu
CONST	ENDS
;	COMDAT ?StartThread@CPullPin@@AEAAJXZ
_TEXT	SEGMENT
lock$ = 40
hr$ = 52
$T83260 = 56
$T83261 = 60
$T83262 = 64
$T83263 = 68
$T83269 = 72
this$ = 96
?StartThread@CPullPin@@AEAAJXZ PROC			; CPullPin::StartThread, COMDAT
; Line 169
$LN9:
	mov	QWORD PTR [rsp+8], rcx
	push	rdi
	sub	rsp, 80					; 00000050H
	mov	rdi, rsp
	mov	ecx, 20
	mov	eax, -858993460				; ccccccccH
	rep stosd
	mov	rcx, QWORD PTR [rsp+96]
	mov	QWORD PTR $T83269[rsp], -2
; Line 170
	mov	rax, QWORD PTR this$[rsp]
	add	rax, 40					; 00000028H
	mov	rdx, rax
	lea	rcx, QWORD PTR lock$[rsp]
	call	??0CAutoLock@@QEAA@PEAVCCritSec@@@Z	; CAutoLock::CAutoLock
	npad	1
; Line 172
	mov	rax, QWORD PTR this$[rsp]
	cmp	QWORD PTR [rax+192], 0
	je	SHORT $LN4@StartThrea
	mov	rax, QWORD PTR this$[rsp]
	cmp	QWORD PTR [rax+152], 0
	jne	SHORT $LN5@StartThrea
$LN4@StartThrea:
; Line 173
	mov	DWORD PTR $T83260[rsp], -2147418113	; ffffffff8000ffffH
	lea	rcx, QWORD PTR lock$[rsp]
	call	??1CAutoLock@@QEAA@XZ			; CAutoLock::~CAutoLock
	mov	eax, DWORD PTR $T83260[rsp]
	jmp	$LN6@StartThrea
$LN5@StartThrea:
; Line 177
	mov	rcx, QWORD PTR this$[rsp]
	call	?ThreadExists@CAMThread@@QEBAHXZ	; CAMThread::ThreadExists
	test	eax, eax
	jne	SHORT $LN3@StartThrea
; Line 180
	mov	rax, QWORD PTR this$[rsp]
	mov	rax, QWORD PTR [rax+192]
	mov	rcx, QWORD PTR this$[rsp]
	mov	rcx, QWORD PTR [rcx+192]
	mov	rax, QWORD PTR [rax]
	call	QWORD PTR [rax+40]
	mov	DWORD PTR hr$[rsp], eax
; Line 181
	cmp	DWORD PTR hr$[rsp], 0
	jge	SHORT $LN2@StartThrea
; Line 182
	mov	eax, DWORD PTR hr$[rsp]
	mov	DWORD PTR $T83261[rsp], eax
	lea	rcx, QWORD PTR lock$[rsp]
	call	??1CAutoLock@@QEAA@XZ			; CAutoLock::~CAutoLock
	mov	eax, DWORD PTR $T83261[rsp]
	jmp	SHORT $LN6@StartThrea
$LN2@StartThrea:
; Line 186
	mov	rcx, QWORD PTR this$[rsp]
	call	?Create@CAMThread@@QEAAHXZ		; CAMThread::Create
	test	eax, eax
	jne	SHORT $LN3@StartThrea
; Line 187
	mov	DWORD PTR $T83262[rsp], -2147467259	; ffffffff80004005H
	lea	rcx, QWORD PTR lock$[rsp]
	call	??1CAutoLock@@QEAA@XZ			; CAutoLock::~CAutoLock
	mov	eax, DWORD PTR $T83262[rsp]
	jmp	SHORT $LN6@StartThrea
$LN3@StartThrea:
; Line 191
	mov	rax, QWORD PTR this$[rsp]
	mov	DWORD PTR [rax+188], 1
; Line 192
	mov	rax, QWORD PTR this$[rsp]
	mov	edx, DWORD PTR [rax+188]
	mov	rcx, QWORD PTR this$[rsp]
	call	?CallWorker@CAMThread@@QEAAKK@Z		; CAMThread::CallWorker
	mov	DWORD PTR hr$[rsp], eax
; Line 193
	mov	eax, DWORD PTR hr$[rsp]
	mov	DWORD PTR $T83263[rsp], eax
	lea	rcx, QWORD PTR lock$[rsp]
	call	??1CAutoLock@@QEAA@XZ			; CAutoLock::~CAutoLock
	mov	eax, DWORD PTR $T83263[rsp]
$LN6@StartThrea:
; Line 194
	mov	rdi, rax
	mov	rcx, rsp
	lea	rdx, OFFSET FLAT:?StartThread@CPullPin@@AEAAJXZ$rtcFrameData
	call	_RTC_CheckStackVars
	mov	rax, rdi
	add	rsp, 80					; 00000050H
	pop	rdi
	ret	0
?StartThread@CPullPin@@AEAAJXZ ENDP			; CPullPin::StartThread
; Function compile flags: /Odtp /RTCsu
_TEXT	ENDS
;	COMDAT text$x
text$x	SEGMENT
lock$ = 40
hr$ = 52
$T83260 = 56
$T83261 = 60
$T83262 = 64
$T83263 = 68
$T83269 = 72
this$ = 96
?dtor$0@?0??StartThread@CPullPin@@AEAAJXZ@4HA PROC	; `CPullPin::StartThread'::`1'::dtor$0
	mov	QWORD PTR [rsp+8], rcx
	mov	QWORD PTR [rsp+16], rdx
	push	rbp
	push	rdi
	sub	rsp, 40					; 00000028H
	mov	rbp, rdx
	lea	rcx, QWORD PTR lock$[rbp]
	call	??1CAutoLock@@QEAA@XZ			; CAutoLock::~CAutoLock
	add	rsp, 40					; 00000028H
	pop	rdi
	pop	rbp
	ret	0
?dtor$0@?0??StartThread@CPullPin@@AEAAJXZ@4HA ENDP	; `CPullPin::StartThread'::`1'::dtor$0
text$x	ENDS
;	COMDAT pdata
pdata	SEGMENT
$pdata$?PauseThread@CPullPin@@AEAAJXZ DD imagerel $LN6
	DD	imagerel $LN6+278
	DD	imagerel $unwind$?PauseThread@CPullPin@@AEAAJXZ
pdata	ENDS
;	COMDAT pdata
pdata	SEGMENT
$pdata$?dtor$0@?0??PauseThread@CPullPin@@AEAAJXZ@4HA DD imagerel ?dtor$0@?0??PauseThread@CPullPin@@AEAAJXZ@4HA
	DD	imagerel ?dtor$0@?0??PauseThread@CPullPin@@AEAAJXZ@4HA+35
	DD	imagerel $unwind$?dtor$0@?0??PauseThread@CPullPin@@AEAAJXZ@4HA
pdata	ENDS
;	COMDAT xdata
xdata	SEGMENT
$ip2state$?PauseThread@CPullPin@@AEAAJXZ DD imagerel ?PauseThread@CPullPin@@AEAAJXZ
	DD	0ffffffffH
	DD	imagerel ?PauseThread@CPullPin@@AEAAJXZ+62
	DD	00H
	DD	imagerel ?PauseThread@CPullPin@@AEAAJXZ+84
	DD	0ffffffffH
	DD	imagerel ?PauseThread@CPullPin@@AEAAJXZ+103
	DD	00H
	DD	imagerel ?PauseThread@CPullPin@@AEAAJXZ+152
	DD	0ffffffffH
	DD	imagerel ?PauseThread@CPullPin@@AEAAJXZ+168
	DD	00H
	DD	imagerel ?PauseThread@CPullPin@@AEAAJXZ+237
	DD	0ffffffffH
xdata	ENDS
;	COMDAT xdata
xdata	SEGMENT
$unwind$?dtor$0@?0??PauseThread@CPullPin@@AEAAJXZ@4HA DD 031001H
	DD	0700c4210H
	DD	0500bH
xdata	ENDS
;	COMDAT xdata
xdata	SEGMENT
$unwind$?PauseThread@CPullPin@@AEAAJXZ DD 022711H
	DD	07006920aH
	DD	imagerel __CxxFrameHandler3
	DD	imagerel $cppxdata$?PauseThread@CPullPin@@AEAAJXZ
xdata	ENDS
;	COMDAT xdata
xdata	SEGMENT
$stateUnwindMap$?PauseThread@CPullPin@@AEAAJXZ DD 0ffffffffH
	DD	imagerel ?dtor$0@?0??PauseThread@CPullPin@@AEAAJXZ@4HA
xdata	ENDS
;	COMDAT CONST
CONST	SEGMENT
?PauseThread@CPullPin@@AEAAJXZ$rtcName$0 DB 06cH	; CPullPin::PauseThread
	DB	06fH
	DB	063H
	DB	06bH
	DB	00H
	ORG $+11
?PauseThread@CPullPin@@AEAAJXZ$rtcVarDesc DD 028H	; CPullPin::PauseThread
	DD	08H
	DQ	FLAT:?PauseThread@CPullPin@@AEAAJXZ$rtcName$0
	ORG $+48
?PauseThread@CPullPin@@AEAAJXZ$rtcFrameData DD 01H	; CPullPin::PauseThread
	DD	00H
	DQ	FLAT:?PauseThread@CPullPin@@AEAAJXZ$rtcVarDesc
$cppxdata$?PauseThread@CPullPin@@AEAAJXZ DD 019930522H
	DD	01H
	DD	imagerel $stateUnwindMap$?PauseThread@CPullPin@@AEAAJXZ
	DD	00H
	DD	00H
	DD	07H
	DD	imagerel $ip2state$?PauseThread@CPullPin@@AEAAJXZ
	DD	048H
	DD	00H
	DD	01H
; Function compile flags: /Odtp /RTCsu
CONST	ENDS
;	COMDAT ?PauseThread@CPullPin@@AEAAJXZ
_TEXT	SEGMENT
lock$ = 40
hr$ = 52
$T83290 = 56
$T83291 = 60
$T83292 = 64
$T83298 = 72
this$ = 96
?PauseThread@CPullPin@@AEAAJXZ PROC			; CPullPin::PauseThread, COMDAT
; Line 198
$LN6:
	mov	QWORD PTR [rsp+8], rcx
	push	rdi
	sub	rsp, 80					; 00000050H
	mov	rdi, rsp
	mov	ecx, 20
	mov	eax, -858993460				; ccccccccH
	rep stosd
	mov	rcx, QWORD PTR [rsp+96]
	mov	QWORD PTR $T83298[rsp], -2
; Line 199
	mov	rax, QWORD PTR this$[rsp]
	add	rax, 40					; 00000028H
	mov	rdx, rax
	lea	rcx, QWORD PTR lock$[rsp]
	call	??0CAutoLock@@QEAA@PEAVCCritSec@@@Z	; CAutoLock::CAutoLock
	npad	1
; Line 201
	mov	rcx, QWORD PTR this$[rsp]
	call	?ThreadExists@CAMThread@@QEBAHXZ	; CAMThread::ThreadExists
	test	eax, eax
	jne	SHORT $LN2@PauseThrea
; Line 202
	mov	DWORD PTR $T83290[rsp], -2147418113	; ffffffff8000ffffH
	lea	rcx, QWORD PTR lock$[rsp]
	call	??1CAutoLock@@QEAA@XZ			; CAutoLock::~CAutoLock
	mov	eax, DWORD PTR $T83290[rsp]
	jmp	$LN3@PauseThrea
$LN2@PauseThrea:
; Line 207
	mov	rax, QWORD PTR this$[rsp]
	mov	rax, QWORD PTR [rax+152]
	mov	rcx, QWORD PTR this$[rsp]
	mov	rcx, QWORD PTR [rcx+152]
	mov	rax, QWORD PTR [rax]
	call	QWORD PTR [rax+72]
	mov	DWORD PTR hr$[rsp], eax
; Line 208
	cmp	DWORD PTR hr$[rsp], 0
	jge	SHORT $LN1@PauseThrea
; Line 209
	mov	eax, DWORD PTR hr$[rsp]
	mov	DWORD PTR $T83291[rsp], eax
	lea	rcx, QWORD PTR lock$[rsp]
	call	??1CAutoLock@@QEAA@XZ			; CAutoLock::~CAutoLock
	mov	eax, DWORD PTR $T83291[rsp]
	jmp	SHORT $LN3@PauseThrea
$LN1@PauseThrea:
; Line 212
	mov	rax, QWORD PTR this$[rsp]
	mov	DWORD PTR [rax+188], 0
; Line 213
	xor	edx, edx
	mov	rcx, QWORD PTR this$[rsp]
	call	?CallWorker@CAMThread@@QEAAKK@Z		; CAMThread::CallWorker
	mov	DWORD PTR hr$[rsp], eax
; Line 215
	mov	rax, QWORD PTR this$[rsp]
	mov	rax, QWORD PTR [rax+152]
	mov	rcx, QWORD PTR this$[rsp]
	mov	rcx, QWORD PTR [rcx+152]
	mov	rax, QWORD PTR [rax]
	call	QWORD PTR [rax+80]
; Line 216
	mov	eax, DWORD PTR hr$[rsp]
	mov	DWORD PTR $T83292[rsp], eax
	lea	rcx, QWORD PTR lock$[rsp]
	call	??1CAutoLock@@QEAA@XZ			; CAutoLock::~CAutoLock
	mov	eax, DWORD PTR $T83292[rsp]
$LN3@PauseThrea:
; Line 217
	mov	rdi, rax
	mov	rcx, rsp
	lea	rdx, OFFSET FLAT:?PauseThread@CPullPin@@AEAAJXZ$rtcFrameData
	call	_RTC_CheckStackVars
	mov	rax, rdi
	add	rsp, 80					; 00000050H
	pop	rdi
	ret	0
?PauseThread@CPullPin@@AEAAJXZ ENDP			; CPullPin::PauseThread
; Function compile flags: /Odtp /RTCsu
_TEXT	ENDS
;	COMDAT text$x
text$x	SEGMENT
lock$ = 40
hr$ = 52
$T83290 = 56
$T83291 = 60
$T83292 = 64
$T83298 = 72
this$ = 96
?dtor$0@?0??PauseThread@CPullPin@@AEAAJXZ@4HA PROC	; `CPullPin::PauseThread'::`1'::dtor$0
	mov	QWORD PTR [rsp+8], rcx
	mov	QWORD PTR [rsp+16], rdx
	push	rbp
	push	rdi
	sub	rsp, 40					; 00000028H
	mov	rbp, rdx
	lea	rcx, QWORD PTR lock$[rbp]
	call	??1CAutoLock@@QEAA@XZ			; CAutoLock::~CAutoLock
	add	rsp, 40					; 00000028H
	pop	rdi
	pop	rbp
	ret	0
?dtor$0@?0??PauseThread@CPullPin@@AEAAJXZ@4HA ENDP	; `CPullPin::PauseThread'::`1'::dtor$0
text$x	ENDS
PUBLIC	?Close@CAMThread@@QEAAXXZ			; CAMThread::Close
;	COMDAT pdata
pdata	SEGMENT
$pdata$?StopThread@CPullPin@@AEAAJXZ DD imagerel $LN7
	DD	imagerel $LN7+339
	DD	imagerel $unwind$?StopThread@CPullPin@@AEAAJXZ
pdata	ENDS
;	COMDAT pdata
pdata	SEGMENT
$pdata$?dtor$0@?0??StopThread@CPullPin@@AEAAJXZ@4HA DD imagerel ?dtor$0@?0??StopThread@CPullPin@@AEAAJXZ@4HA
	DD	imagerel ?dtor$0@?0??StopThread@CPullPin@@AEAAJXZ@4HA+35
	DD	imagerel $unwind$?dtor$0@?0??StopThread@CPullPin@@AEAAJXZ@4HA
pdata	ENDS
;	COMDAT xdata
xdata	SEGMENT
$ip2state$?StopThread@CPullPin@@AEAAJXZ DD imagerel ?StopThread@CPullPin@@AEAAJXZ
	DD	0ffffffffH
	DD	imagerel ?StopThread@CPullPin@@AEAAJXZ+62
	DD	00H
	DD	imagerel ?StopThread@CPullPin@@AEAAJXZ+84
	DD	0ffffffffH
	DD	imagerel ?StopThread@CPullPin@@AEAAJXZ+103
	DD	00H
	DD	imagerel ?StopThread@CPullPin@@AEAAJXZ+152
	DD	0ffffffffH
	DD	imagerel ?StopThread@CPullPin@@AEAAJXZ+171
	DD	00H
	DD	imagerel ?StopThread@CPullPin@@AEAAJXZ+298
	DD	0ffffffffH
xdata	ENDS
;	COMDAT xdata
xdata	SEGMENT
$unwind$?dtor$0@?0??StopThread@CPullPin@@AEAAJXZ@4HA DD 031001H
	DD	0700c4210H
	DD	0500bH
xdata	ENDS
;	COMDAT xdata
xdata	SEGMENT
$unwind$?StopThread@CPullPin@@AEAAJXZ DD 022711H
	DD	07006920aH
	DD	imagerel __CxxFrameHandler3
	DD	imagerel $cppxdata$?StopThread@CPullPin@@AEAAJXZ
xdata	ENDS
;	COMDAT xdata
xdata	SEGMENT
$stateUnwindMap$?StopThread@CPullPin@@AEAAJXZ DD 0ffffffffH
	DD	imagerel ?dtor$0@?0??StopThread@CPullPin@@AEAAJXZ@4HA
xdata	ENDS
;	COMDAT CONST
CONST	SEGMENT
?StopThread@CPullPin@@AEAAJXZ$rtcName$0 DB 06cH		; CPullPin::StopThread
	DB	06fH
	DB	063H
	DB	06bH
	DB	00H
	ORG $+11
?StopThread@CPullPin@@AEAAJXZ$rtcVarDesc DD 028H	; CPullPin::StopThread
	DD	08H
	DQ	FLAT:?StopThread@CPullPin@@AEAAJXZ$rtcName$0
	ORG $+48
?StopThread@CPullPin@@AEAAJXZ$rtcFrameData DD 01H	; CPullPin::StopThread
	DD	00H
	DQ	FLAT:?StopThread@CPullPin@@AEAAJXZ$rtcVarDesc
$cppxdata$?StopThread@CPullPin@@AEAAJXZ DD 019930522H
	DD	01H
	DD	imagerel $stateUnwindMap$?StopThread@CPullPin@@AEAAJXZ
	DD	00H
	DD	00H
	DD	07H
	DD	imagerel $ip2state$?StopThread@CPullPin@@AEAAJXZ
	DD	048H
	DD	00H
	DD	01H
; Function compile flags: /Odtp /RTCsu
CONST	ENDS
;	COMDAT ?StopThread@CPullPin@@AEAAJXZ
_TEXT	SEGMENT
lock$ = 40
hr$ = 52
$T83319 = 56
$T83320 = 60
$T83321 = 64
$T83327 = 72
this$ = 96
?StopThread@CPullPin@@AEAAJXZ PROC			; CPullPin::StopThread, COMDAT
; Line 221
$LN7:
	mov	QWORD PTR [rsp+8], rcx
	push	rdi
	sub	rsp, 80					; 00000050H
	mov	rdi, rsp
	mov	ecx, 20
	mov	eax, -858993460				; ccccccccH
	rep stosd
	mov	rcx, QWORD PTR [rsp+96]
	mov	QWORD PTR $T83327[rsp], -2
; Line 222
	mov	rax, QWORD PTR this$[rsp]
	add	rax, 40					; 00000028H
	mov	rdx, rax
	lea	rcx, QWORD PTR lock$[rsp]
	call	??0CAutoLock@@QEAA@PEAVCCritSec@@@Z	; CAutoLock::CAutoLock
	npad	1
; Line 224
	mov	rcx, QWORD PTR this$[rsp]
	call	?ThreadExists@CAMThread@@QEBAHXZ	; CAMThread::ThreadExists
	test	eax, eax
	jne	SHORT $LN3@StopThread
; Line 225
	mov	DWORD PTR $T83319[rsp], 1
	lea	rcx, QWORD PTR lock$[rsp]
	call	??1CAutoLock@@QEAA@XZ			; CAutoLock::~CAutoLock
	mov	eax, DWORD PTR $T83319[rsp]
	jmp	$LN4@StopThread
$LN3@StopThread:
; Line 230
	mov	rax, QWORD PTR this$[rsp]
	mov	rax, QWORD PTR [rax+152]
	mov	rcx, QWORD PTR this$[rsp]
	mov	rcx, QWORD PTR [rcx+152]
	mov	rax, QWORD PTR [rax]
	call	QWORD PTR [rax+72]
	mov	DWORD PTR hr$[rsp], eax
; Line 231
	cmp	DWORD PTR hr$[rsp], 0
	jge	SHORT $LN2@StopThread
; Line 232
	mov	eax, DWORD PTR hr$[rsp]
	mov	DWORD PTR $T83320[rsp], eax
	lea	rcx, QWORD PTR lock$[rsp]
	call	??1CAutoLock@@QEAA@XZ			; CAutoLock::~CAutoLock
	mov	eax, DWORD PTR $T83320[rsp]
	jmp	$LN4@StopThread
$LN2@StopThread:
; Line 235
	mov	rax, QWORD PTR this$[rsp]
	mov	DWORD PTR [rax+188], 2
; Line 236
	mov	edx, 2
	mov	rcx, QWORD PTR this$[rsp]
	call	?CallWorker@CAMThread@@QEAAKK@Z		; CAMThread::CallWorker
	mov	DWORD PTR hr$[rsp], eax
; Line 238
	mov	rax, QWORD PTR this$[rsp]
	mov	rax, QWORD PTR [rax+152]
	mov	rcx, QWORD PTR this$[rsp]
	mov	rcx, QWORD PTR [rcx+152]
	mov	rax, QWORD PTR [rax]
	call	QWORD PTR [rax+80]
; Line 241
	mov	rcx, QWORD PTR this$[rsp]
	call	?Close@CAMThread@@QEAAXXZ		; CAMThread::Close
; Line 244
	mov	rax, QWORD PTR this$[rsp]
	cmp	QWORD PTR [rax+192], 0
	je	SHORT $LN1@StopThread
; Line 245
	mov	rax, QWORD PTR this$[rsp]
	mov	rax, QWORD PTR [rax+192]
	mov	rcx, QWORD PTR this$[rsp]
	mov	rcx, QWORD PTR [rcx+192]
	mov	rax, QWORD PTR [rax]
	call	QWORD PTR [rax+48]
$LN1@StopThread:
; Line 248
	mov	DWORD PTR $T83321[rsp], 0
	lea	rcx, QWORD PTR lock$[rsp]
	call	??1CAutoLock@@QEAA@XZ			; CAutoLock::~CAutoLock
	mov	eax, DWORD PTR $T83321[rsp]
$LN4@StopThread:
; Line 249
	mov	rdi, rax
	mov	rcx, rsp
	lea	rdx, OFFSET FLAT:?StopThread@CPullPin@@AEAAJXZ$rtcFrameData
	call	_RTC_CheckStackVars
	mov	rax, rdi
	add	rsp, 80					; 00000050H
	pop	rdi
	ret	0
?StopThread@CPullPin@@AEAAJXZ ENDP			; CPullPin::StopThread
; Function compile flags: /Odtp /RTCsu
_TEXT	ENDS
;	COMDAT text$x
text$x	SEGMENT
lock$ = 40
hr$ = 52
$T83319 = 56
$T83320 = 60
$T83321 = 64
$T83327 = 72
this$ = 96
?dtor$0@?0??StopThread@CPullPin@@AEAAJXZ@4HA PROC	; `CPullPin::StopThread'::`1'::dtor$0
	mov	QWORD PTR [rsp+8], rcx
	mov	QWORD PTR [rsp+16], rdx
	push	rbp
	push	rdi
	sub	rsp, 40					; 00000028H
	mov	rbp, rdx
	lea	rcx, QWORD PTR lock$[rbp]
	call	??1CAutoLock@@QEAA@XZ			; CAutoLock::~CAutoLock
	add	rsp, 40					; 00000028H
	pop	rdi
	pop	rbp
	ret	0
?dtor$0@?0??StopThread@CPullPin@@AEAAJXZ@4HA ENDP	; `CPullPin::StopThread'::`1'::dtor$0
text$x	ENDS
EXTRN	__imp_CloseHandle:PROC
EXTRN	__imp_WaitForSingleObject:PROC
;	COMDAT pdata
; File c:\downloads\wpf mediakit - copy\src\filters\baseclasses\wxutil.h
pdata	SEGMENT
$pdata$?Close@CAMThread@@QEAAXXZ DD imagerel $LN4
	DD	imagerel $LN4+93
	DD	imagerel $unwind$?Close@CAMThread@@QEAAXXZ
pdata	ENDS
;	COMDAT xdata
xdata	SEGMENT
$unwind$?Close@CAMThread@@QEAAXXZ DD 021e01H
	DD	07006520aH
; Function compile flags: /Odtp /RTCsu
xdata	ENDS
;	COMDAT ?Close@CAMThread@@QEAAXXZ
_TEXT	SEGMENT
hThread$ = 32
this$ = 64
?Close@CAMThread@@QEAAXXZ PROC				; CAMThread::Close, COMDAT
; Line 194
$LN4:
	mov	QWORD PTR [rsp+8], rcx
	push	rdi
	sub	rsp, 48					; 00000030H
	mov	rdi, rsp
	mov	ecx, 12
	mov	eax, -858993460				; ccccccccH
	rep stosd
	mov	rcx, QWORD PTR [rsp+64]
; Line 195
	mov	rax, QWORD PTR this$[rsp]
	add	rax, 32					; 00000020H
	xor	ecx, ecx
	xchg	QWORD PTR [rax], rcx
	mov	rax, rcx
	mov	QWORD PTR hThread$[rsp], rax
; Line 196
	cmp	QWORD PTR hThread$[rsp], 0
	je	SHORT $LN1@Close
; Line 197
	mov	edx, -1					; ffffffffH
	mov	rcx, QWORD PTR hThread$[rsp]
	call	QWORD PTR __imp_WaitForSingleObject
; Line 198
	mov	rcx, QWORD PTR hThread$[rsp]
	call	QWORD PTR __imp_CloseHandle
$LN1@Close:
; Line 200
	add	rsp, 48					; 00000030H
	pop	rdi
	ret	0
?Close@CAMThread@@QEAAXXZ ENDP				; CAMThread::Close
_TEXT	ENDS
PUBLIC	?CleanupCancelled@CPullPin@@AEAAXXZ		; CPullPin::CleanupCancelled
PUBLIC	?Process@CPullPin@@AEAAXXZ			; CPullPin::Process
EXTRN	?Reply@CAMThread@@QEAAXK@Z:PROC			; CAMThread::Reply
EXTRN	?GetRequest@CAMThread@@QEAAKXZ:PROC		; CAMThread::GetRequest
;	COMDAT pdata
; File c:\downloads\wpf mediakit - copy\src\filters\baseclasses\pullpin.cpp
pdata	SEGMENT
$pdata$?ThreadProc@CPullPin@@EEAAKXZ DD imagerel $LN10
	DD	imagerel $LN10+219
	DD	imagerel $unwind$?ThreadProc@CPullPin@@EEAAKXZ
pdata	ENDS
;	COMDAT xdata
xdata	SEGMENT
$unwind$?ThreadProc@CPullPin@@EEAAKXZ DD 021e01H
	DD	07006520aH
; Function compile flags: /Odtp /RTCsu
xdata	ENDS
;	COMDAT ?ThreadProc@CPullPin@@EEAAKXZ
_TEXT	SEGMENT
cmd$82444 = 32
tv71 = 36
this$ = 64
?ThreadProc@CPullPin@@EEAAKXZ PROC			; CPullPin::ThreadProc, COMDAT
; Line 254
$LN10:
	mov	QWORD PTR [rsp+8], rcx
	push	rdi
	sub	rsp, 48					; 00000030H
	mov	rdi, rsp
	mov	ecx, 12
	mov	eax, -858993460				; ccccccccH
	rep stosd
	mov	rcx, QWORD PTR [rsp+64]
$LN7@ThreadProc:
; Line 255
	xor	eax, eax
	cmp	eax, 1
	je	$LN6@ThreadProc
; Line 256
	mov	rcx, QWORD PTR this$[rsp]
	call	?GetRequest@CAMThread@@QEAAKXZ		; CAMThread::GetRequest
	mov	DWORD PTR cmd$82444[rsp], eax
; Line 257
	mov	eax, DWORD PTR cmd$82444[rsp]
	mov	DWORD PTR tv71[rsp], eax
	cmp	DWORD PTR tv71[rsp], 0
	je	SHORT $LN2@ThreadProc
	cmp	DWORD PTR tv71[rsp], 1
	je	SHORT $LN1@ThreadProc
	cmp	DWORD PTR tv71[rsp], 2
	je	SHORT $LN3@ThreadProc
	jmp	SHORT $LN4@ThreadProc
$LN3@ThreadProc:
; Line 259
	xor	edx, edx
	mov	rcx, QWORD PTR this$[rsp]
	call	?Reply@CAMThread@@QEAAXK@Z		; CAMThread::Reply
; Line 260
	xor	eax, eax
	jmp	SHORT $LN8@ThreadProc
$LN2@ThreadProc:
; Line 264
	xor	edx, edx
	mov	rcx, QWORD PTR this$[rsp]
	call	?Reply@CAMThread@@QEAAXK@Z		; CAMThread::Reply
; Line 265
	jmp	SHORT $LN4@ThreadProc
$LN1@ThreadProc:
; Line 268
	xor	edx, edx
	mov	rcx, QWORD PTR this$[rsp]
	call	?Reply@CAMThread@@QEAAXK@Z		; CAMThread::Reply
; Line 269
	mov	rcx, QWORD PTR this$[rsp]
	call	?Process@CPullPin@@AEAAXXZ		; CPullPin::Process
$LN4@ThreadProc:
; Line 279
	mov	rax, QWORD PTR this$[rsp]
	mov	rax, QWORD PTR [rax+152]
	mov	rcx, QWORD PTR this$[rsp]
	mov	rcx, QWORD PTR [rcx+152]
	mov	rax, QWORD PTR [rax]
	call	QWORD PTR [rax+72]
; Line 280
	mov	rcx, QWORD PTR this$[rsp]
	call	?CleanupCancelled@CPullPin@@AEAAXXZ	; CPullPin::CleanupCancelled
; Line 281
	mov	rax, QWORD PTR this$[rsp]
	mov	rax, QWORD PTR [rax+152]
	mov	rcx, QWORD PTR this$[rsp]
	mov	rcx, QWORD PTR [rcx+152]
	mov	rax, QWORD PTR [rax]
	call	QWORD PTR [rax+80]
; Line 282
	jmp	$LN7@ThreadProc
$LN6@ThreadProc:
$LN8@ThreadProc:
; Line 283
	add	rsp, 48					; 00000030H
	pop	rdi
	ret	0
?ThreadProc@CPullPin@@EEAAKXZ ENDP			; CPullPin::ThreadProc
_TEXT	ENDS
PUBLIC	?QueueSample@CPullPin@@AEAAJAEA_J_JH@Z		; CPullPin::QueueSample
;	COMDAT pdata
pdata	SEGMENT
$pdata$?QueueSample@CPullPin@@AEAAJAEA_J_JH@Z DD imagerel $LN6
	DD	imagerel $LN6+404
	DD	imagerel $unwind$?QueueSample@CPullPin@@AEAAJAEA_J_JH@Z
pdata	ENDS
;	COMDAT xdata
xdata	SEGMENT
$unwind$?QueueSample@CPullPin@@AEAAJAEA_J_JH@Z DD 023001H
	DD	07015d219H
xdata	ENDS
;	COMDAT CONST
CONST	SEGMENT
?QueueSample@CPullPin@@AEAAJAEA_J_JH@Z$rtcName$0 DB 070H ; CPullPin::QueueSample
	DB	053H
	DB	061H
	DB	06dH
	DB	070H
	DB	06cH
	DB	065H
	DB	00H
?QueueSample@CPullPin@@AEAAJAEA_J_JH@Z$rtcName$1 DB 074H ; CPullPin::QueueSample
	DB	053H
	DB	074H
	DB	06fH
	DB	070H
	DB	054H
	DB	068H
	DB	069H
	DB	073H
	DB	00H
	ORG $+14
?QueueSample@CPullPin@@AEAAJAEA_J_JH@Z$rtcVarDesc DD 058H ; CPullPin::QueueSample
	DD	08H
	DQ	FLAT:?QueueSample@CPullPin@@AEAAJAEA_J_JH@Z$rtcName$1
	DD	038H
	DD	08H
	DQ	FLAT:?QueueSample@CPullPin@@AEAAJAEA_J_JH@Z$rtcName$0
	ORG $+96
?QueueSample@CPullPin@@AEAAJAEA_J_JH@Z$rtcFrameData DD 02H ; CPullPin::QueueSample
	DD	00H
	DQ	FLAT:?QueueSample@CPullPin@@AEAAJAEA_J_JH@Z$rtcVarDesc
; Function compile flags: /Odtp /RTCsu
CONST	ENDS
;	COMDAT ?QueueSample@CPullPin@@AEAAJAEA_J_JH@Z
_TEXT	SEGMENT
pSample$ = 56
hr$ = 68
tStopThis$ = 88
this$ = 128
tCurrent$ = 136
tAlignStop$ = 144
bDiscontinuity$ = 152
?QueueSample@CPullPin@@AEAAJAEA_J_JH@Z PROC		; CPullPin::QueueSample, COMDAT
; Line 291
$LN6:
	mov	DWORD PTR [rsp+32], r9d
	mov	QWORD PTR [rsp+24], r8
	mov	QWORD PTR [rsp+16], rdx
	mov	QWORD PTR [rsp+8], rcx
	push	rdi
	sub	rsp, 112				; 00000070H
	mov	rdi, rsp
	mov	ecx, 28
	mov	eax, -858993460				; ccccccccH
	rep stosd
	mov	rcx, QWORD PTR [rsp+128]
; Line 294
	mov	rax, QWORD PTR this$[rsp]
	mov	rax, QWORD PTR [rax+192]
	mov	rcx, QWORD PTR this$[rsp]
	mov	rcx, QWORD PTR [rcx+192]
	mov	rax, QWORD PTR [rax]
	mov	DWORD PTR [rsp+32], 0
	xor	r9d, r9d
	xor	r8d, r8d
	lea	rdx, QWORD PTR pSample$[rsp]
	call	QWORD PTR [rax+56]
	mov	DWORD PTR hr$[rsp], eax
; Line 295
	cmp	DWORD PTR hr$[rsp], 0
	jge	SHORT $LN3@QueueSampl
; Line 296
	mov	eax, DWORD PTR hr$[rsp]
	jmp	$LN4@QueueSampl
$LN3@QueueSampl:
; Line 299
	mov	rax, QWORD PTR pSample$[rsp]
	mov	rax, QWORD PTR [rax]
	mov	rcx, QWORD PTR pSample$[rsp]
	call	QWORD PTR [rax+32]
	cdqe
	imul	rax, 10000000				; 00989680H
	mov	rcx, QWORD PTR tCurrent$[rsp]
	add	rax, QWORD PTR [rcx]
	mov	QWORD PTR tStopThis$[rsp], rax
; Line 300
	mov	rax, QWORD PTR tAlignStop$[rsp]
	cmp	QWORD PTR tStopThis$[rsp], rax
	jle	SHORT $LN2@QueueSampl
; Line 301
	mov	rax, QWORD PTR tAlignStop$[rsp]
	mov	QWORD PTR tStopThis$[rsp], rax
$LN2@QueueSampl:
; Line 303
	mov	rax, QWORD PTR pSample$[rsp]
	mov	rax, QWORD PTR [rax]
	lea	r8, QWORD PTR tStopThis$[rsp]
	mov	rdx, QWORD PTR tCurrent$[rsp]
	mov	rcx, QWORD PTR pSample$[rsp]
	call	QWORD PTR [rax+48]
; Line 304
	mov	rax, QWORD PTR tCurrent$[rsp]
	mov	rcx, QWORD PTR tStopThis$[rsp]
	mov	QWORD PTR [rax], rcx
; Line 306
	mov	rax, QWORD PTR pSample$[rsp]
	mov	rax, QWORD PTR [rax]
	mov	edx, DWORD PTR bDiscontinuity$[rsp]
	mov	rcx, QWORD PTR pSample$[rsp]
	call	QWORD PTR [rax+128]
; Line 310
	mov	rax, QWORD PTR this$[rsp]
	mov	rax, QWORD PTR [rax+152]
	mov	rcx, QWORD PTR this$[rsp]
	mov	rcx, QWORD PTR [rcx+152]
	mov	rax, QWORD PTR [rax]
	xor	r8d, r8d
	mov	rdx, QWORD PTR pSample$[rsp]
	call	QWORD PTR [rax+32]
	mov	DWORD PTR hr$[rsp], eax
; Line 311
	cmp	DWORD PTR hr$[rsp], 0
	jge	SHORT $LN1@QueueSampl
; Line 312
	mov	rax, QWORD PTR pSample$[rsp]
	mov	rax, QWORD PTR [rax]
	mov	rcx, QWORD PTR pSample$[rsp]
	call	QWORD PTR [rax+16]
; Line 314
	mov	rcx, QWORD PTR this$[rsp]
	call	?CleanupCancelled@CPullPin@@AEAAXXZ	; CPullPin::CleanupCancelled
; Line 315
	mov	rax, QWORD PTR this$[rsp]
	mov	rax, QWORD PTR [rax]
	mov	edx, DWORD PTR hr$[rsp]
	mov	rcx, QWORD PTR this$[rsp]
	call	QWORD PTR [rax+40]
$LN1@QueueSampl:
; Line 317
	mov	eax, DWORD PTR hr$[rsp]
$LN4@QueueSampl:
; Line 318
	mov	rdi, rax
	mov	rcx, rsp
	lea	rdx, OFFSET FLAT:?QueueSample@CPullPin@@AEAAJAEA_J_JH@Z$rtcFrameData
	call	_RTC_CheckStackVars
	mov	rax, rdi
	add	rsp, 112				; 00000070H
	pop	rdi
	ret	0
?QueueSample@CPullPin@@AEAAJAEA_J_JH@Z ENDP		; CPullPin::QueueSample
_TEXT	ENDS
PUBLIC	?DeliverSample@CPullPin@@AEAAJPEAUIMediaSample@@_J1@Z ; CPullPin::DeliverSample
PUBLIC	?CollectAndDeliver@CPullPin@@AEAAJ_J0@Z		; CPullPin::CollectAndDeliver
;	COMDAT pdata
pdata	SEGMENT
$pdata$?CollectAndDeliver@CPullPin@@AEAAJ_J0@Z DD imagerel $LN7
	DD	imagerel $LN7+229
	DD	imagerel $unwind$?CollectAndDeliver@CPullPin@@AEAAJ_J0@Z
pdata	ENDS
;	COMDAT xdata
xdata	SEGMENT
$unwind$?CollectAndDeliver@CPullPin@@AEAAJ_J0@Z DD 022801H
	DD	07010b214H
xdata	ENDS
;	COMDAT CONST
CONST	SEGMENT
?CollectAndDeliver@CPullPin@@AEAAJ_J0@Z$rtcName$0 DB 070H ; CPullPin::CollectAndDeliver
	DB	053H
	DB	061H
	DB	06dH
	DB	070H
	DB	06cH
	DB	065H
	DB	00H
?CollectAndDeliver@CPullPin@@AEAAJ_J0@Z$rtcName$1 DB 064H ; CPullPin::CollectAndDeliver
	DB	077H
	DB	055H
	DB	06eH
	DB	075H
	DB	073H
	DB	065H
	DB	064H
	DB	00H
	ORG $+15
?CollectAndDeliver@CPullPin@@AEAAJ_J0@Z$rtcVarDesc DD 048H ; CPullPin::CollectAndDeliver
	DD	08H
	DQ	FLAT:?CollectAndDeliver@CPullPin@@AEAAJ_J0@Z$rtcName$1
	DD	028H
	DD	08H
	DQ	FLAT:?CollectAndDeliver@CPullPin@@AEAAJ_J0@Z$rtcName$0
	ORG $+96
?CollectAndDeliver@CPullPin@@AEAAJ_J0@Z$rtcFrameData DD 02H ; CPullPin::CollectAndDeliver
	DD	00H
	DQ	FLAT:?CollectAndDeliver@CPullPin@@AEAAJ_J0@Z$rtcVarDesc
; Function compile flags: /Odtp /RTCsu
CONST	ENDS
;	COMDAT ?CollectAndDeliver@CPullPin@@AEAAJ_J0@Z
_TEXT	SEGMENT
pSample$ = 40
dwUnused$ = 72
hr$ = 84
this$ = 112
tStart$ = 120
tStop$ = 128
?CollectAndDeliver@CPullPin@@AEAAJ_J0@Z PROC		; CPullPin::CollectAndDeliver, COMDAT
; Line 324
$LN7:
	mov	QWORD PTR [rsp+24], r8
	mov	QWORD PTR [rsp+16], rdx
	mov	QWORD PTR [rsp+8], rcx
	push	rdi
	sub	rsp, 96					; 00000060H
	mov	rdi, rsp
	mov	ecx, 24
	mov	eax, -858993460				; ccccccccH
	rep stosd
	mov	rcx, QWORD PTR [rsp+112]
; Line 325
	mov	QWORD PTR pSample$[rsp], 0
; Line 330
	mov	rax, QWORD PTR this$[rsp]
	mov	rax, QWORD PTR [rax+152]
	mov	rcx, QWORD PTR this$[rsp]
	mov	rcx, QWORD PTR [rcx+152]
	mov	rax, QWORD PTR [rax]
	lea	r9, QWORD PTR dwUnused$[rsp]
	lea	r8, QWORD PTR pSample$[rsp]
	mov	edx, -1					; ffffffffH
	call	QWORD PTR [rax+40]
	mov	DWORD PTR hr$[rsp], eax
; Line 331
	cmp	DWORD PTR hr$[rsp], 0
	jge	SHORT $LN4@CollectAnd
; Line 332
	cmp	QWORD PTR pSample$[rsp], 0
	je	SHORT $LN3@CollectAnd
; Line 333
	mov	rax, QWORD PTR pSample$[rsp]
	mov	rax, QWORD PTR [rax]
	mov	rcx, QWORD PTR pSample$[rsp]
	call	QWORD PTR [rax+16]
$LN3@CollectAnd:
; Line 335
	jmp	SHORT $LN2@CollectAnd
$LN4@CollectAnd:
; Line 336
	mov	r9, QWORD PTR tStop$[rsp]
	mov	r8, QWORD PTR tStart$[rsp]
	mov	rdx, QWORD PTR pSample$[rsp]
	mov	rcx, QWORD PTR this$[rsp]
	call	?DeliverSample@CPullPin@@AEAAJPEAUIMediaSample@@_J1@Z ; CPullPin::DeliverSample
	mov	DWORD PTR hr$[rsp], eax
$LN2@CollectAnd:
; Line 338
	cmp	DWORD PTR hr$[rsp], 0
	jge	SHORT $LN1@CollectAnd
; Line 339
	mov	rcx, QWORD PTR this$[rsp]
	call	?CleanupCancelled@CPullPin@@AEAAXXZ	; CPullPin::CleanupCancelled
; Line 340
	mov	rax, QWORD PTR this$[rsp]
	mov	rax, QWORD PTR [rax]
	mov	edx, DWORD PTR hr$[rsp]
	mov	rcx, QWORD PTR this$[rsp]
	call	QWORD PTR [rax+40]
$LN1@CollectAnd:
; Line 342
	mov	eax, DWORD PTR hr$[rsp]
; Line 344
	mov	edi, eax
	mov	rcx, rsp
	lea	rdx, OFFSET FLAT:?CollectAndDeliver@CPullPin@@AEAAJ_J0@Z$rtcFrameData
	call	_RTC_CheckStackVars
	mov	eax, edi
	add	rsp, 96					; 00000060H
	pop	rdi
	ret	0
?CollectAndDeliver@CPullPin@@AEAAJ_J0@Z ENDP		; CPullPin::CollectAndDeliver
_TEXT	ENDS
;	COMDAT pdata
pdata	SEGMENT
$pdata$?DeliverSample@CPullPin@@AEAAJPEAUIMediaSample@@_J1@Z DD imagerel $LN4
	DD	imagerel $LN4+243
	DD	imagerel $unwind$?DeliverSample@CPullPin@@AEAAJPEAUIMediaSample@@_J1@Z
pdata	ENDS
;	COMDAT xdata
xdata	SEGMENT
$unwind$?DeliverSample@CPullPin@@AEAAJPEAUIMediaSample@@_J1@Z DD 022d01H
	DD	07015b219H
xdata	ENDS
;	COMDAT CONST
CONST	SEGMENT
?DeliverSample@CPullPin@@AEAAJPEAUIMediaSample@@_J1@Z$rtcName$0 DB 074H ; CPullPin::DeliverSample
	DB	031H
	DB	00H
	ORG $+1
?DeliverSample@CPullPin@@AEAAJPEAUIMediaSample@@_J1@Z$rtcName$1 DB 074H ; CPullPin::DeliverSample
	DB	032H
	DB	00H
	ORG $+9
?DeliverSample@CPullPin@@AEAAJPEAUIMediaSample@@_J1@Z$rtcVarDesc DD 048H ; CPullPin::DeliverSample
	DD	08H
	DQ	FLAT:?DeliverSample@CPullPin@@AEAAJPEAUIMediaSample@@_J1@Z$rtcName$1
	DD	028H
	DD	08H
	DQ	FLAT:?DeliverSample@CPullPin@@AEAAJPEAUIMediaSample@@_J1@Z$rtcName$0
	ORG $+96
?DeliverSample@CPullPin@@AEAAJPEAUIMediaSample@@_J1@Z$rtcFrameData DD 02H ; CPullPin::DeliverSample
	DD	00H
	DQ	FLAT:?DeliverSample@CPullPin@@AEAAJPEAUIMediaSample@@_J1@Z$rtcVarDesc
; Function compile flags: /Odtp /RTCsu
CONST	ENDS
;	COMDAT ?DeliverSample@CPullPin@@AEAAJPEAUIMediaSample@@_J1@Z
_TEXT	SEGMENT
t1$ = 40
t2$ = 72
hr$ = 84
this$ = 112
pSample$ = 120
tStart$ = 128
tStop$ = 136
?DeliverSample@CPullPin@@AEAAJPEAUIMediaSample@@_J1@Z PROC ; CPullPin::DeliverSample, COMDAT
; Line 352
$LN4:
	mov	QWORD PTR [rsp+32], r9
	mov	QWORD PTR [rsp+24], r8
	mov	QWORD PTR [rsp+16], rdx
	mov	QWORD PTR [rsp+8], rcx
	push	rdi
	sub	rsp, 96					; 00000060H
	mov	rdi, rsp
	mov	ecx, 24
	mov	eax, -858993460				; ccccccccH
	rep stosd
	mov	rcx, QWORD PTR [rsp+112]
; Line 355
	mov	rax, QWORD PTR pSample$[rsp]
	mov	rax, QWORD PTR [rax]
	lea	r8, QWORD PTR t2$[rsp]
	lea	rdx, QWORD PTR t1$[rsp]
	mov	rcx, QWORD PTR pSample$[rsp]
	call	QWORD PTR [rax+40]
; Line 356
	mov	rax, QWORD PTR tStop$[rsp]
	cmp	QWORD PTR t2$[rsp], rax
	jle	SHORT $LN1@DeliverSam
; Line 357
	mov	rax, QWORD PTR tStop$[rsp]
	mov	QWORD PTR t2$[rsp], rax
$LN1@DeliverSam:
; Line 361
	mov	rax, QWORD PTR tStart$[rsp]
	mov	rcx, QWORD PTR t1$[rsp]
	sub	rcx, rax
	mov	rax, rcx
	mov	QWORD PTR t1$[rsp], rax
; Line 362
	mov	rax, QWORD PTR tStart$[rsp]
	mov	rcx, QWORD PTR t2$[rsp]
	sub	rcx, rax
	mov	rax, rcx
	mov	QWORD PTR t2$[rsp], rax
; Line 363
	mov	rax, QWORD PTR pSample$[rsp]
	mov	rax, QWORD PTR [rax]
	lea	r8, QWORD PTR t2$[rsp]
	lea	rdx, QWORD PTR t1$[rsp]
	mov	rcx, QWORD PTR pSample$[rsp]
	call	QWORD PTR [rax+48]
; Line 366
	mov	rax, QWORD PTR this$[rsp]
	mov	rax, QWORD PTR [rax]
	mov	rdx, QWORD PTR pSample$[rsp]
	mov	rcx, QWORD PTR this$[rsp]
	call	QWORD PTR [rax+24]
	mov	DWORD PTR hr$[rsp], eax
; Line 367
	mov	rax, QWORD PTR pSample$[rsp]
	mov	rax, QWORD PTR [rax]
	mov	rcx, QWORD PTR pSample$[rsp]
	call	QWORD PTR [rax+16]
; Line 368
	mov	eax, DWORD PTR hr$[rsp]
; Line 369
	mov	edi, eax
	mov	rcx, rsp
	lea	rdx, OFFSET FLAT:?DeliverSample@CPullPin@@AEAAJPEAUIMediaSample@@_J1@Z$rtcFrameData
	call	_RTC_CheckStackVars
	mov	eax, edi
	add	rsp, 96					; 00000060H
	pop	rdi
	ret	0
?DeliverSample@CPullPin@@AEAAJPEAUIMediaSample@@_J1@Z ENDP ; CPullPin::DeliverSample
_TEXT	ENDS
PUBLIC	?AlignUp@CPullPin@@QEAA_J_JJ@Z			; CPullPin::AlignUp
PUBLIC	?AlignDown@CPullPin@@QEAA_J_JJ@Z		; CPullPin::AlignDown
PUBLIC	__$ArrayPad$
EXTRN	?CheckRequest@CAMThread@@QEAAHPEAK@Z:PROC	; CAMThread::CheckRequest
;	COMDAT pdata
pdata	SEGMENT
$pdata$?Process@CPullPin@@AEAAXXZ DD imagerel $LN27
	DD	imagerel $LN27+1243
	DD	imagerel $unwind$?Process@CPullPin@@AEAAXXZ
pdata	ENDS
;	COMDAT xdata
xdata	SEGMENT
$unwind$?Process@CPullPin@@AEAAXXZ DD 033619H
	DD	022010dH
	DD	07006H
	DD	imagerel __GSHandlerCheck
	DD	0100H
xdata	ENDS
;	COMDAT CONST
CONST	SEGMENT
?Process@CPullPin@@AEAAXXZ$rtcName$0 DB 041H		; CPullPin::Process
	DB	063H
	DB	074H
	DB	075H
	DB	061H
	DB	06cH
	DB	00H
	ORG $+1
?Process@CPullPin@@AEAAXXZ$rtcName$1 DB 074H		; CPullPin::Process
	DB	043H
	DB	075H
	DB	072H
	DB	072H
	DB	065H
	DB	06eH
	DB	074H
	DB	00H
	ORG $+7
?Process@CPullPin@@AEAAXXZ$rtcName$2 DB 064H		; CPullPin::Process
	DB	077H
	DB	052H
	DB	065H
	DB	071H
	DB	075H
	DB	065H
	DB	073H
	DB	074H
	DB	00H
	ORG $+6
?Process@CPullPin@@AEAAXXZ$rtcName$3 DB 070H		; CPullPin::Process
	DB	053H
	DB	061H
	DB	06dH
	DB	070H
	DB	06cH
	DB	065H
	DB	00H
?Process@CPullPin@@AEAAXXZ$rtcName$4 DB 074H		; CPullPin::Process
	DB	053H
	DB	074H
	DB	06fH
	DB	070H
	DB	054H
	DB	068H
	DB	069H
	DB	073H
	DB	00H
	ORG $+6
?Process@CPullPin@@AEAAXXZ$rtcVarDesc DD 0e8H		; CPullPin::Process
	DD	08H
	DQ	FLAT:?Process@CPullPin@@AEAAXXZ$rtcName$4
	DD	0c8H
	DD	08H
	DQ	FLAT:?Process@CPullPin@@AEAAXXZ$rtcName$3
	DD	0a4H
	DD	04H
	DQ	FLAT:?Process@CPullPin@@AEAAXXZ$rtcName$2
	DD	078H
	DD	08H
	DQ	FLAT:?Process@CPullPin@@AEAAXXZ$rtcName$1
	DD	048H
	DD	010H
	DQ	FLAT:?Process@CPullPin@@AEAAXXZ$rtcName$0
	ORG $+240
?Process@CPullPin@@AEAAXXZ$rtcFrameData DD 05H		; CPullPin::Process
	DD	00H
	DQ	FLAT:?Process@CPullPin@@AEAAXXZ$rtcVarDesc
; Function compile flags: /Odtp /RTCsu
CONST	ENDS
;	COMDAT ?Process@CPullPin@@AEAAXXZ
_TEXT	SEGMENT
bDiscontinuity$ = 48
Actual$ = 72
hr$ = 100
tStart$ = 104
tCurrent$ = 120
tStop$ = 136
tAlignStop$ = 144
dwRequest$ = 164
pSample$82530 = 200
tStopThis$82533 = 232
__$ArrayPad$ = 256
this$ = 288
?Process@CPullPin@@AEAAXXZ PROC				; CPullPin::Process, COMDAT
; Line 373
$LN27:
	mov	QWORD PTR [rsp+8], rcx
	push	rdi
	sub	rsp, 272				; 00000110H
	mov	rdi, rsp
	mov	ecx, 68					; 00000044H
	mov	eax, -858993460				; ccccccccH
	rep stosd
	mov	rcx, QWORD PTR [rsp+288]
	mov	rax, QWORD PTR __security_cookie
	xor	rax, rsp
	mov	QWORD PTR __$ArrayPad$[rsp], rax
; Line 375
	mov	rax, QWORD PTR this$[rsp]
	mov	rcx, QWORD PTR this$[rsp]
	mov	rcx, QWORD PTR [rcx+160]
	cmp	QWORD PTR [rax+168], rcx
	jg	SHORT $LN24@Process
; Line 376
	mov	rax, QWORD PTR this$[rsp]
	mov	rax, QWORD PTR [rax]
	mov	rcx, QWORD PTR this$[rsp]
	call	QWORD PTR [rax+32]
; Line 377
	jmp	$LN25@Process
$LN24@Process:
; Line 380
	mov	DWORD PTR bDiscontinuity$[rsp], 1
; Line 386
	mov	rax, QWORD PTR this$[rsp]
	mov	rax, QWORD PTR [rax+192]
	mov	rcx, QWORD PTR this$[rsp]
	mov	rcx, QWORD PTR [rcx+192]
	mov	rax, QWORD PTR [rax]
	lea	rdx, QWORD PTR Actual$[rsp]
	call	QWORD PTR [rax+32]
	mov	DWORD PTR hr$[rsp], eax
; Line 389
	mov	rax, QWORD PTR this$[rsp]
	mov	rax, QWORD PTR [rax+160]
	cdq
	mov	ecx, 10000000				; 00989680H
	idiv	rcx
	mov	r8d, DWORD PTR Actual$[rsp+8]
	mov	rdx, rax
	mov	rcx, QWORD PTR this$[rsp]
	call	?AlignDown@CPullPin@@QEAA_J_JJ@Z	; CPullPin::AlignDown
	imul	rax, 10000000				; 00989680H
	mov	QWORD PTR tStart$[rsp], rax
; Line 390
	mov	rax, QWORD PTR tStart$[rsp]
	mov	QWORD PTR tCurrent$[rsp], rax
; Line 392
	mov	rax, QWORD PTR this$[rsp]
	mov	rax, QWORD PTR [rax+168]
	mov	QWORD PTR tStop$[rsp], rax
; Line 393
	mov	rax, QWORD PTR this$[rsp]
	mov	rax, QWORD PTR [rax+176]
	cmp	QWORD PTR tStop$[rsp], rax
	jle	SHORT $LN23@Process
; Line 394
	mov	rax, QWORD PTR this$[rsp]
	mov	rax, QWORD PTR [rax+176]
	mov	QWORD PTR tStop$[rsp], rax
$LN23@Process:
; Line 399
	mov	rax, QWORD PTR tStop$[rsp]
	cdq
	mov	ecx, 10000000				; 00989680H
	idiv	rcx
	mov	r8d, DWORD PTR Actual$[rsp+8]
	mov	rdx, rax
	mov	rcx, QWORD PTR this$[rsp]
	call	?AlignUp@CPullPin@@QEAA_J_JJ@Z		; CPullPin::AlignUp
	imul	rax, 10000000				; 00989680H
	mov	QWORD PTR tAlignStop$[rsp], rax
; Line 404
	mov	rax, QWORD PTR this$[rsp]
	cmp	DWORD PTR [rax+184], 0
	jne	$LN22@Process
$LN21@Process:
; Line 408
	mov	rax, QWORD PTR tAlignStop$[rsp]
	cmp	QWORD PTR tCurrent$[rsp], rax
	jge	$LN20@Process
; Line 412
	lea	rdx, QWORD PTR dwRequest$[rsp]
	mov	rcx, QWORD PTR this$[rsp]
	call	?CheckRequest@CAMThread@@QEAAHPEAK@Z	; CAMThread::CheckRequest
	test	eax, eax
	je	SHORT $LN19@Process
; Line 413
	jmp	$LN25@Process
$LN19@Process:
; Line 417
	cmp	DWORD PTR Actual$[rsp], 1
	jle	SHORT $LN18@Process
; Line 419
	mov	r9d, 1
	mov	r8, QWORD PTR tAlignStop$[rsp]
	lea	rdx, QWORD PTR tCurrent$[rsp]
	mov	rcx, QWORD PTR this$[rsp]
	call	?QueueSample@CPullPin@@AEAAJAEA_J_JH@Z	; CPullPin::QueueSample
	mov	DWORD PTR hr$[rsp], eax
; Line 420
	mov	DWORD PTR bDiscontinuity$[rsp], 0
; Line 422
	cmp	DWORD PTR hr$[rsp], 0
	jge	SHORT $LN17@Process
; Line 423
	jmp	$LN25@Process
$LN17@Process:
$LN18@Process:
$LN16@Process:
; Line 430
	mov	rax, QWORD PTR tAlignStop$[rsp]
	cmp	QWORD PTR tCurrent$[rsp], rax
	jge	SHORT $LN15@Process
; Line 432
	mov	r9d, DWORD PTR bDiscontinuity$[rsp]
	mov	r8, QWORD PTR tAlignStop$[rsp]
	lea	rdx, QWORD PTR tCurrent$[rsp]
	mov	rcx, QWORD PTR this$[rsp]
	call	?QueueSample@CPullPin@@AEAAJAEA_J_JH@Z	; CPullPin::QueueSample
	mov	DWORD PTR hr$[rsp], eax
; Line 433
	mov	DWORD PTR bDiscontinuity$[rsp], 0
; Line 435
	cmp	DWORD PTR hr$[rsp], 0
	jge	SHORT $LN14@Process
; Line 436
	jmp	$LN25@Process
$LN14@Process:
; Line 439
	mov	r8, QWORD PTR tStop$[rsp]
	mov	rdx, QWORD PTR tStart$[rsp]
	mov	rcx, QWORD PTR this$[rsp]
	call	?CollectAndDeliver@CPullPin@@AEAAJ_J0@Z	; CPullPin::CollectAndDeliver
	mov	DWORD PTR hr$[rsp], eax
; Line 440
	cmp	DWORD PTR hr$[rsp], 0
	je	SHORT $LN13@Process
; Line 444
	jmp	$LN25@Process
$LN13@Process:
; Line 446
	jmp	SHORT $LN16@Process
$LN15@Process:
; Line 448
	cmp	DWORD PTR Actual$[rsp], 1
	jle	SHORT $LN12@Process
; Line 449
	mov	r8, QWORD PTR tStop$[rsp]
	mov	rdx, QWORD PTR tStart$[rsp]
	mov	rcx, QWORD PTR this$[rsp]
	call	?CollectAndDeliver@CPullPin@@AEAAJ_J0@Z	; CPullPin::CollectAndDeliver
	mov	DWORD PTR hr$[rsp], eax
; Line 450
	cmp	DWORD PTR hr$[rsp], 0
	jge	SHORT $LN11@Process
; Line 451
	jmp	$LN25@Process
$LN11@Process:
$LN12@Process:
; Line 454
	jmp	$LN21@Process
$LN20@Process:
; Line 455
	jmp	$LN10@Process
$LN22@Process:
$LN9@Process:
; Line 458
	mov	rax, QWORD PTR tAlignStop$[rsp]
	cmp	QWORD PTR tCurrent$[rsp], rax
	jge	$LN8@Process
; Line 462
	lea	rdx, QWORD PTR dwRequest$[rsp]
	mov	rcx, QWORD PTR this$[rsp]
	call	?CheckRequest@CAMThread@@QEAAHPEAK@Z	; CAMThread::CheckRequest
	test	eax, eax
	je	SHORT $LN7@Process
; Line 463
	jmp	$LN25@Process
$LN7@Process:
; Line 468
	mov	rax, QWORD PTR this$[rsp]
	mov	rax, QWORD PTR [rax+192]
	mov	rcx, QWORD PTR this$[rsp]
	mov	rcx, QWORD PTR [rcx+192]
	mov	rax, QWORD PTR [rax]
	mov	DWORD PTR [rsp+32], 0
	xor	r9d, r9d
	xor	r8d, r8d
	lea	rdx, QWORD PTR pSample$82530[rsp]
	call	QWORD PTR [rax+56]
	mov	DWORD PTR hr$[rsp], eax
; Line 469
	cmp	DWORD PTR hr$[rsp], 0
	jge	SHORT $LN6@Process
; Line 470
	mov	rax, QWORD PTR this$[rsp]
	mov	rax, QWORD PTR [rax]
	mov	edx, DWORD PTR hr$[rsp]
	mov	rcx, QWORD PTR this$[rsp]
	call	QWORD PTR [rax+40]
; Line 471
	jmp	$LN25@Process
$LN6@Process:
; Line 474
	mov	rax, QWORD PTR pSample$82530[rsp]
	mov	rax, QWORD PTR [rax]
	mov	rcx, QWORD PTR pSample$82530[rsp]
	call	QWORD PTR [rax+32]
	cdqe
	imul	rax, 10000000				; 00989680H
	mov	rcx, QWORD PTR tCurrent$[rsp]
	add	rcx, rax
	mov	rax, rcx
	mov	QWORD PTR tStopThis$82533[rsp], rax
; Line 475
	mov	rax, QWORD PTR tAlignStop$[rsp]
	cmp	QWORD PTR tStopThis$82533[rsp], rax
	jle	SHORT $LN5@Process
; Line 476
	mov	rax, QWORD PTR tAlignStop$[rsp]
	mov	QWORD PTR tStopThis$82533[rsp], rax
$LN5@Process:
; Line 478
	mov	rax, QWORD PTR pSample$82530[rsp]
	mov	rax, QWORD PTR [rax]
	lea	r8, QWORD PTR tStopThis$82533[rsp]
	lea	rdx, QWORD PTR tCurrent$[rsp]
	mov	rcx, QWORD PTR pSample$82530[rsp]
	call	QWORD PTR [rax+48]
; Line 479
	mov	rax, QWORD PTR tStopThis$82533[rsp]
	mov	QWORD PTR tCurrent$[rsp], rax
; Line 481
	cmp	DWORD PTR bDiscontinuity$[rsp], 0
	je	SHORT $LN4@Process
; Line 482
	mov	rax, QWORD PTR pSample$82530[rsp]
	mov	rax, QWORD PTR [rax]
	mov	edx, 1
	mov	rcx, QWORD PTR pSample$82530[rsp]
	call	QWORD PTR [rax+128]
; Line 483
	mov	DWORD PTR bDiscontinuity$[rsp], 0
$LN4@Process:
; Line 486
	mov	rax, QWORD PTR this$[rsp]
	mov	rax, QWORD PTR [rax+152]
	mov	rcx, QWORD PTR this$[rsp]
	mov	rcx, QWORD PTR [rcx+152]
	mov	rax, QWORD PTR [rax]
	mov	rdx, QWORD PTR pSample$82530[rsp]
	call	QWORD PTR [rax+48]
	mov	DWORD PTR hr$[rsp], eax
; Line 488
	cmp	DWORD PTR hr$[rsp], 0
	jge	SHORT $LN3@Process
; Line 489
	mov	rax, QWORD PTR pSample$82530[rsp]
	mov	rax, QWORD PTR [rax]
	mov	rcx, QWORD PTR pSample$82530[rsp]
	call	QWORD PTR [rax+16]
; Line 490
	mov	rax, QWORD PTR this$[rsp]
	mov	rax, QWORD PTR [rax]
	mov	edx, DWORD PTR hr$[rsp]
	mov	rcx, QWORD PTR this$[rsp]
	call	QWORD PTR [rax+40]
; Line 491
	jmp	SHORT $LN25@Process
$LN3@Process:
; Line 494
	mov	r9, QWORD PTR tStop$[rsp]
	mov	r8, QWORD PTR tStart$[rsp]
	mov	rdx, QWORD PTR pSample$82530[rsp]
	mov	rcx, QWORD PTR this$[rsp]
	call	?DeliverSample@CPullPin@@AEAAJPEAUIMediaSample@@_J1@Z ; CPullPin::DeliverSample
	mov	DWORD PTR hr$[rsp], eax
; Line 495
	cmp	DWORD PTR hr$[rsp], 0
	je	SHORT $LN2@Process
; Line 496
	cmp	DWORD PTR hr$[rsp], 0
	jge	SHORT $LN1@Process
; Line 497
	mov	rax, QWORD PTR this$[rsp]
	mov	rax, QWORD PTR [rax]
	mov	edx, DWORD PTR hr$[rsp]
	mov	rcx, QWORD PTR this$[rsp]
	call	QWORD PTR [rax+40]
$LN1@Process:
; Line 499
	jmp	SHORT $LN25@Process
$LN2@Process:
; Line 501
	jmp	$LN9@Process
$LN8@Process:
$LN10@Process:
; Line 504
	mov	rax, QWORD PTR this$[rsp]
	mov	rax, QWORD PTR [rax]
	mov	rcx, QWORD PTR this$[rsp]
	call	QWORD PTR [rax+32]
$LN25@Process:
; Line 505
	mov	rcx, rsp
	lea	rdx, OFFSET FLAT:?Process@CPullPin@@AEAAXXZ$rtcFrameData
	call	_RTC_CheckStackVars
	mov	rcx, QWORD PTR __$ArrayPad$[rsp]
	xor	rcx, rsp
	call	__security_check_cookie
	add	rsp, 272				; 00000110H
	pop	rdi
	ret	0
?Process@CPullPin@@AEAAXXZ ENDP				; CPullPin::Process
_TEXT	ENDS
;	COMDAT pdata
; File c:\downloads\wpf mediakit - copy\src\filters\baseclasses\pullpin.h
pdata	SEGMENT
$pdata$?AlignDown@CPullPin@@QEAA_J_JJ@Z DD imagerel $LN3
	DD	imagerel $LN3+39
	DD	imagerel $unwind$?AlignDown@CPullPin@@QEAA_J_JJ@Z
pdata	ENDS
;	COMDAT xdata
xdata	SEGMENT
$unwind$?AlignDown@CPullPin@@QEAA_J_JJ@Z DD 011001H
	DD	07010H
; Function compile flags: /Odtp /RTCsu
xdata	ENDS
;	COMDAT ?AlignDown@CPullPin@@QEAA_J_JJ@Z
_TEXT	SEGMENT
this$ = 16
ll$ = 24
lAlign$ = 32
?AlignDown@CPullPin@@QEAA_J_JJ@Z PROC			; CPullPin::AlignDown, COMDAT
; Line 114
$LN3:
	mov	DWORD PTR [rsp+24], r8d
	mov	QWORD PTR [rsp+16], rdx
	mov	QWORD PTR [rsp+8], rcx
	push	rdi
; Line 116
	mov	eax, DWORD PTR lAlign$[rsp]
	dec	eax
	not	eax
	cdqe
	mov	rcx, QWORD PTR ll$[rsp]
	and	rcx, rax
	mov	rax, rcx
; Line 117
	pop	rdi
	ret	0
?AlignDown@CPullPin@@QEAA_J_JJ@Z ENDP			; CPullPin::AlignDown
_TEXT	ENDS
;	COMDAT pdata
pdata	SEGMENT
$pdata$?AlignUp@CPullPin@@QEAA_J_JJ@Z DD imagerel $LN3
	DD	imagerel $LN3+51
	DD	imagerel $unwind$?AlignUp@CPullPin@@QEAA_J_JJ@Z
pdata	ENDS
;	COMDAT xdata
xdata	SEGMENT
$unwind$?AlignUp@CPullPin@@QEAA_J_JJ@Z DD 011001H
	DD	07010H
; Function compile flags: /Odtp /RTCsu
xdata	ENDS
;	COMDAT ?AlignUp@CPullPin@@QEAA_J_JJ@Z
_TEXT	SEGMENT
this$ = 16
ll$ = 24
lAlign$ = 32
?AlignUp@CPullPin@@QEAA_J_JJ@Z PROC			; CPullPin::AlignUp, COMDAT
; Line 119
$LN3:
	mov	DWORD PTR [rsp+24], r8d
	mov	QWORD PTR [rsp+16], rdx
	mov	QWORD PTR [rsp+8], rcx
	push	rdi
; Line 121
	mov	eax, DWORD PTR lAlign$[rsp]
	dec	eax
	cdqe
	mov	rcx, QWORD PTR ll$[rsp]
	add	rcx, rax
	mov	rax, rcx
	mov	ecx, DWORD PTR lAlign$[rsp]
	dec	ecx
	not	ecx
	movsxd	rcx, ecx
	and	rax, rcx
; Line 122
	pop	rdi
	ret	0
?AlignUp@CPullPin@@QEAA_J_JJ@Z ENDP			; CPullPin::AlignUp
_TEXT	ENDS
;	COMDAT pdata
; File c:\downloads\wpf mediakit - copy\src\filters\baseclasses\pullpin.cpp
pdata	SEGMENT
$pdata$?CleanupCancelled@CPullPin@@AEAAXXZ DD imagerel $LN7
	DD	imagerel $LN7+134
	DD	imagerel $unwind$?CleanupCancelled@CPullPin@@AEAAXXZ
pdata	ENDS
;	COMDAT xdata
xdata	SEGMENT
$unwind$?CleanupCancelled@CPullPin@@AEAAXXZ DD 021e01H
	DD	07006b20aH
xdata	ENDS
;	COMDAT CONST
CONST	SEGMENT
?CleanupCancelled@CPullPin@@AEAAXXZ$rtcName$0 DB 070H	; CPullPin::CleanupCancelled
	DB	053H
	DB	061H
	DB	06dH
	DB	070H
	DB	06cH
	DB	065H
	DB	00H
?CleanupCancelled@CPullPin@@AEAAXXZ$rtcName$1 DB 064H	; CPullPin::CleanupCancelled
	DB	077H
	DB	055H
	DB	06eH
	DB	075H
	DB	073H
	DB	065H
	DB	064H
	DB	00H
	ORG $+15
?CleanupCancelled@CPullPin@@AEAAXXZ$rtcVarDesc DD 048H	; CPullPin::CleanupCancelled
	DD	08H
	DQ	FLAT:?CleanupCancelled@CPullPin@@AEAAXXZ$rtcName$1
	DD	028H
	DD	08H
	DQ	FLAT:?CleanupCancelled@CPullPin@@AEAAXXZ$rtcName$0
	ORG $+96
?CleanupCancelled@CPullPin@@AEAAXXZ$rtcFrameData DD 02H	; CPullPin::CleanupCancelled
	DD	00H
	DQ	FLAT:?CleanupCancelled@CPullPin@@AEAAXXZ$rtcVarDesc
; Function compile flags: /Odtp /RTCsu
CONST	ENDS
;	COMDAT ?CleanupCancelled@CPullPin@@AEAAXXZ
_TEXT	SEGMENT
pSample$82549 = 40
dwUnused$82550 = 72
hr$82551 = 84
this$ = 112
?CleanupCancelled@CPullPin@@AEAAXXZ PROC		; CPullPin::CleanupCancelled, COMDAT
; Line 511
$LN7:
	mov	QWORD PTR [rsp+8], rcx
	push	rdi
	sub	rsp, 96					; 00000060H
	mov	rdi, rsp
	mov	ecx, 24
	mov	eax, -858993460				; ccccccccH
	rep stosd
	mov	rcx, QWORD PTR [rsp+112]
$LN4@CleanupCan:
; Line 512
	xor	eax, eax
	cmp	eax, 1
	je	SHORT $LN3@CleanupCan
; Line 519
	mov	rax, QWORD PTR this$[rsp]
	mov	rax, QWORD PTR [rax+152]
	mov	rcx, QWORD PTR this$[rsp]
	mov	rcx, QWORD PTR [rcx+152]
	mov	rax, QWORD PTR [rax]
	lea	r9, QWORD PTR dwUnused$82550[rsp]
	lea	r8, QWORD PTR pSample$82549[rsp]
	xor	edx, edx
	call	QWORD PTR [rax+40]
	mov	DWORD PTR hr$82551[rsp], eax
; Line 520
	cmp	QWORD PTR pSample$82549[rsp], 0
	je	SHORT $LN2@CleanupCan
; Line 521
	mov	rax, QWORD PTR pSample$82549[rsp]
	mov	rax, QWORD PTR [rax]
	mov	rcx, QWORD PTR pSample$82549[rsp]
	call	QWORD PTR [rax+16]
; Line 522
	jmp	SHORT $LN1@CleanupCan
$LN2@CleanupCan:
; Line 524
	jmp	SHORT $LN5@CleanupCan
$LN1@CleanupCan:
; Line 526
	jmp	SHORT $LN4@CleanupCan
$LN3@CleanupCan:
$LN5@CleanupCan:
; Line 527
	mov	rcx, rsp
	lea	rdx, OFFSET FLAT:?CleanupCancelled@CPullPin@@AEAAXXZ$rtcFrameData
	call	_RTC_CheckStackVars
	add	rsp, 96					; 00000060H
	pop	rdi
	ret	0
?CleanupCancelled@CPullPin@@AEAAXXZ ENDP		; CPullPin::CleanupCancelled
_TEXT	ENDS
END
