; Listing generated by Microsoft (R) Optimizing Compiler Version 16.00.30319.01 

include listing.inc

INCLUDELIB LIBCMTD
INCLUDELIB OLDNAMES

PUBLIC	IID_IAMFilterGraphCallback
CONST	SEGMENT
$SG82250 DB	'.', 00H, '.', 00H, '\', 00H, 'r', 00H, 'e', 00H, 'n', 00H
	DB	'b', 00H, 'a', 00H, 's', 00H, 'e', 00H, '.', 00H, 'c', 00H, 'p'
	DB	00H, 'p', 00H, 00H, 00H
	ORG $+2
$SG82251 DB	'm', 00H, '_', 00H, 'b', 00H, 'S', 00H, 't', 00H, 'r', 00H
	DB	'e', 00H, 'a', 00H, 'm', 00H, 'i', 00H, 'n', 00H, 'g', 00H, ' '
	DB	00H, '=', 00H, '=', 00H, ' ', 00H, 'F', 00H, 'A', 00H, 'L', 00H
	DB	'S', 00H, 'E', 00H, 00H, 00H
	ORG $+4
$SG82253 DB	'.', 00H, '.', 00H, '\', 00H, 'r', 00H, 'e', 00H, 'n', 00H
	DB	'b', 00H, 'a', 00H, 's', 00H, 'e', 00H, '.', 00H, 'c', 00H, 'p'
	DB	00H, 'p', 00H, 00H, 00H
	ORG $+2
$SG82254 DB	'm', 00H, '_', 00H, 'E', 00H, 'n', 00H, 'd', 00H, 'O', 00H
	DB	'f', 00H, 'S', 00H, 't', 00H, 'r', 00H, 'e', 00H, 'a', 00H, 'm'
	DB	00H, 'T', 00H, 'i', 00H, 'm', 00H, 'e', 00H, 'r', 00H, ' ', 00H
	DB	'=', 00H, '=', 00H, ' ', 00H, '0', 00H, 00H, 00H
$SG82262 DB	'.', 00H, '.', 00H, '\', 00H, 'r', 00H, 'e', 00H, 'n', 00H
	DB	'b', 00H, 'a', 00H, 's', 00H, 'e', 00H, '.', 00H, 'c', 00H, 'p'
	DB	00H, 'p', 00H, 00H, 00H
	ORG $+2
$SG82263 DB	'm', 00H, '_', 00H, 'p', 00H, 'Q', 00H, 'S', 00H, 'i', 00H
	DB	'n', 00H, 'k', 00H, ' ', 00H, '=', 00H, '=', 00H, ' ', 00H, 'N'
	DB	00H, 'U', 00H, 'L', 00H, 'L', 00H, 00H, 00H
	ORG $+6
$SG82278 DB	'R', 00H, 'e', 00H, 'n', 00H, 'd', 00H, 'e', 00H, 'r', 00H
	DB	'e', 00H, 'r', 00H, ' ', 00H, 'C', 00H, 'P', 00H, 'o', 00H, 's'
	DB	00H, 'P', 00H, 'a', 00H, 's', 00H, 's', 00H, 'T', 00H, 'h', 00H
	DB	'r', 00H, 'u', 00H, 00H, 00H
$SG82503 DB	'I', 00H, 'n', 00H, 00H, 00H
	ORG $+6
$SG82306 DB	0aH, 00H, 'T', 00H, 'i', 00H, 'm', 00H, 'e', 00H, 'd', 00H
	DB	' ', 00H, 'o', 00H, 'u', 00H, 't', 00H, ' ', 00H, 'i', 00H, 'n'
	DB	00H, ' ', 00H, 'W', 00H, 'a', 00H, 'i', 00H, 't', 00H, 'F', 00H
	DB	'o', 00H, 'r', 00H, 'R', 00H, 'e', 00H, 'n', 00H, 'd', 00H, 'e'
	DB	00H, 'r', 00H, 'T', 00H, 'i', 00H, 'm', 00H, 'e', 00H, 00H, 00H
$SG82308 DB	'S', 00H, 'i', 00H, 'g', 00H, 'n', 00H, 'a', 00H, 'l', 00H
	DB	' ', 00H, 's', 00H, 'a', 00H, 'n', 00H, 'i', 00H, 't', 00H, 'y'
	DB	00H, ' ', 00H, 'c', 00H, 'h', 00H, 'e', 00H, 'c', 00H, 'k', 00H
	DB	' ', 00H, '%', 00H, 'd', 00H, 00H, 00H
	ORG $+2
$SG82309 DB	'F', 00H, 'i', 00H, 'l', 00H, 't', 00H, 'e', 00H, 'r', 00H
	DB	' ', 00H, 's', 00H, 't', 00H, 'a', 00H, 't', 00H, 'e', 00H, ' '
	DB	00H, '%', 00H, 'd', 00H, 00H, 00H
$SG82310 DB	'A', 00H, 'b', 00H, 'o', 00H, 'r', 00H, 't', 00H, ' ', 00H
	DB	'f', 00H, 'l', 00H, 'a', 00H, 'g', 00H, ' ', 00H, '%', 00H, 'd'
	DB	00H, 00H, 00H
	ORG $+4
$SG82311 DB	'S', 00H, 't', 00H, 'r', 00H, 'e', 00H, 'a', 00H, 'm', 00H
	DB	'i', 00H, 'n', 00H, 'g', 00H, ' ', 00H, 'f', 00H, 'l', 00H, 'a'
	DB	00H, 'g', 00H, ' ', 00H, '%', 00H, 'd', 00H, 00H, 00H
	ORG $+4
$SG82312 DB	'C', 00H, 'l', 00H, 'o', 00H, 'c', 00H, 'k', 00H, ' ', 00H
	DB	'a', 00H, 'd', 00H, 'v', 00H, 'i', 00H, 's', 00H, 'e', 00H, ' '
	DB	00H, 'l', 00H, 'i', 00H, 'n', 00H, 'k', 00H, ' ', 00H, '%', 00H
	DB	'd', 00H, 00H, 00H
	ORG $+6
$SG82313 DB	'C', 00H, 'u', 00H, 'r', 00H, 'r', 00H, 'e', 00H, 'n', 00H
	DB	't', 00H, ' ', 00H, 'm', 00H, 'e', 00H, 'd', 00H, 'i', 00H, 'a'
	DB	00H, ' ', 00H, 's', 00H, 'a', 00H, 'm', 00H, 'p', 00H, 'l', 00H
	DB	'e', 00H, ' ', 00H, '%', 00H, 'x', 00H, 00H, 00H
$SG82314 DB	'E', 00H, 'O', 00H, 'S', 00H, ' ', 00H, 's', 00H, 'i', 00H
	DB	'g', 00H, 'n', 00H, 'a', 00H, 'l', 00H, 'l', 00H, 'e', 00H, 'd'
	DB	00H, ' ', 00H, '%', 00H, 'd', 00H, 00H, 00H
	ORG $+6
$SG82315 DB	'E', 00H, 'O', 00H, 'S', 00H, ' ', 00H, 'd', 00H, 'e', 00H
	DB	'l', 00H, 'i', 00H, 'v', 00H, 'e', 00H, 'r', 00H, 'e', 00H, 'd'
	DB	00H, ' ', 00H, '%', 00H, 'd', 00H, 00H, 00H
	ORG $+6
$SG82316 DB	'R', 00H, 'e', 00H, 'p', 00H, 'a', 00H, 'i', 00H, 'n', 00H
	DB	't', 00H, ' ', 00H, 's', 00H, 't', 00H, 'a', 00H, 't', 00H, 'u'
	DB	00H, 's', 00H, ' ', 00H, '%', 00H, 'd', 00H, 00H, 00H
	ORG $+4
$SG82317 DB	'E', 00H, 'n', 00H, 'd', 00H, ' ', 00H, 'o', 00H, 'f', 00H
	DB	' ', 00H, 's', 00H, 't', 00H, 'r', 00H, 'e', 00H, 'a', 00H, 'm'
	DB	00H, ' ', 00H, 't', 00H, 'i', 00H, 'm', 00H, 'e', 00H, 'r', 00H
	DB	' ', 00H, '%', 00H, 'x', 00H, 00H, 00H
	ORG $+2
$SG82320 DB	'D', 00H, 'e', 00H, 'l', 00H, 'i', 00H, 'v', 00H, 'e', 00H
	DB	'r', 00H, ' ', 00H, 't', 00H, 'i', 00H, 'm', 00H, 'e', 00H, ' '
	DB	00H, '%', 00H, 's', 00H, 00H, 00H
$SG82322 DB	'F', 00H, 'l', 00H, 'u', 00H, 's', 00H, 'h', 00H, 'i', 00H
	DB	'n', 00H, 'g', 00H, ' ', 00H, 's', 00H, 'a', 00H, 'n', 00H, 'i'
	DB	00H, 't', 00H, 'y', 00H, ' ', 00H, 'c', 00H, 'h', 00H, 'e', 00H
	DB	'c', 00H, 'k', 00H, ' ', 00H, '%', 00H, 'd', 00H, 00H, 00H
	ORG $+6
$SG82325 DB	'L', 00H, 'a', 00H, 's', 00H, 't', 00H, ' ', 00H, 'r', 00H
	DB	'u', 00H, 'n', 00H, ' ', 00H, 't', 00H, 'i', 00H, 'm', 00H, 'e'
	DB	00H, ' ', 00H, '%', 00H, 's', 00H, 00H, 00H
	ORG $+6
$SG82334 DB	'C', 00H, 'l', 00H, 'o', 00H, 'c', 00H, 'k', 00H, ' ', 00H
	DB	't', 00H, 'i', 00H, 'm', 00H, 'e', 00H, ' ', 00H, '%', 00H, 's'
	DB	00H, 00H, 00H
	ORG $+4
$SG82335 DB	'T', 00H, 'i', 00H, 'm', 00H, 'e', 00H, ' ', 00H, 'd', 00H
	DB	'i', 00H, 'f', 00H, 'f', 00H, 'e', 00H, 'r', 00H, 'e', 00H, 'n'
	DB	00H, 'c', 00H, 'e', 00H, ' ', 00H, '%', 00H, 'd', 00H, 'm', 00H
	DB	's', 00H, 00H, 00H
	ORG $+6
$SG82339 DB	'N', 00H, 'e', 00H, 'x', 00H, 't', 00H, ' ', 00H, 's', 00H
	DB	'a', 00H, 'm', 00H, 'p', 00H, 'l', 00H, 'e', 00H, ' ', 00H, 's'
	DB	00H, 't', 00H, 'r', 00H, 'e', 00H, 'a', 00H, 'm', 00H, ' ', 00H
	DB	't', 00H, 'i', 00H, 'm', 00H, 'e', 00H, 's', 00H, ' ', 00H, '('
	DB	00H, 'S', 00H, 't', 00H, 'a', 00H, 'r', 00H, 't', 00H, ' ', 00H
	DB	'%', 00H, 'd', 00H, ' ', 00H, 'E', 00H, 'n', 00H, 'd', 00H, ' '
	DB	00H, '%', 00H, 'd', 00H, ' ', 00H, 'm', 00H, 's', 00H, ')', 00H
	DB	00H, 00H
	ORG $+4
$SG82341 DB	'W', 00H, 'a', 00H, 'i', 00H, 't', 00H, ' ', 00H, 'r', 00H
	DB	'e', 00H, 'q', 00H, 'u', 00H, 'i', 00H, 'r', 00H, 'e', 00H, 'd'
	DB	00H, ' ', 00H, '%', 00H, 'd', 00H, ' ', 00H, 'm', 00H, 's', 00H
	DB	00H, 00H
$SG82396 DB	'I', 00H, 'n', 00H, 'p', 00H, 'u', 00H, 't', 00H, ' ', 00H
	DB	'p', 00H, 'i', 00H, 'n', 00H, ' ', 00H, 'i', 00H, 's', 00H, ' '
	DB	00H, 'n', 00H, 'o', 00H, 't', 00H, ' ', 00H, 'c', 00H, 'o', 00H
	DB	'n', 00H, 'n', 00H, 'e', 00H, 'c', 00H, 't', 00H, 'e', 00H, 'd'
	DB	00H, 00H, 00H
	ORG $+2
$SG82401 DB	'.', 00H, '.', 00H, '\', 00H, 'r', 00H, 'e', 00H, 'n', 00H
	DB	'b', 00H, 'a', 00H, 's', 00H, 'e', 00H, '.', 00H, 'c', 00H, 'p'
	DB	00H, 'p', 00H, 00H, 00H
	ORG $+2
$SG82402 DB	'C', 00H, 'a', 00H, 'n', 00H, 'c', 00H, 'e', 00H, 'l', 00H
	DB	'N', 00H, 'o', 00H, 't', 00H, 'i', 00H, 'f', 00H, 'i', 00H, 'c'
	DB	00H, 'a', 00H, 't', 00H, 'i', 00H, 'o', 00H, 'n', 00H, '(', 00H
	DB	')', 00H, ' ', 00H, '=', 00H, '=', 00H, ' ', 00H, 'S', 00H, '_'
	DB	00H, 'F', 00H, 'A', 00H, 'L', 00H, 'S', 00H, 'E', 00H, 00H, 00H
$SG82405 DB	'.', 00H, '.', 00H, '\', 00H, 'r', 00H, 'e', 00H, 'n', 00H
	DB	'b', 00H, 'a', 00H, 's', 00H, 'e', 00H, '.', 00H, 'c', 00H, 'p'
	DB	00H, 'p', 00H, 00H, 00H
	ORG $+2
$SG82406 DB	'W', 00H, 'A', 00H, 'I', 00H, 'T', 00H, '_', 00H, 'T', 00H
	DB	'I', 00H, 'M', 00H, 'E', 00H, 'O', 00H, 'U', 00H, 'T', 00H, ' '
	DB	00H, '=', 00H, '=', 00H, ' ', 00H, 'W', 00H, 'a', 00H, 'i', 00H
	DB	't', 00H, 'F', 00H, 'o', 00H, 'r', 00H, 'S', 00H, 'i', 00H, 'n'
	DB	00H, 'g', 00H, 'l', 00H, 'e', 00H, 'O', 00H, 'b', 00H, 'j', 00H
	DB	'e', 00H, 'c', 00H, 't', 00H, '(', 00H, '(', 00H, 'H', 00H, 'A'
	DB	00H, 'N', 00H, 'D', 00H, 'L', 00H, 'E', 00H, ')', 00H, 'm', 00H
	DB	'_', 00H, 'R', 00H, 'e', 00H, 'n', 00H, 'd', 00H, 'e', 00H, 'r'
	DB	00H, 'E', 00H, 'v', 00H, 'e', 00H, 'n', 00H, 't', 00H, ',', 00H
	DB	'0', 00H, ')', 00H, 00H, 00H
	ORG $+6
$SG82408 DB	'.', 00H, '.', 00H, '\', 00H, 'r', 00H, 'e', 00H, 'n', 00H
	DB	'b', 00H, 'a', 00H, 's', 00H, 'e', 00H, '.', 00H, 'c', 00H, 'p'
	DB	00H, 'p', 00H, 00H, 00H
	ORG $+2
$SG82409 DB	'm', 00H, '_', 00H, 'E', 00H, 'n', 00H, 'd', 00H, 'O', 00H
	DB	'f', 00H, 'S', 00H, 't', 00H, 'r', 00H, 'e', 00H, 'a', 00H, 'm'
	DB	00H, 'T', 00H, 'i', 00H, 'm', 00H, 'e', 00H, 'r', 00H, ' ', 00H
	DB	'=', 00H, '=', 00H, ' ', 00H, '0', 00H, 00H, 00H
$SG82417 DB	'.', 00H, '.', 00H, '\', 00H, 'r', 00H, 'e', 00H, 'n', 00H
	DB	'b', 00H, 'a', 00H, 's', 00H, 'e', 00H, '.', 00H, 'c', 00H, 'p'
	DB	00H, 'p', 00H, 00H, 00H
	ORG $+2
$SG82418 DB	'm', 00H, '_', 00H, 'p', 00H, 'I', 00H, 'n', 00H, 'p', 00H
	DB	'u', 00H, 't', 00H, 'P', 00H, 'i', 00H, 'n', 00H, '-', 00H, '>'
	DB	00H, 'I', 00H, 's', 00H, 'F', 00H, 'l', 00H, 'u', 00H, 's', 00H
	DB	'h', 00H, 'i', 00H, 'n', 00H, 'g', 00H, '(', 00H, ')', 00H, ' '
	DB	00H, '=', 00H, '=', 00H, ' ', 00H, 'F', 00H, 'A', 00H, 'L', 00H
	DB	'S', 00H, 'E', 00H, 00H, 00H
	ORG $+2
$SG82422 DB	'I', 00H, 'n', 00H, 'p', 00H, 'u', 00H, 't', 00H, ' ', 00H
	DB	'p', 00H, 'i', 00H, 'n', 00H, ' ', 00H, 'i', 00H, 's', 00H, ' '
	DB	00H, 'n', 00H, 'o', 00H, 't', 00H, ' ', 00H, 'c', 00H, 'o', 00H
	DB	'n', 00H, 'n', 00H, 'e', 00H, 'c', 00H, 't', 00H, 'e', 00H, 'd'
	DB	00H, 00H, 00H
	ORG $+2
$SG82427 DB	'P', 00H, 'a', 00H, 'u', 00H, 's', 00H, 'e', 00H, ' ', 00H
	DB	'f', 00H, 'a', 00H, 'i', 00H, 'l', 00H, 'e', 00H, 'd', 00H, 00H
	DB	00H
	ORG $+6
$SG82432 DB	'.', 00H, '.', 00H, '\', 00H, 'r', 00H, 'e', 00H, 'n', 00H
	DB	'b', 00H, 'a', 00H, 's', 00H, 'e', 00H, '.', 00H, 'c', 00H, 'p'
	DB	00H, 'p', 00H, 00H, 00H
	ORG $+2
$SG82433 DB	'C', 00H, 'a', 00H, 'n', 00H, 'c', 00H, 'e', 00H, 'l', 00H
	DB	'N', 00H, 'o', 00H, 't', 00H, 'i', 00H, 'f', 00H, 'i', 00H, 'c'
	DB	00H, 'a', 00H, 't', 00H, 'i', 00H, 'o', 00H, 'n', 00H, '(', 00H
	DB	')', 00H, ' ', 00H, '=', 00H, '=', 00H, ' ', 00H, 'S', 00H, '_'
	DB	00H, 'F', 00H, 'A', 00H, 'L', 00H, 'S', 00H, 'E', 00H, 00H, 00H
$SG82436 DB	'.', 00H, '.', 00H, '\', 00H, 'r', 00H, 'e', 00H, 'n', 00H
	DB	'b', 00H, 'a', 00H, 's', 00H, 'e', 00H, '.', 00H, 'c', 00H, 'p'
	DB	00H, 'p', 00H, 00H, 00H
	ORG $+2
$SG82437 DB	'W', 00H, 'A', 00H, 'I', 00H, 'T', 00H, '_', 00H, 'T', 00H
	DB	'I', 00H, 'M', 00H, 'E', 00H, 'O', 00H, 'U', 00H, 'T', 00H, ' '
	DB	00H, '=', 00H, '=', 00H, ' ', 00H, 'W', 00H, 'a', 00H, 'i', 00H
	DB	't', 00H, 'F', 00H, 'o', 00H, 'r', 00H, 'S', 00H, 'i', 00H, 'n'
	DB	00H, 'g', 00H, 'l', 00H, 'e', 00H, 'O', 00H, 'b', 00H, 'j', 00H
	DB	'e', 00H, 'c', 00H, 't', 00H, '(', 00H, '(', 00H, 'H', 00H, 'A'
	DB	00H, 'N', 00H, 'D', 00H, 'L', 00H, 'E', 00H, ')', 00H, 'm', 00H
	DB	'_', 00H, 'R', 00H, 'e', 00H, 'n', 00H, 'd', 00H, 'e', 00H, 'r'
	DB	00H, 'E', 00H, 'v', 00H, 'e', 00H, 'n', 00H, 't', 00H, ',', 00H
	DB	'0', 00H, ')', 00H, 00H, 00H
	ORG $+6
$SG82439 DB	'.', 00H, '.', 00H, '\', 00H, 'r', 00H, 'e', 00H, 'n', 00H
	DB	'b', 00H, 'a', 00H, 's', 00H, 'e', 00H, '.', 00H, 'c', 00H, 'p'
	DB	00H, 'p', 00H, 00H, 00H
	ORG $+2
$SG82440 DB	'm', 00H, '_', 00H, 'E', 00H, 'n', 00H, 'd', 00H, 'O', 00H
	DB	'f', 00H, 'S', 00H, 't', 00H, 'r', 00H, 'e', 00H, 'a', 00H, 'm'
	DB	00H, 'T', 00H, 'i', 00H, 'm', 00H, 'e', 00H, 'r', 00H, ' ', 00H
	DB	'=', 00H, '=', 00H, ' ', 00H, '0', 00H, 00H, 00H
$SG82442 DB	'.', 00H, '.', 00H, '\', 00H, 'r', 00H, 'e', 00H, 'n', 00H
	DB	'b', 00H, 'a', 00H, 's', 00H, 'e', 00H, '.', 00H, 'c', 00H, 'p'
	DB	00H, 'p', 00H, 00H, 00H
	ORG $+2
$SG82443 DB	'm', 00H, '_', 00H, 'p', 00H, 'I', 00H, 'n', 00H, 'p', 00H
	DB	'u', 00H, 't', 00H, 'P', 00H, 'i', 00H, 'n', 00H, '-', 00H, '>'
	DB	00H, 'I', 00H, 's', 00H, 'F', 00H, 'l', 00H, 'u', 00H, 's', 00H
	DB	'h', 00H, 'i', 00H, 'n', 00H, 'g', 00H, '(', 00H, ')', 00H, ' '
	DB	00H, '=', 00H, '=', 00H, ' ', 00H, 'F', 00H, 'A', 00H, 'L', 00H
	DB	'S', 00H, 'E', 00H, 00H, 00H
	ORG $+2
$SG82462 DB	'R', 00H, 'u', 00H, 'n', 00H, ' ', 00H, 'f', 00H, 'a', 00H
	DB	'i', 00H, 'l', 00H, 'e', 00H, 'd', 00H, 00H, 00H
	ORG $+2
$SG82465 DB	'.', 00H, '.', 00H, '\', 00H, 'r', 00H, 'e', 00H, 'n', 00H
	DB	'b', 00H, 'a', 00H, 's', 00H, 'e', 00H, '.', 00H, 'c', 00H, 'p'
	DB	00H, 'p', 00H, 00H, 00H
	ORG $+2
$SG82466 DB	'm', 00H, '_', 00H, 'p', 00H, 'I', 00H, 'n', 00H, 'p', 00H
	DB	'u', 00H, 't', 00H, 'P', 00H, 'i', 00H, 'n', 00H, '-', 00H, '>'
	DB	00H, 'I', 00H, 's', 00H, 'F', 00H, 'l', 00H, 'u', 00H, 's', 00H
	DB	'h', 00H, 'i', 00H, 'n', 00H, 'g', 00H, '(', 00H, ')', 00H, ' '
	DB	00H, '=', 00H, '=', 00H, ' ', 00H, 'F', 00H, 'A', 00H, 'L', 00H
	DB	'S', 00H, 'E', 00H, 00H, 00H
	ORG $+2
$SG82469 DB	'.', 00H, '.', 00H, '\', 00H, 'r', 00H, 'e', 00H, 'n', 00H
	DB	'b', 00H, 'a', 00H, 's', 00H, 'e', 00H, '.', 00H, 'c', 00H, 'p'
	DB	00H, 'p', 00H, 00H, 00H
	ORG $+2
$SG82477 DB	'm', 00H, '_', 00H, 'E', 00H, 'n', 00H, 'd', 00H, 'O', 00H
	DB	'f', 00H, 'S', 00H, 't', 00H, 'r', 00H, 'e', 00H, 'a', 00H, 'm'
	DB	00H, 'T', 00H, 'i', 00H, 'm', 00H, 'e', 00H, 'r', 00H, ' ', 00H
	DB	'=', 00H, '=', 00H, ' ', 00H, '0', 00H, 00H, 00H
$SG82520 DB	'I', 00H, 'n', 00H, 00H, 00H
	ORG $+2
$SG82470 DB	'C', 00H, 'a', 00H, 'n', 00H, 'c', 00H, 'e', 00H, 'l', 00H
	DB	'N', 00H, 'o', 00H, 't', 00H, 'i', 00H, 'f', 00H, 'i', 00H, 'c'
	DB	00H, 'a', 00H, 't', 00H, 'i', 00H, 'o', 00H, 'n', 00H, '(', 00H
	DB	')', 00H, ' ', 00H, '=', 00H, '=', 00H, ' ', 00H, 'S', 00H, '_'
	DB	00H, 'F', 00H, 'A', 00H, 'L', 00H, 'S', 00H, 'E', 00H, 00H, 00H
$SG82473 DB	'.', 00H, '.', 00H, '\', 00H, 'r', 00H, 'e', 00H, 'n', 00H
	DB	'b', 00H, 'a', 00H, 's', 00H, 'e', 00H, '.', 00H, 'c', 00H, 'p'
	DB	00H, 'p', 00H, 00H, 00H
	ORG $+2
$SG82474 DB	'W', 00H, 'A', 00H, 'I', 00H, 'T', 00H, '_', 00H, 'T', 00H
	DB	'I', 00H, 'M', 00H, 'E', 00H, 'O', 00H, 'U', 00H, 'T', 00H, ' '
	DB	00H, '=', 00H, '=', 00H, ' ', 00H, 'W', 00H, 'a', 00H, 'i', 00H
	DB	't', 00H, 'F', 00H, 'o', 00H, 'r', 00H, 'S', 00H, 'i', 00H, 'n'
	DB	00H, 'g', 00H, 'l', 00H, 'e', 00H, 'O', 00H, 'b', 00H, 'j', 00H
	DB	'e', 00H, 'c', 00H, 't', 00H, '(', 00H, '(', 00H, 'H', 00H, 'A'
	DB	00H, 'N', 00H, 'D', 00H, 'L', 00H, 'E', 00H, ')', 00H, 'm', 00H
	DB	'_', 00H, 'R', 00H, 'e', 00H, 'n', 00H, 'd', 00H, 'e', 00H, 'r'
	DB	00H, 'E', 00H, 'v', 00H, 'e', 00H, 'n', 00H, 't', 00H, ',', 00H
	DB	'0', 00H, ')', 00H, 00H, 00H
	ORG $+6
$SG82476 DB	'.', 00H, '.', 00H, '\', 00H, 'r', 00H, 'e', 00H, 'n', 00H
	DB	'b', 00H, 'a', 00H, 's', 00H, 'e', 00H, '.', 00H, 'c', 00H, 'p'
	DB	00H, 'p', 00H, 00H, 00H
	ORG $+2
$SG82479 DB	'.', 00H, '.', 00H, '\', 00H, 'r', 00H, 'e', 00H, 'n', 00H
	DB	'b', 00H, 'a', 00H, 's', 00H, 'e', 00H, '.', 00H, 'c', 00H, 'p'
	DB	00H, 'p', 00H, 00H, 00H
	ORG $+2
$SG82480 DB	'm', 00H, '_', 00H, 'p', 00H, 'I', 00H, 'n', 00H, 'p', 00H
	DB	'u', 00H, 't', 00H, 'P', 00H, 'i', 00H, 'n', 00H, '-', 00H, '>'
	DB	00H, 'I', 00H, 's', 00H, 'F', 00H, 'l', 00H, 'u', 00H, 's', 00H
	DB	'h', 00H, 'i', 00H, 'n', 00H, 'g', 00H, '(', 00H, ')', 00H, ' '
	DB	00H, '=', 00H, '=', 00H, ' ', 00H, 'F', 00H, 'A', 00H, 'L', 00H
	DB	'S', 00H, 'E', 00H, 00H, 00H
	ORG $+2
$SG82493 DB	'.', 00H, '.', 00H, '\', 00H, 'r', 00H, 'e', 00H, 'n', 00H
	DB	'b', 00H, 'a', 00H, 's', 00H, 'e', 00H, '.', 00H, 'c', 00H, 'p'
	DB	00H, 'p', 00H, 00H, 00H
	ORG $+2
$SG82494 DB	'n', 00H, ' ', 00H, '=', 00H, '=', 00H, ' ', 00H, '0', 00H
	DB	00H, 00H
	ORG $+2
$SG82522 DB	'.', 00H, '.', 00H, '\', 00H, 'r', 00H, 'e', 00H, 'n', 00H
	DB	'b', 00H, 'a', 00H, 's', 00H, 'e', 00H, '.', 00H, 'c', 00H, 'p'
	DB	00H, 'p', 00H, 00H, 00H
	ORG $+2
$SG82523 DB	'*', 00H, 'p', 00H, 'p', 00H, 'P', 00H, 'i', 00H, 'n', 00H
	DB	00H, 00H
	ORG $+2
$SG82542 DB	'.', 00H, '.', 00H, '\', 00H, 'r', 00H, 'e', 00H, 'n', 00H
	DB	'b', 00H, 'a', 00H, 's', 00H, 'e', 00H, '.', 00H, 'c', 00H, 'p'
	DB	00H, 'p', 00H, 00H, 00H
	ORG $+2
$SG82584 DB	'm', 00H, '_', 00H, 'd', 00H, 'w', 00H, 'A', 00H, 'd', 00H
	DB	'v', 00H, 'i', 00H, 's', 00H, 'e', 00H, ' ', 00H, '=', 00H, '='
	DB	00H, ' ', 00H, '0', 00H, 00H, 00H
$SG82611 DB	'm', 00H, '_', 00H, 'd', 00H, 'w', 00H, 'A', 00H, 'd', 00H
	DB	'v', 00H, 'i', 00H, 's', 00H, 'e', 00H, ' ', 00H, '=', 00H, '='
	DB	00H, ' ', 00H, '0', 00H, ' ', 00H, '|', 00H, '|', 00H, ' ', 00H
	DB	'm', 00H, '_', 00H, 'p', 00H, 'C', 00H, 'l', 00H, 'o', 00H, 'c'
	DB	00H, 'k', 00H, 00H, 00H
$SG82543 DB	'C', 00H, 'a', 00H, 'n', 00H, 'c', 00H, 'e', 00H, 'l', 00H
	DB	'N', 00H, 'o', 00H, 't', 00H, 'i', 00H, 'f', 00H, 'i', 00H, 'c'
	DB	00H, 'a', 00H, 't', 00H, 'i', 00H, 'o', 00H, 'n', 00H, '(', 00H
	DB	')', 00H, ' ', 00H, '=', 00H, '=', 00H, ' ', 00H, 'S', 00H, '_'
	DB	00H, 'F', 00H, 'A', 00H, 'L', 00H, 'S', 00H, 'E', 00H, 00H, 00H
$SG82549 DB	'.', 00H, '.', 00H, '\', 00H, 'r', 00H, 'e', 00H, 'n', 00H
	DB	'b', 00H, 'a', 00H, 's', 00H, 'e', 00H, '.', 00H, 'c', 00H, 'p'
	DB	00H, 'p', 00H, 00H, 00H
	ORG $+2
$SG82550 DB	'C', 00H, 'r', 00H, 'i', 00H, 't', 00H, 'C', 00H, 'h', 00H
	DB	'e', 00H, 'c', 00H, 'k', 00H, 'I', 00H, 'n', 00H, '(', 00H, '&'
	DB	00H, 'm', 00H, '_', 00H, 'I', 00H, 'n', 00H, 't', 00H, 'e', 00H
	DB	'r', 00H, 'f', 00H, 'a', 00H, 'c', 00H, 'e', 00H, 'L', 00H, 'o'
	DB	00H, 'c', 00H, 'k', 00H, ')', 00H, 00H, 00H
	ORG $+4
$SG82583 DB	'.', 00H, '.', 00H, '\', 00H, 'r', 00H, 'e', 00H, 'n', 00H
	DB	'b', 00H, 'a', 00H, 's', 00H, 'e', 00H, '.', 00H, 'c', 00H, 'p'
	DB	00H, 'p', 00H, 00H, 00H
	ORG $+2
$SG82586 DB	'.', 00H, '.', 00H, '\', 00H, 'r', 00H, 'e', 00H, 'n', 00H
	DB	'b', 00H, 'a', 00H, 's', 00H, 'e', 00H, '.', 00H, 'c', 00H, 'p'
	DB	00H, 'p', 00H, 00H, 00H
	ORG $+2
$SG82587 DB	'p', 00H, 'M', 00H, 'e', 00H, 'd', 00H, 'i', 00H, 'a', 00H
	DB	'S', 00H, 'a', 00H, 'm', 00H, 'p', 00H, 'l', 00H, 'e', 00H, 00H
	DB	00H
	ORG $+6
$SG82610 DB	'.', 00H, '.', 00H, '\', 00H, 'r', 00H, 'e', 00H, 'n', 00H
	DB	'b', 00H, 'a', 00H, 's', 00H, 'e', 00H, '.', 00H, 'c', 00H, 'p'
	DB	00H, 'p', 00H, 00H, 00H
	ORG $+2
$SG82615 DB	'.', 00H, '.', 00H, '\', 00H, 'r', 00H, 'e', 00H, 'n', 00H
	DB	'b', 00H, 'a', 00H, 's', 00H, 'e', 00H, '.', 00H, 'c', 00H, 'p'
	DB	00H, 'p', 00H, 00H, 00H
	ORG $+2
$SG82616 DB	'm', 00H, '_', 00H, 'd', 00H, 'w', 00H, 'A', 00H, 'd', 00H
	DB	'v', 00H, 'i', 00H, 's', 00H, 'e', 00H, ' ', 00H, '=', 00H, '='
	DB	00H, ' ', 00H, '0', 00H, 00H, 00H
$SG82633 DB	'.', 00H, '.', 00H, '\', 00H, 'r', 00H, 'e', 00H, 'n', 00H
	DB	'b', 00H, 'a', 00H, 's', 00H, 'e', 00H, '.', 00H, 'c', 00H, 'p'
	DB	00H, 'p', 00H, 00H, 00H
	ORG $+2
$SG82634 DB	'S', 00H, 'e', 00H, 't', 00H, 'E', 00H, 'v', 00H, 'e', 00H
	DB	'n', 00H, 't', 00H, '(', 00H, '(', 00H, 'H', 00H, 'A', 00H, 'N'
	DB	00H, 'D', 00H, 'L', 00H, 'E', 00H, ')', 00H, ' ', 00H, 'm', 00H
	DB	'_', 00H, 'R', 00H, 'e', 00H, 'n', 00H, 'd', 00H, 'e', 00H, 'r'
	DB	00H, 'E', 00H, 'v', 00H, 'e', 00H, 'n', 00H, 't', 00H, ')', 00H
	DB	00H, 00H
	ORG $+6
$SG82636 DB	'.', 00H, '.', 00H, '\', 00H, 'r', 00H, 'e', 00H, 'n', 00H
	DB	'b', 00H, 'a', 00H, 's', 00H, 'e', 00H, '.', 00H, 'c', 00H, 'p'
	DB	00H, 'p', 00H, 00H, 00H
	ORG $+2
$SG82637 DB	'm', 00H, '_', 00H, 'd', 00H, 'w', 00H, 'A', 00H, 'd', 00H
	DB	'v', 00H, 'i', 00H, 's', 00H, 'e', 00H, ' ', 00H, '=', 00H, '='
	DB	00H, ' ', 00H, '0', 00H, 00H, 00H
$SG82639 DB	'.', 00H, '.', 00H, '\', 00H, 'r', 00H, 'e', 00H, 'n', 00H
	DB	'b', 00H, 'a', 00H, 's', 00H, 'e', 00H, '.', 00H, 'c', 00H, 'p'
	DB	00H, 'p', 00H, 00H, 00H
	ORG $+2
$SG82640 DB	'm', 00H, '_', 00H, 'p', 00H, 'C', 00H, 'l', 00H, 'o', 00H
	DB	'c', 00H, 'k', 00H, 00H, 00H
	ORG $+6
$SG82643 DB	'.', 00H, '.', 00H, '\', 00H, 'r', 00H, 'e', 00H, 'n', 00H
	DB	'b', 00H, 'a', 00H, 's', 00H, 'e', 00H, '.', 00H, 'c', 00H, 'p'
	DB	00H, 'p', 00H, 00H, 00H
	ORG $+2
$SG82644 DB	'W', 00H, 'A', 00H, 'I', 00H, 'T', 00H, '_', 00H, 'T', 00H
	DB	'I', 00H, 'M', 00H, 'E', 00H, 'O', 00H, 'U', 00H, 'T', 00H, ' '
	DB	00H, '=', 00H, '=', 00H, ' ', 00H, 'W', 00H, 'a', 00H, 'i', 00H
	DB	't', 00H, 'F', 00H, 'o', 00H, 'r', 00H, 'S', 00H, 'i', 00H, 'n'
	DB	00H, 'g', 00H, 'l', 00H, 'e', 00H, 'O', 00H, 'b', 00H, 'j', 00H
	DB	'e', 00H, 'c', 00H, 't', 00H, '(', 00H, '(', 00H, 'H', 00H, 'A'
	DB	00H, 'N', 00H, 'D', 00H, 'L', 00H, 'E', 00H, ')', 00H, 'm', 00H
	DB	'_', 00H, 'R', 00H, 'e', 00H, 'n', 00H, 'd', 00H, 'e', 00H, 'r'
	DB	00H, 'E', 00H, 'v', 00H, 'e', 00H, 'n', 00H, 't', 00H, ',', 00H
	DB	'0', 00H, ')', 00H, 00H, 00H
	ORG $+6
$SG82651 DB	'.', 00H, '.', 00H, '\', 00H, 'r', 00H, 'e', 00H, 'n', 00H
	DB	'b', 00H, 'a', 00H, 's', 00H, 'e', 00H, '.', 00H, 'c', 00H, 'p'
	DB	00H, 'p', 00H, 00H, 00H
	ORG $+2
$SG82652 DB	'm', 00H, '_', 00H, 'd', 00H, 'w', 00H, 'A', 00H, 'd', 00H
	DB	'v', 00H, 'i', 00H, 's', 00H, 'e', 00H, ' ', 00H, '=', 00H, '='
	DB	00H, ' ', 00H, '0', 00H, 00H, 00H
$SG82688 DB	'.', 00H, '.', 00H, '\', 00H, 'r', 00H, 'e', 00H, 'n', 00H
	DB	'b', 00H, 'a', 00H, 's', 00H, 'e', 00H, '.', 00H, 'c', 00H, 'p'
	DB	00H, 'p', 00H, 00H, 00H
	ORG $+2
$SG82689 DB	'I', 00H, 's', 00H, 'A', 00H, 'c', 00H, 't', 00H, 'i', 00H
	DB	'v', 00H, 'e', 00H, '(', 00H, ')', 00H, ' ', 00H, '=', 00H, '='
	DB	00H, ' ', 00H, 'T', 00H, 'R', 00H, 'U', 00H, 'E', 00H, 00H, 00H
	ORG $+2
$SG82691 DB	'.', 00H, '.', 00H, '\', 00H, 'r', 00H, 'e', 00H, 'n', 00H
	DB	'b', 00H, 'a', 00H, 's', 00H, 'e', 00H, '.', 00H, 'c', 00H, 'p'
	DB	00H, 'p', 00H, 00H, 00H
	ORG $+2
$SG82723 DB	'p', 00H, 'S', 00H, 'a', 00H, 'm', 00H, 'p', 00H, 'l', 00H
	DB	'e', 00H, 00H, 00H
$SG82782 DB	'C', 00H, 'u', 00H, 'r', 00H, 'r', 00H, 'e', 00H, 'n', 00H
	DB	't', 00H, ' ', 00H, '%', 00H, 's', 00H, 00H, 00H
	ORG $+2
$SG82692 DB	'm', 00H, '_', 00H, 'p', 00H, 'I', 00H, 'n', 00H, 'p', 00H
	DB	'u', 00H, 't', 00H, 'P', 00H, 'i', 00H, 'n', 00H, '-', 00H, '>'
	DB	00H, 'I', 00H, 's', 00H, 'F', 00H, 'l', 00H, 'u', 00H, 's', 00H
	DB	'h', 00H, 'i', 00H, 'n', 00H, 'g', 00H, '(', 00H, ')', 00H, ' '
	DB	00H, '=', 00H, '=', 00H, ' ', 00H, 'F', 00H, 'A', 00H, 'L', 00H
	DB	'S', 00H, 'E', 00H, 00H, 00H
	ORG $+2
$SG82694 DB	'.', 00H, '.', 00H, '\', 00H, 'r', 00H, 'e', 00H, 'n', 00H
	DB	'b', 00H, 'a', 00H, 's', 00H, 'e', 00H, '.', 00H, 'c', 00H, 'p'
	DB	00H, 'p', 00H, 00H, 00H
	ORG $+2
$SG82786 DB	'S', 00H, 'i', 00H, 'g', 00H, 'n', 00H, 'a', 00H, 'l', 00H
	DB	' ', 00H, '%', 00H, 's', 00H, 00H, 00H
	ORG $+4
$SG82695 DB	'm', 00H, '_', 00H, 'p', 00H, 'I', 00H, 'n', 00H, 'p', 00H
	DB	'u', 00H, 't', 00H, 'P', 00H, 'i', 00H, 'n', 00H, '-', 00H, '>'
	DB	00H, 'I', 00H, 's', 00H, 'C', 00H, 'o', 00H, 'n', 00H, 'n', 00H
	DB	'e', 00H, 'c', 00H, 't', 00H, 'e', 00H, 'd', 00H, '(', 00H, ')'
	DB	00H, ' ', 00H, '=', 00H, '=', 00H, ' ', 00H, 'T', 00H, 'R', 00H
	DB	'U', 00H, 'E', 00H, 00H, 00H
	ORG $+2
$SG82697 DB	'.', 00H, '.', 00H, '\', 00H, 'r', 00H, 'e', 00H, 'n', 00H
	DB	'b', 00H, 'a', 00H, 's', 00H, 'e', 00H, '.', 00H, 'c', 00H, 'p'
	DB	00H, 'p', 00H, 00H, 00H
	ORG $+2
$SG82698 DB	'm', 00H, '_', 00H, 'p', 00H, 'M', 00H, 'e', 00H, 'd', 00H
	DB	'i', 00H, 'a', 00H, 'S', 00H, 'a', 00H, 'm', 00H, 'p', 00H, 'l'
	DB	00H, 'e', 00H, ' ', 00H, '=', 00H, '=', 00H, ' ', 00H, 'N', 00H
	DB	'U', 00H, 'L', 00H, 'L', 00H, 00H, 00H
	ORG $+2
$SG82707 DB	'.', 00H, '.', 00H, '\', 00H, 'r', 00H, 'e', 00H, 'n', 00H
	DB	'b', 00H, 'a', 00H, 's', 00H, 'e', 00H, '.', 00H, 'c', 00H, 'p'
	DB	00H, 'p', 00H, 00H, 00H
	ORG $+2
$SG82796 DB	'm', 00H, '_', 00H, 'b', 00H, 'E', 00H, 'O', 00H, 'S', 00H
	DB	'D', 00H, 'e', 00H, 'l', 00H, 'i', 00H, 'v', 00H, 'e', 00H, 'r'
	DB	00H, 'e', 00H, 'd', 00H, ' ', 00H, '=', 00H, '=', 00H, ' ', 00H
	DB	'F', 00H, 'A', 00H, 'L', 00H, 'S', 00H, 'E', 00H, 00H, 00H
	ORG $+6
$SG82708 DB	'W', 00H, 'A', 00H, 'I', 00H, 'T', 00H, '_', 00H, 'T', 00H
	DB	'I', 00H, 'M', 00H, 'E', 00H, 'O', 00H, 'U', 00H, 'T', 00H, ' '
	DB	00H, '=', 00H, '=', 00H, ' ', 00H, 'W', 00H, 'a', 00H, 'i', 00H
	DB	't', 00H, 'F', 00H, 'o', 00H, 'r', 00H, 'S', 00H, 'i', 00H, 'n'
	DB	00H, 'g', 00H, 'l', 00H, 'e', 00H, 'O', 00H, 'b', 00H, 'j', 00H
	DB	'e', 00H, 'c', 00H, 't', 00H, '(', 00H, '(', 00H, 'H', 00H, 'A'
	DB	00H, 'N', 00H, 'D', 00H, 'L', 00H, 'E', 00H, ')', 00H, 'm', 00H
	DB	'_', 00H, 'R', 00H, 'e', 00H, 'n', 00H, 'd', 00H, 'e', 00H, 'r'
	DB	00H, 'E', 00H, 'v', 00H, 'e', 00H, 'n', 00H, 't', 00H, ',', 00H
	DB	'0', 00H, ')', 00H, 00H, 00H
	ORG $+6
$SG82711 DB	'.', 00H, '.', 00H, '\', 00H, 'r', 00H, 'e', 00H, 'n', 00H
	DB	'b', 00H, 'a', 00H, 's', 00H, 'e', 00H, '.', 00H, 'c', 00H, 'p'
	DB	00H, 'p', 00H, 00H, 00H
	ORG $+2
$SG82712 DB	'C', 00H, 'a', 00H, 'n', 00H, 'c', 00H, 'e', 00H, 'l', 00H
	DB	'N', 00H, 'o', 00H, 't', 00H, 'i', 00H, 'f', 00H, 'i', 00H, 'c'
	DB	00H, 'a', 00H, 't', 00H, 'i', 00H, 'o', 00H, 'n', 00H, '(', 00H
	DB	')', 00H, ' ', 00H, '=', 00H, '=', 00H, ' ', 00H, 'S', 00H, '_'
	DB	00H, 'F', 00H, 'A', 00H, 'L', 00H, 'S', 00H, 'E', 00H, 00H, 00H
$SG82722 DB	'.', 00H, '.', 00H, '\', 00H, 'r', 00H, 'e', 00H, 'n', 00H
	DB	'b', 00H, 'a', 00H, 's', 00H, 'e', 00H, '.', 00H, 'c', 00H, 'p'
	DB	00H, 'p', 00H, 00H, 00H
	ORG $+2
$SG82727 DB	'.', 00H, '.', 00H, '\', 00H, 'r', 00H, 'e', 00H, 'n', 00H
	DB	'b', 00H, 'a', 00H, 's', 00H, 'e', 00H, '.', 00H, 'c', 00H, 'p'
	DB	00H, 'p', 00H, 00H, 00H
	ORG $+2
$SG82728 DB	'm', 00H, '_', 00H, 'b', 00H, 'I', 00H, 'n', 00H, 'R', 00H
	DB	'e', 00H, 'c', 00H, 'e', 00H, 'i', 00H, 'v', 00H, 'e', 00H, ' '
	DB	00H, '=', 00H, '=', 00H, ' ', 00H, 'S', 00H, 'U', 00H, 'C', 00H
	DB	'C', 00H, 'E', 00H, 'E', 00H, 'D', 00H, 'E', 00H, 'D', 00H, '('
	DB	00H, 'h', 00H, 'r', 00H, ')', 00H, 00H, 00H
	ORG $+4
$SG82760 DB	'E', 00H, 'n', 00H, 'd', 00H, 'O', 00H, 'f', 00H, 'S', 00H
	DB	't', 00H, 'r', 00H, 'e', 00H, 'a', 00H, 'm', 00H, 'T', 00H, 'i'
	DB	00H, 'm', 00H, 'e', 00H, 'r', 00H, ' ', 00H, 'c', 00H, 'a', 00H
	DB	'l', 00H, 'l', 00H, 'e', 00H, 'd', 00H, ' ', 00H, '(', 00H, '%'
	DB	00H, 'd', 00H, ')', 00H, 00H, 00H
	ORG $+6
$SG82770 DB	'.', 00H, '.', 00H, '\', 00H, 'r', 00H, 'e', 00H, 'n', 00H
	DB	'b', 00H, 'a', 00H, 's', 00H, 'e', 00H, '.', 00H, 'c', 00H, 'p'
	DB	00H, 'p', 00H, 00H, 00H
	ORG $+2
$SG82771 DB	'C', 00H, 'r', 00H, 'i', 00H, 't', 00H, 'C', 00H, 'h', 00H
	DB	'e', 00H, 'c', 00H, 'k', 00H, 'I', 00H, 'n', 00H, '(', 00H, '&'
	DB	00H, 'm', 00H, '_', 00H, 'R', 00H, 'e', 00H, 'n', 00H, 'd', 00H
	DB	'e', 00H, 'r', 00H, 'e', 00H, 'r', 00H, 'L', 00H, 'o', 00H, 'c'
	DB	00H, 'k', 00H, ')', 00H, 00H, 00H
	ORG $+6
$SG82778 DB	'D', 00H, 'e', 00H, 'l', 00H, 'a', 00H, 'y', 00H, ' ', 00H
	DB	'u', 00H, 'n', 00H, 't', 00H, 'i', 00H, 'l', 00H, ' ', 00H, 'e'
	DB	00H, 'n', 00H, 'd', 00H, ' ', 00H, 'o', 00H, 'f', 00H, ' ', 00H
	DB	's', 00H, 't', 00H, 'r', 00H, 'e', 00H, 'a', 00H, 'm', 00H, ' '
	DB	00H, 'd', 00H, 'e', 00H, 'l', 00H, 'i', 00H, 'v', 00H, 'e', 00H
	DB	'r', 00H, 'y', 00H, ' ', 00H, '%', 00H, 'd', 00H, 00H, 00H
	ORG $+4
$SG82795 DB	'.', 00H, '.', 00H, '\', 00H, 'r', 00H, 'e', 00H, 'n', 00H
	DB	'b', 00H, 'a', 00H, 's', 00H, 'e', 00H, '.', 00H, 'c', 00H, 'p'
	DB	00H, 'p', 00H, 00H, 00H
	ORG $+2
$SG82798 DB	'.', 00H, '.', 00H, '\', 00H, 'r', 00H, 'e', 00H, 'n', 00H
	DB	'b', 00H, 'a', 00H, 's', 00H, 'e', 00H, '.', 00H, 'c', 00H, 'p'
	DB	00H, 'p', 00H, 00H, 00H
	ORG $+2
$SG82799 DB	'm', 00H, '_', 00H, 'E', 00H, 'n', 00H, 'd', 00H, 'O', 00H
	DB	'f', 00H, 'S', 00H, 't', 00H, 'r', 00H, 'e', 00H, 'a', 00H, 'm'
	DB	00H, 'T', 00H, 'i', 00H, 'm', 00H, 'e', 00H, 'r', 00H, ' ', 00H
	DB	'=', 00H, '=', 00H, ' ', 00H, '0', 00H, 00H, 00H
$SG82802 DB	'.', 00H, '.', 00H, '\', 00H, 'r', 00H, 'e', 00H, 'n', 00H
	DB	'b', 00H, 'a', 00H, 's', 00H, 'e', 00H, '.', 00H, 'c', 00H, 'p'
	DB	00H, 'p', 00H, 00H, 00H
	ORG $+2
$SG82803 DB	'm', 00H, '_', 00H, 'E', 00H, 'n', 00H, 'd', 00H, 'O', 00H
	DB	'f', 00H, 'S', 00H, 't', 00H, 'r', 00H, 'e', 00H, 'a', 00H, 'm'
	DB	00H, 'T', 00H, 'i', 00H, 'm', 00H, 'e', 00H, 'r', 00H, ' ', 00H
	DB	'=', 00H, '=', 00H, ' ', 00H, '0', 00H, 00H, 00H
$SG82806 DB	'S', 00H, 'e', 00H, 'n', 00H, 'd', 00H, 'i', 00H, 'n', 00H
	DB	'g', 00H, ' ', 00H, 'E', 00H, 'C', 00H, '_', 00H, 'C', 00H, 'O'
	DB	00H, 'M', 00H, 'P', 00H, 'L', 00H, 'E', 00H, 'T', 00H, 'E', 00H
	DB	'.', 00H, '.', 00H, '.', 00H, 00H, 00H
	ORG $+2
$SG82820 DB	'.', 00H, '.', 00H, '\', 00H, 'r', 00H, 'e', 00H, 'n', 00H
	DB	'b', 00H, 'a', 00H, 's', 00H, 'e', 00H, '.', 00H, 'c', 00H, 'p'
	DB	00H, 'p', 00H, 00H, 00H
	ORG $+2
$SG82821 DB	'C', 00H, 'r', 00H, 'i', 00H, 't', 00H, 'C', 00H, 'h', 00H
	DB	'e', 00H, 'c', 00H, 'k', 00H, 'O', 00H, 'u', 00H, 't', 00H, '('
	DB	00H, '&', 00H, 'm', 00H, '_', 00H, 'R', 00H, 'e', 00H, 'n', 00H
	DB	'd', 00H, 'e', 00H, 'r', 00H, 'e', 00H, 'r', 00H, 'L', 00H, 'o'
	DB	00H, 'c', 00H, 'k', 00H, ')', 00H, 00H, 00H
	ORG $+4
$SG82831 DB	'.', 00H, '.', 00H, '\', 00H, 'r', 00H, 'e', 00H, 'n', 00H
	DB	'b', 00H, 'a', 00H, 's', 00H, 'e', 00H, '.', 00H, 'c', 00H, 'p'
	DB	00H, 'p', 00H, 00H, 00H
	ORG $+2
$SG82832 DB	'W', 00H, 'A', 00H, 'I', 00H, 'T', 00H, '_', 00H, 'T', 00H
	DB	'I', 00H, 'M', 00H, 'E', 00H, 'O', 00H, 'U', 00H, 'T', 00H, ' '
	DB	00H, '=', 00H, '=', 00H, ' ', 00H, 'W', 00H, 'a', 00H, 'i', 00H
	DB	't', 00H, 'F', 00H, 'o', 00H, 'r', 00H, 'S', 00H, 'i', 00H, 'n'
	DB	00H, 'g', 00H, 'l', 00H, 'e', 00H, 'O', 00H, 'b', 00H, 'j', 00H
	DB	'e', 00H, 'c', 00H, 't', 00H, '(', 00H, '(', 00H, 'H', 00H, 'A'
	DB	00H, 'N', 00H, 'D', 00H, 'L', 00H, 'E', 00H, ')', 00H, 'm', 00H
	DB	'_', 00H, 'R', 00H, 'e', 00H, 'n', 00H, 'd', 00H, 'e', 00H, 'r'
	DB	00H, 'E', 00H, 'v', 00H, 'e', 00H, 'n', 00H, 't', 00H, ',', 00H
	DB	'0', 00H, ')', 00H, 00H, 00H
	ORG $+6
$SG82835 DB	'.', 00H, '.', 00H, '\', 00H, 'r', 00H, 'e', 00H, 'n', 00H
	DB	'b', 00H, 'a', 00H, 's', 00H, 'e', 00H, '.', 00H, 'c', 00H, 'p'
	DB	00H, 'p', 00H, 00H, 00H
	ORG $+2
$SG82836 DB	'C', 00H, 'a', 00H, 'n', 00H, 'c', 00H, 'e', 00H, 'l', 00H
	DB	'N', 00H, 'o', 00H, 't', 00H, 'i', 00H, 'f', 00H, 'i', 00H, 'c'
	DB	00H, 'a', 00H, 't', 00H, 'i', 00H, 'o', 00H, 'n', 00H, '(', 00H
	DB	')', 00H, ' ', 00H, '=', 00H, '=', 00H, ' ', 00H, 'S', 00H, '_'
	DB	00H, 'F', 00H, 'A', 00H, 'L', 00H, 'S', 00H, 'E', 00H, 00H, 00H
$SG82840 DB	'.', 00H, '.', 00H, '\', 00H, 'r', 00H, 'e', 00H, 'n', 00H
	DB	'b', 00H, 'a', 00H, 's', 00H, 'e', 00H, '.', 00H, 'c', 00H, 'p'
	DB	00H, 'p', 00H, 00H, 00H
	ORG $+2
$SG82841 DB	'm', 00H, '_', 00H, 'p', 00H, 'M', 00H, 'e', 00H, 'd', 00H
	DB	'i', 00H, 'a', 00H, 'S', 00H, 'a', 00H, 'm', 00H, 'p', 00H, 'l'
	DB	00H, 'e', 00H, 00H, 00H
	ORG $+2
$SG82870 DB	'.', 00H, '.', 00H, '\', 00H, 'r', 00H, 'e', 00H, 'n', 00H
	DB	'b', 00H, 'a', 00H, 's', 00H, 'e', 00H, '.', 00H, 'c', 00H, 'p'
	DB	00H, 'p', 00H, 00H, 00H
	ORG $+2
$SG82871 DB	'm', 00H, '_', 00H, 'p', 00H, 'I', 00H, 'n', 00H, 'p', 00H
	DB	'u', 00H, 't', 00H, 'P', 00H, 'i', 00H, 'n', 00H, 00H, 00H
$SG82880 DB	'S', 00H, 'e', 00H, 'n', 00H, 'd', 00H, 'i', 00H, 'n', 00H
	DB	'g', 00H, ' ', 00H, 'r', 00H, 'e', 00H, 'p', 00H, 'a', 00H, 'i'
	DB	00H, 'n', 00H, 't', 00H, 00H, 00H
$SG82910 DB	'm', 00H, '_', 00H, 'p', 00H, 'R', 00H, 'e', 00H, 'n', 00H
	DB	'd', 00H, 'e', 00H, 'r', 00H, 'e', 00H, 'r', 00H, 00H, 00H
$SG82887 DB	'N', 00H, 'o', 00H, 't', 00H, 'i', 00H, 'f', 00H, 'i', 00H
	DB	'c', 00H, 'a', 00H, 't', 00H, 'i', 00H, 'o', 00H, 'n', 00H, ' '
	DB	00H, 'o', 00H, 'f', 00H, ' ', 00H, 'E', 00H, 'C', 00H, '_', 00H
	DB	'D', 00H, 'I', 00H, 'S', 00H, 'P', 00H, 'L', 00H, 'A', 00H, 'Y'
	DB	00H, '_', 00H, 'C', 00H, 'H', 00H, 'A', 00H, 'N', 00H, 'G', 00H
	DB	'E', 00H, 00H, 00H
	ORG $+4
$SG82907 DB	'R', 00H, 'e', 00H, 'n', 00H, 'd', 00H, 'e', 00H, 'r', 00H
	DB	'e', 00H, 'r', 00H, ' ', 00H, 'p', 00H, 'i', 00H, 'n', 00H, 00H
	DB	00H
	ORG $+6
$SG82909 DB	'.', 00H, '.', 00H, '\', 00H, 'r', 00H, 'e', 00H, 'n', 00H
	DB	'b', 00H, 'a', 00H, 's', 00H, 'e', 00H, '.', 00H, 'c', 00H, 'p'
	DB	00H, 'p', 00H, 00H, 00H
	ORG $+2
$SG82951 DB	'.', 00H, '.', 00H, '\', 00H, 'r', 00H, 'e', 00H, 'n', 00H
	DB	'b', 00H, 'a', 00H, 's', 00H, 'e', 00H, '.', 00H, 'c', 00H, 'p'
	DB	00H, 'p', 00H, 00H, 00H
	ORG $+2
$SG82979 DB	'I', 00H, 'n', 00H, 00H, 00H
	ORG $+2
$SG82952 DB	'C', 00H, 'r', 00H, 'i', 00H, 't', 00H, 'C', 00H, 'h', 00H
	DB	'e', 00H, 'c', 00H, 'k', 00H, 'O', 00H, 'u', 00H, 't', 00H, '('
	DB	00H, '&', 00H, 'm', 00H, '_', 00H, 'p', 00H, 'R', 00H, 'e', 00H
	DB	'n', 00H, 'd', 00H, 'e', 00H, 'r', 00H, 'e', 00H, 'r', 00H, '-'
	DB	00H, '>', 00H, 'm', 00H, '_', 00H, 'R', 00H, 'e', 00H, 'n', 00H
	DB	'd', 00H, 'e', 00H, 'r', 00H, 'e', 00H, 'r', 00H, 'L', 00H, 'o'
	DB	00H, 'c', 00H, 'k', 00H, ')', 00H, 00H, 00H
	ORG $+2
$SG82991 DB	'.', 00H, '.', 00H, '\', 00H, 'r', 00H, 'e', 00H, 'n', 00H
	DB	'b', 00H, 'a', 00H, 's', 00H, 'e', 00H, '.', 00H, 'c', 00H, 'p'
	DB	00H, 'p', 00H, 00H, 00H
	ORG $+2
$SG83022 DB	'm', 00H, '_', 00H, 'd', 00H, 'w', 00H, 'A', 00H, 'd', 00H
	DB	'v', 00H, 'i', 00H, 's', 00H, 'e', 00H, ' ', 00H, '=', 00H, '='
	DB	00H, ' ', 00H, '0', 00H, 00H, 00H
$SG83131 DB	'p', 00H, 'O', 00H, 'u', 00H, 't', 00H, 'p', 00H, 'u', 00H
	DB	't', 00H, 'P', 00H, 'i', 00H, 'n', 00H, ' ', 00H, '!', 00H, '='
	DB	00H, ' ', 00H, 'N', 00H, 'U', 00H, 'L', 00H, 'L', 00H, 00H, 00H
	ORG $+2
$SG82992 DB	'C', 00H, 'r', 00H, 'i', 00H, 't', 00H, 'C', 00H, 'h', 00H
	DB	'e', 00H, 'c', 00H, 'k', 00H, 'I', 00H, 'n', 00H, '(', 00H, '&'
	DB	00H, 'm', 00H, '_', 00H, 'p', 00H, 'R', 00H, 'e', 00H, 'n', 00H
	DB	'd', 00H, 'e', 00H, 'r', 00H, 'e', 00H, 'r', 00H, '-', 00H, '>'
	DB	00H, 'm', 00H, '_', 00H, 'I', 00H, 'n', 00H, 't', 00H, 'e', 00H
	DB	'r', 00H, 'f', 00H, 'a', 00H, 'c', 00H, 'e', 00H, 'L', 00H, 'o'
	DB	00H, 'c', 00H, 'k', 00H, ')', 00H, 00H, 00H
	ORG $+2
$SG83021 DB	'.', 00H, '.', 00H, '\', 00H, 'r', 00H, 'e', 00H, 'n', 00H
	DB	'b', 00H, 'a', 00H, 's', 00H, 'e', 00H, '.', 00H, 'c', 00H, 'p'
	DB	00H, 'p', 00H, 00H, 00H
	ORG $+2
$SG83063 DB	'.', 00H, '.', 00H, '\', 00H, 'r', 00H, 'e', 00H, 'n', 00H
	DB	'b', 00H, 'a', 00H, 's', 00H, 'e', 00H, '.', 00H, 'c', 00H, 'p'
	DB	00H, 'p', 00H, 00H, 00H
	ORG $+2
$SG83064 DB	'm', 00H, '_', 00H, 'i', 00H, 'S', 00H, 'u', 00H, 'm', 00H
	DB	'S', 00H, 'q', 00H, 'F', 00H, 'r', 00H, 'a', 00H, 'm', 00H, 'e'
	DB	00H, 'T', 00H, 'i', 00H, 'm', 00H, 'e', 00H, '>', 00H, '=', 00H
	DB	'0', 00H, 00H, 00H
	ORG $+6
$SG83071 DB	'T', 00H, 'h', 00H, 'r', 00H, 'o', 00H, 't', 00H, 't', 00H
	DB	'l', 00H, 'e', 00H, ' ', 00H, '%', 00H, 'd', 00H, ' ', 00H, 'm'
	DB	00H, 's', 00H, 00H, 00H
	ORG $+2
$SG83130 DB	'.', 00H, '.', 00H, '\', 00H, 'r', 00H, 'e', 00H, 'n', 00H
	DB	'b', 00H, 'a', 00H, 's', 00H, 'e', 00H, '.', 00H, 'c', 00H, 'p'
	DB	00H, 'p', 00H, 00H, 00H
	ORG $+2
$SG83144 DB	'.', 00H, '.', 00H, '\', 00H, 'r', 00H, 'e', 00H, 'n', 00H
	DB	'b', 00H, 'a', 00H, 's', 00H, 'e', 00H, '.', 00H, 'c', 00H, 'p'
	DB	00H, 'p', 00H, 00H, 00H
	ORG $+2
$SG83145 DB	'm', 00H, '_', 00H, 'p', 00H, 'C', 00H, 'l', 00H, 'o', 00H
	DB	'c', 00H, 'k', 00H, 00H, 00H
	ORG $+6
$SG83240 DB	'.', 00H, '.', 00H, '\', 00H, 'r', 00H, 'e', 00H, 'n', 00H
	DB	'b', 00H, 'a', 00H, 's', 00H, 'e', 00H, '.', 00H, 'c', 00H, 'p'
	DB	00H, 'p', 00H, 00H, 00H
	ORG $+2
$SG83241 DB	'm', 00H, '_', 00H, 'c', 00H, 'F', 00H, 'r', 00H, 'a', 00H
	DB	'm', 00H, 'e', 00H, 's', 00H, 'D', 00H, 'r', 00H, 'a', 00H, 'w'
	DB	00H, 'n', 00H, ' ', 00H, '=', 00H, '=', 00H, ' ', 00H, '0', 00H
	DB	00H, 00H
$SG83286 DB	'.', 00H, '.', 00H, '\', 00H, 'r', 00H, 'e', 00H, 'n', 00H
	DB	'b', 00H, 'a', 00H, 's', 00H, 'e', 00H, '.', 00H, 'c', 00H, 'p'
	DB	00H, 'p', 00H, 00H, 00H
	ORG $+2
$SG83287 DB	'x', 00H, '>', 00H, '=', 00H, '0', 00H, 00H, 00H
CONST	ENDS
;	COMDAT IID_IAMFilterGraphCallback
CONST	SEGMENT
IID_IAMFilterGraphCallback DD 056a868fdH
	DW	0ad4H
	DW	011ceH
	DB	0b0H
	DB	0a3H
	DB	00H
	DB	020H
	DB	0afH
	DB	0bH
	DB	0a7H
	DB	070H
CONST	ENDS
PUBLIC	?Ready@CBaseRenderer@@QEAAXXZ			; CBaseRenderer::Ready
PUBLIC	??_7CBaseRenderer@@6BIAMovieSetup@@@		; CBaseRenderer::`vftable'
PUBLIC	??_7CBaseRenderer@@6BIBaseFilter@@@		; CBaseRenderer::`vftable'
PUBLIC	??_7CBaseRenderer@@6BCUnknown@@@		; CBaseRenderer::`vftable'
PUBLIC	??0CBaseRenderer@@QEAA@AEBU_GUID@@PEA_WPEAUIUnknown@@PEAJ@Z ; CBaseRenderer::CBaseRenderer
PUBLIC	??_R4CBaseRenderer@@6BCUnknown@@@		; CBaseRenderer::`RTTI Complete Object Locator'
PUBLIC	??_R0?AVCBaseRenderer@@@8			; CBaseRenderer `RTTI Type Descriptor'
PUBLIC	??_R3CBaseRenderer@@8				; CBaseRenderer::`RTTI Class Hierarchy Descriptor'
PUBLIC	??_R2CBaseRenderer@@8				; CBaseRenderer::`RTTI Base Class Array'
PUBLIC	??_R1A@?0A@EA@CBaseRenderer@@8			; CBaseRenderer::`RTTI Base Class Descriptor at (0,-1,0,64)'
PUBLIC	??_R1A@?0A@EA@CBaseFilter@@8			; CBaseFilter::`RTTI Base Class Descriptor at (0,-1,0,64)'
PUBLIC	??_R0?AVCBaseFilter@@@8				; CBaseFilter `RTTI Type Descriptor'
PUBLIC	??_R3CBaseFilter@@8				; CBaseFilter::`RTTI Class Hierarchy Descriptor'
PUBLIC	??_R2CBaseFilter@@8				; CBaseFilter::`RTTI Base Class Array'
PUBLIC	??_R1A@?0A@EA@CUnknown@@8			; CUnknown::`RTTI Base Class Descriptor at (0,-1,0,64)'
PUBLIC	??_R0?AVCUnknown@@@8				; CUnknown `RTTI Type Descriptor'
PUBLIC	??_R3CUnknown@@8				; CUnknown::`RTTI Class Hierarchy Descriptor'
PUBLIC	??_R2CUnknown@@8				; CUnknown::`RTTI Base Class Array'
PUBLIC	??_R1A@?0A@EA@INonDelegatingUnknown@@8		; INonDelegatingUnknown::`RTTI Base Class Descriptor at (0,-1,0,64)'
PUBLIC	??_R0?AUINonDelegatingUnknown@@@8		; INonDelegatingUnknown `RTTI Type Descriptor'
PUBLIC	??_R3INonDelegatingUnknown@@8			; INonDelegatingUnknown::`RTTI Class Hierarchy Descriptor'
PUBLIC	??_R2INonDelegatingUnknown@@8			; INonDelegatingUnknown::`RTTI Base Class Array'
PUBLIC	??_R17?0A@EA@CBaseObject@@8			; CBaseObject::`RTTI Base Class Descriptor at (8,-1,0,64)'
PUBLIC	??_R0?AVCBaseObject@@@8				; CBaseObject `RTTI Type Descriptor'
PUBLIC	??_R3CBaseObject@@8				; CBaseObject::`RTTI Class Hierarchy Descriptor'
PUBLIC	??_R2CBaseObject@@8				; CBaseObject::`RTTI Base Class Array'
PUBLIC	??_R1A@?0A@EA@CBaseObject@@8			; CBaseObject::`RTTI Base Class Descriptor at (0,-1,0,64)'
PUBLIC	??_R1CA@?0A@EA@IBaseFilter@@8			; IBaseFilter::`RTTI Base Class Descriptor at (32,-1,0,64)'
PUBLIC	??_R0?AUIBaseFilter@@@8				; IBaseFilter `RTTI Type Descriptor'
PUBLIC	??_R3IBaseFilter@@8				; IBaseFilter::`RTTI Class Hierarchy Descriptor'
PUBLIC	??_R2IBaseFilter@@8				; IBaseFilter::`RTTI Base Class Array'
PUBLIC	??_R1A@?0A@EA@IBaseFilter@@8			; IBaseFilter::`RTTI Base Class Descriptor at (0,-1,0,64)'
PUBLIC	??_R1A@?0A@EA@IMediaFilter@@8			; IMediaFilter::`RTTI Base Class Descriptor at (0,-1,0,64)'
PUBLIC	??_R0?AUIMediaFilter@@@8			; IMediaFilter `RTTI Type Descriptor'
PUBLIC	??_R3IMediaFilter@@8				; IMediaFilter::`RTTI Class Hierarchy Descriptor'
PUBLIC	??_R2IMediaFilter@@8				; IMediaFilter::`RTTI Base Class Array'
PUBLIC	??_R1A@?0A@EA@IPersist@@8			; IPersist::`RTTI Base Class Descriptor at (0,-1,0,64)'
PUBLIC	??_R0?AUIPersist@@@8				; IPersist `RTTI Type Descriptor'
PUBLIC	??_R3IPersist@@8				; IPersist::`RTTI Class Hierarchy Descriptor'
PUBLIC	??_R2IPersist@@8				; IPersist::`RTTI Base Class Array'
PUBLIC	??_R1A@?0A@EA@IUnknown@@8			; IUnknown::`RTTI Base Class Descriptor at (0,-1,0,64)'
PUBLIC	??_R0?AUIUnknown@@@8				; IUnknown `RTTI Type Descriptor'
PUBLIC	??_R3IUnknown@@8				; IUnknown::`RTTI Class Hierarchy Descriptor'
PUBLIC	??_R2IUnknown@@8				; IUnknown::`RTTI Base Class Array'
PUBLIC	??_R1CA@?0A@EA@IMediaFilter@@8			; IMediaFilter::`RTTI Base Class Descriptor at (32,-1,0,64)'
PUBLIC	??_R1CA@?0A@EA@IPersist@@8			; IPersist::`RTTI Base Class Descriptor at (32,-1,0,64)'
PUBLIC	??_R1CA@?0A@EC@IUnknown@@8			; IUnknown::`RTTI Base Class Descriptor at (32,-1,0,66)'
PUBLIC	??_R1CI@?0A@EA@IAMovieSetup@@8			; IAMovieSetup::`RTTI Base Class Descriptor at (40,-1,0,64)'
PUBLIC	??_R0?AUIAMovieSetup@@@8			; IAMovieSetup `RTTI Type Descriptor'
PUBLIC	??_R3IAMovieSetup@@8				; IAMovieSetup::`RTTI Class Hierarchy Descriptor'
PUBLIC	??_R2IAMovieSetup@@8				; IAMovieSetup::`RTTI Base Class Array'
PUBLIC	??_R1A@?0A@EA@IAMovieSetup@@8			; IAMovieSetup::`RTTI Base Class Descriptor at (0,-1,0,64)'
PUBLIC	??_R1CI@?0A@EC@IUnknown@@8			; IUnknown::`RTTI Base Class Descriptor at (40,-1,0,66)'
PUBLIC	?NonDelegatingQueryInterface@CBaseRenderer@@UEAAJAEBU_GUID@@PEAPEAX@Z ; CBaseRenderer::NonDelegatingQueryInterface
PUBLIC	?GetPinCount@CBaseRenderer@@UEAAHXZ		; CBaseRenderer::GetPinCount
PUBLIC	?GetPin@CBaseRenderer@@UEAAPEAVCBasePin@@H@Z	; CBaseRenderer::GetPin
PUBLIC	?GetSetupData@CBaseFilter@@UEAAPEAU_AMOVIESETUP_FILTER@@XZ ; CBaseFilter::GetSetupData
PUBLIC	?GetMediaPositionInterface@CBaseRenderer@@UEAAJAEBU_GUID@@PEAPEAX@Z ; CBaseRenderer::GetMediaPositionInterface
PUBLIC	?SourceThreadCanWait@CBaseRenderer@@UEAAJH@Z	; CBaseRenderer::SourceThreadCanWait
PUBLIC	?WaitForRenderTime@CBaseRenderer@@UEAAJXZ	; CBaseRenderer::WaitForRenderTime
PUBLIC	?CompleteStateChange@CBaseRenderer@@UEAAJW4_FilterState@@@Z ; CBaseRenderer::CompleteStateChange
PUBLIC	?OnReceiveFirstSample@CBaseRenderer@@UEAAXPEAUIMediaSample@@@Z ; CBaseRenderer::OnReceiveFirstSample
PUBLIC	?OnRenderStart@CBaseRenderer@@UEAAXPEAUIMediaSample@@@Z ; CBaseRenderer::OnRenderStart
PUBLIC	?OnRenderEnd@CBaseRenderer@@UEAAXPEAUIMediaSample@@@Z ; CBaseRenderer::OnRenderEnd
PUBLIC	?OnStartStreaming@CBaseRenderer@@UEAAJXZ	; CBaseRenderer::OnStartStreaming
PUBLIC	?OnStopStreaming@CBaseRenderer@@UEAAJXZ		; CBaseRenderer::OnStopStreaming
PUBLIC	?OnWaitStart@CBaseRenderer@@UEAAXXZ		; CBaseRenderer::OnWaitStart
PUBLIC	?OnWaitEnd@CBaseRenderer@@UEAAXXZ		; CBaseRenderer::OnWaitEnd
PUBLIC	?PrepareRender@CBaseRenderer@@UEAAXXZ		; CBaseRenderer::PrepareRender
PUBLIC	?ScheduleSample@CBaseRenderer@@UEAAHPEAUIMediaSample@@@Z ; CBaseRenderer::ScheduleSample
PUBLIC	?GetSampleTimes@CBaseRenderer@@UEAAJPEAUIMediaSample@@PEA_J1@Z ; CBaseRenderer::GetSampleTimes
PUBLIC	?ShouldDrawSampleNow@CBaseRenderer@@UEAAJPEAUIMediaSample@@PEA_J1@Z ; CBaseRenderer::ShouldDrawSampleNow
PUBLIC	?SendEndOfStream@CBaseRenderer@@UEAAJXZ		; CBaseRenderer::SendEndOfStream
PUBLIC	?ResetEndOfStream@CBaseRenderer@@UEAAJXZ	; CBaseRenderer::ResetEndOfStream
PUBLIC	?EndOfStream@CBaseRenderer@@UEAAJXZ		; CBaseRenderer::EndOfStream
PUBLIC	?CancelNotification@CBaseRenderer@@UEAAJXZ	; CBaseRenderer::CancelNotification
PUBLIC	?ClearPendingSample@CBaseRenderer@@UEAAJXZ	; CBaseRenderer::ClearPendingSample
PUBLIC	?Active@CBaseRenderer@@UEAAJXZ			; CBaseRenderer::Active
PUBLIC	?Inactive@CBaseRenderer@@UEAAJXZ		; CBaseRenderer::Inactive
PUBLIC	?StartStreaming@CBaseRenderer@@UEAAJXZ		; CBaseRenderer::StartStreaming
PUBLIC	?StopStreaming@CBaseRenderer@@UEAAJXZ		; CBaseRenderer::StopStreaming
PUBLIC	?BeginFlush@CBaseRenderer@@UEAAJXZ		; CBaseRenderer::BeginFlush
PUBLIC	?EndFlush@CBaseRenderer@@UEAAJXZ		; CBaseRenderer::EndFlush
PUBLIC	?BreakConnect@CBaseRenderer@@UEAAJXZ		; CBaseRenderer::BreakConnect
PUBLIC	?SetMediaType@CBaseRenderer@@UEAAJPEBVCMediaType@@@Z ; CBaseRenderer::SetMediaType
PUBLIC	?CompleteConnect@CBaseRenderer@@UEAAJPEAUIPin@@@Z ; CBaseRenderer::CompleteConnect
PUBLIC	?PrepareReceive@CBaseRenderer@@UEAAJPEAUIMediaSample@@@Z ; CBaseRenderer::PrepareReceive
PUBLIC	?Receive@CBaseRenderer@@UEAAJPEAUIMediaSample@@@Z ; CBaseRenderer::Receive
PUBLIC	?HaveCurrentSample@CBaseRenderer@@UEAAHXZ	; CBaseRenderer::HaveCurrentSample
PUBLIC	?GetCurrentSample@CBaseRenderer@@UEAAPEAUIMediaSample@@XZ ; CBaseRenderer::GetCurrentSample
PUBLIC	?Render@CBaseRenderer@@UEAAJPEAUIMediaSample@@@Z ; CBaseRenderer::Render
PUBLIC	??_R4CBaseRenderer@@6BIBaseFilter@@@		; CBaseRenderer::`RTTI Complete Object Locator'
PUBLIC	?QueryInterface@CBaseFilter@@UEAAJAEBU_GUID@@PEAPEAX@Z ; CBaseFilter::QueryInterface
PUBLIC	?AddRef@CBaseFilter@@UEAAKXZ			; CBaseFilter::AddRef
PUBLIC	?Release@CBaseFilter@@UEAAKXZ			; CBaseFilter::Release
PUBLIC	?Stop@CBaseRenderer@@UEAAJXZ			; CBaseRenderer::Stop
PUBLIC	?Pause@CBaseRenderer@@UEAAJXZ			; CBaseRenderer::Pause
PUBLIC	?Run@CBaseRenderer@@UEAAJ_J@Z			; CBaseRenderer::Run
PUBLIC	?GetState@CBaseRenderer@@UEAAJKPEAW4_FilterState@@@Z ; CBaseRenderer::GetState
PUBLIC	?FindPin@CBaseRenderer@@UEAAJPEB_WPEAPEAUIPin@@@Z ; CBaseRenderer::FindPin
PUBLIC	??_R4CBaseRenderer@@6BIAMovieSetup@@@		; CBaseRenderer::`RTTI Complete Object Locator'
PUBLIC	?QueryInterface@CBaseFilter@@W7EAAJAEBU_GUID@@PEAPEAX@Z ; [thunk]:CBaseFilter::QueryInterface`adjustor{8}'
PUBLIC	?AddRef@CBaseFilter@@W7EAAKXZ			; [thunk]:CBaseFilter::AddRef`adjustor{8}'
PUBLIC	?Release@CBaseFilter@@W7EAAKXZ			; [thunk]:CBaseFilter::Release`adjustor{8}'
EXTRN	__CxxFrameHandler3:PROC
EXTRN	??1CCritSec@@QEAA@XZ:PROC			; CCritSec::~CCritSec
EXTRN	??1CAMEvent@@QEAA@XZ:PROC			; CAMEvent::~CAMEvent
EXTRN	??1CBaseFilter@@UEAA@XZ:PROC			; CBaseFilter::~CBaseFilter
EXTRN	??0CCritSec@@QEAA@XZ:PROC			; CCritSec::CCritSec
EXTRN	??0CAMEvent@@QEAA@H@Z:PROC			; CAMEvent::CAMEvent
EXTRN	??0CBaseFilter@@QEAA@PEB_WPEAUIUnknown@@PEAVCCritSec@@AEBU_GUID@@@Z:PROC ; CBaseFilter::CBaseFilter
EXTRN	_RTC_Shutdown:PROC
EXTRN	_RTC_InitBase:PROC
EXTRN	??_7type_info@@6B@:BYTE				; type_info::`vftable'
EXTRN	?NonDelegatingAddRef@CUnknown@@UEAAKXZ:PROC	; CUnknown::NonDelegatingAddRef
EXTRN	?NonDelegatingRelease@CBaseFilter@@UEAAKXZ:PROC	; CBaseFilter::NonDelegatingRelease
EXTRN	??_ECBaseRenderer@@UEAAPEAXI@Z:PROC		; CBaseRenderer::`vector deleting destructor'
EXTRN	?StreamTime@CBaseFilter@@UEAAJAEAVCRefTime@@@Z:PROC ; CBaseFilter::StreamTime
EXTRN	?GetPinVersion@CBaseFilter@@UEAAJXZ:PROC	; CBaseFilter::GetPinVersion
EXTRN	_purecall:PROC
EXTRN	?GetClassID@CBaseFilter@@UEAAJPEAU_GUID@@@Z:PROC ; CBaseFilter::GetClassID
EXTRN	?SetSyncSource@CBaseFilter@@UEAAJPEAUIReferenceClock@@@Z:PROC ; CBaseFilter::SetSyncSource
EXTRN	?GetSyncSource@CBaseFilter@@UEAAJPEAPEAUIReferenceClock@@@Z:PROC ; CBaseFilter::GetSyncSource
EXTRN	?EnumPins@CBaseFilter@@UEAAJPEAPEAUIEnumPins@@@Z:PROC ; CBaseFilter::EnumPins
EXTRN	?QueryFilterInfo@CBaseFilter@@UEAAJPEAU_FilterInfo@@@Z:PROC ; CBaseFilter::QueryFilterInfo
EXTRN	?JoinFilterGraph@CBaseFilter@@UEAAJPEAUIFilterGraph@@PEB_W@Z:PROC ; CBaseFilter::JoinFilterGraph
EXTRN	?QueryVendorInfo@CBaseFilter@@UEAAJPEAPEA_W@Z:PROC ; CBaseFilter::QueryVendorInfo
EXTRN	?Register@CBaseFilter@@UEAAJXZ:PROC		; CBaseFilter::Register
EXTRN	?Unregister@CBaseFilter@@UEAAJXZ:PROC		; CBaseFilter::Unregister
;	COMDAT pdata
; File c:\downloads\wpf mediakit - copy\src\filters\baseclasses\renbase.cpp
pdata	SEGMENT
$pdata$??0CBaseRenderer@@QEAA@AEBU_GUID@@PEA_WPEAUIUnknown@@PEAJ@Z DD imagerel $LN10
	DD	imagerel $LN10+501
	DD	imagerel $unwind$??0CBaseRenderer@@QEAA@AEBU_GUID@@PEA_WPEAUIUnknown@@PEAJ@Z
pdata	ENDS
;	COMDAT pdata
pdata	SEGMENT
$pdata$?dtor$0@?0???0CBaseRenderer@@QEAA@AEBU_GUID@@PEA_WPEAUIUnknown@@PEAJ@Z@4HA DD imagerel ?dtor$0@?0???0CBaseRenderer@@QEAA@AEBU_GUID@@PEA_WPEAUIUnknown@@PEAJ@Z@4HA
	DD	imagerel ?dtor$0@?0???0CBaseRenderer@@QEAA@AEBU_GUID@@PEA_WPEAUIUnknown@@PEAJ@Z@4HA+35
	DD	imagerel $unwind$?dtor$0@?0???0CBaseRenderer@@QEAA@AEBU_GUID@@PEA_WPEAUIUnknown@@PEAJ@Z@4HA
pdata	ENDS
;	COMDAT pdata
pdata	SEGMENT
$pdata$?dtor$1@?0???0CBaseRenderer@@QEAA@AEBU_GUID@@PEA_WPEAUIUnknown@@PEAJ@Z@4HA DD imagerel ?dtor$1@?0???0CBaseRenderer@@QEAA@AEBU_GUID@@PEA_WPEAUIUnknown@@PEAJ@Z@4HA
	DD	imagerel ?dtor$1@?0???0CBaseRenderer@@QEAA@AEBU_GUID@@PEA_WPEAUIUnknown@@PEAJ@Z@4HA+42
	DD	imagerel $unwind$?dtor$1@?0???0CBaseRenderer@@QEAA@AEBU_GUID@@PEA_WPEAUIUnknown@@PEAJ@Z@4HA
pdata	ENDS
;	COMDAT pdata
pdata	SEGMENT
$pdata$?dtor$2@?0???0CBaseRenderer@@QEAA@AEBU_GUID@@PEA_WPEAUIUnknown@@PEAJ@Z@4HA DD imagerel ?dtor$2@?0???0CBaseRenderer@@QEAA@AEBU_GUID@@PEA_WPEAUIUnknown@@PEAJ@Z@4HA
	DD	imagerel ?dtor$2@?0???0CBaseRenderer@@QEAA@AEBU_GUID@@PEA_WPEAUIUnknown@@PEAJ@Z@4HA+42
	DD	imagerel $unwind$?dtor$2@?0???0CBaseRenderer@@QEAA@AEBU_GUID@@PEA_WPEAUIUnknown@@PEAJ@Z@4HA
pdata	ENDS
;	COMDAT pdata
pdata	SEGMENT
$pdata$?dtor$3@?0???0CBaseRenderer@@QEAA@AEBU_GUID@@PEA_WPEAUIUnknown@@PEAJ@Z@4HA DD imagerel ?dtor$3@?0???0CBaseRenderer@@QEAA@AEBU_GUID@@PEA_WPEAUIUnknown@@PEAJ@Z@4HA
	DD	imagerel ?dtor$3@?0???0CBaseRenderer@@QEAA@AEBU_GUID@@PEA_WPEAUIUnknown@@PEAJ@Z@4HA+42
	DD	imagerel $unwind$?dtor$3@?0???0CBaseRenderer@@QEAA@AEBU_GUID@@PEA_WPEAUIUnknown@@PEAJ@Z@4HA
pdata	ENDS
;	COMDAT pdata
pdata	SEGMENT
$pdata$?dtor$4@?0???0CBaseRenderer@@QEAA@AEBU_GUID@@PEA_WPEAUIUnknown@@PEAJ@Z@4HA DD imagerel ?dtor$4@?0???0CBaseRenderer@@QEAA@AEBU_GUID@@PEA_WPEAUIUnknown@@PEAJ@Z@4HA
	DD	imagerel ?dtor$4@?0???0CBaseRenderer@@QEAA@AEBU_GUID@@PEA_WPEAUIUnknown@@PEAJ@Z@4HA+42
	DD	imagerel $unwind$?dtor$4@?0???0CBaseRenderer@@QEAA@AEBU_GUID@@PEA_WPEAUIUnknown@@PEAJ@Z@4HA
pdata	ENDS
;	COMDAT pdata
pdata	SEGMENT
$pdata$?dtor$5@?0???0CBaseRenderer@@QEAA@AEBU_GUID@@PEA_WPEAUIUnknown@@PEAJ@Z@4HA DD imagerel ?dtor$5@?0???0CBaseRenderer@@QEAA@AEBU_GUID@@PEA_WPEAUIUnknown@@PEAJ@Z@4HA
	DD	imagerel ?dtor$5@?0???0CBaseRenderer@@QEAA@AEBU_GUID@@PEA_WPEAUIUnknown@@PEAJ@Z@4HA+42
	DD	imagerel $unwind$?dtor$5@?0???0CBaseRenderer@@QEAA@AEBU_GUID@@PEA_WPEAUIUnknown@@PEAJ@Z@4HA
pdata	ENDS
;	COMDAT pdata
pdata	SEGMENT
$pdata$?dtor$6@?0???0CBaseRenderer@@QEAA@AEBU_GUID@@PEA_WPEAUIUnknown@@PEAJ@Z@4HA DD imagerel ?dtor$6@?0???0CBaseRenderer@@QEAA@AEBU_GUID@@PEA_WPEAUIUnknown@@PEAJ@Z@4HA
	DD	imagerel ?dtor$6@?0???0CBaseRenderer@@QEAA@AEBU_GUID@@PEA_WPEAUIUnknown@@PEAJ@Z@4HA+42
	DD	imagerel $unwind$?dtor$6@?0???0CBaseRenderer@@QEAA@AEBU_GUID@@PEA_WPEAUIUnknown@@PEAJ@Z@4HA
pdata	ENDS
;	COMDAT xdata
xdata	SEGMENT
$ip2state$??0CBaseRenderer@@QEAA@AEBU_GUID@@PEA_WPEAUIUnknown@@PEAJ@Z DD imagerel ??0CBaseRenderer@@QEAA@AEBU_GUID@@PEA_WPEAUIUnknown@@PEAJ@Z
	DD	0ffffffffH
	DD	imagerel ??0CBaseRenderer@@QEAA@AEBU_GUID@@PEA_WPEAUIUnknown@@PEAJ@Z+99
	DD	00H
	DD	imagerel ??0CBaseRenderer@@QEAA@AEBU_GUID@@PEA_WPEAUIUnknown@@PEAJ@Z+184
	DD	01H
	DD	imagerel ??0CBaseRenderer@@QEAA@AEBU_GUID@@PEA_WPEAUIUnknown@@PEAJ@Z+209
	DD	02H
	DD	imagerel ??0CBaseRenderer@@QEAA@AEBU_GUID@@PEA_WPEAUIUnknown@@PEAJ@Z+234
	DD	03H
	DD	imagerel ??0CBaseRenderer@@QEAA@AEBU_GUID@@PEA_WPEAUIUnknown@@PEAJ@Z+362
	DD	04H
	DD	imagerel ??0CBaseRenderer@@QEAA@AEBU_GUID@@PEA_WPEAUIUnknown@@PEAJ@Z+382
	DD	05H
	DD	imagerel ??0CBaseRenderer@@QEAA@AEBU_GUID@@PEA_WPEAUIUnknown@@PEAJ@Z+479
	DD	06H
	DD	imagerel ??0CBaseRenderer@@QEAA@AEBU_GUID@@PEA_WPEAUIUnknown@@PEAJ@Z+490
	DD	0ffffffffH
xdata	ENDS
;	COMDAT ??_R4CBaseRenderer@@6BIAMovieSetup@@@
rdata$r	SEGMENT
??_R4CBaseRenderer@@6BIAMovieSetup@@@ DD 01H		; CBaseRenderer::`RTTI Complete Object Locator'
	DD	028H
	DD	00H
	DD	imagerel ??_R0?AVCBaseRenderer@@@8
	DD	imagerel ??_R3CBaseRenderer@@8
	DD	imagerel ??_R4CBaseRenderer@@6BIAMovieSetup@@@
rdata$r	ENDS
;	COMDAT ??_R4CBaseRenderer@@6BIBaseFilter@@@
rdata$r	SEGMENT
??_R4CBaseRenderer@@6BIBaseFilter@@@ DD 01H		; CBaseRenderer::`RTTI Complete Object Locator'
	DD	020H
	DD	00H
	DD	imagerel ??_R0?AVCBaseRenderer@@@8
	DD	imagerel ??_R3CBaseRenderer@@8
	DD	imagerel ??_R4CBaseRenderer@@6BIBaseFilter@@@
rdata$r	ENDS
;	COMDAT ??_R1CI@?0A@EC@IUnknown@@8
rdata$r	SEGMENT
??_R1CI@?0A@EC@IUnknown@@8 DD imagerel ??_R0?AUIUnknown@@@8 ; IUnknown::`RTTI Base Class Descriptor at (40,-1,0,66)'
	DD	00H
	DD	028H
	DD	0ffffffffH
	DD	00H
	DD	042H
	DD	imagerel ??_R3IUnknown@@8
rdata$r	ENDS
;	COMDAT ??_R1A@?0A@EA@IAMovieSetup@@8
rdata$r	SEGMENT
??_R1A@?0A@EA@IAMovieSetup@@8 DD imagerel ??_R0?AUIAMovieSetup@@@8 ; IAMovieSetup::`RTTI Base Class Descriptor at (0,-1,0,64)'
	DD	01H
	DD	00H
	DD	0ffffffffH
	DD	00H
	DD	040H
	DD	imagerel ??_R3IAMovieSetup@@8
rdata$r	ENDS
;	COMDAT ??_R2IAMovieSetup@@8
rdata$r	SEGMENT
??_R2IAMovieSetup@@8 DD imagerel ??_R1A@?0A@EA@IAMovieSetup@@8 ; IAMovieSetup::`RTTI Base Class Array'
	DD	imagerel ??_R1A@?0A@EA@IUnknown@@8
	ORG $+3
rdata$r	ENDS
;	COMDAT ??_R3IAMovieSetup@@8
rdata$r	SEGMENT
??_R3IAMovieSetup@@8 DD 00H				; IAMovieSetup::`RTTI Class Hierarchy Descriptor'
	DD	00H
	DD	02H
	DD	imagerel ??_R2IAMovieSetup@@8
rdata$r	ENDS
;	COMDAT ??_R0?AUIAMovieSetup@@@8
_DATA	SEGMENT
??_R0?AUIAMovieSetup@@@8 DQ FLAT:??_7type_info@@6B@	; IAMovieSetup `RTTI Type Descriptor'
	DQ	0000000000000000H
	DB	'.?AUIAMovieSetup@@', 00H
_DATA	ENDS
;	COMDAT ??_R1CI@?0A@EA@IAMovieSetup@@8
rdata$r	SEGMENT
??_R1CI@?0A@EA@IAMovieSetup@@8 DD imagerel ??_R0?AUIAMovieSetup@@@8 ; IAMovieSetup::`RTTI Base Class Descriptor at (40,-1,0,64)'
	DD	01H
	DD	028H
	DD	0ffffffffH
	DD	00H
	DD	040H
	DD	imagerel ??_R3IAMovieSetup@@8
rdata$r	ENDS
;	COMDAT ??_R1CA@?0A@EC@IUnknown@@8
rdata$r	SEGMENT
??_R1CA@?0A@EC@IUnknown@@8 DD imagerel ??_R0?AUIUnknown@@@8 ; IUnknown::`RTTI Base Class Descriptor at (32,-1,0,66)'
	DD	00H
	DD	020H
	DD	0ffffffffH
	DD	00H
	DD	042H
	DD	imagerel ??_R3IUnknown@@8
rdata$r	ENDS
;	COMDAT ??_R1CA@?0A@EA@IPersist@@8
rdata$r	SEGMENT
??_R1CA@?0A@EA@IPersist@@8 DD imagerel ??_R0?AUIPersist@@@8 ; IPersist::`RTTI Base Class Descriptor at (32,-1,0,64)'
	DD	01H
	DD	020H
	DD	0ffffffffH
	DD	00H
	DD	040H
	DD	imagerel ??_R3IPersist@@8
rdata$r	ENDS
;	COMDAT ??_R1CA@?0A@EA@IMediaFilter@@8
rdata$r	SEGMENT
??_R1CA@?0A@EA@IMediaFilter@@8 DD imagerel ??_R0?AUIMediaFilter@@@8 ; IMediaFilter::`RTTI Base Class Descriptor at (32,-1,0,64)'
	DD	02H
	DD	020H
	DD	0ffffffffH
	DD	00H
	DD	040H
	DD	imagerel ??_R3IMediaFilter@@8
rdata$r	ENDS
;	COMDAT ??_R2IUnknown@@8
rdata$r	SEGMENT
??_R2IUnknown@@8 DD imagerel ??_R1A@?0A@EA@IUnknown@@8	; IUnknown::`RTTI Base Class Array'
	ORG $+3
rdata$r	ENDS
;	COMDAT ??_R3IUnknown@@8
rdata$r	SEGMENT
??_R3IUnknown@@8 DD 00H					; IUnknown::`RTTI Class Hierarchy Descriptor'
	DD	00H
	DD	01H
	DD	imagerel ??_R2IUnknown@@8
rdata$r	ENDS
;	COMDAT ??_R0?AUIUnknown@@@8
_DATA	SEGMENT
??_R0?AUIUnknown@@@8 DQ FLAT:??_7type_info@@6B@		; IUnknown `RTTI Type Descriptor'
	DQ	0000000000000000H
	DB	'.?AUIUnknown@@', 00H
_DATA	ENDS
;	COMDAT ??_R1A@?0A@EA@IUnknown@@8
rdata$r	SEGMENT
??_R1A@?0A@EA@IUnknown@@8 DD imagerel ??_R0?AUIUnknown@@@8 ; IUnknown::`RTTI Base Class Descriptor at (0,-1,0,64)'
	DD	00H
	DD	00H
	DD	0ffffffffH
	DD	00H
	DD	040H
	DD	imagerel ??_R3IUnknown@@8
rdata$r	ENDS
;	COMDAT ??_R2IPersist@@8
rdata$r	SEGMENT
??_R2IPersist@@8 DD imagerel ??_R1A@?0A@EA@IPersist@@8	; IPersist::`RTTI Base Class Array'
	DD	imagerel ??_R1A@?0A@EA@IUnknown@@8
	ORG $+3
rdata$r	ENDS
;	COMDAT ??_R3IPersist@@8
rdata$r	SEGMENT
??_R3IPersist@@8 DD 00H					; IPersist::`RTTI Class Hierarchy Descriptor'
	DD	00H
	DD	02H
	DD	imagerel ??_R2IPersist@@8
rdata$r	ENDS
;	COMDAT ??_R0?AUIPersist@@@8
_DATA	SEGMENT
??_R0?AUIPersist@@@8 DQ FLAT:??_7type_info@@6B@		; IPersist `RTTI Type Descriptor'
	DQ	0000000000000000H
	DB	'.?AUIPersist@@', 00H
_DATA	ENDS
;	COMDAT ??_R1A@?0A@EA@IPersist@@8
rdata$r	SEGMENT
??_R1A@?0A@EA@IPersist@@8 DD imagerel ??_R0?AUIPersist@@@8 ; IPersist::`RTTI Base Class Descriptor at (0,-1,0,64)'
	DD	01H
	DD	00H
	DD	0ffffffffH
	DD	00H
	DD	040H
	DD	imagerel ??_R3IPersist@@8
rdata$r	ENDS
;	COMDAT ??_R2IMediaFilter@@8
rdata$r	SEGMENT
??_R2IMediaFilter@@8 DD imagerel ??_R1A@?0A@EA@IMediaFilter@@8 ; IMediaFilter::`RTTI Base Class Array'
	DD	imagerel ??_R1A@?0A@EA@IPersist@@8
	DD	imagerel ??_R1A@?0A@EA@IUnknown@@8
	ORG $+3
rdata$r	ENDS
;	COMDAT ??_R3IMediaFilter@@8
rdata$r	SEGMENT
??_R3IMediaFilter@@8 DD 00H				; IMediaFilter::`RTTI Class Hierarchy Descriptor'
	DD	00H
	DD	03H
	DD	imagerel ??_R2IMediaFilter@@8
rdata$r	ENDS
;	COMDAT ??_R0?AUIMediaFilter@@@8
_DATA	SEGMENT
??_R0?AUIMediaFilter@@@8 DQ FLAT:??_7type_info@@6B@	; IMediaFilter `RTTI Type Descriptor'
	DQ	0000000000000000H
	DB	'.?AUIMediaFilter@@', 00H
_DATA	ENDS
;	COMDAT ??_R1A@?0A@EA@IMediaFilter@@8
rdata$r	SEGMENT
??_R1A@?0A@EA@IMediaFilter@@8 DD imagerel ??_R0?AUIMediaFilter@@@8 ; IMediaFilter::`RTTI Base Class Descriptor at (0,-1,0,64)'
	DD	02H
	DD	00H
	DD	0ffffffffH
	DD	00H
	DD	040H
	DD	imagerel ??_R3IMediaFilter@@8
rdata$r	ENDS
;	COMDAT ??_R1A@?0A@EA@IBaseFilter@@8
rdata$r	SEGMENT
??_R1A@?0A@EA@IBaseFilter@@8 DD imagerel ??_R0?AUIBaseFilter@@@8 ; IBaseFilter::`RTTI Base Class Descriptor at (0,-1,0,64)'
	DD	03H
	DD	00H
	DD	0ffffffffH
	DD	00H
	DD	040H
	DD	imagerel ??_R3IBaseFilter@@8
rdata$r	ENDS
;	COMDAT ??_R2IBaseFilter@@8
rdata$r	SEGMENT
??_R2IBaseFilter@@8 DD imagerel ??_R1A@?0A@EA@IBaseFilter@@8 ; IBaseFilter::`RTTI Base Class Array'
	DD	imagerel ??_R1A@?0A@EA@IMediaFilter@@8
	DD	imagerel ??_R1A@?0A@EA@IPersist@@8
	DD	imagerel ??_R1A@?0A@EA@IUnknown@@8
	ORG $+3
rdata$r	ENDS
;	COMDAT ??_R3IBaseFilter@@8
rdata$r	SEGMENT
??_R3IBaseFilter@@8 DD 00H				; IBaseFilter::`RTTI Class Hierarchy Descriptor'
	DD	00H
	DD	04H
	DD	imagerel ??_R2IBaseFilter@@8
rdata$r	ENDS
;	COMDAT ??_R0?AUIBaseFilter@@@8
_DATA	SEGMENT
??_R0?AUIBaseFilter@@@8 DQ FLAT:??_7type_info@@6B@	; IBaseFilter `RTTI Type Descriptor'
	DQ	0000000000000000H
	DB	'.?AUIBaseFilter@@', 00H
_DATA	ENDS
;	COMDAT ??_R1CA@?0A@EA@IBaseFilter@@8
rdata$r	SEGMENT
??_R1CA@?0A@EA@IBaseFilter@@8 DD imagerel ??_R0?AUIBaseFilter@@@8 ; IBaseFilter::`RTTI Base Class Descriptor at (32,-1,0,64)'
	DD	03H
	DD	020H
	DD	0ffffffffH
	DD	00H
	DD	040H
	DD	imagerel ??_R3IBaseFilter@@8
rdata$r	ENDS
;	COMDAT ??_R1A@?0A@EA@CBaseObject@@8
rdata$r	SEGMENT
??_R1A@?0A@EA@CBaseObject@@8 DD imagerel ??_R0?AVCBaseObject@@@8 ; CBaseObject::`RTTI Base Class Descriptor at (0,-1,0,64)'
	DD	00H
	DD	00H
	DD	0ffffffffH
	DD	00H
	DD	040H
	DD	imagerel ??_R3CBaseObject@@8
rdata$r	ENDS
;	COMDAT ??_R2CBaseObject@@8
rdata$r	SEGMENT
??_R2CBaseObject@@8 DD imagerel ??_R1A@?0A@EA@CBaseObject@@8 ; CBaseObject::`RTTI Base Class Array'
	ORG $+3
rdata$r	ENDS
;	COMDAT ??_R3CBaseObject@@8
rdata$r	SEGMENT
??_R3CBaseObject@@8 DD 00H				; CBaseObject::`RTTI Class Hierarchy Descriptor'
	DD	00H
	DD	01H
	DD	imagerel ??_R2CBaseObject@@8
rdata$r	ENDS
;	COMDAT ??_R0?AVCBaseObject@@@8
_DATA	SEGMENT
??_R0?AVCBaseObject@@@8 DQ FLAT:??_7type_info@@6B@	; CBaseObject `RTTI Type Descriptor'
	DQ	0000000000000000H
	DB	'.?AVCBaseObject@@', 00H
_DATA	ENDS
;	COMDAT ??_R17?0A@EA@CBaseObject@@8
rdata$r	SEGMENT
??_R17?0A@EA@CBaseObject@@8 DD imagerel ??_R0?AVCBaseObject@@@8 ; CBaseObject::`RTTI Base Class Descriptor at (8,-1,0,64)'
	DD	00H
	DD	08H
	DD	0ffffffffH
	DD	00H
	DD	040H
	DD	imagerel ??_R3CBaseObject@@8
rdata$r	ENDS
;	COMDAT ??_R2INonDelegatingUnknown@@8
rdata$r	SEGMENT
??_R2INonDelegatingUnknown@@8 DD imagerel ??_R1A@?0A@EA@INonDelegatingUnknown@@8 ; INonDelegatingUnknown::`RTTI Base Class Array'
	ORG $+3
rdata$r	ENDS
;	COMDAT ??_R3INonDelegatingUnknown@@8
rdata$r	SEGMENT
??_R3INonDelegatingUnknown@@8 DD 00H			; INonDelegatingUnknown::`RTTI Class Hierarchy Descriptor'
	DD	00H
	DD	01H
	DD	imagerel ??_R2INonDelegatingUnknown@@8
rdata$r	ENDS
;	COMDAT ??_R0?AUINonDelegatingUnknown@@@8
_DATA	SEGMENT
??_R0?AUINonDelegatingUnknown@@@8 DQ FLAT:??_7type_info@@6B@ ; INonDelegatingUnknown `RTTI Type Descriptor'
	DQ	0000000000000000H
	DB	'.?AUINonDelegatingUnknown@@', 00H
_DATA	ENDS
;	COMDAT ??_R1A@?0A@EA@INonDelegatingUnknown@@8
rdata$r	SEGMENT
??_R1A@?0A@EA@INonDelegatingUnknown@@8 DD imagerel ??_R0?AUINonDelegatingUnknown@@@8 ; INonDelegatingUnknown::`RTTI Base Class Descriptor at (0,-1,0,64)'
	DD	00H
	DD	00H
	DD	0ffffffffH
	DD	00H
	DD	040H
	DD	imagerel ??_R3INonDelegatingUnknown@@8
rdata$r	ENDS
;	COMDAT ??_R2CUnknown@@8
rdata$r	SEGMENT
??_R2CUnknown@@8 DD imagerel ??_R1A@?0A@EA@CUnknown@@8	; CUnknown::`RTTI Base Class Array'
	DD	imagerel ??_R1A@?0A@EA@INonDelegatingUnknown@@8
	DD	imagerel ??_R17?0A@EA@CBaseObject@@8
	ORG $+3
rdata$r	ENDS
;	COMDAT ??_R3CUnknown@@8
rdata$r	SEGMENT
??_R3CUnknown@@8 DD 00H					; CUnknown::`RTTI Class Hierarchy Descriptor'
	DD	01H
	DD	03H
	DD	imagerel ??_R2CUnknown@@8
rdata$r	ENDS
;	COMDAT ??_R0?AVCUnknown@@@8
_DATA	SEGMENT
??_R0?AVCUnknown@@@8 DQ FLAT:??_7type_info@@6B@		; CUnknown `RTTI Type Descriptor'
	DQ	0000000000000000H
	DB	'.?AVCUnknown@@', 00H
_DATA	ENDS
;	COMDAT ??_R1A@?0A@EA@CUnknown@@8
rdata$r	SEGMENT
??_R1A@?0A@EA@CUnknown@@8 DD imagerel ??_R0?AVCUnknown@@@8 ; CUnknown::`RTTI Base Class Descriptor at (0,-1,0,64)'
	DD	02H
	DD	00H
	DD	0ffffffffH
	DD	00H
	DD	040H
	DD	imagerel ??_R3CUnknown@@8
rdata$r	ENDS
;	COMDAT ??_R2CBaseFilter@@8
rdata$r	SEGMENT
??_R2CBaseFilter@@8 DD imagerel ??_R1A@?0A@EA@CBaseFilter@@8 ; CBaseFilter::`RTTI Base Class Array'
	DD	imagerel ??_R1A@?0A@EA@CUnknown@@8
	DD	imagerel ??_R1A@?0A@EA@INonDelegatingUnknown@@8
	DD	imagerel ??_R17?0A@EA@CBaseObject@@8
	DD	imagerel ??_R1CA@?0A@EA@IBaseFilter@@8
	DD	imagerel ??_R1CA@?0A@EA@IMediaFilter@@8
	DD	imagerel ??_R1CA@?0A@EA@IPersist@@8
	DD	imagerel ??_R1CA@?0A@EC@IUnknown@@8
	DD	imagerel ??_R1CI@?0A@EA@IAMovieSetup@@8
	DD	imagerel ??_R1CI@?0A@EC@IUnknown@@8
	ORG $+3
rdata$r	ENDS
;	COMDAT ??_R3CBaseFilter@@8
rdata$r	SEGMENT
??_R3CBaseFilter@@8 DD 00H				; CBaseFilter::`RTTI Class Hierarchy Descriptor'
	DD	05H
	DD	0aH
	DD	imagerel ??_R2CBaseFilter@@8
rdata$r	ENDS
;	COMDAT ??_R0?AVCBaseFilter@@@8
_DATA	SEGMENT
??_R0?AVCBaseFilter@@@8 DQ FLAT:??_7type_info@@6B@	; CBaseFilter `RTTI Type Descriptor'
	DQ	0000000000000000H
	DB	'.?AVCBaseFilter@@', 00H
_DATA	ENDS
;	COMDAT ??_R1A@?0A@EA@CBaseFilter@@8
rdata$r	SEGMENT
??_R1A@?0A@EA@CBaseFilter@@8 DD imagerel ??_R0?AVCBaseFilter@@@8 ; CBaseFilter::`RTTI Base Class Descriptor at (0,-1,0,64)'
	DD	09H
	DD	00H
	DD	0ffffffffH
	DD	00H
	DD	040H
	DD	imagerel ??_R3CBaseFilter@@8
rdata$r	ENDS
;	COMDAT ??_R1A@?0A@EA@CBaseRenderer@@8
rdata$r	SEGMENT
??_R1A@?0A@EA@CBaseRenderer@@8 DD imagerel ??_R0?AVCBaseRenderer@@@8 ; CBaseRenderer::`RTTI Base Class Descriptor at (0,-1,0,64)'
	DD	0aH
	DD	00H
	DD	0ffffffffH
	DD	00H
	DD	040H
	DD	imagerel ??_R3CBaseRenderer@@8
rdata$r	ENDS
;	COMDAT ??_R2CBaseRenderer@@8
rdata$r	SEGMENT
??_R2CBaseRenderer@@8 DD imagerel ??_R1A@?0A@EA@CBaseRenderer@@8 ; CBaseRenderer::`RTTI Base Class Array'
	DD	imagerel ??_R1A@?0A@EA@CBaseFilter@@8
	DD	imagerel ??_R1A@?0A@EA@CUnknown@@8
	DD	imagerel ??_R1A@?0A@EA@INonDelegatingUnknown@@8
	DD	imagerel ??_R17?0A@EA@CBaseObject@@8
	DD	imagerel ??_R1CA@?0A@EA@IBaseFilter@@8
	DD	imagerel ??_R1CA@?0A@EA@IMediaFilter@@8
	DD	imagerel ??_R1CA@?0A@EA@IPersist@@8
	DD	imagerel ??_R1CA@?0A@EC@IUnknown@@8
	DD	imagerel ??_R1CI@?0A@EA@IAMovieSetup@@8
	DD	imagerel ??_R1CI@?0A@EC@IUnknown@@8
	ORG $+3
rdata$r	ENDS
;	COMDAT ??_R3CBaseRenderer@@8
rdata$r	SEGMENT
??_R3CBaseRenderer@@8 DD 00H				; CBaseRenderer::`RTTI Class Hierarchy Descriptor'
	DD	01H
	DD	0bH
	DD	imagerel ??_R2CBaseRenderer@@8
rdata$r	ENDS
;	COMDAT ??_R0?AVCBaseRenderer@@@8
_DATA	SEGMENT
??_R0?AVCBaseRenderer@@@8 DQ FLAT:??_7type_info@@6B@	; CBaseRenderer `RTTI Type Descriptor'
	DQ	0000000000000000H
	DB	'.?AVCBaseRenderer@@', 00H
_DATA	ENDS
;	COMDAT ??_R4CBaseRenderer@@6BCUnknown@@@
rdata$r	SEGMENT
??_R4CBaseRenderer@@6BCUnknown@@@ DD 01H		; CBaseRenderer::`RTTI Complete Object Locator'
	DD	00H
	DD	00H
	DD	imagerel ??_R0?AVCBaseRenderer@@@8
	DD	imagerel ??_R3CBaseRenderer@@8
	DD	imagerel ??_R4CBaseRenderer@@6BCUnknown@@@
rdata$r	ENDS
;	COMDAT xdata
xdata	SEGMENT
$unwind$?dtor$6@?0???0CBaseRenderer@@QEAA@AEBU_GUID@@PEA_WPEAUIUnknown@@PEAJ@Z@4HA DD 031001H
	DD	0700c4210H
	DD	0500bH
xdata	ENDS
;	COMDAT xdata
xdata	SEGMENT
$unwind$?dtor$5@?0???0CBaseRenderer@@QEAA@AEBU_GUID@@PEA_WPEAUIUnknown@@PEAJ@Z@4HA DD 031001H
	DD	0700c4210H
	DD	0500bH
xdata	ENDS
;	COMDAT xdata
xdata	SEGMENT
$unwind$?dtor$4@?0???0CBaseRenderer@@QEAA@AEBU_GUID@@PEA_WPEAUIUnknown@@PEAJ@Z@4HA DD 031001H
	DD	0700c4210H
	DD	0500bH
xdata	ENDS
;	COMDAT xdata
xdata	SEGMENT
$unwind$?dtor$3@?0???0CBaseRenderer@@QEAA@AEBU_GUID@@PEA_WPEAUIUnknown@@PEAJ@Z@4HA DD 031001H
	DD	0700c4210H
	DD	0500bH
xdata	ENDS
;	COMDAT xdata
xdata	SEGMENT
$unwind$?dtor$2@?0???0CBaseRenderer@@QEAA@AEBU_GUID@@PEA_WPEAUIUnknown@@PEAJ@Z@4HA DD 031001H
	DD	0700c4210H
	DD	0500bH
xdata	ENDS
;	COMDAT xdata
xdata	SEGMENT
$unwind$?dtor$1@?0???0CBaseRenderer@@QEAA@AEBU_GUID@@PEA_WPEAUIUnknown@@PEAJ@Z@4HA DD 031001H
	DD	0700c4210H
	DD	0500bH
xdata	ENDS
;	COMDAT xdata
xdata	SEGMENT
$unwind$?dtor$0@?0???0CBaseRenderer@@QEAA@AEBU_GUID@@PEA_WPEAUIUnknown@@PEAJ@Z@4HA DD 031001H
	DD	0700c4210H
	DD	0500bH
xdata	ENDS
;	COMDAT xdata
xdata	SEGMENT
$unwind$??0CBaseRenderer@@QEAA@AEBU_GUID@@PEA_WPEAUIUnknown@@PEAJ@Z DD 023611H
	DD	070157219H
	DD	imagerel __CxxFrameHandler3
	DD	imagerel $cppxdata$??0CBaseRenderer@@QEAA@AEBU_GUID@@PEA_WPEAUIUnknown@@PEAJ@Z
xdata	ENDS
;	COMDAT CONST
CONST	SEGMENT
$cppxdata$??0CBaseRenderer@@QEAA@AEBU_GUID@@PEA_WPEAUIUnknown@@PEAJ@Z DD 019930522H
	DD	07H
	DD	imagerel $stateUnwindMap$??0CBaseRenderer@@QEAA@AEBU_GUID@@PEA_WPEAUIUnknown@@PEAJ@Z
	DD	00H
	DD	00H
	DD	09H
	DD	imagerel $ip2state$??0CBaseRenderer@@QEAA@AEBU_GUID@@PEA_WPEAUIUnknown@@PEAJ@Z
	DD	030H
	DD	00H
	DD	01H
CONST	ENDS
;	COMDAT xdata
xdata	SEGMENT
$stateUnwindMap$??0CBaseRenderer@@QEAA@AEBU_GUID@@PEA_WPEAUIUnknown@@PEAJ@Z DD 0ffffffffH
	DD	imagerel ?dtor$0@?0???0CBaseRenderer@@QEAA@AEBU_GUID@@PEA_WPEAUIUnknown@@PEAJ@Z@4HA
	DD	00H
	DD	imagerel ?dtor$1@?0???0CBaseRenderer@@QEAA@AEBU_GUID@@PEA_WPEAUIUnknown@@PEAJ@Z@4HA
	DD	01H
	DD	imagerel ?dtor$2@?0???0CBaseRenderer@@QEAA@AEBU_GUID@@PEA_WPEAUIUnknown@@PEAJ@Z@4HA
	DD	02H
	DD	imagerel ?dtor$3@?0???0CBaseRenderer@@QEAA@AEBU_GUID@@PEA_WPEAUIUnknown@@PEAJ@Z@4HA
	DD	03H
	DD	imagerel ?dtor$4@?0???0CBaseRenderer@@QEAA@AEBU_GUID@@PEA_WPEAUIUnknown@@PEAJ@Z@4HA
	DD	04H
	DD	imagerel ?dtor$5@?0???0CBaseRenderer@@QEAA@AEBU_GUID@@PEA_WPEAUIUnknown@@PEAJ@Z@4HA
	DD	05H
	DD	imagerel ?dtor$6@?0???0CBaseRenderer@@QEAA@AEBU_GUID@@PEA_WPEAUIUnknown@@PEAJ@Z@4HA
xdata	ENDS
;	COMDAT ??_7CBaseRenderer@@6BIAMovieSetup@@@
CONST	SEGMENT
??_7CBaseRenderer@@6BIAMovieSetup@@@ DQ FLAT:??_R4CBaseRenderer@@6BIAMovieSetup@@@ ; CBaseRenderer::`vftable'
	DQ	FLAT:?QueryInterface@CBaseFilter@@W7EAAJAEBU_GUID@@PEAPEAX@Z
	DQ	FLAT:?AddRef@CBaseFilter@@W7EAAKXZ
	DQ	FLAT:?Release@CBaseFilter@@W7EAAKXZ
	DQ	FLAT:?Register@CBaseFilter@@UEAAJXZ
	DQ	FLAT:?Unregister@CBaseFilter@@UEAAJXZ
CONST	ENDS
;	COMDAT ??_7CBaseRenderer@@6BIBaseFilter@@@
CONST	SEGMENT
??_7CBaseRenderer@@6BIBaseFilter@@@ DQ FLAT:??_R4CBaseRenderer@@6BIBaseFilter@@@ ; CBaseRenderer::`vftable'
	DQ	FLAT:?QueryInterface@CBaseFilter@@UEAAJAEBU_GUID@@PEAPEAX@Z
	DQ	FLAT:?AddRef@CBaseFilter@@UEAAKXZ
	DQ	FLAT:?Release@CBaseFilter@@UEAAKXZ
	DQ	FLAT:?GetClassID@CBaseFilter@@UEAAJPEAU_GUID@@@Z
	DQ	FLAT:?Stop@CBaseRenderer@@UEAAJXZ
	DQ	FLAT:?Pause@CBaseRenderer@@UEAAJXZ
	DQ	FLAT:?Run@CBaseRenderer@@UEAAJ_J@Z
	DQ	FLAT:?GetState@CBaseRenderer@@UEAAJKPEAW4_FilterState@@@Z
	DQ	FLAT:?SetSyncSource@CBaseFilter@@UEAAJPEAUIReferenceClock@@@Z
	DQ	FLAT:?GetSyncSource@CBaseFilter@@UEAAJPEAPEAUIReferenceClock@@@Z
	DQ	FLAT:?EnumPins@CBaseFilter@@UEAAJPEAPEAUIEnumPins@@@Z
	DQ	FLAT:?FindPin@CBaseRenderer@@UEAAJPEB_WPEAPEAUIPin@@@Z
	DQ	FLAT:?QueryFilterInfo@CBaseFilter@@UEAAJPEAU_FilterInfo@@@Z
	DQ	FLAT:?JoinFilterGraph@CBaseFilter@@UEAAJPEAUIFilterGraph@@PEB_W@Z
	DQ	FLAT:?QueryVendorInfo@CBaseFilter@@UEAAJPEAPEA_W@Z
CONST	ENDS
;	COMDAT ??_7CBaseRenderer@@6BCUnknown@@@
CONST	SEGMENT
??_7CBaseRenderer@@6BCUnknown@@@ DQ FLAT:??_R4CBaseRenderer@@6BCUnknown@@@ ; CBaseRenderer::`vftable'
	DQ	FLAT:?NonDelegatingQueryInterface@CBaseRenderer@@UEAAJAEBU_GUID@@PEAPEAX@Z
	DQ	FLAT:?NonDelegatingAddRef@CUnknown@@UEAAKXZ
	DQ	FLAT:?NonDelegatingRelease@CBaseFilter@@UEAAKXZ
	DQ	FLAT:??_ECBaseRenderer@@UEAAPEAXI@Z
	DQ	FLAT:?StreamTime@CBaseFilter@@UEAAJAEAVCRefTime@@@Z
	DQ	FLAT:?GetPinVersion@CBaseFilter@@UEAAJXZ
	DQ	FLAT:?GetPinCount@CBaseRenderer@@UEAAHXZ
	DQ	FLAT:?GetPin@CBaseRenderer@@UEAAPEAVCBasePin@@H@Z
	DQ	FLAT:?GetSetupData@CBaseFilter@@UEAAPEAU_AMOVIESETUP_FILTER@@XZ
	DQ	FLAT:?GetMediaPositionInterface@CBaseRenderer@@UEAAJAEBU_GUID@@PEAPEAX@Z
	DQ	FLAT:?SourceThreadCanWait@CBaseRenderer@@UEAAJH@Z
	DQ	FLAT:?WaitForRenderTime@CBaseRenderer@@UEAAJXZ
	DQ	FLAT:?CompleteStateChange@CBaseRenderer@@UEAAJW4_FilterState@@@Z
	DQ	FLAT:?OnReceiveFirstSample@CBaseRenderer@@UEAAXPEAUIMediaSample@@@Z
	DQ	FLAT:?OnRenderStart@CBaseRenderer@@UEAAXPEAUIMediaSample@@@Z
	DQ	FLAT:?OnRenderEnd@CBaseRenderer@@UEAAXPEAUIMediaSample@@@Z
	DQ	FLAT:?OnStartStreaming@CBaseRenderer@@UEAAJXZ
	DQ	FLAT:?OnStopStreaming@CBaseRenderer@@UEAAJXZ
	DQ	FLAT:?OnWaitStart@CBaseRenderer@@UEAAXXZ
	DQ	FLAT:?OnWaitEnd@CBaseRenderer@@UEAAXXZ
	DQ	FLAT:?PrepareRender@CBaseRenderer@@UEAAXXZ
	DQ	FLAT:?ScheduleSample@CBaseRenderer@@UEAAHPEAUIMediaSample@@@Z
	DQ	FLAT:?GetSampleTimes@CBaseRenderer@@UEAAJPEAUIMediaSample@@PEA_J1@Z
	DQ	FLAT:?ShouldDrawSampleNow@CBaseRenderer@@UEAAJPEAUIMediaSample@@PEA_J1@Z
	DQ	FLAT:?SendEndOfStream@CBaseRenderer@@UEAAJXZ
	DQ	FLAT:?ResetEndOfStream@CBaseRenderer@@UEAAJXZ
	DQ	FLAT:?EndOfStream@CBaseRenderer@@UEAAJXZ
	DQ	FLAT:?CancelNotification@CBaseRenderer@@UEAAJXZ
	DQ	FLAT:?ClearPendingSample@CBaseRenderer@@UEAAJXZ
	DQ	FLAT:?Active@CBaseRenderer@@UEAAJXZ
	DQ	FLAT:?Inactive@CBaseRenderer@@UEAAJXZ
	DQ	FLAT:?StartStreaming@CBaseRenderer@@UEAAJXZ
	DQ	FLAT:?StopStreaming@CBaseRenderer@@UEAAJXZ
	DQ	FLAT:?BeginFlush@CBaseRenderer@@UEAAJXZ
	DQ	FLAT:?EndFlush@CBaseRenderer@@UEAAJXZ
	DQ	FLAT:?BreakConnect@CBaseRenderer@@UEAAJXZ
	DQ	FLAT:?SetMediaType@CBaseRenderer@@UEAAJPEBVCMediaType@@@Z
	DQ	FLAT:?CompleteConnect@CBaseRenderer@@UEAAJPEAUIPin@@@Z
	DQ	FLAT:?PrepareReceive@CBaseRenderer@@UEAAJPEAUIMediaSample@@@Z
	DQ	FLAT:?Receive@CBaseRenderer@@UEAAJPEAUIMediaSample@@@Z
	DQ	FLAT:?HaveCurrentSample@CBaseRenderer@@UEAAHXZ
	DQ	FLAT:?GetCurrentSample@CBaseRenderer@@UEAAPEAUIMediaSample@@XZ
	DQ	FLAT:?Render@CBaseRenderer@@UEAAJPEAUIMediaSample@@@Z
	DQ	FLAT:_purecall
	DQ	FLAT:_purecall
CONST	ENDS
;	COMDAT rtc$TMZ
rtc$TMZ	SEGMENT
_RTC_Shutdown.rtc$TMZ DQ FLAT:_RTC_Shutdown
rtc$TMZ	ENDS
;	COMDAT rtc$IMZ
rtc$IMZ	SEGMENT
_RTC_InitBase.rtc$IMZ DQ FLAT:_RTC_InitBase
; Function compile flags: /Odtp /RTCsu
rtc$IMZ	ENDS
;	COMDAT ??0CBaseRenderer@@QEAA@AEBU_GUID@@PEA_WPEAUIUnknown@@PEAJ@Z
_TEXT	SEGMENT
$T84420 = 48
this$ = 80
RenderClass$ = 88
pName$ = 96
pUnk$ = 104
phr$ = 112
??0CBaseRenderer@@QEAA@AEBU_GUID@@PEA_WPEAUIUnknown@@PEAJ@Z PROC ; CBaseRenderer::CBaseRenderer, COMDAT
; Line 51
$LN10:
	mov	QWORD PTR [rsp+32], r9
	mov	QWORD PTR [rsp+24], r8
	mov	QWORD PTR [rsp+16], rdx
	mov	QWORD PTR [rsp+8], rcx
	push	rdi
	sub	rsp, 64					; 00000040H
	mov	rdi, rsp
	mov	ecx, 16
	mov	eax, -858993460				; ccccccccH
	rep stosd
	mov	rcx, QWORD PTR [rsp+80]
	mov	QWORD PTR $T84420[rsp], -2
	mov	rax, QWORD PTR this$[rsp]
	add	rax, 200				; 000000c8H
	mov	rcx, QWORD PTR RenderClass$[rsp]
	mov	QWORD PTR [rsp+32], rcx
	mov	r9, rax
	mov	r8, QWORD PTR pUnk$[rsp]
	mov	rdx, QWORD PTR pName$[rsp]
	mov	rcx, QWORD PTR this$[rsp]
	call	??0CBaseFilter@@QEAA@PEB_WPEAUIUnknown@@PEAVCCritSec@@AEBU_GUID@@@Z ; CBaseFilter::CBaseFilter
	npad	1
	mov	rax, QWORD PTR this$[rsp]
	lea	rcx, OFFSET FLAT:??_7CBaseRenderer@@6BCUnknown@@@
	mov	QWORD PTR [rax], rcx
	mov	rax, QWORD PTR this$[rsp]
	lea	rcx, OFFSET FLAT:??_7CBaseRenderer@@6BIBaseFilter@@@
	mov	QWORD PTR [rax+32], rcx
	mov	rax, QWORD PTR this$[rsp]
	lea	rcx, OFFSET FLAT:??_7CBaseRenderer@@6BIAMovieSetup@@@
	mov	QWORD PTR [rax+40], rcx
	mov	rax, QWORD PTR this$[rsp]
	mov	QWORD PTR [rax+128], 0
	mov	rax, QWORD PTR this$[rsp]
	add	rax, 136				; 00000088H
	xor	edx, edx
	mov	rcx, rax
	call	??0CAMEvent@@QEAA@H@Z			; CAMEvent::CAMEvent
	npad	1
	mov	rax, QWORD PTR this$[rsp]
	add	rax, 144				; 00000090H
	mov	edx, 1
	mov	rcx, rax
	call	??0CAMEvent@@QEAA@H@Z			; CAMEvent::CAMEvent
	npad	1
	mov	rax, QWORD PTR this$[rsp]
	add	rax, 152				; 00000098H
	mov	edx, 1
	mov	rcx, rax
	call	??0CAMEvent@@QEAA@H@Z			; CAMEvent::CAMEvent
	npad	1
	mov	rax, QWORD PTR this$[rsp]
	mov	DWORD PTR [rax+160], 0
	mov	rax, QWORD PTR this$[rsp]
	mov	DWORD PTR [rax+164], 0
	mov	rax, QWORD PTR this$[rsp]
	mov	QWORD PTR [rax+168], 0
	mov	rax, QWORD PTR this$[rsp]
	mov	QWORD PTR [rax+176], 0
	mov	rax, QWORD PTR this$[rsp]
	mov	DWORD PTR [rax+184], 0
	mov	rax, QWORD PTR this$[rsp]
	mov	DWORD PTR [rax+188], 0
	mov	rax, QWORD PTR this$[rsp]
	mov	QWORD PTR [rax+192], 0
	mov	rax, QWORD PTR this$[rsp]
	add	rax, 200				; 000000c8H
	mov	rcx, rax
	call	??0CCritSec@@QEAA@XZ			; CCritSec::CCritSec
	npad	1
	mov	rax, QWORD PTR this$[rsp]
	add	rax, 256				; 00000100H
	mov	rcx, rax
	call	??0CCritSec@@QEAA@XZ			; CCritSec::CCritSec
	npad	1
	mov	rax, QWORD PTR this$[rsp]
	mov	QWORD PTR [rax+312], 0
	mov	rax, QWORD PTR this$[rsp]
	mov	DWORD PTR [rax+320], 1
	mov	rax, QWORD PTR this$[rsp]
	mov	DWORD PTR [rax+324], 0
	mov	rax, QWORD PTR this$[rsp]
	mov	QWORD PTR [rax+328], 0
	mov	rax, QWORD PTR this$[rsp]
	mov	DWORD PTR [rax+336], 0
	mov	rax, QWORD PTR this$[rsp]
	add	rax, 344				; 00000158H
	mov	rcx, rax
	call	??0CCritSec@@QEAA@XZ			; CCritSec::CCritSec
	npad	1
; Line 52
	mov	rcx, QWORD PTR this$[rsp]
	call	?Ready@CBaseRenderer@@QEAAXXZ		; CBaseRenderer::Ready
	npad	1
; Line 58
	mov	rax, QWORD PTR this$[rsp]
	add	rsp, 64					; 00000040H
	pop	rdi
	ret	0
??0CBaseRenderer@@QEAA@AEBU_GUID@@PEA_WPEAUIUnknown@@PEAJ@Z ENDP ; CBaseRenderer::CBaseRenderer
; Function compile flags: /Odtp /RTCsu
_TEXT	ENDS
;	COMDAT text$x
text$x	SEGMENT
$T84420 = 48
this$ = 80
RenderClass$ = 88
pName$ = 96
pUnk$ = 104
phr$ = 112
?dtor$0@?0???0CBaseRenderer@@QEAA@AEBU_GUID@@PEA_WPEAUIUnknown@@PEAJ@Z@4HA PROC ; `CBaseRenderer::CBaseRenderer'::`1'::dtor$0
	mov	QWORD PTR [rsp+8], rcx
	mov	QWORD PTR [rsp+16], rdx
	push	rbp
	push	rdi
	sub	rsp, 40					; 00000028H
	mov	rbp, rdx
	mov	rcx, QWORD PTR this$[rbp]
	call	??1CBaseFilter@@UEAA@XZ			; CBaseFilter::~CBaseFilter
	add	rsp, 40					; 00000028H
	pop	rdi
	pop	rbp
	ret	0
?dtor$0@?0???0CBaseRenderer@@QEAA@AEBU_GUID@@PEA_WPEAUIUnknown@@PEAJ@Z@4HA ENDP ; `CBaseRenderer::CBaseRenderer'::`1'::dtor$0
; Function compile flags: /Odtp /RTCsu
$T84420 = 48
this$ = 80
RenderClass$ = 88
pName$ = 96
pUnk$ = 104
phr$ = 112
?dtor$1@?0???0CBaseRenderer@@QEAA@AEBU_GUID@@PEA_WPEAUIUnknown@@PEAJ@Z@4HA PROC ; `CBaseRenderer::CBaseRenderer'::`1'::dtor$1
	mov	QWORD PTR [rsp+8], rcx
	mov	QWORD PTR [rsp+16], rdx
	push	rbp
	push	rdi
	sub	rsp, 40					; 00000028H
	mov	rbp, rdx
	mov	rcx, QWORD PTR this$[rbp]
	add	rcx, 136				; 00000088H
	call	??1CAMEvent@@QEAA@XZ			; CAMEvent::~CAMEvent
	add	rsp, 40					; 00000028H
	pop	rdi
	pop	rbp
	ret	0
?dtor$1@?0???0CBaseRenderer@@QEAA@AEBU_GUID@@PEA_WPEAUIUnknown@@PEAJ@Z@4HA ENDP ; `CBaseRenderer::CBaseRenderer'::`1'::dtor$1
; Function compile flags: /Odtp /RTCsu
$T84420 = 48
this$ = 80
RenderClass$ = 88
pName$ = 96
pUnk$ = 104
phr$ = 112
?dtor$2@?0???0CBaseRenderer@@QEAA@AEBU_GUID@@PEA_WPEAUIUnknown@@PEAJ@Z@4HA PROC ; `CBaseRenderer::CBaseRenderer'::`1'::dtor$2
	mov	QWORD PTR [rsp+8], rcx
	mov	QWORD PTR [rsp+16], rdx
	push	rbp
	push	rdi
	sub	rsp, 40					; 00000028H
	mov	rbp, rdx
	mov	rcx, QWORD PTR this$[rbp]
	add	rcx, 144				; 00000090H
	call	??1CAMEvent@@QEAA@XZ			; CAMEvent::~CAMEvent
	add	rsp, 40					; 00000028H
	pop	rdi
	pop	rbp
	ret	0
?dtor$2@?0???0CBaseRenderer@@QEAA@AEBU_GUID@@PEA_WPEAUIUnknown@@PEAJ@Z@4HA ENDP ; `CBaseRenderer::CBaseRenderer'::`1'::dtor$2
; Function compile flags: /Odtp /RTCsu
$T84420 = 48
this$ = 80
RenderClass$ = 88
pName$ = 96
pUnk$ = 104
phr$ = 112
?dtor$3@?0???0CBaseRenderer@@QEAA@AEBU_GUID@@PEA_WPEAUIUnknown@@PEAJ@Z@4HA PROC ; `CBaseRenderer::CBaseRenderer'::`1'::dtor$3
	mov	QWORD PTR [rsp+8], rcx
	mov	QWORD PTR [rsp+16], rdx
	push	rbp
	push	rdi
	sub	rsp, 40					; 00000028H
	mov	rbp, rdx
	mov	rcx, QWORD PTR this$[rbp]
	add	rcx, 152				; 00000098H
	call	??1CAMEvent@@QEAA@XZ			; CAMEvent::~CAMEvent
	add	rsp, 40					; 00000028H
	pop	rdi
	pop	rbp
	ret	0
?dtor$3@?0???0CBaseRenderer@@QEAA@AEBU_GUID@@PEA_WPEAUIUnknown@@PEAJ@Z@4HA ENDP ; `CBaseRenderer::CBaseRenderer'::`1'::dtor$3
; Function compile flags: /Odtp /RTCsu
$T84420 = 48
this$ = 80
RenderClass$ = 88
pName$ = 96
pUnk$ = 104
phr$ = 112
?dtor$4@?0???0CBaseRenderer@@QEAA@AEBU_GUID@@PEA_WPEAUIUnknown@@PEAJ@Z@4HA PROC ; `CBaseRenderer::CBaseRenderer'::`1'::dtor$4
	mov	QWORD PTR [rsp+8], rcx
	mov	QWORD PTR [rsp+16], rdx
	push	rbp
	push	rdi
	sub	rsp, 40					; 00000028H
	mov	rbp, rdx
	mov	rcx, QWORD PTR this$[rbp]
	add	rcx, 200				; 000000c8H
	call	??1CCritSec@@QEAA@XZ			; CCritSec::~CCritSec
	add	rsp, 40					; 00000028H
	pop	rdi
	pop	rbp
	ret	0
?dtor$4@?0???0CBaseRenderer@@QEAA@AEBU_GUID@@PEA_WPEAUIUnknown@@PEAJ@Z@4HA ENDP ; `CBaseRenderer::CBaseRenderer'::`1'::dtor$4
; Function compile flags: /Odtp /RTCsu
$T84420 = 48
this$ = 80
RenderClass$ = 88
pName$ = 96
pUnk$ = 104
phr$ = 112
?dtor$5@?0???0CBaseRenderer@@QEAA@AEBU_GUID@@PEA_WPEAUIUnknown@@PEAJ@Z@4HA PROC ; `CBaseRenderer::CBaseRenderer'::`1'::dtor$5
	mov	QWORD PTR [rsp+8], rcx
	mov	QWORD PTR [rsp+16], rdx
	push	rbp
	push	rdi
	sub	rsp, 40					; 00000028H
	mov	rbp, rdx
	mov	rcx, QWORD PTR this$[rbp]
	add	rcx, 256				; 00000100H
	call	??1CCritSec@@QEAA@XZ			; CCritSec::~CCritSec
	add	rsp, 40					; 00000028H
	pop	rdi
	pop	rbp
	ret	0
?dtor$5@?0???0CBaseRenderer@@QEAA@AEBU_GUID@@PEA_WPEAUIUnknown@@PEAJ@Z@4HA ENDP ; `CBaseRenderer::CBaseRenderer'::`1'::dtor$5
; Function compile flags: /Odtp /RTCsu
$T84420 = 48
this$ = 80
RenderClass$ = 88
pName$ = 96
pUnk$ = 104
phr$ = 112
?dtor$6@?0???0CBaseRenderer@@QEAA@AEBU_GUID@@PEA_WPEAUIUnknown@@PEAJ@Z@4HA PROC ; `CBaseRenderer::CBaseRenderer'::`1'::dtor$6
	mov	QWORD PTR [rsp+8], rcx
	mov	QWORD PTR [rsp+16], rdx
	push	rbp
	push	rdi
	sub	rsp, 40					; 00000028H
	mov	rbp, rdx
	mov	rcx, QWORD PTR this$[rbp]
	add	rcx, 344				; 00000158H
	call	??1CCritSec@@QEAA@XZ			; CCritSec::~CCritSec
	add	rsp, 40					; 00000028H
	pop	rdi
	pop	rbp
	ret	0
?dtor$6@?0???0CBaseRenderer@@QEAA@AEBU_GUID@@PEA_WPEAUIUnknown@@PEAJ@Z@4HA ENDP ; `CBaseRenderer::CBaseRenderer'::`1'::dtor$6
text$x	ENDS
PUBLIC	?GetOwner@CUnknown@@QEBAPEAUIUnknown@@XZ	; CUnknown::GetOwner
;	COMDAT pdata
; File c:\downloads\wpf mediakit - copy\src\filters\baseclasses\amfilter.h
pdata	SEGMENT
$pdata$?QueryInterface@CBaseFilter@@UEAAJAEBU_GUID@@PEAPEAX@Z DD imagerel $LN3
	DD	imagerel $LN3+93
	DD	imagerel $unwind$?QueryInterface@CBaseFilter@@UEAAJAEBU_GUID@@PEAPEAX@Z
pdata	ENDS
;	COMDAT xdata
xdata	SEGMENT
$unwind$?QueryInterface@CBaseFilter@@UEAAJAEBU_GUID@@PEAPEAX@Z DD 022801H
	DD	070105214H
; Function compile flags: /Odtp /RTCsu
xdata	ENDS
;	COMDAT ?QueryInterface@CBaseFilter@@UEAAJAEBU_GUID@@PEAPEAX@Z
_TEXT	SEGMENT
tv72 = 32
this$ = 64
riid$ = 72
ppv$ = 80
?QueryInterface@CBaseFilter@@UEAAJAEBU_GUID@@PEAPEAX@Z PROC ; CBaseFilter::QueryInterface, COMDAT
; Line 198
$LN3:
	mov	QWORD PTR [rsp+24], r8
	mov	QWORD PTR [rsp+16], rdx
	mov	QWORD PTR [rsp+8], rcx
	push	rdi
	sub	rsp, 48					; 00000030H
	mov	rdi, rsp
	mov	ecx, 12
	mov	eax, -858993460				; ccccccccH
	rep stosd
	mov	rcx, QWORD PTR [rsp+64]
	mov	rax, QWORD PTR this$[rsp]
	sub	rax, 32					; 00000020H
	mov	rcx, rax
	call	?GetOwner@CUnknown@@QEBAPEAUIUnknown@@XZ ; CUnknown::GetOwner
	mov	QWORD PTR tv72[rsp], rax
	mov	rax, QWORD PTR tv72[rsp]
	mov	rax, QWORD PTR [rax]
	mov	r8, QWORD PTR ppv$[rsp]
	mov	rdx, QWORD PTR riid$[rsp]
	mov	rcx, QWORD PTR tv72[rsp]
	call	QWORD PTR [rax]
	add	rsp, 48					; 00000030H
	pop	rdi
	ret	0
?QueryInterface@CBaseFilter@@UEAAJAEBU_GUID@@PEAPEAX@Z ENDP ; CBaseFilter::QueryInterface
_TEXT	ENDS
;	COMDAT pdata
; File c:\downloads\wpf mediakit - copy\src\filters\baseclasses\combase.h
pdata	SEGMENT
$pdata$?GetOwner@CUnknown@@QEBAPEAUIUnknown@@XZ DD imagerel $LN3
	DD	imagerel $LN3+17
	DD	imagerel $unwind$?GetOwner@CUnknown@@QEBAPEAUIUnknown@@XZ
pdata	ENDS
;	COMDAT xdata
xdata	SEGMENT
$unwind$?GetOwner@CUnknown@@QEBAPEAUIUnknown@@XZ DD 010601H
	DD	07006H
; Function compile flags: /Odtp /RTCsu
xdata	ENDS
;	COMDAT ?GetOwner@CUnknown@@QEBAPEAUIUnknown@@XZ
_TEXT	SEGMENT
this$ = 16
?GetOwner@CUnknown@@QEBAPEAUIUnknown@@XZ PROC		; CUnknown::GetOwner, COMDAT
; Line 224
$LN3:
	mov	QWORD PTR [rsp+8], rcx
	push	rdi
; Line 225
	mov	rax, QWORD PTR this$[rsp]
	mov	rax, QWORD PTR [rax+16]
; Line 226
	pop	rdi
	ret	0
?GetOwner@CUnknown@@QEBAPEAUIUnknown@@XZ ENDP		; CUnknown::GetOwner
_TEXT	ENDS
;	COMDAT pdata
; File c:\downloads\wpf mediakit - copy\src\filters\baseclasses\amfilter.h
pdata	SEGMENT
$pdata$?AddRef@CBaseFilter@@UEAAKXZ DD imagerel $LN3
	DD	imagerel $LN3+74
	DD	imagerel $unwind$?AddRef@CBaseFilter@@UEAAKXZ
pdata	ENDS
;	COMDAT xdata
xdata	SEGMENT
$unwind$?AddRef@CBaseFilter@@UEAAKXZ DD 021e01H
	DD	07006520aH
; Function compile flags: /Odtp /RTCsu
xdata	ENDS
;	COMDAT ?AddRef@CBaseFilter@@UEAAKXZ
_TEXT	SEGMENT
tv72 = 32
this$ = 64
?AddRef@CBaseFilter@@UEAAKXZ PROC			; CBaseFilter::AddRef, COMDAT
; Line 198
$LN3:
	mov	QWORD PTR [rsp+8], rcx
	push	rdi
	sub	rsp, 48					; 00000030H
	mov	rdi, rsp
	mov	ecx, 12
	mov	eax, -858993460				; ccccccccH
	rep stosd
	mov	rcx, QWORD PTR [rsp+64]
	mov	rax, QWORD PTR this$[rsp]
	sub	rax, 32					; 00000020H
	mov	rcx, rax
	call	?GetOwner@CUnknown@@QEBAPEAUIUnknown@@XZ ; CUnknown::GetOwner
	mov	QWORD PTR tv72[rsp], rax
	mov	rax, QWORD PTR tv72[rsp]
	mov	rax, QWORD PTR [rax]
	mov	rcx, QWORD PTR tv72[rsp]
	call	QWORD PTR [rax+8]
	add	rsp, 48					; 00000030H
	pop	rdi
	ret	0
?AddRef@CBaseFilter@@UEAAKXZ ENDP			; CBaseFilter::AddRef
_TEXT	ENDS
;	COMDAT pdata
pdata	SEGMENT
$pdata$?Release@CBaseFilter@@UEAAKXZ DD imagerel $LN3
	DD	imagerel $LN3+74
	DD	imagerel $unwind$?Release@CBaseFilter@@UEAAKXZ
pdata	ENDS
;	COMDAT xdata
xdata	SEGMENT
$unwind$?Release@CBaseFilter@@UEAAKXZ DD 021e01H
	DD	07006520aH
; Function compile flags: /Odtp /RTCsu
xdata	ENDS
;	COMDAT ?Release@CBaseFilter@@UEAAKXZ
_TEXT	SEGMENT
tv72 = 32
this$ = 64
?Release@CBaseFilter@@UEAAKXZ PROC			; CBaseFilter::Release, COMDAT
; Line 198
$LN3:
	mov	QWORD PTR [rsp+8], rcx
	push	rdi
	sub	rsp, 48					; 00000030H
	mov	rdi, rsp
	mov	ecx, 12
	mov	eax, -858993460				; ccccccccH
	rep stosd
	mov	rcx, QWORD PTR [rsp+64]
	mov	rax, QWORD PTR this$[rsp]
	sub	rax, 32					; 00000020H
	mov	rcx, rax
	call	?GetOwner@CUnknown@@QEBAPEAUIUnknown@@XZ ; CUnknown::GetOwner
	mov	QWORD PTR tv72[rsp], rax
	mov	rax, QWORD PTR tv72[rsp]
	mov	rax, QWORD PTR [rax]
	mov	rcx, QWORD PTR tv72[rsp]
	call	QWORD PTR [rax+16]
	add	rsp, 48					; 00000030H
	pop	rdi
	ret	0
?Release@CBaseFilter@@UEAAKXZ ENDP			; CBaseFilter::Release
_TEXT	ENDS
;	COMDAT pdata
pdata	SEGMENT
$pdata$?GetSetupData@CBaseFilter@@UEAAPEAU_AMOVIESETUP_FILTER@@XZ DD imagerel $LN3
	DD	imagerel $LN3+10
	DD	imagerel $unwind$?GetSetupData@CBaseFilter@@UEAAPEAU_AMOVIESETUP_FILTER@@XZ
pdata	ENDS
;	COMDAT xdata
xdata	SEGMENT
$unwind$?GetSetupData@CBaseFilter@@UEAAPEAU_AMOVIESETUP_FILTER@@XZ DD 010601H
	DD	07006H
; Function compile flags: /Odtp /RTCsu
xdata	ENDS
;	COMDAT ?GetSetupData@CBaseFilter@@UEAAPEAU_AMOVIESETUP_FILTER@@XZ
_TEXT	SEGMENT
this$ = 16
?GetSetupData@CBaseFilter@@UEAAPEAU_AMOVIESETUP_FILTER@@XZ PROC ; CBaseFilter::GetSetupData, COMDAT
; Line 317
$LN3:
	mov	QWORD PTR [rsp+8], rcx
	push	rdi
	xor	eax, eax
	pop	rdi
	ret	0
?GetSetupData@CBaseFilter@@UEAAPEAU_AMOVIESETUP_FILTER@@XZ ENDP ; CBaseFilter::GetSetupData
_TEXT	ENDS
;	COMDAT pdata
; File c:\downloads\wpf mediakit - copy\src\filters\baseclasses\renbase.h
pdata	SEGMENT
$pdata$?OnReceiveFirstSample@CBaseRenderer@@UEAAXPEAUIMediaSample@@@Z DD imagerel $LN3
	DD	imagerel $LN3+13
	DD	imagerel $unwind$?OnReceiveFirstSample@CBaseRenderer@@UEAAXPEAUIMediaSample@@@Z
pdata	ENDS
;	COMDAT xdata
xdata	SEGMENT
$unwind$?OnReceiveFirstSample@CBaseRenderer@@UEAAXPEAUIMediaSample@@@Z DD 010b01H
	DD	0700bH
; Function compile flags: /Odtp /RTCsu
xdata	ENDS
;	COMDAT ?OnReceiveFirstSample@CBaseRenderer@@UEAAXPEAUIMediaSample@@@Z
_TEXT	SEGMENT
this$ = 16
pMediaSample$ = 24
?OnReceiveFirstSample@CBaseRenderer@@UEAAXPEAUIMediaSample@@@Z PROC ; CBaseRenderer::OnReceiveFirstSample, COMDAT
; Line 126
$LN3:
	mov	QWORD PTR [rsp+16], rdx
	mov	QWORD PTR [rsp+8], rcx
	push	rdi
	pop	rdi
	ret	0
?OnReceiveFirstSample@CBaseRenderer@@UEAAXPEAUIMediaSample@@@Z ENDP ; CBaseRenderer::OnReceiveFirstSample
_TEXT	ENDS
PUBLIC	?Set@CAMEvent@@QEAAXXZ				; CAMEvent::Set
;	COMDAT pdata
pdata	SEGMENT
$pdata$?Ready@CBaseRenderer@@QEAAXXZ DD imagerel $LN3
	DD	imagerel $LN3+55
	DD	imagerel $unwind$?Ready@CBaseRenderer@@QEAAXXZ
pdata	ENDS
;	COMDAT xdata
xdata	SEGMENT
$unwind$?Ready@CBaseRenderer@@QEAAXXZ DD 021e01H
	DD	07006320aH
; Function compile flags: /Odtp /RTCsu
xdata	ENDS
;	COMDAT ?Ready@CBaseRenderer@@QEAAXXZ
_TEXT	SEGMENT
this$ = 48
?Ready@CBaseRenderer@@QEAAXXZ PROC			; CBaseRenderer::Ready, COMDAT
; Line 131
$LN3:
	mov	QWORD PTR [rsp+8], rcx
	push	rdi
	sub	rsp, 32					; 00000020H
	mov	rdi, rsp
	mov	ecx, 8
	mov	eax, -858993460				; ccccccccH
	rep stosd
	mov	rcx, QWORD PTR [rsp+48]
	mov	rax, QWORD PTR this$[rsp]
	add	rax, 152				; 00000098H
	mov	rcx, rax
	call	?Set@CAMEvent@@QEAAXXZ			; CAMEvent::Set
	add	rsp, 32					; 00000020H
	pop	rdi
	ret	0
?Ready@CBaseRenderer@@QEAAXXZ ENDP			; CBaseRenderer::Ready
_TEXT	ENDS
PUBLIC	??_C@_1CG@LOEFFHJE@?$AAS?$AAe?$AAt?$AAE?$AAv?$AAe?$AAn?$AAt?$AA?$CI?$AAm?$AA_?$AAh?$AAE?$AAv?$AAe?$AAn?$AAt?$AA?$CJ?$AA?$AA@ ; `string'
PUBLIC	??_C@_1IE@FEPELDBE@?$AAC?$AA?3?$AA?2?$AAD?$AAo?$AAw?$AAn?$AAl?$AAo?$AAa?$AAd?$AAs?$AA?2?$AAW?$AAP?$AAF?$AA?5?$AAM?$AAe?$AAd?$AAi?$AAa?$AAK?$AAi?$AAt?$AA?5?$AA?9?$AA?5?$AAC?$AAo?$AAp?$AAy@ ; `string'
EXTRN	?DbgAssert@@YAXPEB_W0H@Z:PROC			; DbgAssert
EXTRN	__imp_SetEvent:PROC
;	COMDAT pdata
; File c:\downloads\wpf mediakit - copy\src\filters\baseclasses\wxutil.h
pdata	SEGMENT
$pdata$?Set@CAMEvent@@QEAAXXZ DD imagerel $LN4
	DD	imagerel $LN4+79
	DD	imagerel $unwind$?Set@CAMEvent@@QEAAXXZ
pdata	ENDS
;	COMDAT xdata
xdata	SEGMENT
$unwind$?Set@CAMEvent@@QEAAXXZ DD 021e01H
	DD	07006320aH
xdata	ENDS
;	COMDAT ??_C@_1CG@LOEFFHJE@?$AAS?$AAe?$AAt?$AAE?$AAv?$AAe?$AAn?$AAt?$AA?$CI?$AAm?$AA_?$AAh?$AAE?$AAv?$AAe?$AAn?$AAt?$AA?$CJ?$AA?$AA@
CONST	SEGMENT
??_C@_1CG@LOEFFHJE@?$AAS?$AAe?$AAt?$AAE?$AAv?$AAe?$AAn?$AAt?$AA?$CI?$AAm?$AA_?$AAh?$AAE?$AAv?$AAe?$AAn?$AAt?$AA?$CJ?$AA?$AA@ DB 'S'
	DB	00H, 'e', 00H, 't', 00H, 'E', 00H, 'v', 00H, 'e', 00H, 'n', 00H
	DB	't', 00H, '(', 00H, 'm', 00H, '_', 00H, 'h', 00H, 'E', 00H, 'v'
	DB	00H, 'e', 00H, 'n', 00H, 't', 00H, ')', 00H, 00H, 00H ; `string'
CONST	ENDS
;	COMDAT ??_C@_1IE@FEPELDBE@?$AAC?$AA?3?$AA?2?$AAD?$AAo?$AAw?$AAn?$AAl?$AAo?$AAa?$AAd?$AAs?$AA?2?$AAW?$AAP?$AAF?$AA?5?$AAM?$AAe?$AAd?$AAi?$AAa?$AAK?$AAi?$AAt?$AA?5?$AA?9?$AA?5?$AAC?$AAo?$AAp?$AAy@
CONST	SEGMENT
??_C@_1IE@FEPELDBE@?$AAC?$AA?3?$AA?2?$AAD?$AAo?$AAw?$AAn?$AAl?$AAo?$AAa?$AAd?$AAs?$AA?2?$AAW?$AAP?$AAF?$AA?5?$AAM?$AAe?$AAd?$AAi?$AAa?$AAK?$AAi?$AAt?$AA?5?$AA?9?$AA?5?$AAC?$AAo?$AAp?$AAy@ DB 'C'
	DB	00H, ':', 00H, '\', 00H, 'D', 00H, 'o', 00H, 'w', 00H, 'n', 00H
	DB	'l', 00H, 'o', 00H, 'a', 00H, 'd', 00H, 's', 00H, '\', 00H, 'W'
	DB	00H, 'P', 00H, 'F', 00H, ' ', 00H, 'M', 00H, 'e', 00H, 'd', 00H
	DB	'i', 00H, 'a', 00H, 'K', 00H, 'i', 00H, 't', 00H, ' ', 00H, '-'
	DB	00H, ' ', 00H, 'C', 00H, 'o', 00H, 'p', 00H, 'y', 00H, '\', 00H
	DB	's', 00H, 'r', 00H, 'c', 00H, '\', 00H, 'f', 00H, 'i', 00H, 'l'
	DB	00H, 't', 00H, 'e', 00H, 'r', 00H, 's', 00H, '\', 00H, 'B', 00H
	DB	'a', 00H, 's', 00H, 'e', 00H, 'C', 00H, 'l', 00H, 'a', 00H, 's'
	DB	00H, 's', 00H, 'e', 00H, 's', 00H, '\', 00H, 'w', 00H, 'x', 00H
	DB	'u', 00H, 't', 00H, 'i', 00H, 'l', 00H, '.', 00H, 'h', 00H, 00H
	DB	00H						; `string'
; Function compile flags: /Odtp /RTCsu
CONST	ENDS
;	COMDAT ?Set@CAMEvent@@QEAAXXZ
_TEXT	SEGMENT
this$ = 48
?Set@CAMEvent@@QEAAXXZ PROC				; CAMEvent::Set, COMDAT
; Line 125
$LN4:
	mov	QWORD PTR [rsp+8], rcx
	push	rdi
	sub	rsp, 32					; 00000020H
	mov	rdi, rsp
	mov	ecx, 8
	mov	eax, -858993460				; ccccccccH
	rep stosd
	mov	rcx, QWORD PTR [rsp+48]
	mov	rax, QWORD PTR this$[rsp]
	mov	rcx, QWORD PTR [rax]
	call	QWORD PTR __imp_SetEvent
	test	eax, eax
	jne	SHORT $LN1@Set
	mov	r8d, 125				; 0000007dH
	lea	rdx, OFFSET FLAT:??_C@_1IE@FEPELDBE@?$AAC?$AA?3?$AA?2?$AAD?$AAo?$AAw?$AAn?$AAl?$AAo?$AAa?$AAd?$AAs?$AA?2?$AAW?$AAP?$AAF?$AA?5?$AAM?$AAe?$AAd?$AAi?$AAa?$AAK?$AAi?$AAt?$AA?5?$AA?9?$AA?5?$AAC?$AAo?$AAp?$AAy@
	lea	rcx, OFFSET FLAT:??_C@_1CG@LOEFFHJE@?$AAS?$AAe?$AAt?$AAE?$AAv?$AAe?$AAn?$AAt?$AA?$CI?$AAm?$AA_?$AAh?$AAE?$AAv?$AAe?$AAn?$AAt?$AA?$CJ?$AA?$AA@
	call	?DbgAssert@@YAXPEB_W0H@Z		; DbgAssert
$LN1@Set:
	add	rsp, 32					; 00000020H
	pop	rdi
	ret	0
?Set@CAMEvent@@QEAAXXZ ENDP				; CAMEvent::Set
_TEXT	ENDS
;	COMDAT pdata
; File c:\downloads\wpf mediakit - copy\src\filters\baseclasses\renbase.h
pdata	SEGMENT
$pdata$?OnStartStreaming@CBaseRenderer@@UEAAJXZ DD imagerel $LN3
	DD	imagerel $LN3+10
	DD	imagerel $unwind$?OnStartStreaming@CBaseRenderer@@UEAAJXZ
pdata	ENDS
;	COMDAT xdata
xdata	SEGMENT
$unwind$?OnStartStreaming@CBaseRenderer@@UEAAJXZ DD 010601H
	DD	07006H
; Function compile flags: /Odtp /RTCsu
xdata	ENDS
;	COMDAT ?OnStartStreaming@CBaseRenderer@@UEAAJXZ
_TEXT	SEGMENT
this$ = 16
?OnStartStreaming@CBaseRenderer@@UEAAJXZ PROC		; CBaseRenderer::OnStartStreaming, COMDAT
; Line 155
$LN3:
	mov	QWORD PTR [rsp+8], rcx
	push	rdi
	xor	eax, eax
	pop	rdi
	ret	0
?OnStartStreaming@CBaseRenderer@@UEAAJXZ ENDP		; CBaseRenderer::OnStartStreaming
_TEXT	ENDS
;	COMDAT pdata
pdata	SEGMENT
$pdata$?OnStopStreaming@CBaseRenderer@@UEAAJXZ DD imagerel $LN3
	DD	imagerel $LN3+10
	DD	imagerel $unwind$?OnStopStreaming@CBaseRenderer@@UEAAJXZ
pdata	ENDS
;	COMDAT xdata
xdata	SEGMENT
$unwind$?OnStopStreaming@CBaseRenderer@@UEAAJXZ DD 010601H
	DD	07006H
; Function compile flags: /Odtp /RTCsu
xdata	ENDS
;	COMDAT ?OnStopStreaming@CBaseRenderer@@UEAAJXZ
_TEXT	SEGMENT
this$ = 16
?OnStopStreaming@CBaseRenderer@@UEAAJXZ PROC		; CBaseRenderer::OnStopStreaming, COMDAT
; Line 156
$LN3:
	mov	QWORD PTR [rsp+8], rcx
	push	rdi
	xor	eax, eax
	pop	rdi
	ret	0
?OnStopStreaming@CBaseRenderer@@UEAAJXZ ENDP		; CBaseRenderer::OnStopStreaming
_TEXT	ENDS
;	COMDAT pdata
pdata	SEGMENT
$pdata$?OnWaitStart@CBaseRenderer@@UEAAXXZ DD imagerel $LN3
	DD	imagerel $LN3+8
	DD	imagerel $unwind$?OnWaitStart@CBaseRenderer@@UEAAXXZ
pdata	ENDS
;	COMDAT xdata
xdata	SEGMENT
$unwind$?OnWaitStart@CBaseRenderer@@UEAAXXZ DD 010601H
	DD	07006H
; Function compile flags: /Odtp /RTCsu
xdata	ENDS
;	COMDAT ?OnWaitStart@CBaseRenderer@@UEAAXXZ
_TEXT	SEGMENT
this$ = 16
?OnWaitStart@CBaseRenderer@@UEAAXXZ PROC		; CBaseRenderer::OnWaitStart, COMDAT
; Line 157
$LN3:
	mov	QWORD PTR [rsp+8], rcx
	push	rdi
	pop	rdi
	ret	0
?OnWaitStart@CBaseRenderer@@UEAAXXZ ENDP		; CBaseRenderer::OnWaitStart
_TEXT	ENDS
;	COMDAT pdata
pdata	SEGMENT
$pdata$?OnWaitEnd@CBaseRenderer@@UEAAXXZ DD imagerel $LN3
	DD	imagerel $LN3+8
	DD	imagerel $unwind$?OnWaitEnd@CBaseRenderer@@UEAAXXZ
pdata	ENDS
;	COMDAT xdata
xdata	SEGMENT
$unwind$?OnWaitEnd@CBaseRenderer@@UEAAXXZ DD 010601H
	DD	07006H
; Function compile flags: /Odtp /RTCsu
xdata	ENDS
;	COMDAT ?OnWaitEnd@CBaseRenderer@@UEAAXXZ
_TEXT	SEGMENT
this$ = 16
?OnWaitEnd@CBaseRenderer@@UEAAXXZ PROC			; CBaseRenderer::OnWaitEnd, COMDAT
; Line 158
$LN3:
	mov	QWORD PTR [rsp+8], rcx
	push	rdi
	pop	rdi
	ret	0
?OnWaitEnd@CBaseRenderer@@UEAAXXZ ENDP			; CBaseRenderer::OnWaitEnd
_TEXT	ENDS
;	COMDAT pdata
pdata	SEGMENT
$pdata$?PrepareRender@CBaseRenderer@@UEAAXXZ DD imagerel $LN3
	DD	imagerel $LN3+8
	DD	imagerel $unwind$?PrepareRender@CBaseRenderer@@UEAAXXZ
pdata	ENDS
;	COMDAT xdata
xdata	SEGMENT
$unwind$?PrepareRender@CBaseRenderer@@UEAAXXZ DD 010601H
	DD	07006H
; Function compile flags: /Odtp /RTCsu
xdata	ENDS
;	COMDAT ?PrepareRender@CBaseRenderer@@UEAAXXZ
_TEXT	SEGMENT
this$ = 16
?PrepareRender@CBaseRenderer@@UEAAXXZ PROC		; CBaseRenderer::PrepareRender, COMDAT
; Line 159
$LN3:
	mov	QWORD PTR [rsp+8], rcx
	push	rdi
	pop	rdi
	ret	0
?PrepareRender@CBaseRenderer@@UEAAXXZ ENDP		; CBaseRenderer::PrepareRender
_TEXT	ENDS
PUBLIC	??1CBaseRenderer@@UEAA@XZ			; CBaseRenderer::~CBaseRenderer
EXTRN	??3@YAXPEAX@Z:PROC				; operator delete
;	COMDAT pdata
pdata	SEGMENT
$pdata$??_GCBaseRenderer@@UEAAPEAXI@Z DD imagerel $LN4
	DD	imagerel $LN4+76
	DD	imagerel $unwind$??_GCBaseRenderer@@UEAAPEAXI@Z
pdata	ENDS
;	COMDAT xdata
xdata	SEGMENT
$unwind$??_GCBaseRenderer@@UEAAPEAXI@Z DD 022201H
	DD	0700a320eH
; Function compile flags: /Odtp /RTCsu
xdata	ENDS
;	COMDAT ??_GCBaseRenderer@@UEAAPEAXI@Z
_TEXT	SEGMENT
this$ = 48
__flags$ = 56
??_GCBaseRenderer@@UEAAPEAXI@Z PROC			; CBaseRenderer::`scalar deleting destructor', COMDAT
$LN4:
	mov	DWORD PTR [rsp+16], edx
	mov	QWORD PTR [rsp+8], rcx
	push	rdi
	sub	rsp, 32					; 00000020H
	mov	rdi, rsp
	mov	ecx, 8
	mov	eax, -858993460				; ccccccccH
	rep stosd
	mov	rcx, QWORD PTR [rsp+48]
	mov	rcx, QWORD PTR this$[rsp]
	call	??1CBaseRenderer@@UEAA@XZ		; CBaseRenderer::~CBaseRenderer
	mov	eax, DWORD PTR __flags$[rsp]
	and	eax, 1
	test	eax, eax
	je	SHORT $LN1@scalar
	mov	rcx, QWORD PTR this$[rsp]
	call	??3@YAXPEAX@Z				; operator delete
$LN1@scalar:
	mov	rax, QWORD PTR this$[rsp]
	add	rsp, 32					; 00000020H
	pop	rdi
	ret	0
??_GCBaseRenderer@@UEAAPEAXI@Z ENDP			; CBaseRenderer::`scalar deleting destructor'
_TEXT	ENDS
;	COMDAT pdata
; File c:\downloads\wpf mediakit - copy\src\filters\baseclasses\renbase.cpp
pdata	SEGMENT
$pdata$??1CBaseRenderer@@UEAA@XZ DD imagerel $LN19
	DD	imagerel $LN19+585
	DD	imagerel $unwind$??1CBaseRenderer@@UEAA@XZ
pdata	ENDS
;	COMDAT pdata
pdata	SEGMENT
$pdata$?dtor$0@?0???1CBaseRenderer@@UEAA@XZ@4HA DD imagerel ?dtor$0@?0???1CBaseRenderer@@UEAA@XZ@4HA
	DD	imagerel ?dtor$0@?0???1CBaseRenderer@@UEAA@XZ@4HA+35
	DD	imagerel $unwind$?dtor$0@?0???1CBaseRenderer@@UEAA@XZ@4HA
pdata	ENDS
;	COMDAT pdata
pdata	SEGMENT
$pdata$?dtor$1@?0???1CBaseRenderer@@UEAA@XZ@4HA DD imagerel ?dtor$1@?0???1CBaseRenderer@@UEAA@XZ@4HA
	DD	imagerel ?dtor$1@?0???1CBaseRenderer@@UEAA@XZ@4HA+42
	DD	imagerel $unwind$?dtor$1@?0???1CBaseRenderer@@UEAA@XZ@4HA
pdata	ENDS
;	COMDAT pdata
pdata	SEGMENT
$pdata$?dtor$2@?0???1CBaseRenderer@@UEAA@XZ@4HA DD imagerel ?dtor$2@?0???1CBaseRenderer@@UEAA@XZ@4HA
	DD	imagerel ?dtor$2@?0???1CBaseRenderer@@UEAA@XZ@4HA+42
	DD	imagerel $unwind$?dtor$2@?0???1CBaseRenderer@@UEAA@XZ@4HA
pdata	ENDS
;	COMDAT pdata
pdata	SEGMENT
$pdata$?dtor$3@?0???1CBaseRenderer@@UEAA@XZ@4HA DD imagerel ?dtor$3@?0???1CBaseRenderer@@UEAA@XZ@4HA
	DD	imagerel ?dtor$3@?0???1CBaseRenderer@@UEAA@XZ@4HA+42
	DD	imagerel $unwind$?dtor$3@?0???1CBaseRenderer@@UEAA@XZ@4HA
pdata	ENDS
;	COMDAT pdata
pdata	SEGMENT
$pdata$?dtor$4@?0???1CBaseRenderer@@UEAA@XZ@4HA DD imagerel ?dtor$4@?0???1CBaseRenderer@@UEAA@XZ@4HA
	DD	imagerel ?dtor$4@?0???1CBaseRenderer@@UEAA@XZ@4HA+42
	DD	imagerel $unwind$?dtor$4@?0???1CBaseRenderer@@UEAA@XZ@4HA
pdata	ENDS
;	COMDAT pdata
pdata	SEGMENT
$pdata$?dtor$5@?0???1CBaseRenderer@@UEAA@XZ@4HA DD imagerel ?dtor$5@?0???1CBaseRenderer@@UEAA@XZ@4HA
	DD	imagerel ?dtor$5@?0???1CBaseRenderer@@UEAA@XZ@4HA+42
	DD	imagerel $unwind$?dtor$5@?0???1CBaseRenderer@@UEAA@XZ@4HA
pdata	ENDS
;	COMDAT pdata
pdata	SEGMENT
$pdata$?dtor$6@?0???1CBaseRenderer@@UEAA@XZ@4HA DD imagerel ?dtor$6@?0???1CBaseRenderer@@UEAA@XZ@4HA
	DD	imagerel ?dtor$6@?0???1CBaseRenderer@@UEAA@XZ@4HA+42
	DD	imagerel $unwind$?dtor$6@?0???1CBaseRenderer@@UEAA@XZ@4HA
pdata	ENDS
;	COMDAT xdata
xdata	SEGMENT
$ip2state$??1CBaseRenderer@@UEAA@XZ DD imagerel ??1CBaseRenderer@@UEAA@XZ
	DD	0ffffffffH
	DD	imagerel ??1CBaseRenderer@@UEAA@XZ+86
	DD	06H
	DD	imagerel ??1CBaseRenderer@@UEAA@XZ+449
	DD	05H
	DD	imagerel ??1CBaseRenderer@@UEAA@XZ+469
	DD	04H
	DD	imagerel ??1CBaseRenderer@@UEAA@XZ+489
	DD	03H
	DD	imagerel ??1CBaseRenderer@@UEAA@XZ+509
	DD	02H
	DD	imagerel ??1CBaseRenderer@@UEAA@XZ+529
	DD	01H
	DD	imagerel ??1CBaseRenderer@@UEAA@XZ+549
	DD	00H
	DD	imagerel ??1CBaseRenderer@@UEAA@XZ+569
	DD	0ffffffffH
xdata	ENDS
;	COMDAT xdata
xdata	SEGMENT
$unwind$?dtor$6@?0???1CBaseRenderer@@UEAA@XZ@4HA DD 031001H
	DD	0700c4210H
	DD	0500bH
xdata	ENDS
;	COMDAT xdata
xdata	SEGMENT
$unwind$?dtor$5@?0???1CBaseRenderer@@UEAA@XZ@4HA DD 031001H
	DD	0700c4210H
	DD	0500bH
xdata	ENDS
;	COMDAT xdata
xdata	SEGMENT
$unwind$?dtor$4@?0???1CBaseRenderer@@UEAA@XZ@4HA DD 031001H
	DD	0700c4210H
	DD	0500bH
xdata	ENDS
;	COMDAT xdata
xdata	SEGMENT
$unwind$?dtor$3@?0???1CBaseRenderer@@UEAA@XZ@4HA DD 031001H
	DD	0700c4210H
	DD	0500bH
xdata	ENDS
;	COMDAT xdata
xdata	SEGMENT
$unwind$?dtor$2@?0???1CBaseRenderer@@UEAA@XZ@4HA DD 031001H
	DD	0700c4210H
	DD	0500bH
xdata	ENDS
;	COMDAT xdata
xdata	SEGMENT
$unwind$?dtor$1@?0???1CBaseRenderer@@UEAA@XZ@4HA DD 031001H
	DD	0700c4210H
	DD	0500bH
xdata	ENDS
;	COMDAT xdata
xdata	SEGMENT
$unwind$?dtor$0@?0???1CBaseRenderer@@UEAA@XZ@4HA DD 031001H
	DD	0700c4210H
	DD	0500bH
xdata	ENDS
;	COMDAT xdata
xdata	SEGMENT
$unwind$??1CBaseRenderer@@UEAA@XZ DD 022711H
	DD	07006b20aH
	DD	imagerel __CxxFrameHandler3
	DD	imagerel $cppxdata$??1CBaseRenderer@@UEAA@XZ
xdata	ENDS
;	COMDAT CONST
CONST	SEGMENT
$cppxdata$??1CBaseRenderer@@UEAA@XZ DD 019930522H
	DD	07H
	DD	imagerel $stateUnwindMap$??1CBaseRenderer@@UEAA@XZ
	DD	00H
	DD	00H
	DD	09H
	DD	imagerel $ip2state$??1CBaseRenderer@@UEAA@XZ
	DD	040H
	DD	00H
	DD	01H
CONST	ENDS
;	COMDAT xdata
xdata	SEGMENT
$stateUnwindMap$??1CBaseRenderer@@UEAA@XZ DD 0ffffffffH
	DD	imagerel ?dtor$0@?0???1CBaseRenderer@@UEAA@XZ@4HA
	DD	00H
	DD	imagerel ?dtor$1@?0???1CBaseRenderer@@UEAA@XZ@4HA
	DD	01H
	DD	imagerel ?dtor$2@?0???1CBaseRenderer@@UEAA@XZ@4HA
	DD	02H
	DD	imagerel ?dtor$3@?0???1CBaseRenderer@@UEAA@XZ@4HA
	DD	03H
	DD	imagerel ?dtor$4@?0???1CBaseRenderer@@UEAA@XZ@4HA
	DD	04H
	DD	imagerel ?dtor$5@?0???1CBaseRenderer@@UEAA@XZ@4HA
	DD	05H
	DD	imagerel ?dtor$6@?0???1CBaseRenderer@@UEAA@XZ@4HA
; Function compile flags: /Odtp /RTCsu
xdata	ENDS
;	COMDAT ??1CBaseRenderer@@UEAA@XZ
_TEXT	SEGMENT
$T84563 = 32
$T84564 = 40
$T84567 = 48
$T84568 = 56
$T84588 = 64
tv196 = 72
tv154 = 80
tv169 = 88
this$ = 112
??1CBaseRenderer@@UEAA@XZ PROC				; CBaseRenderer::~CBaseRenderer, COMDAT
; Line 68
$LN19:
	mov	QWORD PTR [rsp+8], rcx
	push	rdi
	sub	rsp, 96					; 00000060H
	mov	rdi, rsp
	mov	ecx, 24
	mov	eax, -858993460				; ccccccccH
	rep stosd
	mov	rcx, QWORD PTR [rsp+112]
	mov	QWORD PTR $T84588[rsp], -2
	mov	rax, QWORD PTR this$[rsp]
	lea	rcx, OFFSET FLAT:??_7CBaseRenderer@@6BCUnknown@@@
	mov	QWORD PTR [rax], rcx
	mov	rax, QWORD PTR this$[rsp]
	lea	rcx, OFFSET FLAT:??_7CBaseRenderer@@6BIBaseFilter@@@
	mov	QWORD PTR [rax+32], rcx
	mov	rax, QWORD PTR this$[rsp]
	lea	rcx, OFFSET FLAT:??_7CBaseRenderer@@6BIAMovieSetup@@@
	mov	QWORD PTR [rax+40], rcx
; Line 69
	mov	rax, QWORD PTR this$[rsp]
	cmp	DWORD PTR [rax+164], 0
	je	SHORT $LN5@CBaseRende
	mov	r8d, 69					; 00000045H
	lea	rdx, OFFSET FLAT:$SG82250
	lea	rcx, OFFSET FLAT:$SG82251
	call	?DbgAssert@@YAXPEB_W0H@Z		; DbgAssert
$LN5@CBaseRende:
; Line 70
	mov	rax, QWORD PTR this$[rsp]
	cmp	DWORD PTR [rax+336], 0
	je	SHORT $LN4@CBaseRende
	mov	r8d, 70					; 00000046H
	lea	rdx, OFFSET FLAT:$SG82253
	lea	rcx, OFFSET FLAT:$SG82254
	call	?DbgAssert@@YAXPEB_W0H@Z		; DbgAssert
$LN4@CBaseRende:
; Line 71
	mov	rcx, QWORD PTR this$[rsp]
	call	?StopStreaming@CBaseRenderer@@UEAAJXZ	; CBaseRenderer::StopStreaming
; Line 72
	mov	rcx, QWORD PTR this$[rsp]
	call	?ClearPendingSample@CBaseRenderer@@UEAAJXZ ; CBaseRenderer::ClearPendingSample
; Line 76
	mov	rax, QWORD PTR this$[rsp]
	cmp	QWORD PTR [rax+128], 0
	je	SHORT $LN3@CBaseRende
; Line 77
	mov	rax, QWORD PTR this$[rsp]
	mov	rax, QWORD PTR [rax+128]
	mov	QWORD PTR $T84564[rsp], rax
	mov	rax, QWORD PTR $T84564[rsp]
	mov	QWORD PTR $T84563[rsp], rax
	cmp	QWORD PTR $T84563[rsp], 0
	je	SHORT $LN8@CBaseRende
	mov	rax, QWORD PTR $T84563[rsp]
	add	rax, 16
	mov	rcx, QWORD PTR $T84563[rsp]
	mov	rcx, QWORD PTR [rcx+16]
	mov	QWORD PTR tv196[rsp], rcx
	mov	edx, 1
	mov	rcx, rax
	mov	rax, QWORD PTR tv196[rsp]
	call	QWORD PTR [rax+24]
	mov	QWORD PTR tv154[rsp], rax
	jmp	SHORT $LN9@CBaseRende
$LN8@CBaseRende:
	mov	QWORD PTR tv154[rsp], 0
$LN9@CBaseRende:
; Line 78
	mov	rax, QWORD PTR this$[rsp]
	mov	QWORD PTR [rax+128], 0
$LN3@CBaseRende:
; Line 83
	mov	rax, QWORD PTR this$[rsp]
	cmp	QWORD PTR [rax+192], 0
	je	SHORT $LN2@CBaseRende
; Line 84
	mov	rax, QWORD PTR this$[rsp]
	mov	rax, QWORD PTR [rax+192]
	mov	QWORD PTR $T84568[rsp], rax
	mov	rax, QWORD PTR $T84568[rsp]
	mov	QWORD PTR $T84567[rsp], rax
	cmp	QWORD PTR $T84567[rsp], 0
	je	SHORT $LN10@CBaseRende
	mov	rax, QWORD PTR $T84567[rsp]
	mov	rax, QWORD PTR [rax]
	mov	edx, 1
	mov	rcx, QWORD PTR $T84567[rsp]
	call	QWORD PTR [rax+24]
	mov	QWORD PTR tv169[rsp], rax
	jmp	SHORT $LN11@CBaseRende
$LN10@CBaseRende:
	mov	QWORD PTR tv169[rsp], 0
$LN11@CBaseRende:
; Line 85
	mov	rax, QWORD PTR this$[rsp]
	mov	QWORD PTR [rax+192], 0
$LN2@CBaseRende:
; Line 90
	mov	rax, QWORD PTR this$[rsp]
	cmp	QWORD PTR [rax+312], 0
	je	SHORT $LN1@CBaseRende
	mov	r8d, 90					; 0000005aH
	lea	rdx, OFFSET FLAT:$SG82262
	lea	rcx, OFFSET FLAT:$SG82263
	call	?DbgAssert@@YAXPEB_W0H@Z		; DbgAssert
	npad	1
$LN1@CBaseRende:
; Line 91
	mov	rax, QWORD PTR this$[rsp]
	add	rax, 344				; 00000158H
	mov	rcx, rax
	call	??1CCritSec@@QEAA@XZ			; CCritSec::~CCritSec
	npad	1
	mov	rax, QWORD PTR this$[rsp]
	add	rax, 256				; 00000100H
	mov	rcx, rax
	call	??1CCritSec@@QEAA@XZ			; CCritSec::~CCritSec
	npad	1
	mov	rax, QWORD PTR this$[rsp]
	add	rax, 200				; 000000c8H
	mov	rcx, rax
	call	??1CCritSec@@QEAA@XZ			; CCritSec::~CCritSec
	npad	1
	mov	rax, QWORD PTR this$[rsp]
	add	rax, 152				; 00000098H
	mov	rcx, rax
	call	??1CAMEvent@@QEAA@XZ			; CAMEvent::~CAMEvent
	npad	1
	mov	rax, QWORD PTR this$[rsp]
	add	rax, 144				; 00000090H
	mov	rcx, rax
	call	??1CAMEvent@@QEAA@XZ			; CAMEvent::~CAMEvent
	npad	1
	mov	rax, QWORD PTR this$[rsp]
	add	rax, 136				; 00000088H
	mov	rcx, rax
	call	??1CAMEvent@@QEAA@XZ			; CAMEvent::~CAMEvent
	npad	1
	mov	rcx, QWORD PTR this$[rsp]
	call	??1CBaseFilter@@UEAA@XZ			; CBaseFilter::~CBaseFilter
	add	rsp, 96					; 00000060H
	pop	rdi
	ret	0
??1CBaseRenderer@@UEAA@XZ ENDP				; CBaseRenderer::~CBaseRenderer
; Function compile flags: /Odtp /RTCsu
_TEXT	ENDS
;	COMDAT text$x
text$x	SEGMENT
$T84563 = 32
$T84564 = 40
$T84567 = 48
$T84568 = 56
$T84588 = 64
tv196 = 72
tv154 = 80
tv169 = 88
this$ = 112
?dtor$0@?0???1CBaseRenderer@@UEAA@XZ@4HA PROC		; `CBaseRenderer::~CBaseRenderer'::`1'::dtor$0
	mov	QWORD PTR [rsp+8], rcx
	mov	QWORD PTR [rsp+16], rdx
	push	rbp
	push	rdi
	sub	rsp, 40					; 00000028H
	mov	rbp, rdx
	mov	rcx, QWORD PTR this$[rbp]
	call	??1CBaseFilter@@UEAA@XZ			; CBaseFilter::~CBaseFilter
	add	rsp, 40					; 00000028H
	pop	rdi
	pop	rbp
	ret	0
?dtor$0@?0???1CBaseRenderer@@UEAA@XZ@4HA ENDP		; `CBaseRenderer::~CBaseRenderer'::`1'::dtor$0
; Function compile flags: /Odtp /RTCsu
$T84563 = 32
$T84564 = 40
$T84567 = 48
$T84568 = 56
$T84588 = 64
tv196 = 72
tv154 = 80
tv169 = 88
this$ = 112
?dtor$1@?0???1CBaseRenderer@@UEAA@XZ@4HA PROC		; `CBaseRenderer::~CBaseRenderer'::`1'::dtor$1
	mov	QWORD PTR [rsp+8], rcx
	mov	QWORD PTR [rsp+16], rdx
	push	rbp
	push	rdi
	sub	rsp, 40					; 00000028H
	mov	rbp, rdx
	mov	rcx, QWORD PTR this$[rbp]
	add	rcx, 136				; 00000088H
	call	??1CAMEvent@@QEAA@XZ			; CAMEvent::~CAMEvent
	add	rsp, 40					; 00000028H
	pop	rdi
	pop	rbp
	ret	0
?dtor$1@?0???1CBaseRenderer@@UEAA@XZ@4HA ENDP		; `CBaseRenderer::~CBaseRenderer'::`1'::dtor$1
; Function compile flags: /Odtp /RTCsu
$T84563 = 32
$T84564 = 40
$T84567 = 48
$T84568 = 56
$T84588 = 64
tv196 = 72
tv154 = 80
tv169 = 88
this$ = 112
?dtor$2@?0???1CBaseRenderer@@UEAA@XZ@4HA PROC		; `CBaseRenderer::~CBaseRenderer'::`1'::dtor$2
	mov	QWORD PTR [rsp+8], rcx
	mov	QWORD PTR [rsp+16], rdx
	push	rbp
	push	rdi
	sub	rsp, 40					; 00000028H
	mov	rbp, rdx
	mov	rcx, QWORD PTR this$[rbp]
	add	rcx, 144				; 00000090H
	call	??1CAMEvent@@QEAA@XZ			; CAMEvent::~CAMEvent
	add	rsp, 40					; 00000028H
	pop	rdi
	pop	rbp
	ret	0
?dtor$2@?0???1CBaseRenderer@@UEAA@XZ@4HA ENDP		; `CBaseRenderer::~CBaseRenderer'::`1'::dtor$2
; Function compile flags: /Odtp /RTCsu
$T84563 = 32
$T84564 = 40
$T84567 = 48
$T84568 = 56
$T84588 = 64
tv196 = 72
tv154 = 80
tv169 = 88
this$ = 112
?dtor$3@?0???1CBaseRenderer@@UEAA@XZ@4HA PROC		; `CBaseRenderer::~CBaseRenderer'::`1'::dtor$3
	mov	QWORD PTR [rsp+8], rcx
	mov	QWORD PTR [rsp+16], rdx
	push	rbp
	push	rdi
	sub	rsp, 40					; 00000028H
	mov	rbp, rdx
	mov	rcx, QWORD PTR this$[rbp]
	add	rcx, 152				; 00000098H
	call	??1CAMEvent@@QEAA@XZ			; CAMEvent::~CAMEvent
	add	rsp, 40					; 00000028H
	pop	rdi
	pop	rbp
	ret	0
?dtor$3@?0???1CBaseRenderer@@UEAA@XZ@4HA ENDP		; `CBaseRenderer::~CBaseRenderer'::`1'::dtor$3
; Function compile flags: /Odtp /RTCsu
$T84563 = 32
$T84564 = 40
$T84567 = 48
$T84568 = 56
$T84588 = 64
tv196 = 72
tv154 = 80
tv169 = 88
this$ = 112
?dtor$4@?0???1CBaseRenderer@@UEAA@XZ@4HA PROC		; `CBaseRenderer::~CBaseRenderer'::`1'::dtor$4
	mov	QWORD PTR [rsp+8], rcx
	mov	QWORD PTR [rsp+16], rdx
	push	rbp
	push	rdi
	sub	rsp, 40					; 00000028H
	mov	rbp, rdx
	mov	rcx, QWORD PTR this$[rbp]
	add	rcx, 200				; 000000c8H
	call	??1CCritSec@@QEAA@XZ			; CCritSec::~CCritSec
	add	rsp, 40					; 00000028H
	pop	rdi
	pop	rbp
	ret	0
?dtor$4@?0???1CBaseRenderer@@UEAA@XZ@4HA ENDP		; `CBaseRenderer::~CBaseRenderer'::`1'::dtor$4
; Function compile flags: /Odtp /RTCsu
$T84563 = 32
$T84564 = 40
$T84567 = 48
$T84568 = 56
$T84588 = 64
tv196 = 72
tv154 = 80
tv169 = 88
this$ = 112
?dtor$5@?0???1CBaseRenderer@@UEAA@XZ@4HA PROC		; `CBaseRenderer::~CBaseRenderer'::`1'::dtor$5
	mov	QWORD PTR [rsp+8], rcx
	mov	QWORD PTR [rsp+16], rdx
	push	rbp
	push	rdi
	sub	rsp, 40					; 00000028H
	mov	rbp, rdx
	mov	rcx, QWORD PTR this$[rbp]
	add	rcx, 256				; 00000100H
	call	??1CCritSec@@QEAA@XZ			; CCritSec::~CCritSec
	add	rsp, 40					; 00000028H
	pop	rdi
	pop	rbp
	ret	0
?dtor$5@?0???1CBaseRenderer@@UEAA@XZ@4HA ENDP		; `CBaseRenderer::~CBaseRenderer'::`1'::dtor$5
; Function compile flags: /Odtp /RTCsu
$T84563 = 32
$T84564 = 40
$T84567 = 48
$T84568 = 56
$T84588 = 64
tv196 = 72
tv154 = 80
tv169 = 88
this$ = 112
?dtor$6@?0???1CBaseRenderer@@UEAA@XZ@4HA PROC		; `CBaseRenderer::~CBaseRenderer'::`1'::dtor$6
	mov	QWORD PTR [rsp+8], rcx
	mov	QWORD PTR [rsp+16], rdx
	push	rbp
	push	rdi
	sub	rsp, 40					; 00000028H
	mov	rbp, rdx
	mov	rcx, QWORD PTR this$[rbp]
	add	rcx, 344				; 00000158H
	call	??1CCritSec@@QEAA@XZ			; CCritSec::~CCritSec
	add	rsp, 40					; 00000028H
	pop	rdi
	pop	rbp
	ret	0
?dtor$6@?0???1CBaseRenderer@@UEAA@XZ@4HA ENDP		; `CBaseRenderer::~CBaseRenderer'::`1'::dtor$6
text$x	ENDS
PUBLIC	??1CAutoLock@@QEAA@XZ				; CAutoLock::~CAutoLock
PUBLIC	??0CAutoLock@@QEAA@PEAVCCritSec@@@Z		; CAutoLock::CAutoLock
EXTRN	??0CRendererPosPassThru@@QEAA@PEB_WPEAUIUnknown@@PEAJPEAUIPin@@@Z:PROC ; CRendererPosPassThru::CRendererPosPassThru
EXTRN	??2@YAPEAX_K@Z:PROC				; operator new
EXTRN	_RTC_CheckStackVars:PROC
;	COMDAT pdata
pdata	SEGMENT
$pdata$?GetMediaPositionInterface@CBaseRenderer@@UEAAJAEBU_GUID@@PEAPEAX@Z DD imagerel $LN14
	DD	imagerel $LN14+721
	DD	imagerel $unwind$?GetMediaPositionInterface@CBaseRenderer@@UEAAJAEBU_GUID@@PEAPEAX@Z
pdata	ENDS
;	COMDAT pdata
pdata	SEGMENT
$pdata$?dtor$0@?0??GetMediaPositionInterface@CBaseRenderer@@UEAAJAEBU_GUID@@PEAPEAX@Z@4HA DD imagerel ?dtor$0@?0??GetMediaPositionInterface@CBaseRenderer@@UEAAJAEBU_GUID@@PEAPEAX@Z@4HA
	DD	imagerel ?dtor$0@?0??GetMediaPositionInterface@CBaseRenderer@@UEAAJAEBU_GUID@@PEAPEAX@Z@4HA+35
	DD	imagerel $unwind$?dtor$0@?0??GetMediaPositionInterface@CBaseRenderer@@UEAAJAEBU_GUID@@PEAPEAX@Z@4HA
pdata	ENDS
;	COMDAT pdata
pdata	SEGMENT
$pdata$?dtor$1@?0??GetMediaPositionInterface@CBaseRenderer@@UEAAJAEBU_GUID@@PEAPEAX@Z@4HA DD imagerel ?dtor$1@?0??GetMediaPositionInterface@CBaseRenderer@@UEAAJAEBU_GUID@@PEAPEAX@Z@4HA
	DD	imagerel ?dtor$1@?0??GetMediaPositionInterface@CBaseRenderer@@UEAAJAEBU_GUID@@PEAPEAX@Z@4HA+35
	DD	imagerel $unwind$?dtor$1@?0??GetMediaPositionInterface@CBaseRenderer@@UEAAJAEBU_GUID@@PEAPEAX@Z@4HA
pdata	ENDS
;	COMDAT xdata
xdata	SEGMENT
$ip2state$?GetMediaPositionInterface@CBaseRenderer@@UEAAJAEBU_GUID@@PEAPEAX@Z DD imagerel ?GetMediaPositionInterface@CBaseRenderer@@UEAAJAEBU_GUID@@PEAPEAX@Z
	DD	0ffffffffH
	DD	imagerel ?GetMediaPositionInterface@CBaseRenderer@@UEAAJAEBU_GUID@@PEAPEAX@Z+86
	DD	00H
	DD	imagerel ?GetMediaPositionInterface@CBaseRenderer@@UEAAJAEBU_GUID@@PEAPEAX@Z+164
	DD	0ffffffffH
	DD	imagerel ?GetMediaPositionInterface@CBaseRenderer@@UEAAJAEBU_GUID@@PEAPEAX@Z+183
	DD	00H
	DD	imagerel ?GetMediaPositionInterface@CBaseRenderer@@UEAAJAEBU_GUID@@PEAPEAX@Z+206
	DD	01H
	DD	imagerel ?GetMediaPositionInterface@CBaseRenderer@@UEAAJAEBU_GUID@@PEAPEAX@Z+381
	DD	00H
	DD	imagerel ?GetMediaPositionInterface@CBaseRenderer@@UEAAJAEBU_GUID@@PEAPEAX@Z+427
	DD	0ffffffffH
	DD	imagerel ?GetMediaPositionInterface@CBaseRenderer@@UEAAJAEBU_GUID@@PEAPEAX@Z+446
	DD	00H
	DD	imagerel ?GetMediaPositionInterface@CBaseRenderer@@UEAAJAEBU_GUID@@PEAPEAX@Z+610
	DD	0ffffffffH
	DD	imagerel ?GetMediaPositionInterface@CBaseRenderer@@UEAAJAEBU_GUID@@PEAPEAX@Z+629
	DD	00H
	DD	imagerel ?GetMediaPositionInterface@CBaseRenderer@@UEAAJAEBU_GUID@@PEAPEAX@Z+674
	DD	0ffffffffH
xdata	ENDS
;	COMDAT xdata
xdata	SEGMENT
$unwind$?dtor$1@?0??GetMediaPositionInterface@CBaseRenderer@@UEAAJAEBU_GUID@@PEAPEAX@Z@4HA DD 031001H
	DD	0700c4210H
	DD	0500bH
xdata	ENDS
;	COMDAT xdata
xdata	SEGMENT
$unwind$?dtor$0@?0??GetMediaPositionInterface@CBaseRenderer@@UEAAJAEBU_GUID@@PEAPEAX@Z@4HA DD 031001H
	DD	0700c4210H
	DD	0500bH
xdata	ENDS
;	COMDAT xdata
xdata	SEGMENT
$unwind$?GetMediaPositionInterface@CBaseRenderer@@UEAAJAEBU_GUID@@PEAPEAX@Z DD 033a11H
	DD	01a0117H
	DD	07010H
	DD	imagerel __CxxFrameHandler3
	DD	imagerel $cppxdata$?GetMediaPositionInterface@CBaseRenderer@@UEAAJAEBU_GUID@@PEAPEAX@Z
xdata	ENDS
;	COMDAT xdata
xdata	SEGMENT
$stateUnwindMap$?GetMediaPositionInterface@CBaseRenderer@@UEAAJAEBU_GUID@@PEAPEAX@Z DD 0ffffffffH
	DD	imagerel ?dtor$0@?0??GetMediaPositionInterface@CBaseRenderer@@UEAAJAEBU_GUID@@PEAPEAX@Z@4HA
	DD	00H
	DD	imagerel ?dtor$1@?0??GetMediaPositionInterface@CBaseRenderer@@UEAAJAEBU_GUID@@PEAPEAX@Z@4HA
xdata	ENDS
;	COMDAT CONST
CONST	SEGMENT
?GetMediaPositionInterface@CBaseRenderer@@UEAAJAEBU_GUID@@PEAPEAX@Z$rtcName$0 DB 063H ; CBaseRenderer::GetMediaPositionInterface
	DB	04fH
	DB	062H
	DB	06aH
	DB	065H
	DB	063H
	DB	074H
	DB	043H
	DB	072H
	DB	065H
	DB	061H
	DB	074H
	DB	069H
	DB	06fH
	DB	06eH
	DB	04cH
	DB	06fH
	DB	063H
	DB	06bH
	DB	00H
?GetMediaPositionInterface@CBaseRenderer@@UEAAJAEBU_GUID@@PEAPEAX@Z$rtcName$1 DB 068H ; CBaseRenderer::GetMediaPositionInterface
	DB	072H
	DB	00H
	ORG $+9
?GetMediaPositionInterface@CBaseRenderer@@UEAAJAEBU_GUID@@PEAPEAX@Z$rtcVarDesc DD 054H ; CBaseRenderer::GetMediaPositionInterface
	DD	04H
	DQ	FLAT:?GetMediaPositionInterface@CBaseRenderer@@UEAAJAEBU_GUID@@PEAPEAX@Z$rtcName$1
	DD	038H
	DD	08H
	DQ	FLAT:?GetMediaPositionInterface@CBaseRenderer@@UEAAJAEBU_GUID@@PEAPEAX@Z$rtcName$0
	ORG $+96
?GetMediaPositionInterface@CBaseRenderer@@UEAAJAEBU_GUID@@PEAPEAX@Z$rtcFrameData DD 02H ; CBaseRenderer::GetMediaPositionInterface
	DD	00H
	DQ	FLAT:?GetMediaPositionInterface@CBaseRenderer@@UEAAJAEBU_GUID@@PEAPEAX@Z$rtcVarDesc
$cppxdata$?GetMediaPositionInterface@CBaseRenderer@@UEAAJAEBU_GUID@@PEAPEAX@Z DD 019930522H
	DD	02H
	DD	imagerel $stateUnwindMap$?GetMediaPositionInterface@CBaseRenderer@@UEAAJAEBU_GUID@@PEAPEAX@Z
	DD	00H
	DD	00H
	DD	0bH
	DD	imagerel $ip2state$?GetMediaPositionInterface@CBaseRenderer@@UEAAJAEBU_GUID@@PEAPEAX@Z
	DD	098H
	DD	00H
	DD	01H
; Function compile flags: /Odtp /RTCsu
CONST	ENDS
;	COMDAT ?GetMediaPositionInterface@CBaseRenderer@@UEAAJAEBU_GUID@@PEAPEAX@Z
_TEXT	SEGMENT
cObjectCreationLock$ = 56
hr$ = 84
$T84630 = 100
$T84631 = 104
$T84632 = 112
$T84637 = 120
$T84638 = 128
$T84639 = 136
$T84642 = 144
$T84643 = 148
$T84651 = 152
tv138 = 160
tv137 = 168
tv150 = 176
tv179 = 184
tv165 = 192
this$ = 224
riid$ = 232
ppv$ = 240
?GetMediaPositionInterface@CBaseRenderer@@UEAAJAEBU_GUID@@PEAPEAX@Z PROC ; CBaseRenderer::GetMediaPositionInterface, COMDAT
; Line 97
$LN14:
	mov	QWORD PTR [rsp+24], r8
	mov	QWORD PTR [rsp+16], rdx
	mov	QWORD PTR [rsp+8], rcx
	push	rdi
	sub	rsp, 208				; 000000d0H
	mov	rdi, rsp
	mov	ecx, 52					; 00000034H
	mov	eax, -858993460				; ccccccccH
	rep stosd
	mov	rcx, QWORD PTR [rsp+224]
	mov	QWORD PTR $T84651[rsp], -2
; Line 98
	mov	rax, QWORD PTR this$[rsp]
	add	rax, 344				; 00000158H
	mov	rdx, rax
	lea	rcx, QWORD PTR cObjectCreationLock$[rsp]
	call	??0CAutoLock@@QEAA@PEAVCCritSec@@@Z	; CAutoLock::CAutoLock
	npad	1
; Line 99
	mov	rax, QWORD PTR this$[rsp]
	cmp	QWORD PTR [rax+128], 0
	je	SHORT $LN3@GetMediaPo
; Line 100
	mov	rax, QWORD PTR this$[rsp]
	mov	rax, QWORD PTR [rax+128]
	mov	rcx, QWORD PTR this$[rsp]
	mov	rcx, QWORD PTR [rcx+128]
	add	rcx, 16
	mov	rax, QWORD PTR [rax+16]
	mov	r8, QWORD PTR ppv$[rsp]
	mov	rdx, QWORD PTR riid$[rsp]
	call	QWORD PTR [rax]
	mov	DWORD PTR $T84630[rsp], eax
	lea	rcx, QWORD PTR cObjectCreationLock$[rsp]
	call	??1CAutoLock@@QEAA@XZ			; CAutoLock::~CAutoLock
	mov	eax, DWORD PTR $T84630[rsp]
	jmp	$LN4@GetMediaPo
$LN3@GetMediaPo:
; Line 103
	mov	DWORD PTR hr$[rsp], 0
; Line 113
	mov	ecx, 144				; 00000090H
	call	??2@YAPEAX_K@Z				; operator new
	mov	QWORD PTR $T84632[rsp], rax
	cmp	QWORD PTR $T84632[rsp], 0
	je	$LN8@GetMediaPo
	mov	rax, QWORD PTR this$[rsp]
	mov	rax, QWORD PTR [rax]
	xor	edx, edx
	mov	rcx, QWORD PTR this$[rsp]
	call	QWORD PTR [rax+56]
	mov	QWORD PTR tv138[rsp], rax
	cmp	QWORD PTR tv138[rsp], 0
	je	SHORT $LN6@GetMediaPo
	mov	rax, QWORD PTR tv138[rsp]
	add	rax, 32					; 00000020H
	mov	QWORD PTR tv137[rsp], rax
	jmp	SHORT $LN7@GetMediaPo
$LN6@GetMediaPo:
	mov	QWORD PTR tv137[rsp], 0
$LN7@GetMediaPo:
	mov	rcx, QWORD PTR this$[rsp]
	call	?GetOwner@CUnknown@@QEBAPEAUIUnknown@@XZ ; CUnknown::GetOwner
	mov	rcx, QWORD PTR tv137[rsp]
	mov	QWORD PTR [rsp+32], rcx
	lea	r9, QWORD PTR hr$[rsp]
	mov	r8, rax
	lea	rdx, OFFSET FLAT:$SG82278
	mov	rcx, QWORD PTR $T84632[rsp]
	call	??0CRendererPosPassThru@@QEAA@PEB_WPEAUIUnknown@@PEAJPEAUIPin@@@Z ; CRendererPosPassThru::CRendererPosPassThru
	mov	QWORD PTR tv150[rsp], rax
	jmp	SHORT $LN9@GetMediaPo
$LN8@GetMediaPo:
	mov	QWORD PTR tv150[rsp], 0
$LN9@GetMediaPo:
	mov	rax, QWORD PTR tv150[rsp]
	mov	QWORD PTR $T84631[rsp], rax
	mov	rax, QWORD PTR this$[rsp]
	mov	rcx, QWORD PTR $T84631[rsp]
	mov	QWORD PTR [rax+128], rcx
; Line 114
	mov	rax, QWORD PTR this$[rsp]
	cmp	QWORD PTR [rax+128], 0
	jne	SHORT $LN2@GetMediaPo
; Line 115
	mov	DWORD PTR $T84637[rsp], -2147024882	; ffffffff8007000eH
	lea	rcx, QWORD PTR cObjectCreationLock$[rsp]
	call	??1CAutoLock@@QEAA@XZ			; CAutoLock::~CAutoLock
	mov	eax, DWORD PTR $T84637[rsp]
	jmp	$LN4@GetMediaPo
$LN2@GetMediaPo:
; Line 118
	cmp	DWORD PTR hr$[rsp], 0
	jge	$LN1@GetMediaPo
; Line 119
	mov	rax, QWORD PTR this$[rsp]
	mov	rax, QWORD PTR [rax+128]
	mov	QWORD PTR $T84639[rsp], rax
	mov	rax, QWORD PTR $T84639[rsp]
	mov	QWORD PTR $T84638[rsp], rax
	cmp	QWORD PTR $T84638[rsp], 0
	je	SHORT $LN10@GetMediaPo
	mov	rax, QWORD PTR $T84638[rsp]
	add	rax, 16
	mov	rcx, QWORD PTR $T84638[rsp]
	mov	rcx, QWORD PTR [rcx+16]
	mov	QWORD PTR tv179[rsp], rcx
	mov	edx, 1
	mov	rcx, rax
	mov	rax, QWORD PTR tv179[rsp]
	call	QWORD PTR [rax+24]
	mov	QWORD PTR tv165[rsp], rax
	jmp	SHORT $LN11@GetMediaPo
$LN10@GetMediaPo:
	mov	QWORD PTR tv165[rsp], 0
$LN11@GetMediaPo:
; Line 120
	mov	rax, QWORD PTR this$[rsp]
	mov	QWORD PTR [rax+128], 0
; Line 121
	mov	DWORD PTR $T84642[rsp], -2147467262	; ffffffff80004002H
	lea	rcx, QWORD PTR cObjectCreationLock$[rsp]
	call	??1CAutoLock@@QEAA@XZ			; CAutoLock::~CAutoLock
	mov	eax, DWORD PTR $T84642[rsp]
	jmp	SHORT $LN4@GetMediaPo
$LN1@GetMediaPo:
; Line 123
	mov	rax, QWORD PTR this$[rsp]
	mov	rax, QWORD PTR [rax]
	mov	r8, QWORD PTR ppv$[rsp]
	mov	rdx, QWORD PTR riid$[rsp]
	mov	rcx, QWORD PTR this$[rsp]
	call	QWORD PTR [rax+72]
	mov	DWORD PTR $T84643[rsp], eax
	lea	rcx, QWORD PTR cObjectCreationLock$[rsp]
	call	??1CAutoLock@@QEAA@XZ			; CAutoLock::~CAutoLock
	mov	eax, DWORD PTR $T84643[rsp]
$LN4@GetMediaPo:
; Line 124
	mov	rdi, rax
	mov	rcx, rsp
	lea	rdx, OFFSET FLAT:?GetMediaPositionInterface@CBaseRenderer@@UEAAJAEBU_GUID@@PEAPEAX@Z$rtcFrameData
	call	_RTC_CheckStackVars
	mov	rax, rdi
	add	rsp, 208				; 000000d0H
	pop	rdi
	ret	0
?GetMediaPositionInterface@CBaseRenderer@@UEAAJAEBU_GUID@@PEAPEAX@Z ENDP ; CBaseRenderer::GetMediaPositionInterface
; Function compile flags: /Odtp /RTCsu
_TEXT	ENDS
;	COMDAT text$x
text$x	SEGMENT
cObjectCreationLock$ = 56
hr$ = 84
$T84630 = 100
$T84631 = 104
$T84632 = 112
$T84637 = 120
$T84638 = 128
$T84639 = 136
$T84642 = 144
$T84643 = 148
$T84651 = 152
tv138 = 160
tv137 = 168
tv150 = 176
tv179 = 184
tv165 = 192
this$ = 224
riid$ = 232
ppv$ = 240
?dtor$0@?0??GetMediaPositionInterface@CBaseRenderer@@UEAAJAEBU_GUID@@PEAPEAX@Z@4HA PROC ; `CBaseRenderer::GetMediaPositionInterface'::`1'::dtor$0
	mov	QWORD PTR [rsp+8], rcx
	mov	QWORD PTR [rsp+16], rdx
	push	rbp
	push	rdi
	sub	rsp, 40					; 00000028H
	mov	rbp, rdx
	lea	rcx, QWORD PTR cObjectCreationLock$[rbp]
	call	??1CAutoLock@@QEAA@XZ			; CAutoLock::~CAutoLock
	add	rsp, 40					; 00000028H
	pop	rdi
	pop	rbp
	ret	0
?dtor$0@?0??GetMediaPositionInterface@CBaseRenderer@@UEAAJAEBU_GUID@@PEAPEAX@Z@4HA ENDP ; `CBaseRenderer::GetMediaPositionInterface'::`1'::dtor$0
; Function compile flags: /Odtp /RTCsu
cObjectCreationLock$ = 56
hr$ = 84
$T84630 = 100
$T84631 = 104
$T84632 = 112
$T84637 = 120
$T84638 = 128
$T84639 = 136
$T84642 = 144
$T84643 = 148
$T84651 = 152
tv138 = 160
tv137 = 168
tv150 = 176
tv179 = 184
tv165 = 192
this$ = 224
riid$ = 232
ppv$ = 240
?dtor$1@?0??GetMediaPositionInterface@CBaseRenderer@@UEAAJAEBU_GUID@@PEAPEAX@Z@4HA PROC ; `CBaseRenderer::GetMediaPositionInterface'::`1'::dtor$1
	mov	QWORD PTR [rsp+8], rcx
	mov	QWORD PTR [rsp+16], rdx
	push	rbp
	push	rdi
	sub	rsp, 40					; 00000028H
	mov	rbp, rdx
	mov	rcx, QWORD PTR $T84632[rbp]
	call	??3@YAXPEAX@Z				; operator delete
	add	rsp, 40					; 00000028H
	pop	rdi
	pop	rbp
	ret	0
?dtor$1@?0??GetMediaPositionInterface@CBaseRenderer@@UEAAJAEBU_GUID@@PEAPEAX@Z@4HA ENDP ; `CBaseRenderer::GetMediaPositionInterface'::`1'::dtor$1
text$x	ENDS
EXTRN	?Lock@CCritSec@@QEAAXXZ:PROC			; CCritSec::Lock
;	COMDAT pdata
; File c:\downloads\wpf mediakit - copy\src\filters\baseclasses\wxutil.h
pdata	SEGMENT
$pdata$??0CAutoLock@@QEAA@PEAVCCritSec@@@Z DD imagerel $LN3
	DD	imagerel $LN3+72
	DD	imagerel $unwind$??0CAutoLock@@QEAA@PEAVCCritSec@@@Z
pdata	ENDS
;	COMDAT xdata
xdata	SEGMENT
$unwind$??0CAutoLock@@QEAA@PEAVCCritSec@@@Z DD 022301H
	DD	0700b320fH
; Function compile flags: /Odtp /RTCsu
xdata	ENDS
;	COMDAT ??0CAutoLock@@QEAA@PEAVCCritSec@@@Z
_TEXT	SEGMENT
this$ = 48
plock$ = 56
??0CAutoLock@@QEAA@PEAVCCritSec@@@Z PROC		; CAutoLock::CAutoLock, COMDAT
; Line 94
$LN3:
	mov	QWORD PTR [rsp+16], rdx
	mov	QWORD PTR [rsp+8], rcx
	push	rdi
	sub	rsp, 32					; 00000020H
	mov	rdi, rsp
	mov	ecx, 8
	mov	eax, -858993460				; ccccccccH
	rep stosd
	mov	rcx, QWORD PTR [rsp+48]
; Line 96
	mov	rax, QWORD PTR this$[rsp]
	mov	rcx, QWORD PTR plock$[rsp]
	mov	QWORD PTR [rax], rcx
; Line 97
	mov	rax, QWORD PTR this$[rsp]
	mov	rcx, QWORD PTR [rax]
	call	?Lock@CCritSec@@QEAAXXZ			; CCritSec::Lock
; Line 98
	mov	rax, QWORD PTR this$[rsp]
	add	rsp, 32					; 00000020H
	pop	rdi
	ret	0
??0CAutoLock@@QEAA@PEAVCCritSec@@@Z ENDP		; CAutoLock::CAutoLock
_TEXT	ENDS
EXTRN	?Unlock@CCritSec@@QEAAXXZ:PROC			; CCritSec::Unlock
;	COMDAT pdata
pdata	SEGMENT
$pdata$??1CAutoLock@@QEAA@XZ DD imagerel $LN3
	DD	imagerel $LN3+49
	DD	imagerel $unwind$??1CAutoLock@@QEAA@XZ
pdata	ENDS
;	COMDAT xdata
xdata	SEGMENT
$unwind$??1CAutoLock@@QEAA@XZ DD 021e01H
	DD	07006320aH
; Function compile flags: /Odtp /RTCsu
xdata	ENDS
;	COMDAT ??1CAutoLock@@QEAA@XZ
_TEXT	SEGMENT
this$ = 48
??1CAutoLock@@QEAA@XZ PROC				; CAutoLock::~CAutoLock, COMDAT
; Line 100
$LN3:
	mov	QWORD PTR [rsp+8], rcx
	push	rdi
	sub	rsp, 32					; 00000020H
	mov	rdi, rsp
	mov	ecx, 8
	mov	eax, -858993460				; ccccccccH
	rep stosd
	mov	rcx, QWORD PTR [rsp+48]
; Line 101
	mov	rax, QWORD PTR this$[rsp]
	mov	rcx, QWORD PTR [rax]
	call	?Unlock@CCritSec@@QEAAXXZ		; CCritSec::Unlock
; Line 102
	add	rsp, 32					; 00000020H
	pop	rdi
	ret	0
??1CAutoLock@@QEAA@XZ ENDP				; CAutoLock::~CAutoLock
_TEXT	ENDS
PUBLIC	==
EXTRN	?NonDelegatingQueryInterface@CBaseFilter@@UEAAJAEBU_GUID@@PEAPEAX@Z:PROC ; CBaseFilter::NonDelegatingQueryInterface
EXTRN	IID_IMediaSeeking:BYTE
EXTRN	IID_IMediaPosition:BYTE
;	COMDAT pdata
; File c:\downloads\wpf mediakit - copy\src\filters\baseclasses\renbase.cpp
pdata	SEGMENT
$pdata$?NonDelegatingQueryInterface@CBaseRenderer@@UEAAJAEBU_GUID@@PEAPEAX@Z DD imagerel $LN6
	DD	imagerel $LN6+138
	DD	imagerel $unwind$?NonDelegatingQueryInterface@CBaseRenderer@@UEAAJAEBU_GUID@@PEAPEAX@Z
pdata	ENDS
;	COMDAT xdata
xdata	SEGMENT
$unwind$?NonDelegatingQueryInterface@CBaseRenderer@@UEAAJAEBU_GUID@@PEAPEAX@Z DD 022801H
	DD	070103214H
; Function compile flags: /Odtp /RTCsu
xdata	ENDS
;	COMDAT ?NonDelegatingQueryInterface@CBaseRenderer@@UEAAJAEBU_GUID@@PEAPEAX@Z
_TEXT	SEGMENT
this$ = 48
riid$ = 56
ppv$ = 64
?NonDelegatingQueryInterface@CBaseRenderer@@UEAAJAEBU_GUID@@PEAPEAX@Z PROC ; CBaseRenderer::NonDelegatingQueryInterface, COMDAT
; Line 130
$LN6:
	mov	QWORD PTR [rsp+24], r8
	mov	QWORD PTR [rsp+16], rdx
	mov	QWORD PTR [rsp+8], rcx
	push	rdi
	sub	rsp, 32					; 00000020H
	mov	rdi, rsp
	mov	ecx, 8
	mov	eax, -858993460				; ccccccccH
	rep stosd
	mov	rcx, QWORD PTR [rsp+48]
; Line 133
	lea	rdx, OFFSET FLAT:IID_IMediaPosition
	mov	rcx, QWORD PTR riid$[rsp]
	call	==
	test	eax, eax
	jne	SHORT $LN2@NonDelegat
	lea	rdx, OFFSET FLAT:IID_IMediaSeeking
	mov	rcx, QWORD PTR riid$[rsp]
	call	==
	test	eax, eax
	je	SHORT $LN3@NonDelegat
$LN2@NonDelegat:
; Line 134
	mov	rax, QWORD PTR this$[rsp]
	mov	rax, QWORD PTR [rax]
	mov	r8, QWORD PTR ppv$[rsp]
	mov	rdx, QWORD PTR riid$[rsp]
	mov	rcx, QWORD PTR this$[rsp]
	call	QWORD PTR [rax+72]
	jmp	SHORT $LN4@NonDelegat
; Line 135
	jmp	SHORT $LN1@NonDelegat
$LN3@NonDelegat:
; Line 136
	mov	r8, QWORD PTR ppv$[rsp]
	mov	rdx, QWORD PTR riid$[rsp]
	mov	rcx, QWORD PTR this$[rsp]
	call	?NonDelegatingQueryInterface@CBaseFilter@@UEAAJAEBU_GUID@@PEAPEAX@Z ; CBaseFilter::NonDelegatingQueryInterface
$LN1@NonDelegat:
$LN4@NonDelegat:
; Line 138
	add	rsp, 32					; 00000020H
	pop	rdi
	ret	0
?NonDelegatingQueryInterface@CBaseRenderer@@UEAAJAEBU_GUID@@PEAPEAX@Z ENDP ; CBaseRenderer::NonDelegatingQueryInterface
_TEXT	ENDS
PUBLIC	IsEqualGUID
;	COMDAT pdata
; File c:\program files (x86)\microsoft sdks\windows\v7.0a\include\guiddef.h
pdata	SEGMENT
$pdata$== DD	imagerel $LN3
	DD	imagerel $LN3+56
	DD	imagerel $unwind$==
pdata	ENDS
;	COMDAT xdata
xdata	SEGMENT
$unwind$== DD	022301H
	DD	0700b320fH
; Function compile flags: /Odtp /RTCsu
xdata	ENDS
;	COMDAT ==
_TEXT	SEGMENT
guidOne$ = 48
guidOther$ = 56
==	PROC						; COMDAT
; Line 193
$LN3:
	mov	QWORD PTR [rsp+16], rdx
	mov	QWORD PTR [rsp+8], rcx
	push	rdi
	sub	rsp, 32					; 00000020H
	mov	rdi, rsp
	mov	ecx, 8
	mov	eax, -858993460				; ccccccccH
	rep stosd
	mov	rcx, QWORD PTR [rsp+48]
; Line 194
	mov	rdx, QWORD PTR guidOther$[rsp]
	mov	rcx, QWORD PTR guidOne$[rsp]
	call	IsEqualGUID
; Line 195
	add	rsp, 32					; 00000020H
	pop	rdi
	ret	0
==	ENDP
_TEXT	ENDS
EXTRN	memcmp:PROC
;	COMDAT pdata
pdata	SEGMENT
$pdata$IsEqualGUID DD imagerel $LN5
	DD	imagerel $LN5+88
	DD	imagerel $unwind$IsEqualGUID
pdata	ENDS
;	COMDAT xdata
xdata	SEGMENT
$unwind$IsEqualGUID DD 022301H
	DD	0700b520fH
; Function compile flags: /Odtp /RTCsu
xdata	ENDS
;	COMDAT IsEqualGUID
_TEXT	SEGMENT
tv69 = 32
rguid1$ = 64
rguid2$ = 72
IsEqualGUID PROC					; COMDAT
; Line 160
$LN5:
	mov	QWORD PTR [rsp+16], rdx
	mov	QWORD PTR [rsp+8], rcx
	push	rdi
	sub	rsp, 48					; 00000030H
	mov	rdi, rsp
	mov	ecx, 12
	mov	eax, -858993460				; ccccccccH
	rep stosd
	mov	rcx, QWORD PTR [rsp+64]
; Line 161
	mov	r8d, 16
	mov	rdx, QWORD PTR rguid2$[rsp]
	mov	rcx, QWORD PTR rguid1$[rsp]
	call	memcmp
	test	eax, eax
	jne	SHORT $LN3@IsEqualGUI
	mov	DWORD PTR tv69[rsp], 1
	jmp	SHORT $LN4@IsEqualGUI
$LN3@IsEqualGUI:
	mov	DWORD PTR tv69[rsp], 0
$LN4@IsEqualGUI:
	mov	eax, DWORD PTR tv69[rsp]
; Line 162
	add	rsp, 48					; 00000030H
	pop	rdi
	ret	0
IsEqualGUID ENDP
_TEXT	ENDS
PUBLIC	?Reset@CAMEvent@@QEAAXXZ			; CAMEvent::Reset
;	COMDAT pdata
; File c:\downloads\wpf mediakit - copy\src\filters\baseclasses\renbase.cpp
pdata	SEGMENT
$pdata$?SourceThreadCanWait@CBaseRenderer@@UEAAJH@Z DD imagerel $LN5
	DD	imagerel $LN5+89
	DD	imagerel $unwind$?SourceThreadCanWait@CBaseRenderer@@UEAAJH@Z
pdata	ENDS
;	COMDAT xdata
xdata	SEGMENT
$unwind$?SourceThreadCanWait@CBaseRenderer@@UEAAJH@Z DD 022201H
	DD	0700a320eH
; Function compile flags: /Odtp /RTCsu
xdata	ENDS
;	COMDAT ?SourceThreadCanWait@CBaseRenderer@@UEAAJH@Z
_TEXT	SEGMENT
this$ = 48
bCanWait$ = 56
?SourceThreadCanWait@CBaseRenderer@@UEAAJH@Z PROC	; CBaseRenderer::SourceThreadCanWait, COMDAT
; Line 148
$LN5:
	mov	DWORD PTR [rsp+16], edx
	mov	QWORD PTR [rsp+8], rcx
	push	rdi
	sub	rsp, 32					; 00000020H
	mov	rdi, rsp
	mov	ecx, 8
	mov	eax, -858993460				; ccccccccH
	rep stosd
	mov	rcx, QWORD PTR [rsp+48]
; Line 149
	cmp	DWORD PTR bCanWait$[rsp], 1
	jne	SHORT $LN2@SourceThre
; Line 150
	mov	rax, QWORD PTR this$[rsp]
	add	rax, 144				; 00000090H
	mov	rcx, rax
	call	?Reset@CAMEvent@@QEAAXXZ		; CAMEvent::Reset
; Line 151
	jmp	SHORT $LN1@SourceThre
$LN2@SourceThre:
; Line 152
	mov	rax, QWORD PTR this$[rsp]
	add	rax, 144				; 00000090H
	mov	rcx, rax
	call	?Set@CAMEvent@@QEAAXXZ			; CAMEvent::Set
$LN1@SourceThre:
; Line 154
	xor	eax, eax
; Line 155
	add	rsp, 32					; 00000020H
	pop	rdi
	ret	0
?SourceThreadCanWait@CBaseRenderer@@UEAAJH@Z ENDP	; CBaseRenderer::SourceThreadCanWait
_TEXT	ENDS
EXTRN	__imp_ResetEvent:PROC
;	COMDAT pdata
; File c:\downloads\wpf mediakit - copy\src\filters\baseclasses\wxutil.h
pdata	SEGMENT
$pdata$?Reset@CAMEvent@@QEAAXXZ DD imagerel $LN3
	DD	imagerel $LN3+50
	DD	imagerel $unwind$?Reset@CAMEvent@@QEAAXXZ
pdata	ENDS
;	COMDAT xdata
xdata	SEGMENT
$unwind$?Reset@CAMEvent@@QEAAXXZ DD 021e01H
	DD	07006320aH
; Function compile flags: /Odtp /RTCsu
xdata	ENDS
;	COMDAT ?Reset@CAMEvent@@QEAAXXZ
_TEXT	SEGMENT
this$ = 48
?Reset@CAMEvent@@QEAAXXZ PROC				; CAMEvent::Reset, COMDAT
; Line 129
$LN3:
	mov	QWORD PTR [rsp+8], rcx
	push	rdi
	sub	rsp, 32					; 00000020H
	mov	rdi, rsp
	mov	ecx, 8
	mov	eax, -858993460				; ccccccccH
	rep stosd
	mov	rcx, QWORD PTR [rsp+48]
	mov	rax, QWORD PTR this$[rsp]
	mov	rcx, QWORD PTR [rax]
	call	QWORD PTR __imp_ResetEvent
	add	rsp, 32					; 00000020H
	pop	rdi
	ret	0
?Reset@CAMEvent@@QEAAXXZ ENDP				; CAMEvent::Reset
_TEXT	ENDS
PUBLIC	?Millisecs@CRefTime@@QEAAJXZ			; CRefTime::Millisecs
PUBLIC	$T84732
PUBLIC	??0CRefTime@@QEAA@_J@Z				; CRefTime::CRefTime
PUBLIC	??BCRefTime@@QEBA_JXZ				; CRefTime::operator __int64
PUBLIC	??0CRefTime@@QEAA@XZ				; CRefTime::CRefTime
PUBLIC	$T84731
PUBLIC	?IsFlushing@CBaseInputPin@@QEAAHXZ		; CBaseInputPin::IsFlushing
PUBLIC	$T84730
PUBLIC	?Check@CAMEvent@@QEAAHXZ			; CAMEvent::Check
PUBLIC	__$ArrayPad$
PUBLIC	?DisplayRendererState@CBaseRenderer@@QEAAXXZ	; CBaseRenderer::DisplayRendererState
EXTRN	__GSHandlerCheck_EH:PROC
EXTRN	??1CDisp@@QEAA@XZ:PROC				; CDisp::~CDisp
EXTRN	??0CDisp@@QEAA@_JH@Z:PROC			; CDisp::CDisp
EXTRN	?DbgLogInfo@@YAXKKPEB_WZZ:PROC			; DbgLogInfo
EXTRN	__security_cookie:QWORD
EXTRN	__security_check_cookie:PROC
;	COMDAT pdata
; File c:\downloads\wpf mediakit - copy\src\filters\baseclasses\renbase.cpp
pdata	SEGMENT
$pdata$?DisplayRendererState@CBaseRenderer@@QEAAXXZ DD imagerel $LN8
	DD	imagerel $LN8+1429
	DD	imagerel $unwind$?DisplayRendererState@CBaseRenderer@@QEAAXXZ
pdata	ENDS
;	COMDAT pdata
pdata	SEGMENT
$pdata$?dtor$0@?0??DisplayRendererState@CBaseRenderer@@QEAAXXZ@4HA DD imagerel ?dtor$0@?0??DisplayRendererState@CBaseRenderer@@QEAAXXZ@4HA
	DD	imagerel ?dtor$0@?0??DisplayRendererState@CBaseRenderer@@QEAAXXZ@4HA+35
	DD	imagerel $unwind$?dtor$0@?0??DisplayRendererState@CBaseRenderer@@QEAAXXZ@4HA
pdata	ENDS
;	COMDAT pdata
pdata	SEGMENT
$pdata$?dtor$1@?0??DisplayRendererState@CBaseRenderer@@QEAAXXZ@4HA DD imagerel ?dtor$1@?0??DisplayRendererState@CBaseRenderer@@QEAAXXZ@4HA
	DD	imagerel ?dtor$1@?0??DisplayRendererState@CBaseRenderer@@QEAAXXZ@4HA+38
	DD	imagerel $unwind$?dtor$1@?0??DisplayRendererState@CBaseRenderer@@QEAAXXZ@4HA
pdata	ENDS
;	COMDAT pdata
pdata	SEGMENT
$pdata$?dtor$2@?0??DisplayRendererState@CBaseRenderer@@QEAAXXZ@4HA DD imagerel ?dtor$2@?0??DisplayRendererState@CBaseRenderer@@QEAAXXZ@4HA
	DD	imagerel ?dtor$2@?0??DisplayRendererState@CBaseRenderer@@QEAAXXZ@4HA+38
	DD	imagerel $unwind$?dtor$2@?0??DisplayRendererState@CBaseRenderer@@QEAAXXZ@4HA
pdata	ENDS
;	COMDAT xdata
xdata	SEGMENT
$ip2state$?DisplayRendererState@CBaseRenderer@@QEAAXXZ DD imagerel ?DisplayRendererState@CBaseRenderer@@QEAAXXZ
	DD	0ffffffffH
	DD	imagerel ?DisplayRendererState@CBaseRenderer@@QEAAXXZ+527
	DD	00H
	DD	imagerel ?DisplayRendererState@CBaseRenderer@@QEAAXXZ+584
	DD	0ffffffffH
	DD	imagerel ?DisplayRendererState@CBaseRenderer@@QEAAXXZ+706
	DD	01H
	DD	imagerel ?DisplayRendererState@CBaseRenderer@@QEAAXXZ+763
	DD	0ffffffffH
	DD	imagerel ?DisplayRendererState@CBaseRenderer@@QEAAXXZ+992
	DD	02H
	DD	imagerel ?DisplayRendererState@CBaseRenderer@@QEAAXXZ+1049
	DD	0ffffffffH
xdata	ENDS
;	COMDAT xdata
xdata	SEGMENT
$unwind$?dtor$2@?0??DisplayRendererState@CBaseRenderer@@QEAAXXZ@4HA DD 031001H
	DD	0700c4210H
	DD	0500bH
xdata	ENDS
;	COMDAT xdata
xdata	SEGMENT
$unwind$?dtor$1@?0??DisplayRendererState@CBaseRenderer@@QEAAXXZ@4HA DD 031001H
	DD	0700c4210H
	DD	0500bH
xdata	ENDS
;	COMDAT xdata
xdata	SEGMENT
$unwind$?dtor$0@?0??DisplayRendererState@CBaseRenderer@@QEAAXXZ@4HA DD 031001H
	DD	0700c4210H
	DD	0500bH
xdata	ENDS
;	COMDAT xdata
xdata	SEGMENT
$unwind$?DisplayRendererState@CBaseRenderer@@QEAAXXZ DD 044319H
	DD	07f010eH
	DD	060067007H
	DD	imagerel __GSHandlerCheck_EH
	DD	imagerel $cppxdata$?DisplayRendererState@CBaseRenderer@@QEAAXXZ
	DD	03eaH
xdata	ENDS
;	COMDAT xdata
xdata	SEGMENT
$stateUnwindMap$?DisplayRendererState@CBaseRenderer@@QEAAXXZ DD 0ffffffffH
	DD	imagerel ?dtor$0@?0??DisplayRendererState@CBaseRenderer@@QEAAXXZ@4HA
	DD	0ffffffffH
	DD	imagerel ?dtor$1@?0??DisplayRendererState@CBaseRenderer@@QEAAXXZ@4HA
	DD	0ffffffffH
	DD	imagerel ?dtor$2@?0??DisplayRendererState@CBaseRenderer@@QEAAXXZ@4HA
xdata	ENDS
;	COMDAT CONST
CONST	SEGMENT
?DisplayRendererState@CBaseRenderer@@QEAAXXZ$rtcName$0 DB 043H ; CBaseRenderer::DisplayRendererState
	DB	075H
	DB	072H
	DB	072H
	DB	065H
	DB	06eH
	DB	074H
	DB	054H
	DB	069H
	DB	06dH
	DB	065H
	DB	00H
	ORG $+4
?DisplayRendererState@CBaseRenderer@@QEAAXXZ$rtcName$1 DB 053H ; CBaseRenderer::DisplayRendererState
	DB	074H
	DB	061H
	DB	072H
	DB	074H
	DB	054H
	DB	069H
	DB	06dH
	DB	065H
	DB	00H
	ORG $+6
?DisplayRendererState@CBaseRenderer@@QEAAXXZ$rtcName$2 DB 045H ; CBaseRenderer::DisplayRendererState
	DB	06eH
	DB	064H
	DB	054H
	DB	069H
	DB	06dH
	DB	065H
	DB	00H
?DisplayRendererState@CBaseRenderer@@QEAAXXZ$rtcName$3 DB 04fH ; CBaseRenderer::DisplayRendererState
	DB	066H
	DB	066H
	DB	073H
	DB	065H
	DB	074H
	DB	00H
	ORG $+1
?DisplayRendererState@CBaseRenderer@@QEAAXXZ$rtcName$4 DB 057H ; CBaseRenderer::DisplayRendererState
	DB	061H
	DB	069H
	DB	074H
	DB	00H
	ORG $+3
?DisplayRendererState@CBaseRenderer@@QEAAXXZ$rtcFrameData DD 05H ; CBaseRenderer::DisplayRendererState
	DD	00H
	DQ	FLAT:?DisplayRendererState@CBaseRenderer@@QEAAXXZ$rtcVarDesc
$cppxdata$?DisplayRendererState@CBaseRenderer@@QEAAXXZ DD 019930522H
	DD	03H
	DD	imagerel $stateUnwindMap$?DisplayRendererState@CBaseRenderer@@QEAAXXZ
	DD	00H
	DD	00H
	DD	07H
	DD	imagerel $ip2state$?DisplayRendererState@CBaseRenderer@@QEAAXXZ
	DD	0390H
	DD	00H
	DD	01H
?DisplayRendererState@CBaseRenderer@@QEAAXXZ$rtcVarDesc DD 0228H ; CBaseRenderer::DisplayRendererState
	DD	08H
	DQ	FLAT:?DisplayRendererState@CBaseRenderer@@QEAAXXZ$rtcName$4
	DD	0198H
	DD	08H
	DQ	FLAT:?DisplayRendererState@CBaseRenderer@@QEAAXXZ$rtcName$3
	DD	0178H
	DD	08H
	DQ	FLAT:?DisplayRendererState@CBaseRenderer@@QEAAXXZ$rtcName$2
	DD	0158H
	DD	08H
	DQ	FLAT:?DisplayRendererState@CBaseRenderer@@QEAAXXZ$rtcName$1
	DD	0138H
	DD	08H
	DQ	FLAT:?DisplayRendererState@CBaseRenderer@@QEAAXXZ$rtcName$0
; Function compile flags: /Odtp /RTCsu
CONST	ENDS
;	COMDAT ?DisplayRendererState@CBaseRenderer@@QEAAXXZ
_TEXT	SEGMENT
bSignalled$ = 48
$T82319 = 64
bFlushing$ = 176
$T82324 = 192
CurrentTime$ = 312
StartTime$ = 344
EndTime$ = 376
Offset$ = 408
$T82333 = 432
Wait$ = 552
$T84730 = 576
$T84731 = 688
$T84732 = 800
$T84742 = 912
tv289 = 920
tv284 = 928
tv290 = 936
tv286 = 944
tv217 = 952
tv291 = 960
tv288 = 968
tv254 = 976
tv270 = 984
tv273 = 992
__$ArrayPad$ = 1000
this$ = 1040
?DisplayRendererState@CBaseRenderer@@QEAAXXZ PROC	; CBaseRenderer::DisplayRendererState, COMDAT
; Line 166
$LN8:
	mov	QWORD PTR [rsp+8], rcx
	push	rsi
	push	rdi
	sub	rsp, 1016				; 000003f8H
	mov	rdi, rsp
	mov	ecx, 254				; 000000feH
	mov	eax, -858993460				; ccccccccH
	rep stosd
	mov	rcx, QWORD PTR [rsp+1040]
	mov	QWORD PTR $T84742[rsp], -2
	mov	rax, QWORD PTR __security_cookie
	xor	rax, rsp
	mov	QWORD PTR __$ArrayPad$[rsp], rax
; Line 167
	lea	r8, OFFSET FLAT:$SG82306
	mov	edx, 1
	mov	ecx, 1
	call	?DbgLogInfo@@YAXKKPEB_WZZ		; DbgLogInfo
; Line 171
	mov	rax, QWORD PTR this$[rsp]
	add	rax, 144				; 00000090H
	mov	rcx, rax
	call	?Check@CAMEvent@@QEAAHXZ		; CAMEvent::Check
	mov	DWORD PTR bSignalled$[rsp], eax
; Line 172
	mov	r9d, DWORD PTR bSignalled$[rsp]
	lea	r8, OFFSET FLAT:$SG82308
	mov	edx, 1
	mov	ecx, 1
	call	?DbgLogInfo@@YAXKKPEB_WZZ		; DbgLogInfo
; Line 176
	mov	rax, QWORD PTR this$[rsp]
	mov	r9d, DWORD PTR [rax+48]
	lea	r8, OFFSET FLAT:$SG82309
	mov	edx, 1
	mov	ecx, 1
	call	?DbgLogInfo@@YAXKKPEB_WZZ		; DbgLogInfo
; Line 178
	mov	rax, QWORD PTR this$[rsp]
	mov	r9d, DWORD PTR [rax+160]
	lea	r8, OFFSET FLAT:$SG82310
	mov	edx, 1
	mov	ecx, 1
	call	?DbgLogInfo@@YAXKKPEB_WZZ		; DbgLogInfo
; Line 180
	mov	rax, QWORD PTR this$[rsp]
	mov	r9d, DWORD PTR [rax+164]
	lea	r8, OFFSET FLAT:$SG82311
	mov	edx, 1
	mov	ecx, 1
	call	?DbgLogInfo@@YAXKKPEB_WZZ		; DbgLogInfo
; Line 182
	mov	rax, QWORD PTR this$[rsp]
	mov	r9, QWORD PTR [rax+168]
	lea	r8, OFFSET FLAT:$SG82312
	mov	edx, 1
	mov	ecx, 1
	call	?DbgLogInfo@@YAXKKPEB_WZZ		; DbgLogInfo
; Line 184
	mov	rax, QWORD PTR this$[rsp]
	mov	r9, QWORD PTR [rax+176]
	lea	r8, OFFSET FLAT:$SG82313
	mov	edx, 1
	mov	ecx, 1
	call	?DbgLogInfo@@YAXKKPEB_WZZ		; DbgLogInfo
; Line 186
	mov	rax, QWORD PTR this$[rsp]
	mov	r9d, DWORD PTR [rax+184]
	lea	r8, OFFSET FLAT:$SG82314
	mov	edx, 1
	mov	ecx, 1
	call	?DbgLogInfo@@YAXKKPEB_WZZ		; DbgLogInfo
; Line 188
	mov	rax, QWORD PTR this$[rsp]
	mov	r9d, DWORD PTR [rax+188]
	lea	r8, OFFSET FLAT:$SG82315
	mov	edx, 1
	mov	ecx, 1
	call	?DbgLogInfo@@YAXKKPEB_WZZ		; DbgLogInfo
; Line 190
	mov	rax, QWORD PTR this$[rsp]
	mov	r9d, DWORD PTR [rax+320]
	lea	r8, OFFSET FLAT:$SG82316
	mov	edx, 1
	mov	ecx, 1
	call	?DbgLogInfo@@YAXKKPEB_WZZ		; DbgLogInfo
; Line 195
	mov	rax, QWORD PTR this$[rsp]
	mov	r9d, DWORD PTR [rax+336]
	lea	r8, OFFSET FLAT:$SG82317
	mov	edx, 1
	mov	ecx, 1
	call	?DbgLogInfo@@YAXKKPEB_WZZ		; DbgLogInfo
; Line 197
	mov	r8d, 1
	mov	rax, QWORD PTR this$[rsp]
	mov	rdx, QWORD PTR [rax+328]
	lea	rcx, QWORD PTR $T82319[rsp]
	call	??0CDisp@@QEAA@_JH@Z			; CDisp::CDisp
	mov	QWORD PTR tv289[rsp], rax
	mov	rax, QWORD PTR tv289[rsp]
	mov	QWORD PTR tv284[rsp], rax
	lea	rax, QWORD PTR $T84730[rsp]
	mov	rdi, rax
	mov	rsi, QWORD PTR tv284[rsp]
	mov	ecx, 112				; 00000070H
	rep movsb
	lea	r9, QWORD PTR $T84730[rsp]
	lea	r8, OFFSET FLAT:$SG82320
	mov	edx, 1
	mov	ecx, 1
	call	?DbgLogInfo@@YAXKKPEB_WZZ		; DbgLogInfo
	npad	1
	lea	rcx, QWORD PTR $T82319[rsp]
	call	??1CDisp@@QEAA@XZ			; CDisp::~CDisp
; Line 202
	mov	rax, QWORD PTR this$[rsp]
	mov	rcx, QWORD PTR [rax+192]
	call	?IsFlushing@CBaseInputPin@@QEAAHXZ	; CBaseInputPin::IsFlushing
	mov	DWORD PTR bFlushing$[rsp], eax
; Line 203
	mov	r9d, DWORD PTR bFlushing$[rsp]
	lea	r8, OFFSET FLAT:$SG82322
	mov	edx, 1
	mov	ecx, 1
	call	?DbgLogInfo@@YAXKKPEB_WZZ		; DbgLogInfo
; Line 206
	mov	r8d, 1
	mov	rax, QWORD PTR this$[rsp]
	mov	rdx, QWORD PTR [rax+64]
	lea	rcx, QWORD PTR $T82324[rsp]
	call	??0CDisp@@QEAA@_JH@Z			; CDisp::CDisp
	mov	QWORD PTR tv290[rsp], rax
	mov	rax, QWORD PTR tv290[rsp]
	mov	QWORD PTR tv286[rsp], rax
	lea	rax, QWORD PTR $T84731[rsp]
	mov	rdi, rax
	mov	rsi, QWORD PTR tv286[rsp]
	mov	ecx, 112				; 00000070H
	rep movsb
	lea	r9, QWORD PTR $T84731[rsp]
	lea	r8, OFFSET FLAT:$SG82325
	mov	edx, 1
	mov	ecx, 1
	call	?DbgLogInfo@@YAXKKPEB_WZZ		; DbgLogInfo
	npad	1
	lea	rcx, QWORD PTR $T82324[rsp]
	call	??1CDisp@@QEAA@XZ			; CDisp::~CDisp
; Line 209
	mov	rax, QWORD PTR this$[rsp]
	cmp	QWORD PTR [rax+56], 0
	jne	SHORT $LN2@DisplayRen
	jmp	$LN3@DisplayRen
$LN2@DisplayRen:
; Line 213
	lea	rcx, QWORD PTR CurrentTime$[rsp]
	call	??0CRefTime@@QEAA@XZ			; CRefTime::CRefTime
	lea	rcx, QWORD PTR StartTime$[rsp]
	call	??0CRefTime@@QEAA@XZ			; CRefTime::CRefTime
	lea	rcx, QWORD PTR EndTime$[rsp]
	call	??0CRefTime@@QEAA@XZ			; CRefTime::CRefTime
; Line 214
	mov	rax, QWORD PTR this$[rsp]
	mov	rax, QWORD PTR [rax+56]
	mov	rcx, QWORD PTR this$[rsp]
	mov	rcx, QWORD PTR [rcx+56]
	mov	rax, QWORD PTR [rax]
	lea	rdx, QWORD PTR CurrentTime$[rsp]
	call	QWORD PTR [rax+24]
; Line 215
	lea	rcx, QWORD PTR CurrentTime$[rsp]
	call	??BCRefTime@@QEBA_JXZ			; CRefTime::operator __int64
	mov	QWORD PTR tv217[rsp], rax
	mov	rcx, QWORD PTR this$[rsp]
	add	rcx, 64					; 00000040H
	call	??BCRefTime@@QEBA_JXZ			; CRefTime::operator __int64
	mov	rcx, QWORD PTR tv217[rsp]
	sub	rcx, rax
	mov	rax, rcx
	mov	rdx, rax
	lea	rcx, QWORD PTR Offset$[rsp]
	call	??0CRefTime@@QEAA@_J@Z			; CRefTime::CRefTime
; Line 219
	mov	r8d, 1
	mov	rdx, QWORD PTR CurrentTime$[rsp]
	lea	rcx, QWORD PTR $T82333[rsp]
	call	??0CDisp@@QEAA@_JH@Z			; CDisp::CDisp
	mov	QWORD PTR tv291[rsp], rax
	mov	rax, QWORD PTR tv291[rsp]
	mov	QWORD PTR tv288[rsp], rax
	lea	rax, QWORD PTR $T84732[rsp]
	mov	rdi, rax
	mov	rsi, QWORD PTR tv288[rsp]
	mov	ecx, 112				; 00000070H
	rep movsb
	lea	r9, QWORD PTR $T84732[rsp]
	lea	r8, OFFSET FLAT:$SG82334
	mov	edx, 1
	mov	ecx, 1
	call	?DbgLogInfo@@YAXKKPEB_WZZ		; DbgLogInfo
	npad	1
	lea	rcx, QWORD PTR $T82333[rsp]
	call	??1CDisp@@QEAA@XZ			; CDisp::~CDisp
; Line 221
	lea	rcx, QWORD PTR Offset$[rsp]
	call	?Millisecs@CRefTime@@QEAAJXZ		; CRefTime::Millisecs
	mov	r9d, eax
	lea	r8, OFFSET FLAT:$SG82335
	mov	edx, 1
	mov	ecx, 1
	call	?DbgLogInfo@@YAXKKPEB_WZZ		; DbgLogInfo
; Line 225
	mov	rax, QWORD PTR this$[rsp]
	cmp	QWORD PTR [rax+176], 0
	jne	SHORT $LN1@DisplayRen
	jmp	$LN3@DisplayRen
$LN1@DisplayRen:
; Line 227
	mov	rax, QWORD PTR this$[rsp]
	mov	rax, QWORD PTR [rax+176]
	mov	rcx, QWORD PTR this$[rsp]
	mov	rcx, QWORD PTR [rcx+176]
	mov	rax, QWORD PTR [rax]
	lea	r8, QWORD PTR EndTime$[rsp]
	lea	rdx, QWORD PTR StartTime$[rsp]
	call	QWORD PTR [rax+40]
; Line 229
	lea	rcx, QWORD PTR EndTime$[rsp]
	call	?Millisecs@CRefTime@@QEAAJXZ		; CRefTime::Millisecs
	mov	DWORD PTR tv254[rsp], eax
	lea	rcx, QWORD PTR StartTime$[rsp]
	call	?Millisecs@CRefTime@@QEAAJXZ		; CRefTime::Millisecs
	mov	ecx, DWORD PTR tv254[rsp]
	mov	DWORD PTR [rsp+32], ecx
	mov	r9d, eax
	lea	r8, OFFSET FLAT:$SG82339
	mov	edx, 1
	mov	ecx, 1
	call	?DbgLogInfo@@YAXKKPEB_WZZ		; DbgLogInfo
; Line 232
	mov	rax, QWORD PTR this$[rsp]
	add	rax, 64					; 00000040H
	mov	rcx, rax
	call	??BCRefTime@@QEBA_JXZ			; CRefTime::operator __int64
	mov	QWORD PTR tv270[rsp], rax
	lea	rcx, QWORD PTR StartTime$[rsp]
	call	??BCRefTime@@QEBA_JXZ			; CRefTime::operator __int64
	mov	rcx, QWORD PTR tv270[rsp]
	add	rcx, rax
	mov	rax, rcx
	mov	QWORD PTR tv273[rsp], rax
	lea	rcx, QWORD PTR CurrentTime$[rsp]
	call	??BCRefTime@@QEBA_JXZ			; CRefTime::operator __int64
	mov	rcx, QWORD PTR tv273[rsp]
	sub	rcx, rax
	mov	rax, rcx
	mov	rdx, rax
	lea	rcx, QWORD PTR Wait$[rsp]
	call	??0CRefTime@@QEAA@_J@Z			; CRefTime::CRefTime
; Line 233
	lea	rcx, QWORD PTR Wait$[rsp]
	call	?Millisecs@CRefTime@@QEAAJXZ		; CRefTime::Millisecs
	mov	r9d, eax
	lea	r8, OFFSET FLAT:$SG82341
	mov	edx, 1
	mov	ecx, 1
	call	?DbgLogInfo@@YAXKKPEB_WZZ		; DbgLogInfo
$LN3@DisplayRen:
; Line 234
	mov	rcx, rsp
	lea	rdx, OFFSET FLAT:?DisplayRendererState@CBaseRenderer@@QEAAXXZ$rtcFrameData
	call	_RTC_CheckStackVars
	mov	rcx, QWORD PTR __$ArrayPad$[rsp]
	xor	rcx, rsp
	call	__security_check_cookie
	add	rsp, 1016				; 000003f8H
	pop	rdi
	pop	rsi
	ret	0
?DisplayRendererState@CBaseRenderer@@QEAAXXZ ENDP	; CBaseRenderer::DisplayRendererState
; Function compile flags: /Odtp /RTCsu
_TEXT	ENDS
;	COMDAT text$x
text$x	SEGMENT
bSignalled$ = 48
$T82319 = 64
bFlushing$ = 176
$T82324 = 192
CurrentTime$ = 312
StartTime$ = 344
EndTime$ = 376
Offset$ = 408
$T82333 = 432
Wait$ = 552
$T84730 = 576
$T84731 = 688
$T84732 = 800
$T84742 = 912
tv289 = 920
tv284 = 928
tv290 = 936
tv286 = 944
tv217 = 952
tv291 = 960
tv288 = 968
tv254 = 976
tv270 = 984
tv273 = 992
__$ArrayPad$ = 1000
this$ = 1040
?dtor$0@?0??DisplayRendererState@CBaseRenderer@@QEAAXXZ@4HA PROC ; `CBaseRenderer::DisplayRendererState'::`1'::dtor$0
	mov	QWORD PTR [rsp+8], rcx
	mov	QWORD PTR [rsp+16], rdx
	push	rbp
	push	rdi
	sub	rsp, 40					; 00000028H
	mov	rbp, rdx
	lea	rcx, QWORD PTR $T82319[rbp]
	call	??1CDisp@@QEAA@XZ			; CDisp::~CDisp
	add	rsp, 40					; 00000028H
	pop	rdi
	pop	rbp
	ret	0
?dtor$0@?0??DisplayRendererState@CBaseRenderer@@QEAAXXZ@4HA ENDP ; `CBaseRenderer::DisplayRendererState'::`1'::dtor$0
; Function compile flags: /Odtp /RTCsu
bSignalled$ = 48
$T82319 = 64
bFlushing$ = 176
$T82324 = 192
CurrentTime$ = 312
StartTime$ = 344
EndTime$ = 376
Offset$ = 408
$T82333 = 432
Wait$ = 552
$T84730 = 576
$T84731 = 688
$T84732 = 800
$T84742 = 912
tv289 = 920
tv284 = 928
tv290 = 936
tv286 = 944
tv217 = 952
tv291 = 960
tv288 = 968
tv254 = 976
tv270 = 984
tv273 = 992
__$ArrayPad$ = 1000
this$ = 1040
?dtor$1@?0??DisplayRendererState@CBaseRenderer@@QEAAXXZ@4HA PROC ; `CBaseRenderer::DisplayRendererState'::`1'::dtor$1
	mov	QWORD PTR [rsp+8], rcx
	mov	QWORD PTR [rsp+16], rdx
	push	rbp
	push	rdi
	sub	rsp, 40					; 00000028H
	mov	rbp, rdx
	lea	rcx, QWORD PTR $T82324[rbp]
	call	??1CDisp@@QEAA@XZ			; CDisp::~CDisp
	add	rsp, 40					; 00000028H
	pop	rdi
	pop	rbp
	ret	0
?dtor$1@?0??DisplayRendererState@CBaseRenderer@@QEAAXXZ@4HA ENDP ; `CBaseRenderer::DisplayRendererState'::`1'::dtor$1
; Function compile flags: /Odtp /RTCsu
bSignalled$ = 48
$T82319 = 64
bFlushing$ = 176
$T82324 = 192
CurrentTime$ = 312
StartTime$ = 344
EndTime$ = 376
Offset$ = 408
$T82333 = 432
Wait$ = 552
$T84730 = 576
$T84731 = 688
$T84732 = 800
$T84742 = 912
tv289 = 920
tv284 = 928
tv290 = 936
tv286 = 944
tv217 = 952
tv291 = 960
tv288 = 968
tv254 = 976
tv270 = 984
tv273 = 992
__$ArrayPad$ = 1000
this$ = 1040
?dtor$2@?0??DisplayRendererState@CBaseRenderer@@QEAAXXZ@4HA PROC ; `CBaseRenderer::DisplayRendererState'::`1'::dtor$2
	mov	QWORD PTR [rsp+8], rcx
	mov	QWORD PTR [rsp+16], rdx
	push	rbp
	push	rdi
	sub	rsp, 40					; 00000028H
	mov	rbp, rdx
	lea	rcx, QWORD PTR $T82333[rbp]
	call	??1CDisp@@QEAA@XZ			; CDisp::~CDisp
	add	rsp, 40					; 00000028H
	pop	rdi
	pop	rbp
	ret	0
?dtor$2@?0??DisplayRendererState@CBaseRenderer@@QEAAXXZ@4HA ENDP ; `CBaseRenderer::DisplayRendererState'::`1'::dtor$2
text$x	ENDS
;	COMDAT pdata
; File c:\downloads\wpf mediakit - copy\src\filters\baseclasses\reftime.h
pdata	SEGMENT
$pdata$??0CRefTime@@QEAA@XZ DD imagerel $LN3
	DD	imagerel $LN3+25
	DD	imagerel $unwind$??0CRefTime@@QEAA@XZ
pdata	ENDS
;	COMDAT xdata
xdata	SEGMENT
$unwind$??0CRefTime@@QEAA@XZ DD 010601H
	DD	07006H
; Function compile flags: /Odtp /RTCsu
xdata	ENDS
;	COMDAT ??0CRefTime@@QEAA@XZ
_TEXT	SEGMENT
this$ = 16
??0CRefTime@@QEAA@XZ PROC				; CRefTime::CRefTime, COMDAT
; Line 59
$LN3:
	mov	QWORD PTR [rsp+8], rcx
	push	rdi
; Line 62
	mov	rax, QWORD PTR this$[rsp]
	mov	QWORD PTR [rax], 0
; Line 63
	mov	rax, QWORD PTR this$[rsp]
	pop	rdi
	ret	0
??0CRefTime@@QEAA@XZ ENDP				; CRefTime::CRefTime
_TEXT	ENDS
;	COMDAT pdata
pdata	SEGMENT
$pdata$??0CRefTime@@QEAA@_J@Z DD imagerel $LN3
	DD	imagerel $LN3+31
	DD	imagerel $unwind$??0CRefTime@@QEAA@_J@Z
pdata	ENDS
;	COMDAT xdata
xdata	SEGMENT
$unwind$??0CRefTime@@QEAA@_J@Z DD 010b01H
	DD	0700bH
; Function compile flags: /Odtp /RTCsu
xdata	ENDS
;	COMDAT ??0CRefTime@@QEAA@_J@Z
_TEXT	SEGMENT
this$ = 16
rt$ = 24
??0CRefTime@@QEAA@_J@Z PROC				; CRefTime::CRefTime, COMDAT
; Line 70
$LN3:
	mov	QWORD PTR [rsp+16], rdx
	mov	QWORD PTR [rsp+8], rcx
	push	rdi
; Line 72
	mov	rax, QWORD PTR this$[rsp]
	mov	rcx, QWORD PTR rt$[rsp]
	mov	QWORD PTR [rax], rcx
; Line 73
	mov	rax, QWORD PTR this$[rsp]
	pop	rdi
	ret	0
??0CRefTime@@QEAA@_J@Z ENDP				; CRefTime::CRefTime
_TEXT	ENDS
;	COMDAT pdata
pdata	SEGMENT
$pdata$??BCRefTime@@QEBA_JXZ DD imagerel $LN3
	DD	imagerel $LN3+16
	DD	imagerel $unwind$??BCRefTime@@QEBA_JXZ
pdata	ENDS
;	COMDAT xdata
xdata	SEGMENT
$unwind$??BCRefTime@@QEBA_JXZ DD 010601H
	DD	07006H
; Function compile flags: /Odtp /RTCsu
xdata	ENDS
;	COMDAT ??BCRefTime@@QEBA_JXZ
_TEXT	SEGMENT
this$ = 16
??BCRefTime@@QEBA_JXZ PROC				; CRefTime::operator __int64, COMDAT
; Line 76
$LN3:
	mov	QWORD PTR [rsp+8], rcx
	push	rdi
; Line 77
	mov	rax, QWORD PTR this$[rsp]
	mov	rax, QWORD PTR [rax]
; Line 78
	pop	rdi
	ret	0
??BCRefTime@@QEBA_JXZ ENDP				; CRefTime::operator __int64
_TEXT	ENDS
;	COMDAT pdata
pdata	SEGMENT
$pdata$?Millisecs@CRefTime@@QEAAJXZ DD imagerel $LN3
	DD	imagerel $LN3+26
	DD	imagerel $unwind$?Millisecs@CRefTime@@QEAAJXZ
pdata	ENDS
;	COMDAT xdata
xdata	SEGMENT
$unwind$?Millisecs@CRefTime@@QEAAJXZ DD 010601H
	DD	07006H
; Function compile flags: /Odtp /RTCsu
xdata	ENDS
;	COMDAT ?Millisecs@CRefTime@@QEAAJXZ
_TEXT	SEGMENT
this$ = 16
?Millisecs@CRefTime@@QEAAJXZ PROC			; CRefTime::Millisecs, COMDAT
; Line 103
$LN3:
	mov	QWORD PTR [rsp+8], rcx
	push	rdi
; Line 104
	mov	rax, QWORD PTR this$[rsp]
	mov	rax, QWORD PTR [rax]
	cdq
	mov	ecx, 10000				; 00002710H
	idiv	rcx
; Line 105
	pop	rdi
	ret	0
?Millisecs@CRefTime@@QEAAJXZ ENDP			; CRefTime::Millisecs
_TEXT	ENDS
PUBLIC	?Wait@CAMEvent@@QEAAHK@Z			; CAMEvent::Wait
;	COMDAT pdata
; File c:\downloads\wpf mediakit - copy\src\filters\baseclasses\wxutil.h
pdata	SEGMENT
$pdata$?Check@CAMEvent@@QEAAHXZ DD imagerel $LN3
	DD	imagerel $LN3+48
	DD	imagerel $unwind$?Check@CAMEvent@@QEAAHXZ
pdata	ENDS
;	COMDAT xdata
xdata	SEGMENT
$unwind$?Check@CAMEvent@@QEAAHXZ DD 021e01H
	DD	07006320aH
; Function compile flags: /Odtp /RTCsu
xdata	ENDS
;	COMDAT ?Check@CAMEvent@@QEAAHXZ
_TEXT	SEGMENT
this$ = 48
?Check@CAMEvent@@QEAAHXZ PROC				; CAMEvent::Check, COMDAT
; Line 130
$LN3:
	mov	QWORD PTR [rsp+8], rcx
	push	rdi
	sub	rsp, 32					; 00000020H
	mov	rdi, rsp
	mov	ecx, 8
	mov	eax, -858993460				; ccccccccH
	rep stosd
	mov	rcx, QWORD PTR [rsp+48]
	xor	edx, edx
	mov	rcx, QWORD PTR this$[rsp]
	call	?Wait@CAMEvent@@QEAAHK@Z		; CAMEvent::Wait
	add	rsp, 32					; 00000020H
	pop	rdi
	ret	0
?Check@CAMEvent@@QEAAHXZ ENDP				; CAMEvent::Check
_TEXT	ENDS
EXTRN	__imp_WaitForSingleObject:PROC
;	COMDAT pdata
pdata	SEGMENT
$pdata$?Wait@CAMEvent@@QEAAHK@Z DD imagerel $LN5
	DD	imagerel $LN5+84
	DD	imagerel $unwind$?Wait@CAMEvent@@QEAAHK@Z
pdata	ENDS
;	COMDAT xdata
xdata	SEGMENT
$unwind$?Wait@CAMEvent@@QEAAHK@Z DD 022201H
	DD	0700a520eH
; Function compile flags: /Odtp /RTCsu
xdata	ENDS
;	COMDAT ?Wait@CAMEvent@@QEAAHK@Z
_TEXT	SEGMENT
tv68 = 32
this$ = 64
dwTimeout$ = 72
?Wait@CAMEvent@@QEAAHK@Z PROC				; CAMEvent::Wait, COMDAT
; Line 126
$LN5:
	mov	DWORD PTR [rsp+16], edx
	mov	QWORD PTR [rsp+8], rcx
	push	rdi
	sub	rsp, 48					; 00000030H
	mov	rdi, rsp
	mov	ecx, 12
	mov	eax, -858993460				; ccccccccH
	rep stosd
	mov	rcx, QWORD PTR [rsp+64]
; Line 127
	mov	edx, DWORD PTR dwTimeout$[rsp]
	mov	rax, QWORD PTR this$[rsp]
	mov	rcx, QWORD PTR [rax]
	call	QWORD PTR __imp_WaitForSingleObject
	test	eax, eax
	jne	SHORT $LN3@Wait
	mov	DWORD PTR tv68[rsp], 1
	jmp	SHORT $LN4@Wait
$LN3@Wait:
	mov	DWORD PTR tv68[rsp], 0
$LN4@Wait:
	mov	eax, DWORD PTR tv68[rsp]
; Line 128
	add	rsp, 48					; 00000030H
	pop	rdi
	ret	0
?Wait@CAMEvent@@QEAAHK@Z ENDP				; CAMEvent::Wait
_TEXT	ENDS
;	COMDAT pdata
; File c:\downloads\wpf mediakit - copy\src\filters\baseclasses\amfilter.h
pdata	SEGMENT
$pdata$?IsFlushing@CBaseInputPin@@QEAAHXZ DD imagerel $LN3
	DD	imagerel $LN3+20
	DD	imagerel $unwind$?IsFlushing@CBaseInputPin@@QEAAHXZ
pdata	ENDS
;	COMDAT xdata
xdata	SEGMENT
$unwind$?IsFlushing@CBaseInputPin@@QEAAHXZ DD 010601H
	DD	07006H
; Function compile flags: /Odtp /RTCsu
xdata	ENDS
;	COMDAT ?IsFlushing@CBaseInputPin@@QEAAHXZ
_TEXT	SEGMENT
this$ = 16
?IsFlushing@CBaseInputPin@@QEAAHXZ PROC			; CBaseInputPin::IsFlushing, COMDAT
; Line 912
$LN3:
	mov	QWORD PTR [rsp+8], rcx
	push	rdi
; Line 913
	mov	rax, QWORD PTR this$[rsp]
	movzx	eax, BYTE PTR [rax+249]
; Line 914
	pop	rdi
	ret	0
?IsFlushing@CBaseInputPin@@QEAAHXZ ENDP			; CBaseInputPin::IsFlushing
_TEXT	ENDS
PUBLIC	?SignalTimerFired@CBaseRenderer@@QEAAXXZ	; CBaseRenderer::SignalTimerFired
PUBLIC	??BCAMEvent@@QEBAPEAXXZ				; CAMEvent::operator void * __ptr64
EXTRN	__imp_WaitForMultipleObjects:PROC
;	COMDAT pdata
; File c:\downloads\wpf mediakit - copy\src\filters\baseclasses\renbase.cpp
pdata	SEGMENT
$pdata$?WaitForRenderTime@CBaseRenderer@@UEAAJXZ DD imagerel $LN7
	DD	imagerel $LN7+238
	DD	imagerel $unwind$?WaitForRenderTime@CBaseRenderer@@UEAAJXZ
pdata	ENDS
;	COMDAT xdata
xdata	SEGMENT
$unwind$?WaitForRenderTime@CBaseRenderer@@UEAAJXZ DD 021e01H
	DD	07006920aH
xdata	ENDS
;	COMDAT CONST
CONST	SEGMENT
?WaitForRenderTime@CBaseRenderer@@UEAAJXZ$rtcName$0 DB 057H ; CBaseRenderer::WaitForRenderTime
	DB	061H
	DB	069H
	DB	074H
	DB	04fH
	DB	062H
	DB	06aH
	DB	065H
	DB	063H
	DB	074H
	DB	073H
	DB	00H
	ORG $+4
?WaitForRenderTime@CBaseRenderer@@UEAAJXZ$rtcVarDesc DD 028H ; CBaseRenderer::WaitForRenderTime
	DD	010H
	DQ	FLAT:?WaitForRenderTime@CBaseRenderer@@UEAAJXZ$rtcName$0
	ORG $+48
?WaitForRenderTime@CBaseRenderer@@UEAAJXZ$rtcFrameData DD 01H ; CBaseRenderer::WaitForRenderTime
	DD	00H
	DQ	FLAT:?WaitForRenderTime@CBaseRenderer@@UEAAJXZ$rtcVarDesc
; Function compile flags: /Odtp /RTCsu
CONST	ENDS
;	COMDAT ?WaitForRenderTime@CBaseRenderer@@UEAAJXZ
_TEXT	SEGMENT
WaitObjects$ = 40
Result$ = 68
this$ = 96
?WaitForRenderTime@CBaseRenderer@@UEAAJXZ PROC		; CBaseRenderer::WaitForRenderTime, COMDAT
; Line 247
$LN7:
	mov	QWORD PTR [rsp+8], rcx
	push	rdi
	sub	rsp, 80					; 00000050H
	mov	rdi, rsp
	mov	ecx, 20
	mov	eax, -858993460				; ccccccccH
	rep stosd
	mov	rcx, QWORD PTR [rsp+96]
; Line 248
	mov	rax, QWORD PTR this$[rsp]
	add	rax, 144				; 00000090H
	mov	rcx, rax
	call	??BCAMEvent@@QEBAPEAXXZ			; CAMEvent::operator void * __ptr64
	mov	QWORD PTR WaitObjects$[rsp], rax
	mov	rax, QWORD PTR this$[rsp]
	add	rax, 136				; 00000088H
	mov	rcx, rax
	call	??BCAMEvent@@QEBAPEAXXZ			; CAMEvent::operator void * __ptr64
	mov	QWORD PTR WaitObjects$[rsp+8], rax
; Line 249
	mov	DWORD PTR Result$[rsp], 258		; 00000102H
; Line 253
	mov	rax, QWORD PTR this$[rsp]
	mov	rax, QWORD PTR [rax]
	mov	rcx, QWORD PTR this$[rsp]
	call	QWORD PTR [rax+144]
$LN4@WaitForRen:
; Line 254
	cmp	DWORD PTR Result$[rsp], 258		; 00000102H
	jne	SHORT $LN3@WaitForRen
; Line 255
	mov	r9d, 10000				; 00002710H
	xor	r8d, r8d
	lea	rdx, QWORD PTR WaitObjects$[rsp]
	mov	ecx, 2
	call	QWORD PTR __imp_WaitForMultipleObjects
	mov	DWORD PTR Result$[rsp], eax
; Line 258
	cmp	DWORD PTR Result$[rsp], 258		; 00000102H
	jne	SHORT $LN2@WaitForRen
	mov	rcx, QWORD PTR this$[rsp]
	call	?DisplayRendererState@CBaseRenderer@@QEAAXXZ ; CBaseRenderer::DisplayRendererState
$LN2@WaitForRen:
; Line 261
	jmp	SHORT $LN4@WaitForRen
$LN3@WaitForRen:
; Line 262
	mov	rax, QWORD PTR this$[rsp]
	mov	rax, QWORD PTR [rax]
	mov	rcx, QWORD PTR this$[rsp]
	call	QWORD PTR [rax+152]
; Line 266
	cmp	DWORD PTR Result$[rsp], 0
	jne	SHORT $LN1@WaitForRen
; Line 267
	mov	eax, -2147220957			; ffffffff80040223H
	jmp	SHORT $LN5@WaitForRen
$LN1@WaitForRen:
; Line 270
	mov	rcx, QWORD PTR this$[rsp]
	call	?SignalTimerFired@CBaseRenderer@@QEAAXXZ ; CBaseRenderer::SignalTimerFired
; Line 271
	xor	eax, eax
$LN5@WaitForRen:
; Line 272
	mov	rdi, rax
	mov	rcx, rsp
	lea	rdx, OFFSET FLAT:?WaitForRenderTime@CBaseRenderer@@UEAAJXZ$rtcFrameData
	call	_RTC_CheckStackVars
	mov	rax, rdi
	add	rsp, 80					; 00000050H
	pop	rdi
	ret	0
?WaitForRenderTime@CBaseRenderer@@UEAAJXZ ENDP		; CBaseRenderer::WaitForRenderTime
_TEXT	ENDS
;	COMDAT pdata
; File c:\downloads\wpf mediakit - copy\src\filters\baseclasses\wxutil.h
pdata	SEGMENT
$pdata$??BCAMEvent@@QEBAPEAXXZ DD imagerel $LN3
	DD	imagerel $LN3+16
	DD	imagerel $unwind$??BCAMEvent@@QEBAPEAXXZ
pdata	ENDS
;	COMDAT xdata
xdata	SEGMENT
$unwind$??BCAMEvent@@QEBAPEAXXZ DD 010601H
	DD	07006H
; Function compile flags: /Odtp /RTCsu
xdata	ENDS
;	COMDAT ??BCAMEvent@@QEBAPEAXXZ
_TEXT	SEGMENT
this$ = 16
??BCAMEvent@@QEBAPEAXXZ PROC				; CAMEvent::operator void * __ptr64, COMDAT
; Line 123
$LN3:
	mov	QWORD PTR [rsp+8], rcx
	push	rdi
	mov	rax, QWORD PTR this$[rsp]
	mov	rax, QWORD PTR [rax]
	pop	rdi
	ret	0
??BCAMEvent@@QEBAPEAXXZ ENDP				; CAMEvent::operator void * __ptr64
_TEXT	ENDS
PUBLIC	?WaitForReceiveToComplete@CBaseRenderer@@QEAAXXZ ; CBaseRenderer::WaitForReceiveToComplete
EXTRN	__imp_PostThreadMessageW:PROC
EXTRN	__imp_GetCurrentThreadId:PROC
EXTRN	__imp_GetQueueStatus:PROC
EXTRN	__imp_Sleep:PROC
EXTRN	__imp_PeekMessageW:PROC
;	COMDAT pdata
; File c:\downloads\wpf mediakit - copy\src\filters\baseclasses\renbase.cpp
pdata	SEGMENT
$pdata$?WaitForReceiveToComplete@CBaseRenderer@@QEAAXXZ DD imagerel $LN7
	DD	imagerel $LN7+175
	DD	imagerel $unwind$?WaitForReceiveToComplete@CBaseRenderer@@QEAAXXZ
pdata	ENDS
;	COMDAT xdata
xdata	SEGMENT
$unwind$?WaitForReceiveToComplete@CBaseRenderer@@QEAAXXZ DD 022401H
	DD	07006f20dH
xdata	ENDS
;	COMDAT CONST
CONST	SEGMENT
?WaitForReceiveToComplete@CBaseRenderer@@QEAAXXZ$rtcName$0 DB 06dH ; CBaseRenderer::WaitForReceiveToComplete
	DB	073H
	DB	067H
	DB	00H
	ORG $+12
?WaitForReceiveToComplete@CBaseRenderer@@QEAAXXZ$rtcVarDesc DD 038H ; CBaseRenderer::WaitForReceiveToComplete
	DD	030H
	DQ	FLAT:?WaitForReceiveToComplete@CBaseRenderer@@QEAAXXZ$rtcName$0
	ORG $+48
?WaitForReceiveToComplete@CBaseRenderer@@QEAAXXZ$rtcFrameData DD 01H ; CBaseRenderer::WaitForReceiveToComplete
	DD	00H
	DQ	FLAT:?WaitForReceiveToComplete@CBaseRenderer@@QEAAXXZ$rtcVarDesc
; Function compile flags: /Odtp /RTCsu
CONST	ENDS
;	COMDAT ?WaitForReceiveToComplete@CBaseRenderer@@QEAAXXZ
_TEXT	SEGMENT
msg$82361 = 56
this$ = 144
?WaitForReceiveToComplete@CBaseRenderer@@QEAAXXZ PROC	; CBaseRenderer::WaitForReceiveToComplete, COMDAT
; Line 283
$LN7:
	mov	QWORD PTR [rsp+8], rcx
	push	rdi
	sub	rsp, 128				; 00000080H
	mov	rdi, rsp
	mov	ecx, 32					; 00000020H
	mov	eax, -858993460				; ccccccccH
	rep stosd
	mov	rcx, QWORD PTR [rsp+144]
$LN4@WaitForRec:
; Line 285
	mov	rax, QWORD PTR this$[rsp]
	mov	eax, DWORD PTR [rax+324]
	test	eax, eax
	jne	SHORT $LN2@WaitForRec
; Line 286
	jmp	SHORT $LN3@WaitForRec
$LN2@WaitForRec:
; Line 291
	mov	DWORD PTR [rsp+32], 0
	xor	r9d, r9d
	xor	r8d, r8d
	xor	edx, edx
	lea	rcx, QWORD PTR msg$82361[rsp]
	call	QWORD PTR __imp_PeekMessageW
; Line 293
	mov	ecx, 1
	call	QWORD PTR __imp_Sleep
; Line 294
	jmp	SHORT $LN4@WaitForRec
$LN3@WaitForRec:
; Line 300
	mov	ecx, 8
	call	QWORD PTR __imp_GetQueueStatus
	mov	eax, eax
	shr	rax, 16
	and	rax, 65535				; 0000ffffH
	movzx	eax, ax
	and	eax, 8
	test	eax, eax
	je	SHORT $LN1@WaitForRec
; Line 302
	call	QWORD PTR __imp_GetCurrentThreadId
	xor	r9d, r9d
	xor	r8d, r8d
	xor	edx, edx
	mov	ecx, eax
	call	QWORD PTR __imp_PostThreadMessageW
$LN1@WaitForRec:
; Line 304
	mov	rcx, rsp
	lea	rdx, OFFSET FLAT:?WaitForReceiveToComplete@CBaseRenderer@@QEAAXXZ$rtcFrameData
	call	_RTC_CheckStackVars
	add	rsp, 128				; 00000080H
	pop	rdi
	ret	0
?WaitForReceiveToComplete@CBaseRenderer@@QEAAXXZ ENDP	; CBaseRenderer::WaitForReceiveToComplete
_TEXT	ENDS
PUBLIC	?GetRealState@CBaseRenderer@@QEAA?AW4_FilterState@@XZ ; CBaseRenderer::GetRealState
;	COMDAT pdata
pdata	SEGMENT
$pdata$?GetRealState@CBaseRenderer@@QEAA?AW4_FilterState@@XZ DD imagerel $LN3
	DD	imagerel $LN3+16
	DD	imagerel $unwind$?GetRealState@CBaseRenderer@@QEAA?AW4_FilterState@@XZ
pdata	ENDS
;	COMDAT xdata
xdata	SEGMENT
$unwind$?GetRealState@CBaseRenderer@@QEAA?AW4_FilterState@@XZ DD 010601H
	DD	07006H
; Function compile flags: /Odtp /RTCsu
xdata	ENDS
;	COMDAT ?GetRealState@CBaseRenderer@@QEAA?AW4_FilterState@@XZ
_TEXT	SEGMENT
this$ = 16
?GetRealState@CBaseRenderer@@QEAA?AW4_FilterState@@XZ PROC ; CBaseRenderer::GetRealState, COMDAT
; Line 323
$LN3:
	mov	QWORD PTR [rsp+8], rcx
	push	rdi
; Line 324
	mov	rax, QWORD PTR this$[rsp]
	mov	eax, DWORD PTR [rax+48]
; Line 325
	pop	rdi
	ret	0
?GetRealState@CBaseRenderer@@QEAA?AW4_FilterState@@XZ ENDP ; CBaseRenderer::GetRealState
_TEXT	ENDS
EXTRN	?WaitDispatchingMessages@@YAKPEAXKPEAUHWND__@@I0@Z:PROC ; WaitDispatchingMessages
;	COMDAT pdata
pdata	SEGMENT
$pdata$?GetState@CBaseRenderer@@UEAAJKPEAW4_FilterState@@@Z DD imagerel $LN5
	DD	imagerel $LN5+150
	DD	imagerel $unwind$?GetState@CBaseRenderer@@UEAAJKPEAW4_FilterState@@@Z
pdata	ENDS
;	COMDAT xdata
xdata	SEGMENT
$unwind$?GetState@CBaseRenderer@@UEAAJKPEAW4_FilterState@@@Z DD 022701H
	DD	0700f5213H
; Function compile flags: /Odtp /RTCsu
xdata	ENDS
;	COMDAT ?GetState@CBaseRenderer@@UEAAJKPEAW4_FilterState@@@Z
_TEXT	SEGMENT
this$ = 64
dwMSecs$ = 72
State$ = 80
?GetState@CBaseRenderer@@UEAAJKPEAW4_FilterState@@@Z PROC ; CBaseRenderer::GetState, COMDAT
; Line 333
$LN5:
	mov	QWORD PTR [rsp+24], r8
	mov	DWORD PTR [rsp+16], edx
	mov	QWORD PTR [rsp+8], rcx
	push	rdi
	sub	rsp, 48					; 00000030H
	mov	rdi, rsp
	mov	ecx, 12
	mov	eax, -858993460				; ccccccccH
	rep stosd
	mov	rcx, QWORD PTR [rsp+64]
; Line 334
	cmp	QWORD PTR State$[rsp], 0
	jne	SHORT $LN2@GetState
	mov	eax, -2147467261			; ffffffff80004003H
	jmp	SHORT $LN3@GetState
$LN2@GetState:
; Line 336
	mov	rax, QWORD PTR this$[rsp]
	add	rax, 120				; 00000078H
	mov	rcx, rax
	call	??BCAMEvent@@QEBAPEAXXZ			; CAMEvent::operator void * __ptr64
	mov	QWORD PTR [rsp+32], 0
	xor	r9d, r9d
	xor	r8d, r8d
	mov	edx, DWORD PTR dwMSecs$[rsp]
	mov	rcx, rax
	call	?WaitDispatchingMessages@@YAKPEAXKPEAUHWND__@@I0@Z ; WaitDispatchingMessages
	cmp	eax, 258				; 00000102H
	jne	SHORT $LN1@GetState
; Line 337
	mov	rax, QWORD PTR State$[rsp]
	mov	rcx, QWORD PTR this$[rsp]
	mov	ecx, DWORD PTR [rcx+16]
	mov	DWORD PTR [rax], ecx
; Line 338
	mov	eax, 262711				; 00040237H
	jmp	SHORT $LN3@GetState
$LN1@GetState:
; Line 340
	mov	rax, QWORD PTR State$[rsp]
	mov	rcx, QWORD PTR this$[rsp]
	mov	ecx, DWORD PTR [rcx+16]
	mov	DWORD PTR [rax], ecx
; Line 341
	xor	eax, eax
$LN3@GetState:
; Line 342
	add	rsp, 48					; 00000030H
	pop	rdi
	ret	0
?GetState@CBaseRenderer@@UEAAJKPEAW4_FilterState@@@Z ENDP ; CBaseRenderer::GetState
_TEXT	ENDS
PUBLIC	?NotReady@CBaseRenderer@@QEAAXXZ		; CBaseRenderer::NotReady
PUBLIC	?IsEndOfStream@CBaseRenderer@@QEAAHXZ		; CBaseRenderer::IsEndOfStream
PUBLIC	?IsConnected@CBasePin@@QEAAHXZ			; CBasePin::IsConnected
;	COMDAT pdata
pdata	SEGMENT
$pdata$?CompleteStateChange@CBaseRenderer@@UEAAJW4_FilterState@@@Z DD imagerel $LN7
	DD	imagerel $LN7+164
	DD	imagerel $unwind$?CompleteStateChange@CBaseRenderer@@UEAAJW4_FilterState@@@Z
pdata	ENDS
;	COMDAT xdata
xdata	SEGMENT
$unwind$?CompleteStateChange@CBaseRenderer@@UEAAJW4_FilterState@@@Z DD 022201H
	DD	0700a320eH
; Function compile flags: /Odtp /RTCsu
xdata	ENDS
;	COMDAT ?CompleteStateChange@CBaseRenderer@@UEAAJW4_FilterState@@@Z
_TEXT	SEGMENT
this$ = 48
OldState$ = 56
?CompleteStateChange@CBaseRenderer@@UEAAJW4_FilterState@@@Z PROC ; CBaseRenderer::CompleteStateChange, COMDAT
; Line 353
$LN7:
	mov	DWORD PTR [rsp+16], edx
	mov	QWORD PTR [rsp+8], rcx
	push	rdi
	sub	rsp, 32					; 00000020H
	mov	rdi, rsp
	mov	ecx, 8
	mov	eax, -858993460				; ccccccccH
	rep stosd
	mov	rcx, QWORD PTR [rsp+48]
; Line 356
	mov	rax, QWORD PTR this$[rsp]
	mov	rcx, QWORD PTR [rax+192]
	call	?IsConnected@CBasePin@@QEAAHXZ		; CBasePin::IsConnected
	test	eax, eax
	jne	SHORT $LN4@CompleteSt
; Line 357
	mov	rcx, QWORD PTR this$[rsp]
	call	?Ready@CBaseRenderer@@QEAAXXZ		; CBaseRenderer::Ready
; Line 358
	xor	eax, eax
	jmp	SHORT $LN5@CompleteSt
$LN4@CompleteSt:
; Line 363
	mov	rcx, QWORD PTR this$[rsp]
	call	?IsEndOfStream@CBaseRenderer@@QEAAHXZ	; CBaseRenderer::IsEndOfStream
	cmp	eax, 1
	jne	SHORT $LN3@CompleteSt
; Line 364
	mov	rcx, QWORD PTR this$[rsp]
	call	?Ready@CBaseRenderer@@QEAAXXZ		; CBaseRenderer::Ready
; Line 365
	xor	eax, eax
	jmp	SHORT $LN5@CompleteSt
$LN3@CompleteSt:
; Line 370
	mov	rax, QWORD PTR this$[rsp]
	mov	rax, QWORD PTR [rax]
	mov	rcx, QWORD PTR this$[rsp]
	call	QWORD PTR [rax+320]
	cmp	eax, 1
	jne	SHORT $LN2@CompleteSt
; Line 371
	cmp	DWORD PTR OldState$[rsp], 0
	je	SHORT $LN1@CompleteSt
; Line 372
	mov	rcx, QWORD PTR this$[rsp]
	call	?Ready@CBaseRenderer@@QEAAXXZ		; CBaseRenderer::Ready
; Line 373
	xor	eax, eax
	jmp	SHORT $LN5@CompleteSt
$LN1@CompleteSt:
$LN2@CompleteSt:
; Line 376
	mov	rcx, QWORD PTR this$[rsp]
	call	?NotReady@CBaseRenderer@@QEAAXXZ	; CBaseRenderer::NotReady
; Line 377
	mov	eax, 1
$LN5@CompleteSt:
; Line 378
	add	rsp, 32					; 00000020H
	pop	rdi
	ret	0
?CompleteStateChange@CBaseRenderer@@UEAAJW4_FilterState@@@Z ENDP ; CBaseRenderer::CompleteStateChange
_TEXT	ENDS
;	COMDAT pdata
; File c:\downloads\wpf mediakit - copy\src\filters\baseclasses\amfilter.h
pdata	SEGMENT
$pdata$?IsConnected@CBasePin@@QEAAHXZ DD imagerel $LN5
	DD	imagerel $LN5+67
	DD	imagerel $unwind$?IsConnected@CBasePin@@QEAAHXZ
pdata	ENDS
;	COMDAT xdata
xdata	SEGMENT
$unwind$?IsConnected@CBasePin@@QEAAHXZ DD 021e01H
	DD	07006120aH
; Function compile flags: /Odtp /RTCsu
xdata	ENDS
;	COMDAT ?IsConnected@CBasePin@@QEAAHXZ
_TEXT	SEGMENT
tv66 = 0
this$ = 32
?IsConnected@CBasePin@@QEAAHXZ PROC			; CBasePin::IsConnected, COMDAT
; Line 499
$LN5:
	mov	QWORD PTR [rsp+8], rcx
	push	rdi
	sub	rsp, 16
	mov	rdi, rsp
	mov	ecx, 4
	mov	eax, -858993460				; ccccccccH
	rep stosd
	mov	rcx, QWORD PTR [rsp+32]
	mov	rax, QWORD PTR this$[rsp]
	cmp	QWORD PTR [rax+56], 0
	je	SHORT $LN3@IsConnecte
	mov	DWORD PTR tv66[rsp], 1
	jmp	SHORT $LN4@IsConnecte
$LN3@IsConnecte:
	mov	DWORD PTR tv66[rsp], 0
$LN4@IsConnecte:
	mov	eax, DWORD PTR tv66[rsp]
	add	rsp, 16
	pop	rdi
	ret	0
?IsConnected@CBasePin@@QEAAHXZ ENDP			; CBasePin::IsConnected
_TEXT	ENDS
;	COMDAT pdata
; File c:\downloads\wpf mediakit - copy\src\filters\baseclasses\renbase.h
pdata	SEGMENT
$pdata$?IsEndOfStream@CBaseRenderer@@QEAAHXZ DD imagerel $LN3
	DD	imagerel $LN3+19
	DD	imagerel $unwind$?IsEndOfStream@CBaseRenderer@@QEAAHXZ
pdata	ENDS
;	COMDAT xdata
xdata	SEGMENT
$unwind$?IsEndOfStream@CBaseRenderer@@QEAAHXZ DD 010601H
	DD	07006H
; Function compile flags: /Odtp /RTCsu
xdata	ENDS
;	COMDAT ?IsEndOfStream@CBaseRenderer@@QEAAHXZ
_TEXT	SEGMENT
this$ = 16
?IsEndOfStream@CBaseRenderer@@QEAAHXZ PROC		; CBaseRenderer::IsEndOfStream, COMDAT
; Line 122
$LN3:
	mov	QWORD PTR [rsp+8], rcx
	push	rdi
	mov	rax, QWORD PTR this$[rsp]
	mov	eax, DWORD PTR [rax+184]
	pop	rdi
	ret	0
?IsEndOfStream@CBaseRenderer@@QEAAHXZ ENDP		; CBaseRenderer::IsEndOfStream
_TEXT	ENDS
;	COMDAT pdata
pdata	SEGMENT
$pdata$?NotReady@CBaseRenderer@@QEAAXXZ DD imagerel $LN3
	DD	imagerel $LN3+55
	DD	imagerel $unwind$?NotReady@CBaseRenderer@@QEAAXXZ
pdata	ENDS
;	COMDAT xdata
xdata	SEGMENT
$unwind$?NotReady@CBaseRenderer@@QEAAXXZ DD 021e01H
	DD	07006320aH
; Function compile flags: /Odtp /RTCsu
xdata	ENDS
;	COMDAT ?NotReady@CBaseRenderer@@QEAAXXZ
_TEXT	SEGMENT
this$ = 48
?NotReady@CBaseRenderer@@QEAAXXZ PROC			; CBaseRenderer::NotReady, COMDAT
; Line 132
$LN3:
	mov	QWORD PTR [rsp+8], rcx
	push	rdi
	sub	rsp, 32					; 00000020H
	mov	rdi, rsp
	mov	ecx, 8
	mov	eax, -858993460				; ccccccccH
	rep stosd
	mov	rcx, QWORD PTR [rsp+48]
	mov	rax, QWORD PTR this$[rsp]
	add	rax, 152				; 00000098H
	mov	rcx, rax
	call	?Reset@CAMEvent@@QEAAXXZ		; CAMEvent::Reset
	add	rsp, 32					; 00000020H
	pop	rdi
	ret	0
?NotReady@CBaseRenderer@@QEAAXXZ ENDP			; CBaseRenderer::NotReady
_TEXT	ENDS
PUBLIC	?SetRepaintStatus@CBaseRenderer@@QEAAXH@Z	; CBaseRenderer::SetRepaintStatus
PUBLIC	?Allocator@CRendererInputPin@@QEBAPEAUIMemAllocator@@XZ ; CRendererInputPin::Allocator
EXTRN	?Stop@CBaseFilter@@UEAAJXZ:PROC			; CBaseFilter::Stop
;	COMDAT pdata
; File c:\downloads\wpf mediakit - copy\src\filters\baseclasses\renbase.cpp
pdata	SEGMENT
$pdata$?Stop@CBaseRenderer@@UEAAJXZ DD imagerel $LN10
	DD	imagerel $LN10+768
	DD	imagerel $unwind$?Stop@CBaseRenderer@@UEAAJXZ
pdata	ENDS
;	COMDAT pdata
pdata	SEGMENT
$pdata$?dtor$0@?0??Stop@CBaseRenderer@@UEAAJXZ@4HA DD imagerel ?dtor$0@?0??Stop@CBaseRenderer@@UEAAJXZ@4HA
	DD	imagerel ?dtor$0@?0??Stop@CBaseRenderer@@UEAAJXZ@4HA+35
	DD	imagerel $unwind$?dtor$0@?0??Stop@CBaseRenderer@@UEAAJXZ@4HA
pdata	ENDS
;	COMDAT xdata
xdata	SEGMENT
$ip2state$?Stop@CBaseRenderer@@UEAAJXZ DD imagerel ?Stop@CBaseRenderer@@UEAAJXZ
	DD	0ffffffffH
	DD	imagerel ?Stop@CBaseRenderer@@UEAAJXZ+73
	DD	00H
	DD	imagerel ?Stop@CBaseRenderer@@UEAAJXZ+95
	DD	0ffffffffH
	DD	imagerel ?Stop@CBaseRenderer@@UEAAJXZ+114
	DD	00H
	DD	imagerel ?Stop@CBaseRenderer@@UEAAJXZ+183
	DD	0ffffffffH
	DD	imagerel ?Stop@CBaseRenderer@@UEAAJXZ+202
	DD	00H
	DD	imagerel ?Stop@CBaseRenderer@@UEAAJXZ+724
	DD	0ffffffffH
xdata	ENDS
;	COMDAT xdata
xdata	SEGMENT
$unwind$?dtor$0@?0??Stop@CBaseRenderer@@UEAAJXZ@4HA DD 031001H
	DD	0700c4210H
	DD	0500bH
xdata	ENDS
;	COMDAT xdata
xdata	SEGMENT
$unwind$?Stop@CBaseRenderer@@UEAAJXZ DD 022d11H
	DD	07006f20dH
	DD	imagerel __CxxFrameHandler3
	DD	imagerel $cppxdata$?Stop@CBaseRenderer@@UEAAJXZ
xdata	ENDS
;	COMDAT xdata
xdata	SEGMENT
$stateUnwindMap$?Stop@CBaseRenderer@@UEAAJXZ DD 0ffffffffH
	DD	imagerel ?dtor$0@?0??Stop@CBaseRenderer@@UEAAJXZ@4HA
xdata	ENDS
;	COMDAT CONST
CONST	SEGMENT
?Stop@CBaseRenderer@@UEAAJXZ$rtcName$0 DB 063H		; CBaseRenderer::Stop
	DB	052H
	DB	065H
	DB	06eH
	DB	064H
	DB	065H
	DB	072H
	DB	065H
	DB	072H
	DB	04cH
	DB	06fH
	DB	063H
	DB	06bH
	DB	00H
	ORG $+2
?Stop@CBaseRenderer@@UEAAJXZ$rtcVarDesc DD 028H		; CBaseRenderer::Stop
	DD	08H
	DQ	FLAT:?Stop@CBaseRenderer@@UEAAJXZ$rtcName$0
	ORG $+48
?Stop@CBaseRenderer@@UEAAJXZ$rtcFrameData DD 01H	; CBaseRenderer::Stop
	DD	00H
	DQ	FLAT:?Stop@CBaseRenderer@@UEAAJXZ$rtcVarDesc
$cppxdata$?Stop@CBaseRenderer@@UEAAJXZ DD 019930522H
	DD	01H
	DD	imagerel $stateUnwindMap$?Stop@CBaseRenderer@@UEAAJXZ
	DD	00H
	DD	00H
	DD	07H
	DD	imagerel $ip2state$?Stop@CBaseRenderer@@UEAAJXZ
	DD	040H
	DD	00H
	DD	01H
; Function compile flags: /Odtp /RTCsu
CONST	ENDS
;	COMDAT ?Stop@CBaseRenderer@@UEAAJXZ
_TEXT	SEGMENT
cRendererLock$ = 40
$T84902 = 52
$T84903 = 56
$T84904 = 60
$T84910 = 64
tv144 = 72
tv211 = 80
tv210 = 88
tv209 = 96
tv208 = 104
tv65 = 112
this$ = 144
?Stop@CBaseRenderer@@UEAAJXZ PROC			; CBaseRenderer::Stop, COMDAT
; Line 390
$LN10:
	mov	QWORD PTR [rsp+8], rcx
	push	rdi
	sub	rsp, 128				; 00000080H
	mov	rdi, rsp
	mov	ecx, 32					; 00000020H
	mov	eax, -858993460				; ccccccccH
	rep stosd
	mov	rcx, QWORD PTR [rsp+144]
	mov	QWORD PTR $T84910[rsp], -2
; Line 391
	mov	rax, QWORD PTR this$[rsp]
	add	rax, 168				; 000000a8H
	mov	rdx, rax
	lea	rcx, QWORD PTR cRendererLock$[rsp]
	call	??0CAutoLock@@QEAA@PEAVCCritSec@@@Z	; CAutoLock::CAutoLock
	npad	1
; Line 395
	mov	rax, QWORD PTR this$[rsp]
	cmp	DWORD PTR [rax+16], 0
	jne	SHORT $LN6@Stop
; Line 396
	mov	DWORD PTR $T84902[rsp], 0
	lea	rcx, QWORD PTR cRendererLock$[rsp]
	call	??1CAutoLock@@QEAA@XZ			; CAutoLock::~CAutoLock
	mov	eax, DWORD PTR $T84902[rsp]
	jmp	$LN7@Stop
$LN6@Stop:
; Line 401
	mov	rax, QWORD PTR this$[rsp]
	mov	rcx, QWORD PTR [rax+160]
	call	?IsConnected@CBasePin@@QEAAHXZ		; CBasePin::IsConnected
	test	eax, eax
	jne	SHORT $LN5@Stop
; Line 402
	lea	r8, OFFSET FLAT:$SG82396
	mov	edx, 5
	mov	ecx, 2
	call	?DbgLogInfo@@YAXKKPEB_WZZ		; DbgLogInfo
; Line 403
	mov	rax, QWORD PTR this$[rsp]
	mov	DWORD PTR [rax+16], 0
; Line 404
	mov	DWORD PTR $T84903[rsp], 0
	lea	rcx, QWORD PTR cRendererLock$[rsp]
	call	??1CAutoLock@@QEAA@XZ			; CAutoLock::~CAutoLock
	mov	eax, DWORD PTR $T84903[rsp]
	jmp	$LN7@Stop
$LN5@Stop:
; Line 407
	mov	rax, QWORD PTR this$[rsp]
	mov	rcx, rax
	call	?Stop@CBaseFilter@@UEAAJXZ		; CBaseFilter::Stop
; Line 413
	mov	rax, QWORD PTR this$[rsp]
	mov	rcx, QWORD PTR [rax+160]
	call	?Allocator@CRendererInputPin@@QEBAPEAUIMemAllocator@@XZ ; CRendererInputPin::Allocator
	test	rax, rax
	je	SHORT $LN4@Stop
; Line 414
	mov	rax, QWORD PTR this$[rsp]
	mov	rcx, QWORD PTR [rax+160]
	call	?Allocator@CRendererInputPin@@QEBAPEAUIMemAllocator@@XZ ; CRendererInputPin::Allocator
	mov	QWORD PTR tv144[rsp], rax
	mov	rax, QWORD PTR tv144[rsp]
	mov	rax, QWORD PTR [rax]
	mov	rcx, QWORD PTR tv144[rsp]
	call	QWORD PTR [rax+48]
$LN4@Stop:
; Line 419
	mov	rax, QWORD PTR this$[rsp]
	sub	rax, 32					; 00000020H
	mov	edx, 1
	mov	rcx, rax
	call	?SetRepaintStatus@CBaseRenderer@@QEAAXH@Z ; CBaseRenderer::SetRepaintStatus
; Line 420
	mov	rax, QWORD PTR this$[rsp]
	sub	rax, 32					; 00000020H
	mov	rcx, QWORD PTR this$[rsp]
	mov	rcx, QWORD PTR [rcx-32]
	mov	QWORD PTR tv211[rsp], rcx
	mov	rcx, rax
	mov	rax, QWORD PTR tv211[rsp]
	call	QWORD PTR [rax+256]
; Line 421
	mov	rax, QWORD PTR this$[rsp]
	sub	rax, 32					; 00000020H
	mov	rcx, QWORD PTR this$[rsp]
	mov	rcx, QWORD PTR [rcx-32]
	mov	QWORD PTR tv210[rsp], rcx
	xor	edx, edx
	mov	rcx, rax
	mov	rax, QWORD PTR tv210[rsp]
	call	QWORD PTR [rax+80]
; Line 422
	mov	rax, QWORD PTR this$[rsp]
	sub	rax, 32					; 00000020H
	mov	rcx, QWORD PTR this$[rsp]
	mov	rcx, QWORD PTR [rcx-32]
	mov	QWORD PTR tv209[rsp], rcx
	mov	rcx, rax
	mov	rax, QWORD PTR tv209[rsp]
	call	QWORD PTR [rax+200]
; Line 423
	mov	rax, QWORD PTR this$[rsp]
	sub	rax, 32					; 00000020H
	mov	rcx, QWORD PTR this$[rsp]
	mov	rcx, QWORD PTR [rcx-32]
	mov	QWORD PTR tv208[rsp], rcx
	mov	rcx, rax
	mov	rax, QWORD PTR tv208[rsp]
	call	QWORD PTR [rax+216]
; Line 426
	mov	rax, QWORD PTR this$[rsp]
	sub	rax, 32					; 00000020H
	mov	rcx, QWORD PTR this$[rsp]
	mov	rcx, QWORD PTR [rcx-32]
	mov	QWORD PTR tv65[rsp], rcx
	mov	rcx, rax
	mov	rax, QWORD PTR tv65[rsp]
	call	QWORD PTR [rax+216]
	cmp	eax, 1
	je	SHORT $LN3@Stop
	mov	r8d, 426				; 000001aaH
	lea	rdx, OFFSET FLAT:$SG82401
	lea	rcx, OFFSET FLAT:$SG82402
	call	?DbgAssert@@YAXPEB_W0H@Z		; DbgAssert
$LN3@Stop:
; Line 427
	mov	rax, QWORD PTR this$[rsp]
	add	rax, 104				; 00000068H
	mov	rcx, rax
	call	??BCAMEvent@@QEBAPEAXXZ			; CAMEvent::operator void * __ptr64
	xor	edx, edx
	mov	rcx, rax
	call	QWORD PTR __imp_WaitForSingleObject
	cmp	eax, 258				; 00000102H
	je	SHORT $LN2@Stop
	mov	r8d, 427				; 000001abH
	lea	rdx, OFFSET FLAT:$SG82405
	lea	rcx, OFFSET FLAT:$SG82406
	call	?DbgAssert@@YAXPEB_W0H@Z		; DbgAssert
$LN2@Stop:
; Line 428
	mov	rax, QWORD PTR this$[rsp]
	cmp	DWORD PTR [rax+304], 0
	je	SHORT $LN1@Stop
	mov	r8d, 428				; 000001acH
	lea	rdx, OFFSET FLAT:$SG82408
	lea	rcx, OFFSET FLAT:$SG82409
	call	?DbgAssert@@YAXPEB_W0H@Z		; DbgAssert
$LN1@Stop:
; Line 430
	mov	rax, QWORD PTR this$[rsp]
	sub	rax, 32					; 00000020H
	mov	rcx, rax
	call	?Ready@CBaseRenderer@@QEAAXXZ		; CBaseRenderer::Ready
; Line 431
	mov	rax, QWORD PTR this$[rsp]
	sub	rax, 32					; 00000020H
	mov	rcx, rax
	call	?WaitForReceiveToComplete@CBaseRenderer@@QEAAXXZ ; CBaseRenderer::WaitForReceiveToComplete
; Line 432
	mov	rax, QWORD PTR this$[rsp]
	mov	DWORD PTR [rax+128], 0
; Line 434
	mov	DWORD PTR $T84904[rsp], 0
	lea	rcx, QWORD PTR cRendererLock$[rsp]
	call	??1CAutoLock@@QEAA@XZ			; CAutoLock::~CAutoLock
	mov	eax, DWORD PTR $T84904[rsp]
$LN7@Stop:
; Line 435
	mov	rdi, rax
	mov	rcx, rsp
	lea	rdx, OFFSET FLAT:?Stop@CBaseRenderer@@UEAAJXZ$rtcFrameData
	call	_RTC_CheckStackVars
	mov	rax, rdi
	add	rsp, 128				; 00000080H
	pop	rdi
	ret	0
?Stop@CBaseRenderer@@UEAAJXZ ENDP			; CBaseRenderer::Stop
; Function compile flags: /Odtp /RTCsu
_TEXT	ENDS
;	COMDAT text$x
text$x	SEGMENT
cRendererLock$ = 40
$T84902 = 52
$T84903 = 56
$T84904 = 60
$T84910 = 64
tv144 = 72
tv211 = 80
tv210 = 88
tv209 = 96
tv208 = 104
tv65 = 112
this$ = 144
?dtor$0@?0??Stop@CBaseRenderer@@UEAAJXZ@4HA PROC	; `CBaseRenderer::Stop'::`1'::dtor$0
	mov	QWORD PTR [rsp+8], rcx
	mov	QWORD PTR [rsp+16], rdx
	push	rbp
	push	rdi
	sub	rsp, 40					; 00000028H
	mov	rbp, rdx
	lea	rcx, QWORD PTR cRendererLock$[rbp]
	call	??1CAutoLock@@QEAA@XZ			; CAutoLock::~CAutoLock
	add	rsp, 40					; 00000028H
	pop	rdi
	pop	rbp
	ret	0
?dtor$0@?0??Stop@CBaseRenderer@@UEAAJXZ@4HA ENDP	; `CBaseRenderer::Stop'::`1'::dtor$0
text$x	ENDS
;	COMDAT pdata
; File c:\downloads\wpf mediakit - copy\src\filters\baseclasses\renbase.h
pdata	SEGMENT
$pdata$?Allocator@CRendererInputPin@@QEBAPEAUIMemAllocator@@XZ DD imagerel $LN3
	DD	imagerel $LN3+20
	DD	imagerel $unwind$?Allocator@CRendererInputPin@@QEBAPEAUIMemAllocator@@XZ
pdata	ENDS
;	COMDAT xdata
xdata	SEGMENT
$unwind$?Allocator@CRendererInputPin@@QEBAPEAUIMemAllocator@@XZ DD 010601H
	DD	07006H
; Function compile flags: /Odtp /RTCsu
xdata	ENDS
;	COMDAT ?Allocator@CRendererInputPin@@QEBAPEAUIMemAllocator@@XZ
_TEXT	SEGMENT
this$ = 16
?Allocator@CRendererInputPin@@QEBAPEAUIMemAllocator@@XZ PROC ; CRendererInputPin::Allocator, COMDAT
; Line 53
$LN3:
	mov	QWORD PTR [rsp+8], rcx
	push	rdi
; Line 54
	mov	rax, QWORD PTR this$[rsp]
	mov	rax, QWORD PTR [rax+240]
; Line 55
	pop	rdi
	ret	0
?Allocator@CRendererInputPin@@QEBAPEAUIMemAllocator@@XZ ENDP ; CRendererInputPin::Allocator
_TEXT	ENDS
PUBLIC	?ResetEndOfStreamTimer@CBaseRenderer@@QEAAXXZ	; CBaseRenderer::ResetEndOfStreamTimer
EXTRN	?Pause@CBaseFilter@@UEAAJXZ:PROC		; CBaseFilter::Pause
;	COMDAT pdata
; File c:\downloads\wpf mediakit - copy\src\filters\baseclasses\renbase.cpp
pdata	SEGMENT
$pdata$?Pause@CBaseRenderer@@UEAAJXZ DD imagerel $LN14
	DD	imagerel $LN14+1080
	DD	imagerel $unwind$?Pause@CBaseRenderer@@UEAAJXZ
pdata	ENDS
;	COMDAT pdata
pdata	SEGMENT
$pdata$?dtor$0@?0??Pause@CBaseRenderer@@UEAAJXZ@4HA DD imagerel ?dtor$0@?0??Pause@CBaseRenderer@@UEAAJXZ@4HA
	DD	imagerel ?dtor$0@?0??Pause@CBaseRenderer@@UEAAJXZ@4HA+35
	DD	imagerel $unwind$?dtor$0@?0??Pause@CBaseRenderer@@UEAAJXZ@4HA
pdata	ENDS
;	COMDAT xdata
xdata	SEGMENT
$ip2state$?Pause@CBaseRenderer@@UEAAJXZ DD imagerel ?Pause@CBaseRenderer@@UEAAJXZ
	DD	0ffffffffH
	DD	imagerel ?Pause@CBaseRenderer@@UEAAJXZ+73
	DD	00H
	DD	imagerel ?Pause@CBaseRenderer@@UEAAJXZ+200
	DD	0ffffffffH
	DD	imagerel ?Pause@CBaseRenderer@@UEAAJXZ+219
	DD	00H
	DD	imagerel ?Pause@CBaseRenderer@@UEAAJXZ+329
	DD	0ffffffffH
	DD	imagerel ?Pause@CBaseRenderer@@UEAAJXZ+348
	DD	00H
	DD	imagerel ?Pause@CBaseRenderer@@UEAAJXZ+405
	DD	0ffffffffH
	DD	imagerel ?Pause@CBaseRenderer@@UEAAJXZ+424
	DD	00H
	DD	imagerel ?Pause@CBaseRenderer@@UEAAJXZ+1036
	DD	0ffffffffH
xdata	ENDS
;	COMDAT xdata
xdata	SEGMENT
$unwind$?dtor$0@?0??Pause@CBaseRenderer@@UEAAJXZ@4HA DD 031001H
	DD	0700c4210H
	DD	0500bH
xdata	ENDS
;	COMDAT xdata
xdata	SEGMENT
$unwind$?Pause@CBaseRenderer@@UEAAJXZ DD 032d11H
	DD	014010dH
	DD	07006H
	DD	imagerel __CxxFrameHandler3
	DD	imagerel $cppxdata$?Pause@CBaseRenderer@@UEAAJXZ
xdata	ENDS
;	COMDAT xdata
xdata	SEGMENT
$stateUnwindMap$?Pause@CBaseRenderer@@UEAAJXZ DD 0ffffffffH
	DD	imagerel ?dtor$0@?0??Pause@CBaseRenderer@@UEAAJXZ@4HA
xdata	ENDS
;	COMDAT CONST
CONST	SEGMENT
?Pause@CBaseRenderer@@UEAAJXZ$rtcName$0 DB 063H		; CBaseRenderer::Pause
	DB	052H
	DB	065H
	DB	06eH
	DB	064H
	DB	065H
	DB	072H
	DB	065H
	DB	072H
	DB	04cH
	DB	06fH
	DB	063H
	DB	06bH
	DB	00H
	ORG $+2
?Pause@CBaseRenderer@@UEAAJXZ$rtcVarDesc DD 028H	; CBaseRenderer::Pause
	DD	08H
	DQ	FLAT:?Pause@CBaseRenderer@@UEAAJXZ$rtcName$0
	ORG $+48
?Pause@CBaseRenderer@@UEAAJXZ$rtcFrameData DD 01H	; CBaseRenderer::Pause
	DD	00H
	DQ	FLAT:?Pause@CBaseRenderer@@UEAAJXZ$rtcVarDesc
$cppxdata$?Pause@CBaseRenderer@@UEAAJXZ DD 019930522H
	DD	01H
	DD	imagerel $stateUnwindMap$?Pause@CBaseRenderer@@UEAAJXZ
	DD	00H
	DD	00H
	DD	09H
	DD	imagerel $ip2state$?Pause@CBaseRenderer@@UEAAJXZ
	DD	050H
	DD	00H
	DD	01H
; Function compile flags: /Odtp /RTCsu
CONST	ENDS
;	COMDAT ?Pause@CBaseRenderer@@UEAAJXZ
_TEXT	SEGMENT
cRendererLock$ = 40
OldState$ = 52
hr$ = 56
$T84938 = 60
$T84939 = 64
$T84940 = 68
$T84941 = 72
$T84947 = 80
tv271 = 88
tv270 = 96
tv269 = 104
tv268 = 112
tv267 = 120
tv202 = 128
tv265 = 136
tv264 = 144
tv65 = 152
this$ = 176
?Pause@CBaseRenderer@@UEAAJXZ PROC			; CBaseRenderer::Pause, COMDAT
; Line 447
$LN14:
	mov	QWORD PTR [rsp+8], rcx
	push	rdi
	sub	rsp, 160				; 000000a0H
	mov	rdi, rsp
	mov	ecx, 40					; 00000028H
	mov	eax, -858993460				; ccccccccH
	rep stosd
	mov	rcx, QWORD PTR [rsp+176]
	mov	QWORD PTR $T84947[rsp], -2
; Line 448
	mov	rax, QWORD PTR this$[rsp]
	add	rax, 168				; 000000a8H
	mov	rdx, rax
	lea	rcx, QWORD PTR cRendererLock$[rsp]
	call	??0CAutoLock@@QEAA@PEAVCCritSec@@@Z	; CAutoLock::CAutoLock
	npad	1
; Line 449
	mov	rax, QWORD PTR this$[rsp]
	mov	eax, DWORD PTR [rax+16]
	mov	DWORD PTR OldState$[rsp], eax
; Line 450
	mov	rax, QWORD PTR this$[rsp]
	mov	rcx, QWORD PTR [rax+160]
	call	?IsFlushing@CBaseInputPin@@QEAAHXZ	; CBaseInputPin::IsFlushing
	test	eax, eax
	je	SHORT $LN10@Pause
	mov	r8d, 450				; 000001c2H
	lea	rdx, OFFSET FLAT:$SG82417
	lea	rcx, OFFSET FLAT:$SG82418
	call	?DbgAssert@@YAXPEB_W0H@Z		; DbgAssert
$LN10@Pause:
; Line 454
	mov	rax, QWORD PTR this$[rsp]
	cmp	DWORD PTR [rax+16], 1
	jne	SHORT $LN9@Pause
; Line 455
	mov	rax, QWORD PTR this$[rsp]
	sub	rax, 32					; 00000020H
	mov	rcx, QWORD PTR this$[rsp]
	mov	rcx, QWORD PTR [rcx-32]
	mov	QWORD PTR tv271[rsp], rcx
	mov	edx, 1
	mov	rcx, rax
	mov	rax, QWORD PTR tv271[rsp]
	call	QWORD PTR [rax+96]
	mov	DWORD PTR $T84938[rsp], eax
	lea	rcx, QWORD PTR cRendererLock$[rsp]
	call	??1CAutoLock@@QEAA@XZ			; CAutoLock::~CAutoLock
	mov	eax, DWORD PTR $T84938[rsp]
	jmp	$LN11@Pause
$LN9@Pause:
; Line 460
	mov	rax, QWORD PTR this$[rsp]
	mov	rcx, QWORD PTR [rax+160]
	call	?IsConnected@CBasePin@@QEAAHXZ		; CBasePin::IsConnected
	test	eax, eax
	jne	SHORT $LN8@Pause
; Line 461
	lea	r8, OFFSET FLAT:$SG82422
	mov	edx, 5
	mov	ecx, 2
	call	?DbgLogInfo@@YAXKKPEB_WZZ		; DbgLogInfo
; Line 462
	mov	rax, QWORD PTR this$[rsp]
	mov	DWORD PTR [rax+16], 1
; Line 463
	mov	rax, QWORD PTR this$[rsp]
	sub	rax, 32					; 00000020H
	mov	rcx, QWORD PTR this$[rsp]
	mov	rcx, QWORD PTR [rcx-32]
	mov	QWORD PTR tv270[rsp], rcx
	mov	edx, 1
	mov	rcx, rax
	mov	rax, QWORD PTR tv270[rsp]
	call	QWORD PTR [rax+96]
	mov	DWORD PTR $T84939[rsp], eax
	lea	rcx, QWORD PTR cRendererLock$[rsp]
	call	??1CAutoLock@@QEAA@XZ			; CAutoLock::~CAutoLock
	mov	eax, DWORD PTR $T84939[rsp]
	jmp	$LN11@Pause
$LN8@Pause:
; Line 468
	mov	rax, QWORD PTR this$[rsp]
	mov	rcx, rax
	call	?Pause@CBaseFilter@@UEAAJXZ		; CBaseFilter::Pause
	mov	DWORD PTR hr$[rsp], eax
; Line 469
	cmp	DWORD PTR hr$[rsp], 0
	jge	SHORT $LN7@Pause
; Line 470
	lea	r8, OFFSET FLAT:$SG82427
	mov	edx, 5
	mov	ecx, 2
	call	?DbgLogInfo@@YAXKKPEB_WZZ		; DbgLogInfo
; Line 471
	mov	eax, DWORD PTR hr$[rsp]
	mov	DWORD PTR $T84940[rsp], eax
	lea	rcx, QWORD PTR cRendererLock$[rsp]
	call	??1CAutoLock@@QEAA@XZ			; CAutoLock::~CAutoLock
	mov	eax, DWORD PTR $T84940[rsp]
	jmp	$LN11@Pause
$LN7@Pause:
; Line 476
	mov	rax, QWORD PTR this$[rsp]
	sub	rax, 32					; 00000020H
	mov	edx, 1
	mov	rcx, rax
	call	?SetRepaintStatus@CBaseRenderer@@QEAAXH@Z ; CBaseRenderer::SetRepaintStatus
; Line 477
	mov	rax, QWORD PTR this$[rsp]
	sub	rax, 32					; 00000020H
	mov	rcx, QWORD PTR this$[rsp]
	mov	rcx, QWORD PTR [rcx-32]
	mov	QWORD PTR tv269[rsp], rcx
	mov	rcx, rax
	mov	rax, QWORD PTR tv269[rsp]
	call	QWORD PTR [rax+256]
; Line 478
	mov	rax, QWORD PTR this$[rsp]
	sub	rax, 32					; 00000020H
	mov	rcx, QWORD PTR this$[rsp]
	mov	rcx, QWORD PTR [rcx-32]
	mov	QWORD PTR tv268[rsp], rcx
	mov	edx, 1
	mov	rcx, rax
	mov	rax, QWORD PTR tv268[rsp]
	call	QWORD PTR [rax+80]
; Line 479
	mov	rax, QWORD PTR this$[rsp]
	sub	rax, 32					; 00000020H
	mov	rcx, QWORD PTR this$[rsp]
	mov	rcx, QWORD PTR [rcx-32]
	mov	QWORD PTR tv267[rsp], rcx
	mov	rcx, rax
	mov	rax, QWORD PTR tv267[rsp]
	call	QWORD PTR [rax+216]
; Line 480
	mov	rax, QWORD PTR this$[rsp]
	sub	rax, 32					; 00000020H
	mov	rcx, rax
	call	?ResetEndOfStreamTimer@CBaseRenderer@@QEAAXXZ ; CBaseRenderer::ResetEndOfStreamTimer
; Line 486
	mov	rax, QWORD PTR this$[rsp]
	mov	rcx, QWORD PTR [rax+160]
	call	?Allocator@CRendererInputPin@@QEBAPEAUIMemAllocator@@XZ ; CRendererInputPin::Allocator
	test	rax, rax
	je	SHORT $LN6@Pause
; Line 487
	mov	rax, QWORD PTR this$[rsp]
	mov	rcx, QWORD PTR [rax+160]
	call	?Allocator@CRendererInputPin@@QEBAPEAUIMemAllocator@@XZ ; CRendererInputPin::Allocator
	mov	QWORD PTR tv202[rsp], rax
	mov	rax, QWORD PTR tv202[rsp]
	mov	rax, QWORD PTR [rax]
	mov	rcx, QWORD PTR tv202[rsp]
	call	QWORD PTR [rax+40]
$LN6@Pause:
; Line 491
	mov	rax, QWORD PTR this$[rsp]
	sub	rax, 32					; 00000020H
	mov	rcx, QWORD PTR this$[rsp]
	mov	rcx, QWORD PTR [rcx-32]
	mov	QWORD PTR tv265[rsp], rcx
	mov	rcx, rax
	mov	rax, QWORD PTR tv265[rsp]
	call	QWORD PTR [rax+216]
	cmp	eax, 1
	je	SHORT $LN5@Pause
	mov	r8d, 491				; 000001ebH
	lea	rdx, OFFSET FLAT:$SG82432
	lea	rcx, OFFSET FLAT:$SG82433
	call	?DbgAssert@@YAXPEB_W0H@Z		; DbgAssert
$LN5@Pause:
; Line 492
	mov	rax, QWORD PTR this$[rsp]
	add	rax, 104				; 00000068H
	mov	rcx, rax
	call	??BCAMEvent@@QEBAPEAXXZ			; CAMEvent::operator void * __ptr64
	xor	edx, edx
	mov	rcx, rax
	call	QWORD PTR __imp_WaitForSingleObject
	cmp	eax, 258				; 00000102H
	je	SHORT $LN4@Pause
	mov	r8d, 492				; 000001ecH
	lea	rdx, OFFSET FLAT:$SG82436
	lea	rcx, OFFSET FLAT:$SG82437
	call	?DbgAssert@@YAXPEB_W0H@Z		; DbgAssert
$LN4@Pause:
; Line 493
	mov	rax, QWORD PTR this$[rsp]
	cmp	DWORD PTR [rax+304], 0
	je	SHORT $LN3@Pause
	mov	r8d, 493				; 000001edH
	lea	rdx, OFFSET FLAT:$SG82439
	lea	rcx, OFFSET FLAT:$SG82440
	call	?DbgAssert@@YAXPEB_W0H@Z		; DbgAssert
$LN3@Pause:
; Line 494
	mov	rax, QWORD PTR this$[rsp]
	mov	rcx, QWORD PTR [rax+160]
	call	?IsFlushing@CBaseInputPin@@QEAAHXZ	; CBaseInputPin::IsFlushing
	test	eax, eax
	je	SHORT $LN2@Pause
	mov	r8d, 494				; 000001eeH
	lea	rdx, OFFSET FLAT:$SG82442
	lea	rcx, OFFSET FLAT:$SG82443
	call	?DbgAssert@@YAXPEB_W0H@Z		; DbgAssert
$LN2@Pause:
; Line 502
	cmp	DWORD PTR OldState$[rsp], 0
	jne	SHORT $LN1@Pause
; Line 503
	mov	rax, QWORD PTR this$[rsp]
	mov	DWORD PTR [rax+128], 0
; Line 504
	mov	rax, QWORD PTR this$[rsp]
	sub	rax, 32					; 00000020H
	mov	rcx, QWORD PTR this$[rsp]
	mov	rcx, QWORD PTR [rcx-32]
	mov	QWORD PTR tv264[rsp], rcx
	mov	rcx, rax
	mov	rax, QWORD PTR tv264[rsp]
	call	QWORD PTR [rax+224]
$LN1@Pause:
; Line 506
	mov	rax, QWORD PTR this$[rsp]
	sub	rax, 32					; 00000020H
	mov	rcx, QWORD PTR this$[rsp]
	mov	rcx, QWORD PTR [rcx-32]
	mov	QWORD PTR tv65[rsp], rcx
	mov	edx, DWORD PTR OldState$[rsp]
	mov	rcx, rax
	mov	rax, QWORD PTR tv65[rsp]
	call	QWORD PTR [rax+96]
	mov	DWORD PTR $T84941[rsp], eax
	lea	rcx, QWORD PTR cRendererLock$[rsp]
	call	??1CAutoLock@@QEAA@XZ			; CAutoLock::~CAutoLock
	mov	eax, DWORD PTR $T84941[rsp]
$LN11@Pause:
; Line 507
	mov	rdi, rax
	mov	rcx, rsp
	lea	rdx, OFFSET FLAT:?Pause@CBaseRenderer@@UEAAJXZ$rtcFrameData
	call	_RTC_CheckStackVars
	mov	rax, rdi
	add	rsp, 160				; 000000a0H
	pop	rdi
	ret	0
?Pause@CBaseRenderer@@UEAAJXZ ENDP			; CBaseRenderer::Pause
; Function compile flags: /Odtp /RTCsu
_TEXT	ENDS
;	COMDAT text$x
text$x	SEGMENT
cRendererLock$ = 40
OldState$ = 52
hr$ = 56
$T84938 = 60
$T84939 = 64
$T84940 = 68
$T84941 = 72
$T84947 = 80
tv271 = 88
tv270 = 96
tv269 = 104
tv268 = 112
tv267 = 120
tv202 = 128
tv265 = 136
tv264 = 144
tv65 = 152
this$ = 176
?dtor$0@?0??Pause@CBaseRenderer@@UEAAJXZ@4HA PROC	; `CBaseRenderer::Pause'::`1'::dtor$0
	mov	QWORD PTR [rsp+8], rcx
	mov	QWORD PTR [rsp+16], rdx
	push	rbp
	push	rdi
	sub	rsp, 40					; 00000028H
	mov	rbp, rdx
	lea	rcx, QWORD PTR cRendererLock$[rbp]
	call	??1CAutoLock@@QEAA@XZ			; CAutoLock::~CAutoLock
	add	rsp, 40					; 00000028H
	pop	rdi
	pop	rbp
	ret	0
?dtor$0@?0??Pause@CBaseRenderer@@UEAAJXZ@4HA ENDP	; `CBaseRenderer::Pause'::`1'::dtor$0
text$x	ENDS
EXTRN	?Run@CBaseFilter@@UEAAJ_J@Z:PROC		; CBaseFilter::Run
EXTRN	?NotifyEvent@CBaseFilter@@QEAAJJ_J0@Z:PROC	; CBaseFilter::NotifyEvent
;	COMDAT pdata
pdata	SEGMENT
$pdata$?Run@CBaseRenderer@@UEAAJ_J@Z DD imagerel $LN16
	DD	imagerel $LN16+960
	DD	imagerel $unwind$?Run@CBaseRenderer@@UEAAJ_J@Z
pdata	ENDS
;	COMDAT pdata
pdata	SEGMENT
$pdata$?dtor$0@?0??Run@CBaseRenderer@@UEAAJ_J@Z@4HA DD imagerel ?dtor$0@?0??Run@CBaseRenderer@@UEAAJ_J@Z@4HA
	DD	imagerel ?dtor$0@?0??Run@CBaseRenderer@@UEAAJ_J@Z@4HA+35
	DD	imagerel $unwind$?dtor$0@?0??Run@CBaseRenderer@@UEAAJ_J@Z@4HA
pdata	ENDS
;	COMDAT xdata
xdata	SEGMENT
$ip2state$?Run@CBaseRenderer@@UEAAJ_J@Z DD imagerel ?Run@CBaseRenderer@@UEAAJ_J@Z
	DD	0ffffffffH
	DD	imagerel ?Run@CBaseRenderer@@UEAAJ_J@Z+78
	DD	00H
	DD	imagerel ?Run@CBaseRenderer@@UEAAJ_J@Z+115
	DD	0ffffffffH
	DD	imagerel ?Run@CBaseRenderer@@UEAAJ_J@Z+134
	DD	00H
	DD	imagerel ?Run@CBaseRenderer@@UEAAJ_J@Z+263
	DD	0ffffffffH
	DD	imagerel ?Run@CBaseRenderer@@UEAAJ_J@Z+282
	DD	00H
	DD	imagerel ?Run@CBaseRenderer@@UEAAJ_J@Z+367
	DD	0ffffffffH
	DD	imagerel ?Run@CBaseRenderer@@UEAAJ_J@Z+386
	DD	00H
	DD	imagerel ?Run@CBaseRenderer@@UEAAJ_J@Z+916
	DD	0ffffffffH
xdata	ENDS
;	COMDAT xdata
xdata	SEGMENT
$unwind$?dtor$0@?0??Run@CBaseRenderer@@UEAAJ_J@Z@4HA DD 031001H
	DD	0700c4210H
	DD	0500bH
xdata	ENDS
;	COMDAT xdata
xdata	SEGMENT
$unwind$?Run@CBaseRenderer@@UEAAJ_J@Z DD 033211H
	DD	0120112H
	DD	0700bH
	DD	imagerel __CxxFrameHandler3
	DD	imagerel $cppxdata$?Run@CBaseRenderer@@UEAAJ_J@Z
xdata	ENDS
;	COMDAT xdata
xdata	SEGMENT
$stateUnwindMap$?Run@CBaseRenderer@@UEAAJ_J@Z DD 0ffffffffH
	DD	imagerel ?dtor$0@?0??Run@CBaseRenderer@@UEAAJ_J@Z@4HA
xdata	ENDS
;	COMDAT CONST
CONST	SEGMENT
?Run@CBaseRenderer@@UEAAJ_J@Z$rtcName$0 DB 063H		; CBaseRenderer::Run
	DB	052H
	DB	065H
	DB	06eH
	DB	064H
	DB	065H
	DB	072H
	DB	065H
	DB	072H
	DB	04cH
	DB	06fH
	DB	063H
	DB	06bH
	DB	00H
	ORG $+2
?Run@CBaseRenderer@@UEAAJ_J@Z$rtcVarDesc DD 028H	; CBaseRenderer::Run
	DD	08H
	DQ	FLAT:?Run@CBaseRenderer@@UEAAJ_J@Z$rtcName$0
	ORG $+48
?Run@CBaseRenderer@@UEAAJ_J@Z$rtcFrameData DD 01H	; CBaseRenderer::Run
	DD	00H
	DQ	FLAT:?Run@CBaseRenderer@@UEAAJ_J@Z$rtcVarDesc
$cppxdata$?Run@CBaseRenderer@@UEAAJ_J@Z DD 019930522H
	DD	01H
	DD	imagerel $stateUnwindMap$?Run@CBaseRenderer@@UEAAJ_J@Z
	DD	00H
	DD	00H
	DD	09H
	DD	imagerel $ip2state$?Run@CBaseRenderer@@UEAAJ_J@Z
	DD	050H
	DD	00H
	DD	01H
; Function compile flags: /Odtp /RTCsu
CONST	ENDS
;	COMDAT ?Run@CBaseRenderer@@UEAAJ_J@Z
_TEXT	SEGMENT
cRendererLock$ = 40
OldState$ = 52
hr$ = 56
$T84968 = 60
$T84971 = 64
$T84972 = 68
$T84973 = 72
$T84979 = 80
tv136 = 88
tv258 = 96
tv257 = 104
tv233 = 112
tv255 = 120
tv65 = 128
this$ = 160
StartTime$ = 168
?Run@CBaseRenderer@@UEAAJ_J@Z PROC			; CBaseRenderer::Run, COMDAT
; Line 520
$LN16:
	mov	QWORD PTR [rsp+16], rdx
	mov	QWORD PTR [rsp+8], rcx
	push	rdi
	sub	rsp, 144				; 00000090H
	mov	rdi, rsp
	mov	ecx, 36					; 00000024H
	mov	eax, -858993460				; ccccccccH
	rep stosd
	mov	rcx, QWORD PTR [rsp+160]
	mov	QWORD PTR $T84979[rsp], -2
; Line 521
	mov	rax, QWORD PTR this$[rsp]
	add	rax, 168				; 000000a8H
	mov	rdx, rax
	lea	rcx, QWORD PTR cRendererLock$[rsp]
	call	??0CAutoLock@@QEAA@PEAVCCritSec@@@Z	; CAutoLock::CAutoLock
	npad	1
; Line 522
	mov	rax, QWORD PTR this$[rsp]
	mov	eax, DWORD PTR [rax+16]
	mov	DWORD PTR OldState$[rsp], eax
; Line 526
	mov	rax, QWORD PTR this$[rsp]
	cmp	DWORD PTR [rax+16], 2
	jne	SHORT $LN10@Run
; Line 527
	mov	DWORD PTR $T84968[rsp], 0
	lea	rcx, QWORD PTR cRendererLock$[rsp]
	call	??1CAutoLock@@QEAA@XZ			; CAutoLock::~CAutoLock
	mov	eax, DWORD PTR $T84968[rsp]
	jmp	$LN11@Run
$LN10@Run:
; Line 532
	mov	rax, QWORD PTR this$[rsp]
	mov	rcx, QWORD PTR [rax+160]
	call	?IsConnected@CBasePin@@QEAAHXZ		; CBasePin::IsConnected
	test	eax, eax
	jne	SHORT $LN9@Run
; Line 533
	mov	rax, QWORD PTR this$[rsp]
	sub	rax, 32					; 00000020H
	test	rax, rax
	je	SHORT $LN13@Run
	mov	rax, QWORD PTR this$[rsp]
	sub	rax, 32					; 00000020H
	add	rax, 32					; 00000020H
	mov	QWORD PTR tv136[rsp], rax
	jmp	SHORT $LN14@Run
$LN13@Run:
	mov	QWORD PTR tv136[rsp], 0
$LN14@Run:
	mov	rax, QWORD PTR this$[rsp]
	sub	rax, 32					; 00000020H
	mov	r9, QWORD PTR tv136[rsp]
	xor	r8d, r8d
	mov	edx, 1
	mov	rcx, rax
	call	?NotifyEvent@CBaseFilter@@QEAAJJ_J0@Z	; CBaseFilter::NotifyEvent
; Line 534
	mov	rax, QWORD PTR this$[rsp]
	mov	DWORD PTR [rax+16], 2
; Line 535
	mov	DWORD PTR $T84971[rsp], 0
	lea	rcx, QWORD PTR cRendererLock$[rsp]
	call	??1CAutoLock@@QEAA@XZ			; CAutoLock::~CAutoLock
	mov	eax, DWORD PTR $T84971[rsp]
	jmp	$LN11@Run
$LN9@Run:
; Line 538
	mov	rax, QWORD PTR this$[rsp]
	sub	rax, 32					; 00000020H
	mov	rcx, rax
	call	?Ready@CBaseRenderer@@QEAAXXZ		; CBaseRenderer::Ready
; Line 542
	mov	rax, QWORD PTR this$[rsp]
	mov	rdx, QWORD PTR StartTime$[rsp]
	mov	rcx, rax
	call	?Run@CBaseFilter@@UEAAJ_J@Z		; CBaseFilter::Run
	mov	DWORD PTR hr$[rsp], eax
; Line 543
	cmp	DWORD PTR hr$[rsp], 0
	jge	SHORT $LN8@Run
; Line 544
	lea	r8, OFFSET FLAT:$SG82462
	mov	edx, 5
	mov	ecx, 2
	call	?DbgLogInfo@@YAXKKPEB_WZZ		; DbgLogInfo
; Line 545
	mov	eax, DWORD PTR hr$[rsp]
	mov	DWORD PTR $T84972[rsp], eax
	lea	rcx, QWORD PTR cRendererLock$[rsp]
	call	??1CAutoLock@@QEAA@XZ			; CAutoLock::~CAutoLock
	mov	eax, DWORD PTR $T84972[rsp]
	jmp	$LN11@Run
$LN8@Run:
; Line 549
	mov	rax, QWORD PTR this$[rsp]
	mov	rcx, QWORD PTR [rax+160]
	call	?IsFlushing@CBaseInputPin@@QEAAHXZ	; CBaseInputPin::IsFlushing
	test	eax, eax
	je	SHORT $LN7@Run
	mov	r8d, 549				; 00000225H
	lea	rdx, OFFSET FLAT:$SG82465
	lea	rcx, OFFSET FLAT:$SG82466
	call	?DbgAssert@@YAXPEB_W0H@Z		; DbgAssert
$LN7@Run:
; Line 550
	mov	rax, QWORD PTR this$[rsp]
	sub	rax, 32					; 00000020H
	mov	rcx, QWORD PTR this$[rsp]
	mov	rcx, QWORD PTR [rcx-32]
	mov	QWORD PTR tv258[rsp], rcx
	mov	edx, 1
	mov	rcx, rax
	mov	rax, QWORD PTR tv258[rsp]
	call	QWORD PTR [rax+80]
; Line 551
	mov	rax, QWORD PTR this$[rsp]
	sub	rax, 32					; 00000020H
	xor	edx, edx
	mov	rcx, rax
	call	?SetRepaintStatus@CBaseRenderer@@QEAAXH@Z ; CBaseRenderer::SetRepaintStatus
; Line 554
	mov	rax, QWORD PTR this$[rsp]
	sub	rax, 32					; 00000020H
	mov	rcx, QWORD PTR this$[rsp]
	mov	rcx, QWORD PTR [rcx-32]
	mov	QWORD PTR tv257[rsp], rcx
	mov	rcx, rax
	mov	rax, QWORD PTR tv257[rsp]
	call	QWORD PTR [rax+216]
	cmp	eax, 1
	je	SHORT $LN6@Run
	mov	r8d, 554				; 0000022aH
	lea	rdx, OFFSET FLAT:$SG82469
	lea	rcx, OFFSET FLAT:$SG82470
	call	?DbgAssert@@YAXPEB_W0H@Z		; DbgAssert
$LN6@Run:
; Line 555
	mov	rax, QWORD PTR this$[rsp]
	add	rax, 104				; 00000068H
	mov	rcx, rax
	call	??BCAMEvent@@QEBAPEAXXZ			; CAMEvent::operator void * __ptr64
	xor	edx, edx
	mov	rcx, rax
	call	QWORD PTR __imp_WaitForSingleObject
	cmp	eax, 258				; 00000102H
	je	SHORT $LN5@Run
	mov	r8d, 555				; 0000022bH
	lea	rdx, OFFSET FLAT:$SG82473
	lea	rcx, OFFSET FLAT:$SG82474
	call	?DbgAssert@@YAXPEB_W0H@Z		; DbgAssert
$LN5@Run:
; Line 556
	mov	rax, QWORD PTR this$[rsp]
	cmp	DWORD PTR [rax+304], 0
	je	SHORT $LN4@Run
	mov	r8d, 556				; 0000022cH
	lea	rdx, OFFSET FLAT:$SG82476
	lea	rcx, OFFSET FLAT:$SG82477
	call	?DbgAssert@@YAXPEB_W0H@Z		; DbgAssert
$LN4@Run:
; Line 557
	mov	rax, QWORD PTR this$[rsp]
	mov	rcx, QWORD PTR [rax+160]
	call	?IsFlushing@CBaseInputPin@@QEAAHXZ	; CBaseInputPin::IsFlushing
	test	eax, eax
	je	SHORT $LN3@Run
	mov	r8d, 557				; 0000022dH
	lea	rdx, OFFSET FLAT:$SG82479
	lea	rcx, OFFSET FLAT:$SG82480
	call	?DbgAssert@@YAXPEB_W0H@Z		; DbgAssert
$LN3@Run:
; Line 563
	mov	rax, QWORD PTR this$[rsp]
	mov	rcx, QWORD PTR [rax+160]
	call	?Allocator@CRendererInputPin@@QEBAPEAUIMemAllocator@@XZ ; CRendererInputPin::Allocator
	test	rax, rax
	je	SHORT $LN2@Run
; Line 564
	mov	rax, QWORD PTR this$[rsp]
	mov	rcx, QWORD PTR [rax+160]
	call	?Allocator@CRendererInputPin@@QEBAPEAUIMemAllocator@@XZ ; CRendererInputPin::Allocator
	mov	QWORD PTR tv233[rsp], rax
	mov	rax, QWORD PTR tv233[rsp]
	mov	rax, QWORD PTR [rax]
	mov	rcx, QWORD PTR tv233[rsp]
	call	QWORD PTR [rax+40]
$LN2@Run:
; Line 573
	cmp	DWORD PTR OldState$[rsp], 0
	jne	SHORT $LN1@Run
; Line 574
	mov	rax, QWORD PTR this$[rsp]
	mov	DWORD PTR [rax+128], 0
; Line 575
	mov	rax, QWORD PTR this$[rsp]
	sub	rax, 32					; 00000020H
	mov	rcx, QWORD PTR this$[rsp]
	mov	rcx, QWORD PTR [rcx-32]
	mov	QWORD PTR tv255[rsp], rcx
	mov	rcx, rax
	mov	rax, QWORD PTR tv255[rsp]
	call	QWORD PTR [rax+224]
$LN1@Run:
; Line 577
	mov	rax, QWORD PTR this$[rsp]
	sub	rax, 32					; 00000020H
	mov	rcx, QWORD PTR this$[rsp]
	mov	rcx, QWORD PTR [rcx-32]
	mov	QWORD PTR tv65[rsp], rcx
	mov	rcx, rax
	mov	rax, QWORD PTR tv65[rsp]
	call	QWORD PTR [rax+248]
	mov	DWORD PTR $T84973[rsp], eax
	lea	rcx, QWORD PTR cRendererLock$[rsp]
	call	??1CAutoLock@@QEAA@XZ			; CAutoLock::~CAutoLock
	mov	eax, DWORD PTR $T84973[rsp]
$LN11@Run:
; Line 578
	mov	rdi, rax
	mov	rcx, rsp
	lea	rdx, OFFSET FLAT:?Run@CBaseRenderer@@UEAAJ_J@Z$rtcFrameData
	call	_RTC_CheckStackVars
	mov	rax, rdi
	add	rsp, 144				; 00000090H
	pop	rdi
	ret	0
?Run@CBaseRenderer@@UEAAJ_J@Z ENDP			; CBaseRenderer::Run
; Function compile flags: /Odtp /RTCsu
_TEXT	ENDS
;	COMDAT text$x
text$x	SEGMENT
cRendererLock$ = 40
OldState$ = 52
hr$ = 56
$T84968 = 60
$T84971 = 64
$T84972 = 68
$T84973 = 72
$T84979 = 80
tv136 = 88
tv258 = 96
tv257 = 104
tv233 = 112
tv255 = 120
tv65 = 128
this$ = 160
StartTime$ = 168
?dtor$0@?0??Run@CBaseRenderer@@UEAAJ_J@Z@4HA PROC	; `CBaseRenderer::Run'::`1'::dtor$0
	mov	QWORD PTR [rsp+8], rcx
	mov	QWORD PTR [rsp+16], rdx
	push	rbp
	push	rdi
	sub	rsp, 40					; 00000028H
	mov	rbp, rdx
	lea	rcx, QWORD PTR cRendererLock$[rbp]
	call	??1CAutoLock@@QEAA@XZ			; CAutoLock::~CAutoLock
	add	rsp, 40					; 00000028H
	pop	rdi
	pop	rbp
	ret	0
?dtor$0@?0??Run@CBaseRenderer@@UEAAJ_J@Z@4HA ENDP	; `CBaseRenderer::Run'::`1'::dtor$0
text$x	ENDS
;	COMDAT pdata
pdata	SEGMENT
$pdata$?GetPinCount@CBaseRenderer@@UEAAHXZ DD imagerel $LN3
	DD	imagerel $LN3+13
	DD	imagerel $unwind$?GetPinCount@CBaseRenderer@@UEAAHXZ
pdata	ENDS
;	COMDAT xdata
xdata	SEGMENT
$unwind$?GetPinCount@CBaseRenderer@@UEAAHXZ DD 010601H
	DD	07006H
; Function compile flags: /Odtp /RTCsu
xdata	ENDS
;	COMDAT ?GetPinCount@CBaseRenderer@@UEAAHXZ
_TEXT	SEGMENT
this$ = 16
?GetPinCount@CBaseRenderer@@UEAAHXZ PROC		; CBaseRenderer::GetPinCount, COMDAT
; Line 584
$LN3:
	mov	QWORD PTR [rsp+8], rcx
	push	rdi
; Line 585
	mov	eax, 1
; Line 586
	pop	rdi
	ret	0
?GetPinCount@CBaseRenderer@@UEAAHXZ ENDP		; CBaseRenderer::GetPinCount
_TEXT	ENDS
PUBLIC	??0CRendererInputPin@@QEAA@PEAVCBaseRenderer@@PEAJPEB_W@Z ; CRendererInputPin::CRendererInputPin
;	COMDAT pdata
pdata	SEGMENT
$pdata$?GetPin@CBaseRenderer@@UEAAPEAVCBasePin@@H@Z DD imagerel $LN14
	DD	imagerel $LN14+559
	DD	imagerel $unwind$?GetPin@CBaseRenderer@@UEAAPEAVCBasePin@@H@Z
pdata	ENDS
;	COMDAT pdata
pdata	SEGMENT
$pdata$?dtor$0@?0??GetPin@CBaseRenderer@@UEAAPEAVCBasePin@@H@Z@4HA DD imagerel ?dtor$0@?0??GetPin@CBaseRenderer@@UEAAPEAVCBasePin@@H@Z@4HA
	DD	imagerel ?dtor$0@?0??GetPin@CBaseRenderer@@UEAAPEAVCBasePin@@H@Z@4HA+35
	DD	imagerel $unwind$?dtor$0@?0??GetPin@CBaseRenderer@@UEAAPEAVCBasePin@@H@Z@4HA
pdata	ENDS
;	COMDAT pdata
pdata	SEGMENT
$pdata$?dtor$1@?0??GetPin@CBaseRenderer@@UEAAPEAVCBasePin@@H@Z@4HA DD imagerel ?dtor$1@?0??GetPin@CBaseRenderer@@UEAAPEAVCBasePin@@H@Z@4HA
	DD	imagerel ?dtor$1@?0??GetPin@CBaseRenderer@@UEAAPEAVCBasePin@@H@Z@4HA+35
	DD	imagerel $unwind$?dtor$1@?0??GetPin@CBaseRenderer@@UEAAPEAVCBasePin@@H@Z@4HA
pdata	ENDS
;	COMDAT xdata
xdata	SEGMENT
$ip2state$?GetPin@CBaseRenderer@@UEAAPEAVCBasePin@@H@Z DD imagerel ?GetPin@CBaseRenderer@@UEAAPEAVCBasePin@@H@Z
	DD	0ffffffffH
	DD	imagerel ?GetPin@CBaseRenderer@@UEAAPEAVCBasePin@@H@Z+80
	DD	00H
	DD	imagerel ?GetPin@CBaseRenderer@@UEAAPEAVCBasePin@@H@Z+134
	DD	0ffffffffH
	DD	imagerel ?GetPin@CBaseRenderer@@UEAAPEAVCBasePin@@H@Z+154
	DD	00H
	DD	imagerel ?GetPin@CBaseRenderer@@UEAAPEAVCBasePin@@H@Z+199
	DD	01H
	DD	imagerel ?GetPin@CBaseRenderer@@UEAAPEAVCBasePin@@H@Z+272
	DD	00H
	DD	imagerel ?GetPin@CBaseRenderer@@UEAAPEAVCBasePin@@H@Z+319
	DD	0ffffffffH
	DD	imagerel ?GetPin@CBaseRenderer@@UEAAPEAVCBasePin@@H@Z+339
	DD	00H
	DD	imagerel ?GetPin@CBaseRenderer@@UEAAPEAVCBasePin@@H@Z+468
	DD	0ffffffffH
	DD	imagerel ?GetPin@CBaseRenderer@@UEAAPEAVCBasePin@@H@Z+488
	DD	00H
	DD	imagerel ?GetPin@CBaseRenderer@@UEAAPEAVCBasePin@@H@Z+511
	DD	0ffffffffH
xdata	ENDS
;	COMDAT xdata
xdata	SEGMENT
$unwind$?dtor$1@?0??GetPin@CBaseRenderer@@UEAAPEAVCBasePin@@H@Z@4HA DD 031001H
	DD	0700c4210H
	DD	0500bH
xdata	ENDS
;	COMDAT xdata
xdata	SEGMENT
$unwind$?dtor$0@?0??GetPin@CBaseRenderer@@UEAAPEAVCBasePin@@H@Z@4HA DD 031001H
	DD	0700c4210H
	DD	0500bH
xdata	ENDS
;	COMDAT xdata
xdata	SEGMENT
$unwind$?GetPin@CBaseRenderer@@UEAAPEAVCBasePin@@H@Z DD 033411H
	DD	0160111H
	DD	0700aH
	DD	imagerel __CxxFrameHandler3
	DD	imagerel $cppxdata$?GetPin@CBaseRenderer@@UEAAPEAVCBasePin@@H@Z
xdata	ENDS
;	COMDAT xdata
xdata	SEGMENT
$stateUnwindMap$?GetPin@CBaseRenderer@@UEAAPEAVCBasePin@@H@Z DD 0ffffffffH
	DD	imagerel ?dtor$0@?0??GetPin@CBaseRenderer@@UEAAPEAVCBasePin@@H@Z@4HA
	DD	00H
	DD	imagerel ?dtor$1@?0??GetPin@CBaseRenderer@@UEAAPEAVCBasePin@@H@Z@4HA
xdata	ENDS
;	COMDAT CONST
CONST	SEGMENT
?GetPin@CBaseRenderer@@UEAAPEAVCBasePin@@H@Z$rtcName$0 DB 063H ; CBaseRenderer::GetPin
	DB	04fH
	DB	062H
	DB	06aH
	DB	065H
	DB	063H
	DB	074H
	DB	043H
	DB	072H
	DB	065H
	DB	061H
	DB	074H
	DB	069H
	DB	06fH
	DB	06eH
	DB	04cH
	DB	06fH
	DB	063H
	DB	06bH
	DB	00H
?GetPin@CBaseRenderer@@UEAAPEAVCBasePin@@H@Z$rtcName$1 DB 068H ; CBaseRenderer::GetPin
	DB	072H
	DB	00H
	ORG $+9
?GetPin@CBaseRenderer@@UEAAPEAVCBasePin@@H@Z$rtcVarDesc DD 044H ; CBaseRenderer::GetPin
	DD	04H
	DQ	FLAT:?GetPin@CBaseRenderer@@UEAAPEAVCBasePin@@H@Z$rtcName$1
	DD	028H
	DD	08H
	DQ	FLAT:?GetPin@CBaseRenderer@@UEAAPEAVCBasePin@@H@Z$rtcName$0
	ORG $+96
?GetPin@CBaseRenderer@@UEAAPEAVCBasePin@@H@Z$rtcFrameData DD 02H ; CBaseRenderer::GetPin
	DD	00H
	DQ	FLAT:?GetPin@CBaseRenderer@@UEAAPEAVCBasePin@@H@Z$rtcVarDesc
$cppxdata$?GetPin@CBaseRenderer@@UEAAPEAVCBasePin@@H@Z DD 019930522H
	DD	02H
	DD	imagerel $stateUnwindMap$?GetPin@CBaseRenderer@@UEAAPEAVCBasePin@@H@Z
	DD	00H
	DD	00H
	DD	0bH
	DD	imagerel $ip2state$?GetPin@CBaseRenderer@@UEAAPEAVCBasePin@@H@Z
	DD	098H
	DD	00H
	DD	01H
; Function compile flags: /Odtp /RTCsu
CONST	ENDS
;	COMDAT ?GetPin@CBaseRenderer@@UEAAPEAVCBasePin@@H@Z
_TEXT	SEGMENT
cObjectCreationLock$ = 40
hr$82498 = 68
$T85007 = 88
$T85008 = 96
$T85009 = 104
$T85012 = 112
$T85013 = 120
$T85014 = 128
$T85017 = 136
$T85018 = 144
$T85026 = 152
tv87 = 160
tv133 = 168
this$ = 192
n$ = 200
?GetPin@CBaseRenderer@@UEAAPEAVCBasePin@@H@Z PROC	; CBaseRenderer::GetPin, COMDAT
; Line 592
$LN14:
	mov	DWORD PTR [rsp+16], edx
	mov	QWORD PTR [rsp+8], rcx
	push	rdi
	sub	rsp, 176				; 000000b0H
	mov	rdi, rsp
	mov	ecx, 44					; 0000002cH
	mov	eax, -858993460				; ccccccccH
	rep stosd
	mov	rcx, QWORD PTR [rsp+192]
	mov	QWORD PTR $T85026[rsp], -2
; Line 593
	mov	rax, QWORD PTR this$[rsp]
	add	rax, 344				; 00000158H
	mov	rdx, rax
	lea	rcx, QWORD PTR cObjectCreationLock$[rsp]
	call	??0CAutoLock@@QEAA@PEAVCCritSec@@@Z	; CAutoLock::CAutoLock
	npad	1
; Line 596
	cmp	DWORD PTR n$[rsp], 0
	je	SHORT $LN5@GetPin
	mov	r8d, 596				; 00000254H
	lea	rdx, OFFSET FLAT:$SG82493
	lea	rcx, OFFSET FLAT:$SG82494
	call	?DbgAssert@@YAXPEB_W0H@Z		; DbgAssert
$LN5@GetPin:
; Line 598
	cmp	DWORD PTR n$[rsp], 0
	je	SHORT $LN4@GetPin
; Line 599
	mov	QWORD PTR $T85007[rsp], 0
	lea	rcx, QWORD PTR cObjectCreationLock$[rsp]
	call	??1CAutoLock@@QEAA@XZ			; CAutoLock::~CAutoLock
	mov	rax, QWORD PTR $T85007[rsp]
	jmp	$LN6@GetPin
$LN4@GetPin:
; Line 604
	mov	rax, QWORD PTR this$[rsp]
	cmp	QWORD PTR [rax+192], 0
	jne	$LN3@GetPin
; Line 609
	mov	DWORD PTR hr$82498[rsp], 0
; Line 611
	mov	ecx, 328				; 00000148H
	call	??2@YAPEAX_K@Z				; operator new
	mov	QWORD PTR $T85009[rsp], rax
	cmp	QWORD PTR $T85009[rsp], 0
	je	SHORT $LN8@GetPin
	lea	r9, OFFSET FLAT:$SG82503
	lea	r8, QWORD PTR hr$82498[rsp]
	mov	rdx, QWORD PTR this$[rsp]
	mov	rcx, QWORD PTR $T85009[rsp]
	call	??0CRendererInputPin@@QEAA@PEAVCBaseRenderer@@PEAJPEB_W@Z ; CRendererInputPin::CRendererInputPin
	mov	QWORD PTR tv87[rsp], rax
	jmp	SHORT $LN9@GetPin
$LN8@GetPin:
	mov	QWORD PTR tv87[rsp], 0
$LN9@GetPin:
	mov	rax, QWORD PTR tv87[rsp]
	mov	QWORD PTR $T85008[rsp], rax
	mov	rax, QWORD PTR this$[rsp]
	mov	rcx, QWORD PTR $T85008[rsp]
	mov	QWORD PTR [rax+192], rcx
; Line 612
	mov	rax, QWORD PTR this$[rsp]
	cmp	QWORD PTR [rax+192], 0
	jne	SHORT $LN2@GetPin
; Line 613
	mov	QWORD PTR $T85012[rsp], 0
	lea	rcx, QWORD PTR cObjectCreationLock$[rsp]
	call	??1CAutoLock@@QEAA@XZ			; CAutoLock::~CAutoLock
	mov	rax, QWORD PTR $T85012[rsp]
	jmp	$LN6@GetPin
$LN2@GetPin:
; Line 616
	cmp	DWORD PTR hr$82498[rsp], 0
	jge	$LN3@GetPin
; Line 617
	mov	rax, QWORD PTR this$[rsp]
	mov	rax, QWORD PTR [rax+192]
	mov	QWORD PTR $T85014[rsp], rax
	mov	rax, QWORD PTR $T85014[rsp]
	mov	QWORD PTR $T85013[rsp], rax
	cmp	QWORD PTR $T85013[rsp], 0
	je	SHORT $LN10@GetPin
	mov	rax, QWORD PTR $T85013[rsp]
	mov	rax, QWORD PTR [rax]
	mov	edx, 1
	mov	rcx, QWORD PTR $T85013[rsp]
	call	QWORD PTR [rax+24]
	mov	QWORD PTR tv133[rsp], rax
	jmp	SHORT $LN11@GetPin
$LN10@GetPin:
	mov	QWORD PTR tv133[rsp], 0
$LN11@GetPin:
; Line 618
	mov	rax, QWORD PTR this$[rsp]
	mov	QWORD PTR [rax+192], 0
; Line 619
	mov	QWORD PTR $T85017[rsp], 0
	lea	rcx, QWORD PTR cObjectCreationLock$[rsp]
	call	??1CAutoLock@@QEAA@XZ			; CAutoLock::~CAutoLock
	mov	rax, QWORD PTR $T85017[rsp]
	jmp	SHORT $LN6@GetPin
$LN3@GetPin:
; Line 622
	mov	rax, QWORD PTR this$[rsp]
	mov	rax, QWORD PTR [rax+192]
	mov	QWORD PTR $T85018[rsp], rax
	lea	rcx, QWORD PTR cObjectCreationLock$[rsp]
	call	??1CAutoLock@@QEAA@XZ			; CAutoLock::~CAutoLock
	mov	rax, QWORD PTR $T85018[rsp]
$LN6@GetPin:
; Line 623
	mov	rdi, rax
	mov	rcx, rsp
	lea	rdx, OFFSET FLAT:?GetPin@CBaseRenderer@@UEAAPEAVCBasePin@@H@Z$rtcFrameData
	call	_RTC_CheckStackVars
	mov	rax, rdi
	add	rsp, 176				; 000000b0H
	pop	rdi
	ret	0
?GetPin@CBaseRenderer@@UEAAPEAVCBasePin@@H@Z ENDP	; CBaseRenderer::GetPin
; Function compile flags: /Odtp /RTCsu
_TEXT	ENDS
;	COMDAT text$x
text$x	SEGMENT
cObjectCreationLock$ = 40
hr$82498 = 68
$T85007 = 88
$T85008 = 96
$T85009 = 104
$T85012 = 112
$T85013 = 120
$T85014 = 128
$T85017 = 136
$T85018 = 144
$T85026 = 152
tv87 = 160
tv133 = 168
this$ = 192
n$ = 200
?dtor$0@?0??GetPin@CBaseRenderer@@UEAAPEAVCBasePin@@H@Z@4HA PROC ; `CBaseRenderer::GetPin'::`1'::dtor$0
	mov	QWORD PTR [rsp+8], rcx
	mov	QWORD PTR [rsp+16], rdx
	push	rbp
	push	rdi
	sub	rsp, 40					; 00000028H
	mov	rbp, rdx
	lea	rcx, QWORD PTR cObjectCreationLock$[rbp]
	call	??1CAutoLock@@QEAA@XZ			; CAutoLock::~CAutoLock
	add	rsp, 40					; 00000028H
	pop	rdi
	pop	rbp
	ret	0
?dtor$0@?0??GetPin@CBaseRenderer@@UEAAPEAVCBasePin@@H@Z@4HA ENDP ; `CBaseRenderer::GetPin'::`1'::dtor$0
; Function compile flags: /Odtp /RTCsu
cObjectCreationLock$ = 40
hr$82498 = 68
$T85007 = 88
$T85008 = 96
$T85009 = 104
$T85012 = 112
$T85013 = 120
$T85014 = 128
$T85017 = 136
$T85018 = 144
$T85026 = 152
tv87 = 160
tv133 = 168
this$ = 192
n$ = 200
?dtor$1@?0??GetPin@CBaseRenderer@@UEAAPEAVCBasePin@@H@Z@4HA PROC ; `CBaseRenderer::GetPin'::`1'::dtor$1
	mov	QWORD PTR [rsp+8], rcx
	mov	QWORD PTR [rsp+16], rdx
	push	rbp
	push	rdi
	sub	rsp, 40					; 00000028H
	mov	rbp, rdx
	mov	rcx, QWORD PTR $T85009[rbp]
	call	??3@YAXPEAX@Z				; operator delete
	add	rsp, 40					; 00000028H
	pop	rdi
	pop	rbp
	ret	0
?dtor$1@?0??GetPin@CBaseRenderer@@UEAAPEAVCBasePin@@H@Z@4HA ENDP ; `CBaseRenderer::GetPin'::`1'::dtor$1
text$x	ENDS
EXTRN	__imp_lstrcmpW:PROC
;	COMDAT pdata
pdata	SEGMENT
$pdata$?FindPin@CBaseRenderer@@UEAAJPEB_WPEAPEAUIPin@@@Z DD imagerel $LN9
	DD	imagerel $LN9+258
	DD	imagerel $unwind$?FindPin@CBaseRenderer@@UEAAJPEB_WPEAPEAUIPin@@@Z
pdata	ENDS
;	COMDAT xdata
xdata	SEGMENT
$unwind$?FindPin@CBaseRenderer@@UEAAJPEB_WPEAPEAUIPin@@@Z DD 022801H
	DD	070107214H
; Function compile flags: /Odtp /RTCsu
xdata	ENDS
;	COMDAT ?FindPin@CBaseRenderer@@UEAAJPEB_WPEAPEAUIPin@@@Z
_TEXT	SEGMENT
tv133 = 32
tv85 = 40
tv84 = 48
this$ = 80
Id$ = 88
ppPin$ = 96
?FindPin@CBaseRenderer@@UEAAJPEB_WPEAPEAUIPin@@@Z PROC	; CBaseRenderer::FindPin, COMDAT
; Line 629
$LN9:
	mov	QWORD PTR [rsp+24], r8
	mov	QWORD PTR [rsp+16], rdx
	mov	QWORD PTR [rsp+8], rcx
	push	rdi
	sub	rsp, 64					; 00000040H
	mov	rdi, rsp
	mov	ecx, 16
	mov	eax, -858993460				; ccccccccH
	rep stosd
	mov	rcx, QWORD PTR [rsp+80]
; Line 630
	cmp	QWORD PTR ppPin$[rsp], 0
	jne	SHORT $LN4@FindPin
	mov	eax, -2147467261			; ffffffff80004003H
	jmp	$LN5@FindPin
$LN4@FindPin:
; Line 632
	lea	rdx, OFFSET FLAT:$SG82520
	mov	rcx, QWORD PTR Id$[rsp]
	call	QWORD PTR __imp_lstrcmpW
	test	eax, eax
	jne	$LN3@FindPin
; Line 633
	mov	rax, QWORD PTR this$[rsp]
	sub	rax, 32					; 00000020H
	mov	rcx, QWORD PTR this$[rsp]
	mov	rcx, QWORD PTR [rcx-32]
	mov	QWORD PTR tv133[rsp], rcx
	xor	edx, edx
	mov	rcx, rax
	mov	rax, QWORD PTR tv133[rsp]
	call	QWORD PTR [rax+56]
	mov	QWORD PTR tv85[rsp], rax
	cmp	QWORD PTR tv85[rsp], 0
	je	SHORT $LN7@FindPin
	mov	rax, QWORD PTR tv85[rsp]
	add	rax, 32					; 00000020H
	mov	QWORD PTR tv84[rsp], rax
	jmp	SHORT $LN8@FindPin
$LN7@FindPin:
	mov	QWORD PTR tv84[rsp], 0
$LN8@FindPin:
	mov	rax, QWORD PTR ppPin$[rsp]
	mov	rcx, QWORD PTR tv84[rsp]
	mov	QWORD PTR [rax], rcx
; Line 634
	mov	rax, QWORD PTR ppPin$[rsp]
	cmp	QWORD PTR [rax], 0
	jne	SHORT $LN2@FindPin
	mov	r8d, 634				; 0000027aH
	lea	rdx, OFFSET FLAT:$SG82522
	lea	rcx, OFFSET FLAT:$SG82523
	call	?DbgAssert@@YAXPEB_W0H@Z		; DbgAssert
$LN2@FindPin:
; Line 635
	mov	rax, QWORD PTR ppPin$[rsp]
	mov	rax, QWORD PTR [rax]
	mov	rcx, QWORD PTR ppPin$[rsp]
	mov	rcx, QWORD PTR [rcx]
	mov	rax, QWORD PTR [rax]
	call	QWORD PTR [rax+8]
; Line 636
	jmp	SHORT $LN1@FindPin
$LN3@FindPin:
; Line 637
	mov	rax, QWORD PTR ppPin$[rsp]
	mov	QWORD PTR [rax], 0
; Line 638
	mov	eax, -2147220970			; ffffffff80040216H
	jmp	SHORT $LN5@FindPin
$LN1@FindPin:
; Line 640
	xor	eax, eax
$LN5@FindPin:
; Line 641
	add	rsp, 64					; 00000040H
	pop	rdi
	ret	0
?FindPin@CBaseRenderer@@UEAAJPEB_WPEAPEAUIPin@@@Z ENDP	; CBaseRenderer::FindPin
_TEXT	ENDS
;	COMDAT pdata
pdata	SEGMENT
$pdata$?EndOfStream@CBaseRenderer@@UEAAJXZ DD imagerel $LN6
	DD	imagerel $LN6+130
	DD	imagerel $unwind$?EndOfStream@CBaseRenderer@@UEAAJXZ
pdata	ENDS
;	COMDAT xdata
xdata	SEGMENT
$unwind$?EndOfStream@CBaseRenderer@@UEAAJXZ DD 021e01H
	DD	07006320aH
; Function compile flags: /Odtp /RTCsu
xdata	ENDS
;	COMDAT ?EndOfStream@CBaseRenderer@@UEAAJXZ
_TEXT	SEGMENT
this$ = 48
?EndOfStream@CBaseRenderer@@UEAAJXZ PROC		; CBaseRenderer::EndOfStream, COMDAT
; Line 650
$LN6:
	mov	QWORD PTR [rsp+8], rcx
	push	rdi
	sub	rsp, 32					; 00000020H
	mov	rdi, rsp
	mov	ecx, 8
	mov	eax, -858993460				; ccccccccH
	rep stosd
	mov	rcx, QWORD PTR [rsp+48]
; Line 653
	mov	rax, QWORD PTR this$[rsp]
	cmp	DWORD PTR [rax+48], 0
	jne	SHORT $LN3@EndOfStrea
; Line 654
	xor	eax, eax
	jmp	SHORT $LN4@EndOfStrea
$LN3@EndOfStrea:
; Line 659
	mov	rax, QWORD PTR this$[rsp]
	mov	DWORD PTR [rax+184], 1
; Line 660
	mov	rax, QWORD PTR this$[rsp]
	cmp	QWORD PTR [rax+176], 0
	je	SHORT $LN2@EndOfStrea
; Line 661
	xor	eax, eax
	jmp	SHORT $LN4@EndOfStrea
$LN2@EndOfStrea:
; Line 668
	mov	rcx, QWORD PTR this$[rsp]
	call	?Ready@CBaseRenderer@@QEAAXXZ		; CBaseRenderer::Ready
; Line 674
	mov	rax, QWORD PTR this$[rsp]
	cmp	DWORD PTR [rax+164], 0
	je	SHORT $LN1@EndOfStrea
; Line 675
	mov	rax, QWORD PTR this$[rsp]
	mov	rax, QWORD PTR [rax]
	mov	rcx, QWORD PTR this$[rsp]
	call	QWORD PTR [rax+192]
$LN1@EndOfStrea:
; Line 677
	xor	eax, eax
$LN4@EndOfStrea:
; Line 678
	add	rsp, 32					; 00000020H
	pop	rdi
	ret	0
?EndOfStream@CBaseRenderer@@UEAAJXZ ENDP		; CBaseRenderer::EndOfStream
_TEXT	ENDS
;	COMDAT pdata
pdata	SEGMENT
$pdata$?BeginFlush@CBaseRenderer@@UEAAJXZ DD imagerel $LN4
	DD	imagerel $LN4+125
	DD	imagerel $unwind$?BeginFlush@CBaseRenderer@@UEAAJXZ
pdata	ENDS
;	COMDAT xdata
xdata	SEGMENT
$unwind$?BeginFlush@CBaseRenderer@@UEAAJXZ DD 021e01H
	DD	07006320aH
; Function compile flags: /Odtp /RTCsu
xdata	ENDS
;	COMDAT ?BeginFlush@CBaseRenderer@@UEAAJXZ
_TEXT	SEGMENT
this$ = 48
?BeginFlush@CBaseRenderer@@UEAAJXZ PROC			; CBaseRenderer::BeginFlush, COMDAT
; Line 684
$LN4:
	mov	QWORD PTR [rsp+8], rcx
	push	rdi
	sub	rsp, 32					; 00000020H
	mov	rdi, rsp
	mov	ecx, 8
	mov	eax, -858993460				; ccccccccH
	rep stosd
	mov	rcx, QWORD PTR [rsp+48]
; Line 687
	mov	rax, QWORD PTR this$[rsp]
	cmp	DWORD PTR [rax+48], 1
	jne	SHORT $LN1@BeginFlush
; Line 688
	mov	rcx, QWORD PTR this$[rsp]
	call	?NotReady@CBaseRenderer@@QEAAXXZ	; CBaseRenderer::NotReady
$LN1@BeginFlush:
; Line 691
	mov	rax, QWORD PTR this$[rsp]
	mov	rax, QWORD PTR [rax]
	xor	edx, edx
	mov	rcx, QWORD PTR this$[rsp]
	call	QWORD PTR [rax+80]
; Line 692
	mov	rax, QWORD PTR this$[rsp]
	mov	rax, QWORD PTR [rax]
	mov	rcx, QWORD PTR this$[rsp]
	call	QWORD PTR [rax+216]
; Line 693
	mov	rax, QWORD PTR this$[rsp]
	mov	rax, QWORD PTR [rax]
	mov	rcx, QWORD PTR this$[rsp]
	call	QWORD PTR [rax+224]
; Line 695
	mov	rcx, QWORD PTR this$[rsp]
	call	?WaitForReceiveToComplete@CBaseRenderer@@QEAAXXZ ; CBaseRenderer::WaitForReceiveToComplete
; Line 697
	xor	eax, eax
; Line 698
	add	rsp, 32					; 00000020H
	pop	rdi
	ret	0
?BeginFlush@CBaseRenderer@@UEAAJXZ ENDP			; CBaseRenderer::BeginFlush
_TEXT	ENDS
EXTRN	?ResetMediaTime@CRendererPosPassThru@@QEAAJXZ:PROC ; CRendererPosPassThru::ResetMediaTime
;	COMDAT pdata
pdata	SEGMENT
$pdata$?EndFlush@CBaseRenderer@@UEAAJXZ DD imagerel $LN5
	DD	imagerel $LN5+140
	DD	imagerel $unwind$?EndFlush@CBaseRenderer@@UEAAJXZ
pdata	ENDS
;	COMDAT xdata
xdata	SEGMENT
$unwind$?EndFlush@CBaseRenderer@@UEAAJXZ DD 021e01H
	DD	07006320aH
; Function compile flags: /Odtp /RTCsu
xdata	ENDS
;	COMDAT ?EndFlush@CBaseRenderer@@UEAAJXZ
_TEXT	SEGMENT
this$ = 48
?EndFlush@CBaseRenderer@@UEAAJXZ PROC			; CBaseRenderer::EndFlush, COMDAT
; Line 704
$LN5:
	mov	QWORD PTR [rsp+8], rcx
	push	rdi
	sub	rsp, 32					; 00000020H
	mov	rdi, rsp
	mov	ecx, 8
	mov	eax, -858993460				; ccccccccH
	rep stosd
	mov	rcx, QWORD PTR [rsp+48]
; Line 706
	mov	rax, QWORD PTR this$[rsp]
	cmp	QWORD PTR [rax+128], 0
	je	SHORT $LN2@EndFlush
	mov	rax, QWORD PTR this$[rsp]
	mov	rcx, QWORD PTR [rax+128]
	call	?ResetMediaTime@CRendererPosPassThru@@QEAAJXZ ; CRendererPosPassThru::ResetMediaTime
$LN2@EndFlush:
; Line 710
	mov	rax, QWORD PTR this$[rsp]
	mov	rax, QWORD PTR [rax]
	mov	rcx, QWORD PTR this$[rsp]
	call	QWORD PTR [rax+216]
	cmp	eax, 1
	je	SHORT $LN1@EndFlush
	mov	r8d, 710				; 000002c6H
	lea	rdx, OFFSET FLAT:$SG82542
	lea	rcx, OFFSET FLAT:$SG82543
	call	?DbgAssert@@YAXPEB_W0H@Z		; DbgAssert
$LN1@EndFlush:
; Line 711
	mov	rax, QWORD PTR this$[rsp]
	mov	rax, QWORD PTR [rax]
	mov	edx, 1
	mov	rcx, QWORD PTR this$[rsp]
	call	QWORD PTR [rax+80]
; Line 712
	xor	eax, eax
; Line 713
	add	rsp, 32					; 00000020H
	pop	rdi
	ret	0
?EndFlush@CBaseRenderer@@UEAAJXZ ENDP			; CBaseRenderer::EndFlush
_TEXT	ENDS
EXTRN	?CritCheckIn@@YAHPEAVCCritSec@@@Z:PROC		; CritCheckIn
;	COMDAT pdata
pdata	SEGMENT
$pdata$?CompleteConnect@CBaseRenderer@@UEAAJPEAUIPin@@@Z DD imagerel $LN7
	DD	imagerel $LN7+186
	DD	imagerel $unwind$?CompleteConnect@CBaseRenderer@@UEAAJPEAUIPin@@@Z
pdata	ENDS
;	COMDAT xdata
xdata	SEGMENT
$unwind$?CompleteConnect@CBaseRenderer@@UEAAJPEAUIPin@@@Z DD 022301H
	DD	0700b520fH
; Function compile flags: /Odtp /RTCsu
xdata	ENDS
;	COMDAT ?CompleteConnect@CBaseRenderer@@UEAAJPEAUIPin@@@Z
_TEXT	SEGMENT
hr$82552 = 32
this$ = 64
pReceivePin$ = 72
?CompleteConnect@CBaseRenderer@@UEAAJPEAUIPin@@@Z PROC	; CBaseRenderer::CompleteConnect, COMDAT
; Line 719
$LN7:
	mov	QWORD PTR [rsp+16], rdx
	mov	QWORD PTR [rsp+8], rcx
	push	rdi
	sub	rsp, 48					; 00000030H
	mov	rdi, rsp
	mov	ecx, 12
	mov	eax, -858993460				; ccccccccH
	rep stosd
	mov	rcx, QWORD PTR [rsp+64]
; Line 722
	mov	rax, QWORD PTR this$[rsp]
	add	rax, 200				; 000000c8H
	mov	rcx, rax
	call	?CritCheckIn@@YAHPEAVCCritSec@@@Z	; CritCheckIn
	test	eax, eax
	jne	SHORT $LN4@CompleteCo
	mov	r8d, 722				; 000002d2H
	lea	rdx, OFFSET FLAT:$SG82549
	lea	rcx, OFFSET FLAT:$SG82550
	call	?DbgAssert@@YAXPEB_W0H@Z		; DbgAssert
$LN4@CompleteCo:
; Line 724
	mov	rax, QWORD PTR this$[rsp]
	mov	DWORD PTR [rax+160], 0
; Line 726
	mov	rcx, QWORD PTR this$[rsp]
	call	?GetRealState@CBaseRenderer@@QEAA?AW4_FilterState@@XZ ; CBaseRenderer::GetRealState
	cmp	eax, 2
	jne	SHORT $LN3@CompleteCo
; Line 727
	mov	rax, QWORD PTR this$[rsp]
	mov	rax, QWORD PTR [rax]
	mov	rcx, QWORD PTR this$[rsp]
	call	QWORD PTR [rax+248]
	mov	DWORD PTR hr$82552[rsp], eax
; Line 728
	cmp	DWORD PTR hr$82552[rsp], 0
	jge	SHORT $LN2@CompleteCo
; Line 729
	mov	eax, DWORD PTR hr$82552[rsp]
	jmp	SHORT $LN5@CompleteCo
$LN2@CompleteCo:
; Line 732
	xor	edx, edx
	mov	rcx, QWORD PTR this$[rsp]
	call	?SetRepaintStatus@CBaseRenderer@@QEAAXH@Z ; CBaseRenderer::SetRepaintStatus
; Line 733
	jmp	SHORT $LN1@CompleteCo
$LN3@CompleteCo:
; Line 734
	mov	edx, 1
	mov	rcx, QWORD PTR this$[rsp]
	call	?SetRepaintStatus@CBaseRenderer@@QEAAXH@Z ; CBaseRenderer::SetRepaintStatus
$LN1@CompleteCo:
; Line 737
	xor	eax, eax
$LN5@CompleteCo:
; Line 738
	add	rsp, 48					; 00000030H
	pop	rdi
	ret	0
?CompleteConnect@CBaseRenderer@@UEAAJPEAUIPin@@@Z ENDP	; CBaseRenderer::CompleteConnect
_TEXT	ENDS
;	COMDAT pdata
pdata	SEGMENT
$pdata$?Active@CBaseRenderer@@UEAAJXZ DD imagerel $LN3
	DD	imagerel $LN3+10
	DD	imagerel $unwind$?Active@CBaseRenderer@@UEAAJXZ
pdata	ENDS
;	COMDAT xdata
xdata	SEGMENT
$unwind$?Active@CBaseRenderer@@UEAAJXZ DD 010601H
	DD	07006H
; Function compile flags: /Odtp /RTCsu
xdata	ENDS
;	COMDAT ?Active@CBaseRenderer@@UEAAJXZ
_TEXT	SEGMENT
this$ = 16
?Active@CBaseRenderer@@UEAAJXZ PROC			; CBaseRenderer::Active, COMDAT
; Line 744
$LN3:
	mov	QWORD PTR [rsp+8], rcx
	push	rdi
; Line 745
	xor	eax, eax
; Line 746
	pop	rdi
	ret	0
?Active@CBaseRenderer@@UEAAJXZ ENDP			; CBaseRenderer::Active
_TEXT	ENDS
;	COMDAT pdata
pdata	SEGMENT
$pdata$?Inactive@CBaseRenderer@@UEAAJXZ DD imagerel $LN4
	DD	imagerel $LN4+89
	DD	imagerel $unwind$?Inactive@CBaseRenderer@@UEAAJXZ
pdata	ENDS
;	COMDAT xdata
xdata	SEGMENT
$unwind$?Inactive@CBaseRenderer@@UEAAJXZ DD 021e01H
	DD	07006320aH
; Function compile flags: /Odtp /RTCsu
xdata	ENDS
;	COMDAT ?Inactive@CBaseRenderer@@UEAAJXZ
_TEXT	SEGMENT
this$ = 48
?Inactive@CBaseRenderer@@UEAAJXZ PROC			; CBaseRenderer::Inactive, COMDAT
; Line 752
$LN4:
	mov	QWORD PTR [rsp+8], rcx
	push	rdi
	sub	rsp, 32					; 00000020H
	mov	rdi, rsp
	mov	ecx, 8
	mov	eax, -858993460				; ccccccccH
	rep stosd
	mov	rcx, QWORD PTR [rsp+48]
; Line 753
	mov	rax, QWORD PTR this$[rsp]
	cmp	QWORD PTR [rax+128], 0
	je	SHORT $LN1@Inactive
; Line 754
	mov	rax, QWORD PTR this$[rsp]
	mov	rcx, QWORD PTR [rax+128]
	call	?ResetMediaTime@CRendererPosPassThru@@QEAAJXZ ; CRendererPosPassThru::ResetMediaTime
$LN1@Inactive:
; Line 758
	mov	rax, QWORD PTR this$[rsp]
	mov	rax, QWORD PTR [rax]
	mov	rcx, QWORD PTR this$[rsp]
	call	QWORD PTR [rax+224]
; Line 760
	xor	eax, eax
; Line 761
	add	rsp, 32					; 00000020H
	pop	rdi
	ret	0
?Inactive@CBaseRenderer@@UEAAJXZ ENDP			; CBaseRenderer::Inactive
_TEXT	ENDS
;	COMDAT pdata
pdata	SEGMENT
$pdata$?SetMediaType@CBaseRenderer@@UEAAJPEBVCMediaType@@@Z DD imagerel $LN3
	DD	imagerel $LN3+15
	DD	imagerel $unwind$?SetMediaType@CBaseRenderer@@UEAAJPEBVCMediaType@@@Z
pdata	ENDS
;	COMDAT xdata
xdata	SEGMENT
$unwind$?SetMediaType@CBaseRenderer@@UEAAJPEBVCMediaType@@@Z DD 010b01H
	DD	0700bH
; Function compile flags: /Odtp /RTCsu
xdata	ENDS
;	COMDAT ?SetMediaType@CBaseRenderer@@UEAAJPEBVCMediaType@@@Z
_TEXT	SEGMENT
this$ = 16
pmt$ = 24
?SetMediaType@CBaseRenderer@@UEAAJPEBVCMediaType@@@Z PROC ; CBaseRenderer::SetMediaType, COMDAT
; Line 767
$LN3:
	mov	QWORD PTR [rsp+16], rdx
	mov	QWORD PTR [rsp+8], rcx
	push	rdi
; Line 768
	xor	eax, eax
; Line 769
	pop	rdi
	ret	0
?SetMediaType@CBaseRenderer@@UEAAJPEBVCMediaType@@@Z ENDP ; CBaseRenderer::SetMediaType
_TEXT	ENDS
PUBLIC	?CanReconnectWhenActive@CBasePin@@QEAA_NXZ	; CBasePin::CanReconnectWhenActive
;	COMDAT pdata
pdata	SEGMENT
$pdata$?BreakConnect@CBaseRenderer@@UEAAJXZ DD imagerel $LN7
	DD	imagerel $LN7+267
	DD	imagerel $unwind$?BreakConnect@CBaseRenderer@@UEAAJXZ
pdata	ENDS
;	COMDAT xdata
xdata	SEGMENT
$unwind$?BreakConnect@CBaseRenderer@@UEAAJXZ DD 021e01H
	DD	07006320aH
; Function compile flags: /Odtp /RTCsu
xdata	ENDS
;	COMDAT ?BreakConnect@CBaseRenderer@@UEAAJXZ
_TEXT	SEGMENT
this$ = 48
?BreakConnect@CBaseRenderer@@UEAAJXZ PROC		; CBaseRenderer::BreakConnect, COMDAT
; Line 779
$LN7:
	mov	QWORD PTR [rsp+8], rcx
	push	rdi
	sub	rsp, 32					; 00000020H
	mov	rdi, rsp
	mov	ecx, 8
	mov	eax, -858993460				; ccccccccH
	rep stosd
	mov	rcx, QWORD PTR [rsp+48]
; Line 782
	mov	rax, QWORD PTR this$[rsp]
	cmp	QWORD PTR [rax+312], 0
	je	SHORT $LN4@BreakConne
; Line 783
	mov	rax, QWORD PTR this$[rsp]
	mov	rax, QWORD PTR [rax+312]
	mov	rcx, QWORD PTR this$[rsp]
	mov	rcx, QWORD PTR [rcx+312]
	mov	rax, QWORD PTR [rax]
	call	QWORD PTR [rax+16]
; Line 784
	mov	rax, QWORD PTR this$[rsp]
	mov	QWORD PTR [rax+312], 0
$LN4@BreakConne:
; Line 789
	mov	rax, QWORD PTR this$[rsp]
	mov	rcx, QWORD PTR [rax+192]
	call	?IsConnected@CBasePin@@QEAAHXZ		; CBasePin::IsConnected
	test	eax, eax
	jne	SHORT $LN3@BreakConne
; Line 790
	mov	eax, 1
	jmp	$LN5@BreakConne
$LN3@BreakConne:
; Line 794
	mov	rax, QWORD PTR this$[rsp]
	cmp	DWORD PTR [rax+48], 0
	je	SHORT $LN2@BreakConne
	mov	rax, QWORD PTR this$[rsp]
	mov	rcx, QWORD PTR [rax+192]
	call	?CanReconnectWhenActive@CBasePin@@QEAA_NXZ ; CBasePin::CanReconnectWhenActive
	movzx	eax, al
	test	eax, eax
	jne	SHORT $LN2@BreakConne
; Line 795
	mov	eax, -2147220956			; ffffffff80040224H
	jmp	SHORT $LN5@BreakConne
$LN2@BreakConne:
; Line 798
	xor	edx, edx
	mov	rcx, QWORD PTR this$[rsp]
	call	?SetRepaintStatus@CBaseRenderer@@QEAAXH@Z ; CBaseRenderer::SetRepaintStatus
; Line 799
	mov	rax, QWORD PTR this$[rsp]
	mov	rax, QWORD PTR [rax]
	mov	rcx, QWORD PTR this$[rsp]
	call	QWORD PTR [rax+200]
; Line 800
	mov	rax, QWORD PTR this$[rsp]
	mov	rax, QWORD PTR [rax]
	mov	rcx, QWORD PTR this$[rsp]
	call	QWORD PTR [rax+224]
; Line 801
	mov	rax, QWORD PTR this$[rsp]
	mov	DWORD PTR [rax+160], 0
; Line 803
	mov	rax, QWORD PTR this$[rsp]
	cmp	DWORD PTR [rax+48], 2
	jne	SHORT $LN1@BreakConne
; Line 804
	mov	rax, QWORD PTR this$[rsp]
	mov	rax, QWORD PTR [rax]
	mov	rcx, QWORD PTR this$[rsp]
	call	QWORD PTR [rax+256]
$LN1@BreakConne:
; Line 807
	xor	eax, eax
$LN5@BreakConne:
; Line 808
	add	rsp, 32					; 00000020H
	pop	rdi
	ret	0
?BreakConnect@CBaseRenderer@@UEAAJXZ ENDP		; CBaseRenderer::BreakConnect
_TEXT	ENDS
;	COMDAT pdata
; File c:\downloads\wpf mediakit - copy\src\filters\baseclasses\amfilter.h
pdata	SEGMENT
$pdata$?CanReconnectWhenActive@CBasePin@@QEAA_NXZ DD imagerel $LN3
	DD	imagerel $LN3+17
	DD	imagerel $unwind$?CanReconnectWhenActive@CBasePin@@QEAA_NXZ
pdata	ENDS
;	COMDAT xdata
xdata	SEGMENT
$unwind$?CanReconnectWhenActive@CBasePin@@QEAA_NXZ DD 010601H
	DD	07006H
; Function compile flags: /Odtp /RTCsu
xdata	ENDS
;	COMDAT ?CanReconnectWhenActive@CBasePin@@QEAA_NXZ
_TEXT	SEGMENT
this$ = 16
?CanReconnectWhenActive@CBasePin@@QEAA_NXZ PROC		; CBasePin::CanReconnectWhenActive, COMDAT
; Line 560
$LN3:
	mov	QWORD PTR [rsp+8], rcx
	push	rdi
; Line 561
	mov	rax, QWORD PTR this$[rsp]
	movzx	eax, BYTE PTR [rax+81]
; Line 562
	pop	rdi
	ret	0
?CanReconnectWhenActive@CBasePin@@QEAA_NXZ ENDP		; CBasePin::CanReconnectWhenActive
_TEXT	ENDS
;	COMDAT pdata
; File c:\downloads\wpf mediakit - copy\src\filters\baseclasses\renbase.cpp
pdata	SEGMENT
$pdata$?GetSampleTimes@CBaseRenderer@@UEAAJPEAUIMediaSample@@PEA_J1@Z DD imagerel $LN9
	DD	imagerel $LN9+235
	DD	imagerel $unwind$?GetSampleTimes@CBaseRenderer@@UEAAJPEAUIMediaSample@@PEA_J1@Z
pdata	ENDS
;	COMDAT xdata
xdata	SEGMENT
$unwind$?GetSampleTimes@CBaseRenderer@@UEAAJPEAUIMediaSample@@PEA_J1@Z DD 022d01H
	DD	070153219H
; Function compile flags: /Odtp /RTCsu
xdata	ENDS
;	COMDAT ?GetSampleTimes@CBaseRenderer@@UEAAJPEAUIMediaSample@@PEA_J1@Z
_TEXT	SEGMENT
this$ = 48
pMediaSample$ = 56
pStartTime$ = 64
pEndTime$ = 72
?GetSampleTimes@CBaseRenderer@@UEAAJPEAUIMediaSample@@PEA_J1@Z PROC ; CBaseRenderer::GetSampleTimes, COMDAT
; Line 819
$LN9:
	mov	QWORD PTR [rsp+32], r9
	mov	QWORD PTR [rsp+24], r8
	mov	QWORD PTR [rsp+16], rdx
	mov	QWORD PTR [rsp+8], rcx
	push	rdi
	sub	rsp, 32					; 00000020H
	mov	rdi, rsp
	mov	ecx, 8
	mov	eax, -858993460				; ccccccccH
	rep stosd
	mov	rcx, QWORD PTR [rsp+48]
; Line 820
	mov	rax, QWORD PTR this$[rsp]
	cmp	QWORD PTR [rax+168], 0
	je	SHORT $LN6@GetSampleT
	mov	r8d, 820				; 00000334H
	lea	rdx, OFFSET FLAT:$SG82583
	lea	rcx, OFFSET FLAT:$SG82584
	call	?DbgAssert@@YAXPEB_W0H@Z		; DbgAssert
$LN6@GetSampleT:
; Line 821
	cmp	QWORD PTR pMediaSample$[rsp], 0
	jne	SHORT $LN5@GetSampleT
	mov	r8d, 821				; 00000335H
	lea	rdx, OFFSET FLAT:$SG82586
	lea	rcx, OFFSET FLAT:$SG82587
	call	?DbgAssert@@YAXPEB_W0H@Z		; DbgAssert
$LN5@GetSampleT:
; Line 827
	mov	rax, QWORD PTR pMediaSample$[rsp]
	mov	rax, QWORD PTR [rax]
	mov	r8, QWORD PTR pEndTime$[rsp]
	mov	rdx, QWORD PTR pStartTime$[rsp]
	mov	rcx, QWORD PTR pMediaSample$[rsp]
	call	QWORD PTR [rax+40]
	test	eax, eax
	jl	SHORT $LN4@GetSampleT
; Line 828
	mov	rax, QWORD PTR pEndTime$[rsp]
	mov	rcx, QWORD PTR pStartTime$[rsp]
	mov	rcx, QWORD PTR [rcx]
	cmp	QWORD PTR [rax], rcx
	jge	SHORT $LN3@GetSampleT
; Line 829
	mov	eax, -2147220952			; ffffffff80040228H
	jmp	SHORT $LN7@GetSampleT
$LN3@GetSampleT:
; Line 831
	jmp	SHORT $LN2@GetSampleT
$LN4@GetSampleT:
; Line 833
	xor	eax, eax
	jmp	SHORT $LN7@GetSampleT
$LN2@GetSampleT:
; Line 840
	mov	rax, QWORD PTR this$[rsp]
	cmp	QWORD PTR [rax+56], 0
	jne	SHORT $LN1@GetSampleT
; Line 841
	xor	eax, eax
	jmp	SHORT $LN7@GetSampleT
$LN1@GetSampleT:
; Line 843
	mov	rax, QWORD PTR this$[rsp]
	mov	rax, QWORD PTR [rax]
	mov	r9, QWORD PTR pEndTime$[rsp]
	mov	r8, QWORD PTR pStartTime$[rsp]
	mov	rdx, QWORD PTR pMediaSample$[rsp]
	mov	rcx, QWORD PTR this$[rsp]
	call	QWORD PTR [rax+184]
$LN7@GetSampleT:
; Line 844
	add	rsp, 32					; 00000020H
	pop	rdi
	ret	0
?GetSampleTimes@CBaseRenderer@@UEAAJPEAUIMediaSample@@PEA_J1@Z ENDP ; CBaseRenderer::GetSampleTimes
_TEXT	ENDS
;	COMDAT pdata
pdata	SEGMENT
$pdata$?ShouldDrawSampleNow@CBaseRenderer@@UEAAJPEAUIMediaSample@@PEA_J1@Z DD imagerel $LN3
	DD	imagerel $LN3+28
	DD	imagerel $unwind$?ShouldDrawSampleNow@CBaseRenderer@@UEAAJPEAUIMediaSample@@PEA_J1@Z
pdata	ENDS
;	COMDAT xdata
xdata	SEGMENT
$unwind$?ShouldDrawSampleNow@CBaseRenderer@@UEAAJPEAUIMediaSample@@PEA_J1@Z DD 011501H
	DD	07015H
; Function compile flags: /Odtp /RTCsu
xdata	ENDS
;	COMDAT ?ShouldDrawSampleNow@CBaseRenderer@@UEAAJPEAUIMediaSample@@PEA_J1@Z
_TEXT	SEGMENT
this$ = 16
pMediaSample$ = 24
ptrStart$ = 32
ptrEnd$ = 40
?ShouldDrawSampleNow@CBaseRenderer@@UEAAJPEAUIMediaSample@@PEA_J1@Z PROC ; CBaseRenderer::ShouldDrawSampleNow, COMDAT
; Line 854
$LN3:
	mov	QWORD PTR [rsp+32], r9
	mov	QWORD PTR [rsp+24], r8
	mov	QWORD PTR [rsp+16], rdx
	mov	QWORD PTR [rsp+8], rcx
	push	rdi
; Line 855
	mov	eax, 1
; Line 856
	pop	rdi
	ret	0
?ShouldDrawSampleNow@CBaseRenderer@@UEAAJPEAUIMediaSample@@PEA_J1@Z ENDP ; CBaseRenderer::ShouldDrawSampleNow
_TEXT	ENDS
;	COMDAT pdata
pdata	SEGMENT
$pdata$?SignalTimerFired@CBaseRenderer@@QEAAXXZ DD imagerel $LN3
	DD	imagerel $LN3+24
	DD	imagerel $unwind$?SignalTimerFired@CBaseRenderer@@QEAAXXZ
pdata	ENDS
;	COMDAT xdata
xdata	SEGMENT
$unwind$?SignalTimerFired@CBaseRenderer@@QEAAXXZ DD 010601H
	DD	07006H
; Function compile flags: /Odtp /RTCsu
xdata	ENDS
;	COMDAT ?SignalTimerFired@CBaseRenderer@@QEAAXXZ
_TEXT	SEGMENT
this$ = 16
?SignalTimerFired@CBaseRenderer@@QEAAXXZ PROC		; CBaseRenderer::SignalTimerFired, COMDAT
; Line 864
$LN3:
	mov	QWORD PTR [rsp+8], rcx
	push	rdi
; Line 865
	mov	rax, QWORD PTR this$[rsp]
	mov	QWORD PTR [rax+168], 0
; Line 866
	pop	rdi
	ret	0
?SignalTimerFired@CBaseRenderer@@QEAAXXZ ENDP		; CBaseRenderer::SignalTimerFired
_TEXT	ENDS
;	COMDAT pdata
pdata	SEGMENT
$pdata$?CancelNotification@CBaseRenderer@@UEAAJXZ DD imagerel $LN8
	DD	imagerel $LN8+255
	DD	imagerel $unwind$?CancelNotification@CBaseRenderer@@UEAAJXZ
pdata	ENDS
;	COMDAT xdata
xdata	SEGMENT
$unwind$?CancelNotification@CBaseRenderer@@UEAAJXZ DD 021e01H
	DD	07006520aH
; Function compile flags: /Odtp /RTCsu
xdata	ENDS
;	COMDAT ?CancelNotification@CBaseRenderer@@UEAAJXZ
_TEXT	SEGMENT
dwAdvise$ = 32
tv132 = 40
this$ = 64
?CancelNotification@CBaseRenderer@@UEAAJXZ PROC		; CBaseRenderer::CancelNotification, COMDAT
; Line 878
$LN8:
	mov	QWORD PTR [rsp+8], rcx
	push	rdi
	sub	rsp, 48					; 00000030H
	mov	rdi, rsp
	mov	ecx, 12
	mov	eax, -858993460				; ccccccccH
	rep stosd
	mov	rcx, QWORD PTR [rsp+64]
; Line 879
	mov	rax, QWORD PTR this$[rsp]
	cmp	QWORD PTR [rax+168], 0
	je	SHORT $LN3@CancelNoti
	mov	rax, QWORD PTR this$[rsp]
	cmp	QWORD PTR [rax+56], 0
	jne	SHORT $LN3@CancelNoti
	mov	r8d, 879				; 0000036fH
	lea	rdx, OFFSET FLAT:$SG82610
	lea	rcx, OFFSET FLAT:$SG82611
	call	?DbgAssert@@YAXPEB_W0H@Z		; DbgAssert
$LN3@CancelNoti:
; Line 880
	mov	rax, QWORD PTR this$[rsp]
	mov	rax, QWORD PTR [rax+168]
	mov	QWORD PTR dwAdvise$[rsp], rax
; Line 884
	mov	rax, QWORD PTR this$[rsp]
	cmp	QWORD PTR [rax+168], 0
	je	SHORT $LN2@CancelNoti
; Line 885
	mov	rax, QWORD PTR this$[rsp]
	mov	rax, QWORD PTR [rax+56]
	mov	rcx, QWORD PTR this$[rsp]
	mov	rcx, QWORD PTR [rcx+56]
	mov	rax, QWORD PTR [rax]
	mov	rdx, QWORD PTR this$[rsp]
	mov	rdx, QWORD PTR [rdx+168]
	call	QWORD PTR [rax+48]
; Line 886
	mov	rcx, QWORD PTR this$[rsp]
	call	?SignalTimerFired@CBaseRenderer@@QEAAXXZ ; CBaseRenderer::SignalTimerFired
; Line 887
	mov	rax, QWORD PTR this$[rsp]
	cmp	QWORD PTR [rax+168], 0
	je	SHORT $LN1@CancelNoti
	mov	r8d, 887				; 00000377H
	lea	rdx, OFFSET FLAT:$SG82615
	lea	rcx, OFFSET FLAT:$SG82616
	call	?DbgAssert@@YAXPEB_W0H@Z		; DbgAssert
$LN1@CancelNoti:
$LN2@CancelNoti:
; Line 892
	mov	rax, QWORD PTR this$[rsp]
	add	rax, 136				; 00000088H
	mov	rcx, rax
	call	?Reset@CAMEvent@@QEAAXXZ		; CAMEvent::Reset
; Line 893
	cmp	QWORD PTR dwAdvise$[rsp], 0
	je	SHORT $LN6@CancelNoti
	mov	DWORD PTR tv132[rsp], 0
	jmp	SHORT $LN7@CancelNoti
$LN6@CancelNoti:
	mov	DWORD PTR tv132[rsp], 1
$LN7@CancelNoti:
	mov	eax, DWORD PTR tv132[rsp]
; Line 894
	add	rsp, 48					; 00000030H
	pop	rdi
	ret	0
?CancelNotification@CBaseRenderer@@UEAAJXZ ENDP		; CBaseRenderer::CancelNotification
_TEXT	ENDS
;	COMDAT pdata
pdata	SEGMENT
$pdata$?ScheduleSample@CBaseRenderer@@UEAAHPEAUIMediaSample@@@Z DD imagerel $LN12
	DD	imagerel $LN12+584
	DD	imagerel $unwind$?ScheduleSample@CBaseRenderer@@UEAAHPEAUIMediaSample@@@Z
pdata	ENDS
;	COMDAT xdata
xdata	SEGMENT
$unwind$?ScheduleSample@CBaseRenderer@@UEAAHPEAUIMediaSample@@@Z DD 032901H
	DD	0120112H
	DD	0700bH
xdata	ENDS
;	COMDAT CONST
CONST	SEGMENT
?ScheduleSample@CBaseRenderer@@UEAAHPEAUIMediaSample@@@Z$rtcName$0 DB 053H ; CBaseRenderer::ScheduleSample
	DB	074H
	DB	061H
	DB	072H
	DB	074H
	DB	053H
	DB	061H
	DB	06dH
	DB	070H
	DB	06cH
	DB	065H
	DB	00H
	ORG $+4
?ScheduleSample@CBaseRenderer@@UEAAHPEAUIMediaSample@@@Z$rtcName$1 DB 045H ; CBaseRenderer::ScheduleSample
	DB	06eH
	DB	064H
	DB	053H
	DB	061H
	DB	06dH
	DB	070H
	DB	06cH
	DB	065H
	DB	00H
	ORG $+6
?ScheduleSample@CBaseRenderer@@UEAAHPEAUIMediaSample@@@Z$rtcVarDesc DD 058H ; CBaseRenderer::ScheduleSample
	DD	08H
	DQ	FLAT:?ScheduleSample@CBaseRenderer@@UEAAHPEAUIMediaSample@@@Z$rtcName$1
	DD	038H
	DD	08H
	DQ	FLAT:?ScheduleSample@CBaseRenderer@@UEAAHPEAUIMediaSample@@@Z$rtcName$0
	ORG $+96
?ScheduleSample@CBaseRenderer@@UEAAHPEAUIMediaSample@@@Z$rtcFrameData DD 02H ; CBaseRenderer::ScheduleSample
	DD	00H
	DQ	FLAT:?ScheduleSample@CBaseRenderer@@UEAAHPEAUIMediaSample@@@Z$rtcVarDesc
; Function compile flags: /Odtp /RTCsu
CONST	ENDS
;	COMDAT ?ScheduleSample@CBaseRenderer@@UEAAHPEAUIMediaSample@@@Z
_TEXT	SEGMENT
StartSample$ = 56
EndSample$ = 88
hr$ = 100
tv151 = 104
tv155 = 112
tv147 = 120
tv172 = 128
this$ = 160
pMediaSample$ = 168
?ScheduleSample@CBaseRenderer@@UEAAHPEAUIMediaSample@@@Z PROC ; CBaseRenderer::ScheduleSample, COMDAT
; Line 903
$LN12:
	mov	QWORD PTR [rsp+16], rdx
	mov	QWORD PTR [rsp+8], rcx
	push	rdi
	sub	rsp, 144				; 00000090H
	mov	rdi, rsp
	mov	ecx, 36					; 00000024H
	mov	eax, -858993460				; ccccccccH
	rep stosd
	mov	rcx, QWORD PTR [rsp+160]
; Line 908
	cmp	QWORD PTR pMediaSample$[rsp], 0
	jne	SHORT $LN9@ScheduleSa
; Line 909
	xor	eax, eax
	jmp	$LN10@ScheduleSa
$LN9@ScheduleSa:
; Line 917
	mov	rax, QWORD PTR this$[rsp]
	mov	rax, QWORD PTR [rax]
	lea	r9, QWORD PTR EndSample$[rsp]
	lea	r8, QWORD PTR StartSample$[rsp]
	mov	rdx, QWORD PTR pMediaSample$[rsp]
	mov	rcx, QWORD PTR this$[rsp]
	call	QWORD PTR [rax+176]
	mov	DWORD PTR hr$[rsp], eax
; Line 918
	cmp	DWORD PTR hr$[rsp], 0
	jge	SHORT $LN8@ScheduleSa
; Line 919
	xor	eax, eax
	jmp	$LN10@ScheduleSa
$LN8@ScheduleSa:
; Line 926
	cmp	DWORD PTR hr$[rsp], 0
	jne	SHORT $LN7@ScheduleSa
; Line 927
	mov	rax, QWORD PTR this$[rsp]
	add	rax, 136				; 00000088H
	mov	rcx, rax
	call	??BCAMEvent@@QEBAPEAXXZ			; CAMEvent::operator void * __ptr64
	mov	rcx, rax
	call	QWORD PTR __imp_SetEvent
	test	eax, eax
	jne	SHORT $LN6@ScheduleSa
	mov	r8d, 927				; 0000039fH
	lea	rdx, OFFSET FLAT:$SG82633
	lea	rcx, OFFSET FLAT:$SG82634
	call	?DbgAssert@@YAXPEB_W0H@Z		; DbgAssert
$LN6@ScheduleSa:
; Line 928
	mov	eax, 1
	jmp	$LN10@ScheduleSa
$LN7@ScheduleSa:
; Line 931
	mov	rax, QWORD PTR this$[rsp]
	cmp	QWORD PTR [rax+168], 0
	je	SHORT $LN5@ScheduleSa
	mov	r8d, 931				; 000003a3H
	lea	rdx, OFFSET FLAT:$SG82636
	lea	rcx, OFFSET FLAT:$SG82637
	call	?DbgAssert@@YAXPEB_W0H@Z		; DbgAssert
$LN5@ScheduleSa:
; Line 932
	mov	rax, QWORD PTR this$[rsp]
	cmp	QWORD PTR [rax+56], 0
	jne	SHORT $LN4@ScheduleSa
	mov	r8d, 932				; 000003a4H
	lea	rdx, OFFSET FLAT:$SG82639
	lea	rcx, OFFSET FLAT:$SG82640
	call	?DbgAssert@@YAXPEB_W0H@Z		; DbgAssert
$LN4@ScheduleSa:
; Line 933
	mov	rax, QWORD PTR this$[rsp]
	add	rax, 136				; 00000088H
	mov	rcx, rax
	call	??BCAMEvent@@QEBAPEAXXZ			; CAMEvent::operator void * __ptr64
	xor	edx, edx
	mov	rcx, rax
	call	QWORD PTR __imp_WaitForSingleObject
	cmp	eax, 258				; 00000102H
	je	SHORT $LN3@ScheduleSa
	mov	r8d, 933				; 000003a5H
	lea	rdx, OFFSET FLAT:$SG82643
	lea	rcx, OFFSET FLAT:$SG82644
	call	?DbgAssert@@YAXPEB_W0H@Z		; DbgAssert
$LN3@ScheduleSa:
; Line 944
	mov	rax, QWORD PTR this$[rsp]
	add	rax, 168				; 000000a8H
	mov	QWORD PTR tv151[rsp], rax
	mov	rcx, QWORD PTR this$[rsp]
	add	rcx, 136				; 00000088H
	call	??BCAMEvent@@QEBAPEAXXZ			; CAMEvent::operator void * __ptr64
	mov	QWORD PTR tv155[rsp], rax
	mov	rcx, QWORD PTR this$[rsp]
	add	rcx, 64					; 00000040H
	call	??BCRefTime@@QEBA_JXZ			; CRefTime::operator __int64
	mov	rcx, QWORD PTR this$[rsp]
	mov	rcx, QWORD PTR [rcx+56]
	mov	rdx, QWORD PTR this$[rsp]
	mov	rdx, QWORD PTR [rdx+56]
	mov	QWORD PTR tv147[rsp], rdx
	mov	rcx, QWORD PTR [rcx]
	mov	QWORD PTR tv172[rsp], rcx
	mov	r8, QWORD PTR tv151[rsp]
	mov	QWORD PTR [rsp+32], r8
	mov	r8, QWORD PTR tv155[rsp]
	mov	r9, r8
	mov	r8, QWORD PTR StartSample$[rsp]
	mov	rdx, rax
	mov	rax, QWORD PTR tv147[rsp]
	mov	rcx, rax
	mov	rax, QWORD PTR tv172[rsp]
	call	QWORD PTR [rax+32]
	mov	DWORD PTR hr$[rsp], eax
; Line 946
	cmp	DWORD PTR hr$[rsp], 0
	jl	SHORT $LN2@ScheduleSa
; Line 947
	mov	eax, 1
	jmp	SHORT $LN10@ScheduleSa
$LN2@ScheduleSa:
; Line 954
	mov	rax, QWORD PTR this$[rsp]
	cmp	QWORD PTR [rax+168], 0
	je	SHORT $LN1@ScheduleSa
	mov	r8d, 954				; 000003baH
	lea	rdx, OFFSET FLAT:$SG82651
	lea	rcx, OFFSET FLAT:$SG82652
	call	?DbgAssert@@YAXPEB_W0H@Z		; DbgAssert
$LN1@ScheduleSa:
; Line 955
	xor	eax, eax
$LN10@ScheduleSa:
; Line 956
	mov	rdi, rax
	mov	rcx, rsp
	lea	rdx, OFFSET FLAT:?ScheduleSample@CBaseRenderer@@UEAAHPEAUIMediaSample@@@Z$rtcFrameData
	call	_RTC_CheckStackVars
	mov	rax, rdi
	add	rsp, 144				; 00000090H
	pop	rdi
	ret	0
?ScheduleSample@CBaseRenderer@@UEAAHPEAUIMediaSample@@@Z ENDP ; CBaseRenderer::ScheduleSample
_TEXT	ENDS
;	COMDAT pdata
pdata	SEGMENT
$pdata$?Render@CBaseRenderer@@UEAAJPEAUIMediaSample@@@Z DD imagerel $LN5
	DD	imagerel $LN5+145
	DD	imagerel $unwind$?Render@CBaseRenderer@@UEAAJPEAUIMediaSample@@@Z
pdata	ENDS
;	COMDAT xdata
xdata	SEGMENT
$unwind$?Render@CBaseRenderer@@UEAAJPEAUIMediaSample@@@Z DD 022301H
	DD	0700b320fH
; Function compile flags: /Odtp /RTCsu
xdata	ENDS
;	COMDAT ?Render@CBaseRenderer@@UEAAJPEAUIMediaSample@@@Z
_TEXT	SEGMENT
this$ = 48
pMediaSample$ = 56
?Render@CBaseRenderer@@UEAAJPEAUIMediaSample@@@Z PROC	; CBaseRenderer::Render, COMDAT
; Line 965
$LN5:
	mov	QWORD PTR [rsp+16], rdx
	mov	QWORD PTR [rsp+8], rcx
	push	rdi
	sub	rsp, 32					; 00000020H
	mov	rdi, rsp
	mov	ecx, 8
	mov	eax, -858993460				; ccccccccH
	rep stosd
	mov	rcx, QWORD PTR [rsp+48]
; Line 970
	cmp	QWORD PTR pMediaSample$[rsp], 0
	jne	SHORT $LN2@Render
; Line 971
	mov	eax, 1
	jmp	SHORT $LN3@Render
$LN2@Render:
; Line 978
	mov	rax, QWORD PTR this$[rsp]
	cmp	DWORD PTR [rax+164], 0
	jne	SHORT $LN1@Render
; Line 979
	mov	eax, 1
	jmp	SHORT $LN3@Render
$LN1@Render:
; Line 984
	mov	rax, QWORD PTR this$[rsp]
	mov	rax, QWORD PTR [rax]
	mov	rdx, QWORD PTR pMediaSample$[rsp]
	mov	rcx, QWORD PTR this$[rsp]
	call	QWORD PTR [rax+112]
; Line 985
	mov	rax, QWORD PTR this$[rsp]
	mov	rax, QWORD PTR [rax]
	mov	rdx, QWORD PTR pMediaSample$[rsp]
	mov	rcx, QWORD PTR this$[rsp]
	call	QWORD PTR [rax+344]
; Line 986
	mov	rax, QWORD PTR this$[rsp]
	mov	rax, QWORD PTR [rax]
	mov	rdx, QWORD PTR pMediaSample$[rsp]
	mov	rcx, QWORD PTR this$[rsp]
	call	QWORD PTR [rax+120]
; Line 988
	xor	eax, eax
$LN3@Render:
; Line 989
	add	rsp, 32					; 00000020H
	pop	rdi
	ret	0
?Render@CBaseRenderer@@UEAAJPEAUIMediaSample@@@Z ENDP	; CBaseRenderer::Render
_TEXT	ENDS
;	COMDAT pdata
pdata	SEGMENT
$pdata$?HaveCurrentSample@CBaseRenderer@@UEAAHXZ DD imagerel $LN6
	DD	imagerel $LN6+134
	DD	imagerel $unwind$?HaveCurrentSample@CBaseRenderer@@UEAAHXZ
pdata	ENDS
;	COMDAT xdata
xdata	SEGMENT
$unwind$?HaveCurrentSample@CBaseRenderer@@UEAAHXZ DD 021e01H
	DD	07006720aH
xdata	ENDS
;	COMDAT CONST
CONST	SEGMENT
?HaveCurrentSample@CBaseRenderer@@UEAAHXZ$rtcName$0 DB 063H ; CBaseRenderer::HaveCurrentSample
	DB	052H
	DB	065H
	DB	06eH
	DB	064H
	DB	065H
	DB	072H
	DB	065H
	DB	072H
	DB	04cH
	DB	06fH
	DB	063H
	DB	06bH
	DB	00H
	ORG $+2
?HaveCurrentSample@CBaseRenderer@@UEAAHXZ$rtcVarDesc DD 028H ; CBaseRenderer::HaveCurrentSample
	DD	08H
	DQ	FLAT:?HaveCurrentSample@CBaseRenderer@@UEAAHXZ$rtcName$0
	ORG $+48
?HaveCurrentSample@CBaseRenderer@@UEAAHXZ$rtcFrameData DD 01H ; CBaseRenderer::HaveCurrentSample
	DD	00H
	DQ	FLAT:?HaveCurrentSample@CBaseRenderer@@UEAAHXZ$rtcVarDesc
; Function compile flags: /Odtp /RTCsu
CONST	ENDS
;	COMDAT ?HaveCurrentSample@CBaseRenderer@@UEAAHXZ
_TEXT	SEGMENT
cRendererLock$ = 40
$T85173 = 52
tv71 = 56
this$ = 80
?HaveCurrentSample@CBaseRenderer@@UEAAHXZ PROC		; CBaseRenderer::HaveCurrentSample, COMDAT
; Line 995
$LN6:
	mov	QWORD PTR [rsp+8], rcx
	push	rdi
	sub	rsp, 64					; 00000040H
	mov	rdi, rsp
	mov	ecx, 16
	mov	eax, -858993460				; ccccccccH
	rep stosd
	mov	rcx, QWORD PTR [rsp+80]
; Line 996
	mov	rax, QWORD PTR this$[rsp]
	add	rax, 256				; 00000100H
	mov	rdx, rax
	lea	rcx, QWORD PTR cRendererLock$[rsp]
	call	??0CAutoLock@@QEAA@PEAVCCritSec@@@Z	; CAutoLock::CAutoLock
; Line 997
	mov	rax, QWORD PTR this$[rsp]
	cmp	QWORD PTR [rax+176], 0
	jne	SHORT $LN3@HaveCurren
	mov	DWORD PTR tv71[rsp], 0
	jmp	SHORT $LN4@HaveCurren
$LN3@HaveCurren:
	mov	DWORD PTR tv71[rsp], 1
$LN4@HaveCurren:
	mov	eax, DWORD PTR tv71[rsp]
	mov	DWORD PTR $T85173[rsp], eax
	lea	rcx, QWORD PTR cRendererLock$[rsp]
	call	??1CAutoLock@@QEAA@XZ			; CAutoLock::~CAutoLock
	mov	eax, DWORD PTR $T85173[rsp]
; Line 998
	mov	edi, eax
	mov	rcx, rsp
	lea	rdx, OFFSET FLAT:?HaveCurrentSample@CBaseRenderer@@UEAAHXZ$rtcFrameData
	call	_RTC_CheckStackVars
	mov	eax, edi
	add	rsp, 64					; 00000040H
	pop	rdi
	ret	0
?HaveCurrentSample@CBaseRenderer@@UEAAHXZ ENDP		; CBaseRenderer::HaveCurrentSample
_TEXT	ENDS
;	COMDAT pdata
pdata	SEGMENT
$pdata$?GetCurrentSample@CBaseRenderer@@UEAAPEAUIMediaSample@@XZ DD imagerel $LN5
	DD	imagerel $LN5+168
	DD	imagerel $unwind$?GetCurrentSample@CBaseRenderer@@UEAAPEAUIMediaSample@@XZ
pdata	ENDS
;	COMDAT pdata
pdata	SEGMENT
$pdata$?dtor$0@?0??GetCurrentSample@CBaseRenderer@@UEAAPEAUIMediaSample@@XZ@4HA DD imagerel ?dtor$0@?0??GetCurrentSample@CBaseRenderer@@UEAAPEAUIMediaSample@@XZ@4HA
	DD	imagerel ?dtor$0@?0??GetCurrentSample@CBaseRenderer@@UEAAPEAUIMediaSample@@XZ@4HA+35
	DD	imagerel $unwind$?dtor$0@?0??GetCurrentSample@CBaseRenderer@@UEAAPEAUIMediaSample@@XZ@4HA
pdata	ENDS
;	COMDAT xdata
xdata	SEGMENT
$ip2state$?GetCurrentSample@CBaseRenderer@@UEAAPEAUIMediaSample@@XZ DD imagerel ?GetCurrentSample@CBaseRenderer@@UEAAPEAUIMediaSample@@XZ
	DD	0ffffffffH
	DD	imagerel ?GetCurrentSample@CBaseRenderer@@UEAAPEAUIMediaSample@@XZ+64
	DD	00H
	DD	imagerel ?GetCurrentSample@CBaseRenderer@@UEAAPEAUIMediaSample@@XZ+126
	DD	0ffffffffH
xdata	ENDS
;	COMDAT xdata
xdata	SEGMENT
$unwind$?dtor$0@?0??GetCurrentSample@CBaseRenderer@@UEAAPEAUIMediaSample@@XZ@4HA DD 031001H
	DD	0700c4210H
	DD	0500bH
xdata	ENDS
;	COMDAT xdata
xdata	SEGMENT
$unwind$?GetCurrentSample@CBaseRenderer@@UEAAPEAUIMediaSample@@XZ DD 022711H
	DD	07006920aH
	DD	imagerel __CxxFrameHandler3
	DD	imagerel $cppxdata$?GetCurrentSample@CBaseRenderer@@UEAAPEAUIMediaSample@@XZ
xdata	ENDS
;	COMDAT xdata
xdata	SEGMENT
$stateUnwindMap$?GetCurrentSample@CBaseRenderer@@UEAAPEAUIMediaSample@@XZ DD 0ffffffffH
	DD	imagerel ?dtor$0@?0??GetCurrentSample@CBaseRenderer@@UEAAPEAUIMediaSample@@XZ@4HA
xdata	ENDS
;	COMDAT CONST
CONST	SEGMENT
?GetCurrentSample@CBaseRenderer@@UEAAPEAUIMediaSample@@XZ$rtcName$0 DB 063H ; CBaseRenderer::GetCurrentSample
	DB	052H
	DB	065H
	DB	06eH
	DB	064H
	DB	065H
	DB	072H
	DB	065H
	DB	072H
	DB	04cH
	DB	06fH
	DB	063H
	DB	06bH
	DB	00H
	ORG $+2
?GetCurrentSample@CBaseRenderer@@UEAAPEAUIMediaSample@@XZ$rtcVarDesc DD 028H ; CBaseRenderer::GetCurrentSample
	DD	08H
	DQ	FLAT:?GetCurrentSample@CBaseRenderer@@UEAAPEAUIMediaSample@@XZ$rtcName$0
	ORG $+48
?GetCurrentSample@CBaseRenderer@@UEAAPEAUIMediaSample@@XZ$rtcFrameData DD 01H ; CBaseRenderer::GetCurrentSample
	DD	00H
	DQ	FLAT:?GetCurrentSample@CBaseRenderer@@UEAAPEAUIMediaSample@@XZ$rtcVarDesc
$cppxdata$?GetCurrentSample@CBaseRenderer@@UEAAPEAUIMediaSample@@XZ DD 019930522H
	DD	01H
	DD	imagerel $stateUnwindMap$?GetCurrentSample@CBaseRenderer@@UEAAPEAUIMediaSample@@XZ
	DD	00H
	DD	00H
	DD	03H
	DD	imagerel $ip2state$?GetCurrentSample@CBaseRenderer@@UEAAPEAUIMediaSample@@XZ
	DD	040H
	DD	00H
	DD	01H
; Function compile flags: /Odtp /RTCsu
CONST	ENDS
;	COMDAT ?GetCurrentSample@CBaseRenderer@@UEAAPEAUIMediaSample@@XZ
_TEXT	SEGMENT
cRendererLock$ = 40
$T85191 = 56
$T85197 = 64
this$ = 96
?GetCurrentSample@CBaseRenderer@@UEAAPEAUIMediaSample@@XZ PROC ; CBaseRenderer::GetCurrentSample, COMDAT
; Line 1007
$LN5:
	mov	QWORD PTR [rsp+8], rcx
	push	rdi
	sub	rsp, 80					; 00000050H
	mov	rdi, rsp
	mov	ecx, 20
	mov	eax, -858993460				; ccccccccH
	rep stosd
	mov	rcx, QWORD PTR [rsp+96]
	mov	QWORD PTR $T85197[rsp], -2
; Line 1008
	mov	rax, QWORD PTR this$[rsp]
	add	rax, 256				; 00000100H
	mov	rdx, rax
	lea	rcx, QWORD PTR cRendererLock$[rsp]
	call	??0CAutoLock@@QEAA@PEAVCCritSec@@@Z	; CAutoLock::CAutoLock
	npad	1
; Line 1009
	mov	rax, QWORD PTR this$[rsp]
	cmp	QWORD PTR [rax+176], 0
	je	SHORT $LN1@GetCurrent
; Line 1010
	mov	rax, QWORD PTR this$[rsp]
	mov	rax, QWORD PTR [rax+176]
	mov	rcx, QWORD PTR this$[rsp]
	mov	rcx, QWORD PTR [rcx+176]
	mov	rax, QWORD PTR [rax]
	call	QWORD PTR [rax+8]
$LN1@GetCurrent:
; Line 1012
	mov	rax, QWORD PTR this$[rsp]
	mov	rax, QWORD PTR [rax+176]
	mov	QWORD PTR $T85191[rsp], rax
	lea	rcx, QWORD PTR cRendererLock$[rsp]
	call	??1CAutoLock@@QEAA@XZ			; CAutoLock::~CAutoLock
	mov	rax, QWORD PTR $T85191[rsp]
; Line 1013
	mov	rdi, rax
	mov	rcx, rsp
	lea	rdx, OFFSET FLAT:?GetCurrentSample@CBaseRenderer@@UEAAPEAUIMediaSample@@XZ$rtcFrameData
	call	_RTC_CheckStackVars
	mov	rax, rdi
	add	rsp, 80					; 00000050H
	pop	rdi
	ret	0
?GetCurrentSample@CBaseRenderer@@UEAAPEAUIMediaSample@@XZ ENDP ; CBaseRenderer::GetCurrentSample
; Function compile flags: /Odtp /RTCsu
_TEXT	ENDS
;	COMDAT text$x
text$x	SEGMENT
cRendererLock$ = 40
$T85191 = 56
$T85197 = 64
this$ = 96
?dtor$0@?0??GetCurrentSample@CBaseRenderer@@UEAAPEAUIMediaSample@@XZ@4HA PROC ; `CBaseRenderer::GetCurrentSample'::`1'::dtor$0
	mov	QWORD PTR [rsp+8], rcx
	mov	QWORD PTR [rsp+16], rdx
	push	rbp
	push	rdi
	sub	rsp, 40					; 00000028H
	mov	rbp, rdx
	lea	rcx, QWORD PTR cRendererLock$[rbp]
	call	??1CAutoLock@@QEAA@XZ			; CAutoLock::~CAutoLock
	add	rsp, 40					; 00000028H
	pop	rdi
	pop	rbp
	ret	0
?dtor$0@?0??GetCurrentSample@CBaseRenderer@@UEAAPEAUIMediaSample@@XZ@4HA ENDP ; `CBaseRenderer::GetCurrentSample'::`1'::dtor$0
text$x	ENDS
PUBLIC	?IsActive@CBaseFilter@@QEAAHXZ			; CBaseFilter::IsActive
PUBLIC	?SampleProps@CBaseInputPin@@QEAAPEAUtagAM_SAMPLE2_PROPERTIES@@XZ ; CBaseInputPin::SampleProps
EXTRN	?RegisterMediaTime@CRendererPosPassThru@@QEAAJPEAUIMediaSample@@@Z:PROC ; CRendererPosPassThru::RegisterMediaTime
EXTRN	?Receive@CBaseInputPin@@UEAAJPEAUIMediaSample@@@Z:PROC ; CBaseInputPin::Receive
;	COMDAT pdata
pdata	SEGMENT
$pdata$?PrepareReceive@CBaseRenderer@@UEAAJPEAUIMediaSample@@@Z DD imagerel $LN19
	DD	imagerel $LN19+1173
	DD	imagerel $unwind$?PrepareReceive@CBaseRenderer@@UEAAJPEAUIMediaSample@@@Z
pdata	ENDS
;	COMDAT pdata
pdata	SEGMENT
$pdata$?dtor$0@?0??PrepareReceive@CBaseRenderer@@UEAAJPEAUIMediaSample@@@Z@4HA DD imagerel ?dtor$0@?0??PrepareReceive@CBaseRenderer@@UEAAJPEAUIMediaSample@@@Z@4HA
	DD	imagerel ?dtor$0@?0??PrepareReceive@CBaseRenderer@@UEAAJPEAUIMediaSample@@@Z@4HA+35
	DD	imagerel $unwind$?dtor$0@?0??PrepareReceive@CBaseRenderer@@UEAAJPEAUIMediaSample@@@Z@4HA
pdata	ENDS
;	COMDAT pdata
pdata	SEGMENT
$pdata$?dtor$1@?0??PrepareReceive@CBaseRenderer@@UEAAJPEAUIMediaSample@@@Z@4HA DD imagerel ?dtor$1@?0??PrepareReceive@CBaseRenderer@@UEAAJPEAUIMediaSample@@@Z@4HA
	DD	imagerel ?dtor$1@?0??PrepareReceive@CBaseRenderer@@UEAAJPEAUIMediaSample@@@Z@4HA+35
	DD	imagerel $unwind$?dtor$1@?0??PrepareReceive@CBaseRenderer@@UEAAJPEAUIMediaSample@@@Z@4HA
pdata	ENDS
;	COMDAT xdata
xdata	SEGMENT
$ip2state$?PrepareReceive@CBaseRenderer@@UEAAJPEAUIMediaSample@@@Z DD imagerel ?PrepareReceive@CBaseRenderer@@UEAAJPEAUIMediaSample@@@Z
	DD	0ffffffffH
	DD	imagerel ?PrepareReceive@CBaseRenderer@@UEAAJPEAUIMediaSample@@@Z+78
	DD	00H
	DD	imagerel ?PrepareReceive@CBaseRenderer@@UEAAJPEAUIMediaSample@@@Z+170
	DD	0ffffffffH
	DD	imagerel ?PrepareReceive@CBaseRenderer@@UEAAJPEAUIMediaSample@@@Z+189
	DD	00H
	DD	imagerel ?PrepareReceive@CBaseRenderer@@UEAAJPEAUIMediaSample@@@Z+340
	DD	0ffffffffH
	DD	imagerel ?PrepareReceive@CBaseRenderer@@UEAAJPEAUIMediaSample@@@Z+359
	DD	00H
	DD	imagerel ?PrepareReceive@CBaseRenderer@@UEAAJPEAUIMediaSample@@@Z+387
	DD	01H
	DD	imagerel ?PrepareReceive@CBaseRenderer@@UEAAJPEAUIMediaSample@@@Z+663
	DD	00H
	DD	imagerel ?PrepareReceive@CBaseRenderer@@UEAAJPEAUIMediaSample@@@Z+674
	DD	0ffffffffH
	DD	imagerel ?PrepareReceive@CBaseRenderer@@UEAAJPEAUIMediaSample@@@Z+693
	DD	01H
	DD	imagerel ?PrepareReceive@CBaseRenderer@@UEAAJPEAUIMediaSample@@@Z+947
	DD	00H
	DD	imagerel ?PrepareReceive@CBaseRenderer@@UEAAJPEAUIMediaSample@@@Z+958
	DD	0ffffffffH
	DD	imagerel ?PrepareReceive@CBaseRenderer@@UEAAJPEAUIMediaSample@@@Z+977
	DD	01H
	DD	imagerel ?PrepareReceive@CBaseRenderer@@UEAAJPEAUIMediaSample@@@Z+1118
	DD	00H
	DD	imagerel ?PrepareReceive@CBaseRenderer@@UEAAJPEAUIMediaSample@@@Z+1129
	DD	0ffffffffH
xdata	ENDS
;	COMDAT xdata
xdata	SEGMENT
$unwind$?dtor$1@?0??PrepareReceive@CBaseRenderer@@UEAAJPEAUIMediaSample@@@Z@4HA DD 031001H
	DD	0700c4210H
	DD	0500bH
xdata	ENDS
;	COMDAT xdata
xdata	SEGMENT
$unwind$?dtor$0@?0??PrepareReceive@CBaseRenderer@@UEAAJPEAUIMediaSample@@@Z@4HA DD 031001H
	DD	0700c4210H
	DD	0500bH
xdata	ENDS
;	COMDAT xdata
xdata	SEGMENT
$unwind$?PrepareReceive@CBaseRenderer@@UEAAJPEAUIMediaSample@@@Z DD 023211H
	DD	0700bf212H
	DD	imagerel __CxxFrameHandler3
	DD	imagerel $cppxdata$?PrepareReceive@CBaseRenderer@@UEAAJPEAUIMediaSample@@@Z
xdata	ENDS
;	COMDAT xdata
xdata	SEGMENT
$stateUnwindMap$?PrepareReceive@CBaseRenderer@@UEAAJPEAUIMediaSample@@@Z DD 0ffffffffH
	DD	imagerel ?dtor$0@?0??PrepareReceive@CBaseRenderer@@UEAAJPEAUIMediaSample@@@Z@4HA
	DD	00H
	DD	imagerel ?dtor$1@?0??PrepareReceive@CBaseRenderer@@UEAAJPEAUIMediaSample@@@Z@4HA
xdata	ENDS
;	COMDAT CONST
CONST	SEGMENT
?PrepareReceive@CBaseRenderer@@UEAAJPEAUIMediaSample@@@Z$rtcName$0 DB 063H ; CBaseRenderer::PrepareReceive
	DB	049H
	DB	06eH
	DB	074H
	DB	065H
	DB	072H
	DB	066H
	DB	061H
	DB	063H
	DB	065H
	DB	04cH
	DB	06fH
	DB	063H
	DB	06bH
	DB	00H
	ORG $+1
?PrepareReceive@CBaseRenderer@@UEAAJPEAUIMediaSample@@@Z$rtcName$1 DB 063H ; CBaseRenderer::PrepareReceive
	DB	053H
	DB	061H
	DB	06dH
	DB	070H
	DB	06cH
	DB	065H
	DB	04cH
	DB	06fH
	DB	063H
	DB	06bH
	DB	00H
	ORG $+4
?PrepareReceive@CBaseRenderer@@UEAAJPEAUIMediaSample@@@Z$rtcVarDesc DD 048H ; CBaseRenderer::PrepareReceive
	DD	08H
	DQ	FLAT:?PrepareReceive@CBaseRenderer@@UEAAJPEAUIMediaSample@@@Z$rtcName$1
	DD	028H
	DD	08H
	DQ	FLAT:?PrepareReceive@CBaseRenderer@@UEAAJPEAUIMediaSample@@@Z$rtcName$0
	ORG $+96
?PrepareReceive@CBaseRenderer@@UEAAJPEAUIMediaSample@@@Z$rtcFrameData DD 02H ; CBaseRenderer::PrepareReceive
	DD	00H
	DQ	FLAT:?PrepareReceive@CBaseRenderer@@UEAAJPEAUIMediaSample@@@Z$rtcVarDesc
$cppxdata$?PrepareReceive@CBaseRenderer@@UEAAJPEAUIMediaSample@@@Z DD 019930522H
	DD	02H
	DD	imagerel $stateUnwindMap$?PrepareReceive@CBaseRenderer@@UEAAJPEAUIMediaSample@@@Z
	DD	00H
	DD	00H
	DD	0fH
	DD	imagerel $ip2state$?PrepareReceive@CBaseRenderer@@UEAAJPEAUIMediaSample@@@Z
	DD	068H
	DD	00H
	DD	01H
; Function compile flags: /Odtp /RTCsu
CONST	ENDS
;	COMDAT ?PrepareReceive@CBaseRenderer@@UEAAJPEAUIMediaSample@@@Z
_TEXT	SEGMENT
cInterfaceLock$ = 40
hr$ = 52
cSampleLock$ = 72
$T85218 = 84
$T85219 = 88
$T85220 = 92
$T85221 = 96
$T85222 = 100
$T85230 = 104
tv130 = 112
tv267 = 120
this$ = 144
pMediaSample$ = 152
?PrepareReceive@CBaseRenderer@@UEAAJPEAUIMediaSample@@@Z PROC ; CBaseRenderer::PrepareReceive, COMDAT
; Line 1025
$LN19:
	mov	QWORD PTR [rsp+16], rdx
	mov	QWORD PTR [rsp+8], rcx
	push	rdi
	sub	rsp, 128				; 00000080H
	mov	rdi, rsp
	mov	ecx, 32					; 00000020H
	mov	eax, -858993460				; ccccccccH
	rep stosd
	mov	rcx, QWORD PTR [rsp+144]
	mov	QWORD PTR $T85230[rsp], -2
; Line 1026
	mov	rax, QWORD PTR this$[rsp]
	add	rax, 200				; 000000c8H
	mov	rdx, rax
	lea	rcx, QWORD PTR cInterfaceLock$[rsp]
	call	??0CAutoLock@@QEAA@PEAVCCritSec@@@Z	; CAutoLock::CAutoLock
	npad	1
; Line 1027
	mov	rax, QWORD PTR this$[rsp]
	mov	DWORD PTR [rax+324], 1
; Line 1034
	mov	rax, QWORD PTR this$[rsp]
	mov	rax, QWORD PTR [rax+192]
	add	rax, 232				; 000000e8H
	mov	rdx, QWORD PTR pMediaSample$[rsp]
	mov	rcx, rax
	call	?Receive@CBaseInputPin@@UEAAJPEAUIMediaSample@@@Z ; CBaseInputPin::Receive
	mov	DWORD PTR hr$[rsp], eax
; Line 1036
	cmp	DWORD PTR hr$[rsp], 0
	je	SHORT $LN14@PrepareRec
; Line 1037
	mov	rax, QWORD PTR this$[rsp]
	mov	DWORD PTR [rax+324], 0
; Line 1038
	mov	DWORD PTR $T85218[rsp], -2147467259	; ffffffff80004005H
	lea	rcx, QWORD PTR cInterfaceLock$[rsp]
	call	??1CAutoLock@@QEAA@XZ			; CAutoLock::~CAutoLock
	mov	eax, DWORD PTR $T85218[rsp]
	jmp	$LN15@PrepareRec
$LN14@PrepareRec:
; Line 1047
	mov	rax, QWORD PTR this$[rsp]
	mov	rcx, QWORD PTR [rax+192]
	call	?SampleProps@CBaseInputPin@@QEAAPEAUtagAM_SAMPLE2_PROPERTIES@@XZ ; CBaseInputPin::SampleProps
	cmp	QWORD PTR [rax+40], 0
	je	$LN13@PrepareRec
; Line 1049
	mov	rax, QWORD PTR this$[rsp]
	mov	rcx, QWORD PTR [rax+192]
	call	?SampleProps@CBaseInputPin@@QEAAPEAUtagAM_SAMPLE2_PROPERTIES@@XZ ; CBaseInputPin::SampleProps
	mov	rcx, QWORD PTR this$[rsp]
	mov	rcx, QWORD PTR [rcx+192]
	mov	rdx, QWORD PTR this$[rsp]
	mov	rdx, QWORD PTR [rdx+192]
	mov	QWORD PTR tv130[rsp], rdx
	mov	rcx, QWORD PTR [rcx]
	mov	QWORD PTR tv267[rsp], rcx
	mov	rdx, QWORD PTR [rax+40]
	mov	rax, QWORD PTR tv130[rsp]
	mov	rcx, rax
	mov	rax, QWORD PTR tv267[rsp]
	call	QWORD PTR [rax+72]
	mov	DWORD PTR hr$[rsp], eax
; Line 1050
	cmp	DWORD PTR hr$[rsp], 0
	jge	SHORT $LN13@PrepareRec
; Line 1051
	mov	rax, QWORD PTR this$[rsp]
	mov	DWORD PTR [rax+324], 0
; Line 1052
	mov	eax, DWORD PTR hr$[rsp]
	mov	DWORD PTR $T85219[rsp], eax
	lea	rcx, QWORD PTR cInterfaceLock$[rsp]
	call	??1CAutoLock@@QEAA@XZ			; CAutoLock::~CAutoLock
	mov	eax, DWORD PTR $T85219[rsp]
	jmp	$LN15@PrepareRec
$LN13@PrepareRec:
; Line 1057
	mov	rax, QWORD PTR this$[rsp]
	add	rax, 256				; 00000100H
	mov	rdx, rax
	lea	rcx, QWORD PTR cSampleLock$[rsp]
	call	??0CAutoLock@@QEAA@PEAVCCritSec@@@Z	; CAutoLock::CAutoLock
	npad	1
; Line 1059
	mov	rcx, QWORD PTR this$[rsp]
	call	?IsActive@CBaseFilter@@QEAAHXZ		; CBaseFilter::IsActive
	cmp	eax, 1
	je	SHORT $LN11@PrepareRec
	mov	r8d, 1059				; 00000423H
	lea	rdx, OFFSET FLAT:$SG82688
	lea	rcx, OFFSET FLAT:$SG82689
	call	?DbgAssert@@YAXPEB_W0H@Z		; DbgAssert
$LN11@PrepareRec:
; Line 1060
	mov	rax, QWORD PTR this$[rsp]
	mov	rcx, QWORD PTR [rax+192]
	call	?IsFlushing@CBaseInputPin@@QEAAHXZ	; CBaseInputPin::IsFlushing
	test	eax, eax
	je	SHORT $LN10@PrepareRec
	mov	r8d, 1060				; 00000424H
	lea	rdx, OFFSET FLAT:$SG82691
	lea	rcx, OFFSET FLAT:$SG82692
	call	?DbgAssert@@YAXPEB_W0H@Z		; DbgAssert
$LN10@PrepareRec:
; Line 1061
	mov	rax, QWORD PTR this$[rsp]
	mov	rcx, QWORD PTR [rax+192]
	call	?IsConnected@CBasePin@@QEAAHXZ		; CBasePin::IsConnected
	cmp	eax, 1
	je	SHORT $LN9@PrepareRec
	mov	r8d, 1061				; 00000425H
	lea	rdx, OFFSET FLAT:$SG82694
	lea	rcx, OFFSET FLAT:$SG82695
	call	?DbgAssert@@YAXPEB_W0H@Z		; DbgAssert
$LN9@PrepareRec:
; Line 1062
	mov	rax, QWORD PTR this$[rsp]
	cmp	QWORD PTR [rax+176], 0
	je	SHORT $LN8@PrepareRec
	mov	r8d, 1062				; 00000426H
	lea	rdx, OFFSET FLAT:$SG82697
	lea	rcx, OFFSET FLAT:$SG82698
	call	?DbgAssert@@YAXPEB_W0H@Z		; DbgAssert
$LN8@PrepareRec:
; Line 1068
	mov	rax, QWORD PTR this$[rsp]
	cmp	QWORD PTR [rax+176], 0
	jne	SHORT $LN6@PrepareRec
	mov	rax, QWORD PTR this$[rsp]
	cmp	DWORD PTR [rax+184], 0
	jne	SHORT $LN6@PrepareRec
	mov	rax, QWORD PTR this$[rsp]
	cmp	DWORD PTR [rax+160], 0
	je	SHORT $LN7@PrepareRec
$LN6@PrepareRec:
; Line 1069
	mov	rcx, QWORD PTR this$[rsp]
	call	?Ready@CBaseRenderer@@QEAAXXZ		; CBaseRenderer::Ready
; Line 1070
	mov	rax, QWORD PTR this$[rsp]
	mov	DWORD PTR [rax+324], 0
; Line 1071
	mov	DWORD PTR $T85220[rsp], -2147418113	; ffffffff8000ffffH
	lea	rcx, QWORD PTR cSampleLock$[rsp]
	call	??1CAutoLock@@QEAA@XZ			; CAutoLock::~CAutoLock
	npad	1
	lea	rcx, QWORD PTR cInterfaceLock$[rsp]
	call	??1CAutoLock@@QEAA@XZ			; CAutoLock::~CAutoLock
	mov	eax, DWORD PTR $T85220[rsp]
	jmp	$LN15@PrepareRec
$LN7@PrepareRec:
; Line 1075
	mov	rax, QWORD PTR this$[rsp]
	cmp	QWORD PTR [rax+128], 0
	je	SHORT $LN5@PrepareRec
	mov	rdx, QWORD PTR pMediaSample$[rsp]
	mov	rax, QWORD PTR this$[rsp]
	mov	rcx, QWORD PTR [rax+128]
	call	?RegisterMediaTime@CRendererPosPassThru@@QEAAJPEAUIMediaSample@@@Z ; CRendererPosPassThru::RegisterMediaTime
$LN5@PrepareRec:
; Line 1079
	mov	rax, QWORD PTR this$[rsp]
	cmp	DWORD PTR [rax+164], 1
	jne	$LN4@PrepareRec
	mov	rax, QWORD PTR this$[rsp]
	mov	rax, QWORD PTR [rax]
	mov	rdx, QWORD PTR pMediaSample$[rsp]
	mov	rcx, QWORD PTR this$[rsp]
	call	QWORD PTR [rax+168]
	test	eax, eax
	jne	$LN4@PrepareRec
; Line 1080
	mov	rax, QWORD PTR this$[rsp]
	add	rax, 136				; 00000088H
	mov	rcx, rax
	call	??BCAMEvent@@QEBAPEAXXZ			; CAMEvent::operator void * __ptr64
	xor	edx, edx
	mov	rcx, rax
	call	QWORD PTR __imp_WaitForSingleObject
	cmp	eax, 258				; 00000102H
	je	SHORT $LN3@PrepareRec
	mov	r8d, 1080				; 00000438H
	lea	rdx, OFFSET FLAT:$SG82707
	lea	rcx, OFFSET FLAT:$SG82708
	call	?DbgAssert@@YAXPEB_W0H@Z		; DbgAssert
$LN3@PrepareRec:
; Line 1081
	mov	rax, QWORD PTR this$[rsp]
	mov	rax, QWORD PTR [rax]
	mov	rcx, QWORD PTR this$[rsp]
	call	QWORD PTR [rax+216]
	cmp	eax, 1
	je	SHORT $LN2@PrepareRec
	mov	r8d, 1081				; 00000439H
	lea	rdx, OFFSET FLAT:$SG82711
	lea	rcx, OFFSET FLAT:$SG82712
	call	?DbgAssert@@YAXPEB_W0H@Z		; DbgAssert
$LN2@PrepareRec:
; Line 1082
	mov	rax, QWORD PTR this$[rsp]
	mov	DWORD PTR [rax+324], 0
; Line 1083
	mov	DWORD PTR $T85221[rsp], -2147220949	; ffffffff8004022bH
	lea	rcx, QWORD PTR cSampleLock$[rsp]
	call	??1CAutoLock@@QEAA@XZ			; CAutoLock::~CAutoLock
	npad	1
	lea	rcx, QWORD PTR cInterfaceLock$[rsp]
	call	??1CAutoLock@@QEAA@XZ			; CAutoLock::~CAutoLock
	mov	eax, DWORD PTR $T85221[rsp]
	jmp	$LN15@PrepareRec
$LN4@PrepareRec:
; Line 1087
	mov	rax, QWORD PTR this$[rsp]
	mov	rcx, QWORD PTR [rax+192]
	call	?SampleProps@CBaseInputPin@@QEAAPEAUtagAM_SAMPLE2_PROPERTIES@@XZ ; CBaseInputPin::SampleProps
	mov	rcx, QWORD PTR this$[rsp]
	mov	rax, QWORD PTR [rax+24]
	mov	QWORD PTR [rcx+328], rax
; Line 1095
	mov	rax, QWORD PTR this$[rsp]
	mov	rcx, QWORD PTR pMediaSample$[rsp]
	mov	QWORD PTR [rax+176], rcx
; Line 1096
	mov	rax, QWORD PTR this$[rsp]
	mov	rax, QWORD PTR [rax+176]
	mov	rcx, QWORD PTR this$[rsp]
	mov	rcx, QWORD PTR [rcx+176]
	mov	rax, QWORD PTR [rax]
	call	QWORD PTR [rax+8]
; Line 1098
	mov	rax, QWORD PTR this$[rsp]
	cmp	DWORD PTR [rax+164], 0
	jne	SHORT $LN1@PrepareRec
; Line 1099
	mov	edx, 1
	mov	rcx, QWORD PTR this$[rsp]
	call	?SetRepaintStatus@CBaseRenderer@@QEAAXH@Z ; CBaseRenderer::SetRepaintStatus
$LN1@PrepareRec:
; Line 1101
	mov	DWORD PTR $T85222[rsp], 0
	lea	rcx, QWORD PTR cSampleLock$[rsp]
	call	??1CAutoLock@@QEAA@XZ			; CAutoLock::~CAutoLock
	npad	1
	lea	rcx, QWORD PTR cInterfaceLock$[rsp]
	call	??1CAutoLock@@QEAA@XZ			; CAutoLock::~CAutoLock
	mov	eax, DWORD PTR $T85222[rsp]
$LN15@PrepareRec:
; Line 1102
	mov	rdi, rax
	mov	rcx, rsp
	lea	rdx, OFFSET FLAT:?PrepareReceive@CBaseRenderer@@UEAAJPEAUIMediaSample@@@Z$rtcFrameData
	call	_RTC_CheckStackVars
	mov	rax, rdi
	add	rsp, 128				; 00000080H
	pop	rdi
	ret	0
?PrepareReceive@CBaseRenderer@@UEAAJPEAUIMediaSample@@@Z ENDP ; CBaseRenderer::PrepareReceive
; Function compile flags: /Odtp /RTCsu
_TEXT	ENDS
;	COMDAT text$x
text$x	SEGMENT
cInterfaceLock$ = 40
hr$ = 52
cSampleLock$ = 72
$T85218 = 84
$T85219 = 88
$T85220 = 92
$T85221 = 96
$T85222 = 100
$T85230 = 104
tv130 = 112
tv267 = 120
this$ = 144
pMediaSample$ = 152
?dtor$0@?0??PrepareReceive@CBaseRenderer@@UEAAJPEAUIMediaSample@@@Z@4HA PROC ; `CBaseRenderer::PrepareReceive'::`1'::dtor$0
	mov	QWORD PTR [rsp+8], rcx
	mov	QWORD PTR [rsp+16], rdx
	push	rbp
	push	rdi
	sub	rsp, 40					; 00000028H
	mov	rbp, rdx
	lea	rcx, QWORD PTR cInterfaceLock$[rbp]
	call	??1CAutoLock@@QEAA@XZ			; CAutoLock::~CAutoLock
	add	rsp, 40					; 00000028H
	pop	rdi
	pop	rbp
	ret	0
?dtor$0@?0??PrepareReceive@CBaseRenderer@@UEAAJPEAUIMediaSample@@@Z@4HA ENDP ; `CBaseRenderer::PrepareReceive'::`1'::dtor$0
; Function compile flags: /Odtp /RTCsu
