; Listing generated by Microsoft (R) Optimizing Compiler Version 16.00.30319.01 

include listing.inc

INCLUDELIB LIBCMTD
INCLUDELIB OLDNAMES

PUBLIC	IID_IAMFilterGraphCallback
CONST	SEGMENT
$SG82231 DB	'C', 00H, 'A', 00H, 'M', 00H, 'S', 00H, 'c', 00H, 'h', 00H
	DB	'e', 00H, 'd', 00H, 'u', 00H, 'l', 00H, 'e', 00H, 00H, 00H
$SG82246 DB	'.', 00H, '.', 00H, '\', 00H, 's', 00H, 'c', 00H, 'h', 00H
	DB	'e', 00H, 'd', 00H, 'u', 00H, 'l', 00H, 'e', 00H, '.', 00H, 'c'
	DB	00H, 'p', 00H, 'p', 00H, 00H, 00H
$SG82247 DB	'm', 00H, '_', 00H, 'd', 00H, 'w', 00H, 'A', 00H, 'd', 00H
	DB	'v', 00H, 'i', 00H, 's', 00H, 'e', 00H, 'C', 00H, 'o', 00H, 'u'
	DB	00H, 'n', 00H, 't', 00H, ' ', 00H, '=', 00H, '=', 00H, ' ', 00H
	DB	'0', 00H, 00H, 00H
	ORG $+6
$SG82253 DB	'.', 00H, '.', 00H, '\', 00H, 's', 00H, 'c', 00H, 'h', 00H
	DB	'e', 00H, 'd', 00H, 'u', 00H, 'l', 00H, 'e', 00H, '.', 00H, 'c'
	DB	00H, 'p', 00H, 'p', 00H, 00H, 00H
$SG82254 DB	'm', 00H, '_', 00H, 'd', 00H, 'w', 00H, 'A', 00H, 'd', 00H
	DB	'v', 00H, 'i', 00H, 's', 00H, 'e', 00H, 'C', 00H, 'o', 00H, 'u'
	DB	00H, 'n', 00H, 't', 00H, ' ', 00H, '=', 00H, '=', 00H, ' ', 00H
	DB	'0', 00H, 00H, 00H
	ORG $+6
$SG82271 DB	'.', 00H, '.', 00H, '\', 00H, 's', 00H, 'c', 00H, 'h', 00H
	DB	'e', 00H, 'd', 00H, 'u', 00H, 'l', 00H, 'e', 00H, '.', 00H, 'c'
	DB	00H, 'p', 00H, 'p', 00H, 00H, 00H
$SG82272 DB	't', 00H, 'i', 00H, 'm', 00H, 'e', 00H, '1', 00H, ' ', 00H
	DB	'<', 00H, ' ', 00H, 'M', 00H, 'A', 00H, 'X', 00H, '_', 00H, 'T'
	DB	00H, 'I', 00H, 'M', 00H, 'E', 00H, 00H, 00H
	ORG $+6
$SG82300 DB	'.', 00H, '.', 00H, '\', 00H, 's', 00H, 'c', 00H, 'h', 00H
	DB	'e', 00H, 'd', 00H, 'u', 00H, 'l', 00H, 'e', 00H, '.', 00H, 'c'
	DB	00H, 'p', 00H, 'p', 00H, 00H, 00H
$SG82301 DB	'p', 00H, '_', 00H, 'n', 00H, '-', 00H, '>', 00H, 'm', 00H
	DB	'_', 00H, 'd', 00H, 'w', 00H, 'A', 00H, 'd', 00H, 'v', 00H, 'i'
	DB	00H, 's', 00H, 'e', 00H, 'C', 00H, 'o', 00H, 'o', 00H, 'k', 00H
	DB	'i', 00H, 'e', 00H, ' ', 00H, '!', 00H, '=', 00H, ' ', 00H, 'd'
	DB	00H, 'w', 00H, 'A', 00H, 'd', 00H, 'v', 00H, 'i', 00H, 's', 00H
	DB	'e', 00H, 'C', 00H, 'o', 00H, 'o', 00H, 'k', 00H, 'i', 00H, 'e'
	DB	00H, 00H, 00H
$SG82308 DB	'C', 00H, 'A', 00H, 'M', 00H, 'S', 00H, 'c', 00H, 'h', 00H
	DB	'e', 00H, 'd', 00H, 'u', 00H, 'l', 00H, 'e', 00H, ':', 00H, ':'
	DB	00H, 'A', 00H, 'd', 00H, 'v', 00H, 'i', 00H, 's', 00H, 'e', 00H
	DB	'(', 00H, ' ', 00H, '%', 00H, 'l', 00H, 'u', 00H, ' ', 00H, 'm'
	DB	00H, 's', 00H, ' ', 00H, ')', 00H, 00H, 00H
	ORG $+4
$SG82315 DB	'.', 00H, '.', 00H, '\', 00H, 's', 00H, 'c', 00H, 'h', 00H
	DB	'e', 00H, 'd', 00H, 'u', 00H, 'l', 00H, 'e', 00H, '.', 00H, 'c'
	DB	00H, 'p', 00H, 'p', 00H, 00H, 00H
$SG82316 DB	'p', 00H, 'A', 00H, 'd', 00H, 'v', 00H, 'i', 00H, 's', 00H
	DB	'e', 00H, '-', 00H, '>', 00H, 'm', 00H, '_', 00H, 'd', 00H, 'w'
	DB	00H, 'A', 00H, 'd', 00H, 'v', 00H, 'i', 00H, 's', 00H, 'e', 00H
	DB	'C', 00H, 'o', 00H, 'o', 00H, 'k', 00H, 'i', 00H, 'e', 00H, 00H
	DB	00H
	ORG $+4
$SG82320 DB	'.', 00H, '.', 00H, '\', 00H, 's', 00H, 'c', 00H, 'h', 00H
	DB	'e', 00H, 'd', 00H, 'u', 00H, 'l', 00H, 'e', 00H, '.', 00H, 'c'
	DB	00H, 'p', 00H, 'p', 00H, 00H, 00H
	ORG $+8
$SG82321 DB	'p', 00H, 'A', 00H, 'd', 00H, 'v', 00H, 'i', 00H, 's', 00H
	DB	'e', 00H, '-', 00H, '>', 00H, 'm', 00H, '_', 00H, 'h', 00H, 'N'
	DB	00H, 'o', 00H, 't', 00H, 'i', 00H, 'f', 00H, 'y', 00H, ' ', 00H
	DB	'!', 00H, '=', 00H, ' ', 00H, 'I', 00H, 'N', 00H, 'V', 00H, 'A'
	DB	00H, 'L', 00H, 'I', 00H, 'D', 00H, '_', 00H, 'H', 00H, 'A', 00H
	DB	'N', 00H, 'D', 00H, 'L', 00H, 'E', 00H, '_', 00H, 'V', 00H, 'A'
	DB	00H, 'L', 00H, 'U', 00H, 'E', 00H, 00H, 00H
	ORG $+2
$SG82325 DB	'.', 00H, '.', 00H, '\', 00H, 's', 00H, 'c', 00H, 'h', 00H
	DB	'e', 00H, 'd', 00H, 'u', 00H, 'l', 00H, 'e', 00H, '.', 00H, 'c'
	DB	00H, 'p', 00H, 'p', 00H, 00H, 00H
$SG82326 DB	'p', 00H, 'A', 00H, 'd', 00H, 'v', 00H, 'i', 00H, 's', 00H
	DB	'e', 00H, '-', 00H, '>', 00H, 'm', 00H, '_', 00H, 'b', 00H, 'P'
	DB	00H, 'e', 00H, 'r', 00H, 'i', 00H, 'o', 00H, 'd', 00H, 'i', 00H
	DB	'c', 00H, ' ', 00H, '=', 00H, '=', 00H, ' ', 00H, 'F', 00H, 'A'
	DB	00H, 'L', 00H, 'S', 00H, 'E', 00H, 00H, 00H
	ORG $+4
$SG82328 DB	'.', 00H, '.', 00H, '\', 00H, 's', 00H, 'c', 00H, 'h', 00H
	DB	'e', 00H, 'd', 00H, 'u', 00H, 'l', 00H, 'e', 00H, '.', 00H, 'c'
	DB	00H, 'p', 00H, 'p', 00H, 00H, 00H
$SG82329 DB	'S', 00H, 'e', 00H, 't', 00H, 'E', 00H, 'v', 00H, 'e', 00H
	DB	'n', 00H, 't', 00H, '(', 00H, 'p', 00H, 'A', 00H, 'd', 00H, 'v'
	DB	00H, 'i', 00H, 's', 00H, 'e', 00H, '-', 00H, '>', 00H, 'm', 00H
	DB	'_', 00H, 'h', 00H, 'N', 00H, 'o', 00H, 't', 00H, 'i', 00H, 'f'
	DB	00H, 'y', 00H, ')', 00H, 00H, 00H
	ORG $+14
$SG82330 DB	'C', 00H, 'A', 00H, 'M', 00H, 'S', 00H, 'c', 00H, 'h', 00H
	DB	'e', 00H, 'd', 00H, 'u', 00H, 'l', 00H, 'e', 00H, ':', 00H, ':'
	DB	00H, 'A', 00H, 'd', 00H, 'v', 00H, 'i', 00H, 's', 00H, 'e', 00H
	DB	'(', 00H, ')', 00H, ' ', 00H, 'N', 00H, 'e', 00H, 'x', 00H, 't'
	DB	00H, ' ', 00H, 't', 00H, 'i', 00H, 'm', 00H, 'e', 00H, ' ', 00H
	DB	's', 00H, 't', 00H, 'a', 00H, 'm', 00H, 'p', 00H, ':', 00H, ' '
	DB	00H, '%', 00H, 'l', 00H, 'u', 00H, ' ', 00H, 'm', 00H, 's', 00H
	DB	',', 00H, ' ', 00H, 'f', 00H, 'o', 00H, 'r', 00H, ' ', 00H, 'a'
	DB	00H, 'd', 00H, 'v', 00H, 'i', 00H, 's', 00H, 'e', 00H, ' ', 00H
	DB	'%', 00H, 'l', 00H, 'u', 00H, '.', 00H, 00H, 00H
	ORG $+2
$SG82338 DB	'.', 00H, '.', 00H, '\', 00H, 's', 00H, 'c', 00H, 'h', 00H
	DB	'e', 00H, 'd', 00H, 'u', 00H, 'l', 00H, 'e', 00H, '.', 00H, 'c'
	DB	00H, 'p', 00H, 'p', 00H, 00H, 00H
$SG82339 DB	'p', 00H, 'P', 00H, 'a', 00H, 'c', 00H, 'k', 00H, 'e', 00H
	DB	't', 00H, '-', 00H, '>', 00H, 'm', 00H, '_', 00H, 'r', 00H, 't'
	DB	00H, 'E', 00H, 'v', 00H, 'e', 00H, 'n', 00H, 't', 00H, 'T', 00H
	DB	'i', 00H, 'm', 00H, 'e', 00H, ' ', 00H, '>', 00H, '=', 00H, ' '
	DB	00H, '0', 00H, ' ', 00H, '&', 00H, '&', 00H, ' ', 00H, 'p', 00H
	DB	'P', 00H, 'a', 00H, 'c', 00H, 'k', 00H, 'e', 00H, 't', 00H, '-'
	DB	00H, '>', 00H, 'm', 00H, '_', 00H, 'r', 00H, 't', 00H, 'E', 00H
	DB	'v', 00H, 'e', 00H, 'n', 00H, 't', 00H, 'T', 00H, 'i', 00H, 'm'
	DB	00H, 'e', 00H, ' ', 00H, '<', 00H, ' ', 00H, 'M', 00H, 'A', 00H
	DB	'X', 00H, '_', 00H, 'T', 00H, 'I', 00H, 'M', 00H, 'E', 00H, 00H
	DB	00H
	ORG $+6
$SG82341 DB	'.', 00H, '.', 00H, '\', 00H, 's', 00H, 'c', 00H, 'h', 00H
	DB	'e', 00H, 'd', 00H, 'u', 00H, 'l', 00H, 'e', 00H, '.', 00H, 'c'
	DB	00H, 'p', 00H, 'p', 00H, 00H, 00H
$SG82342 DB	'C', 00H, 'r', 00H, 'i', 00H, 't', 00H, 'C', 00H, 'h', 00H
	DB	'e', 00H, 'c', 00H, 'k', 00H, 'I', 00H, 'n', 00H, '(', 00H, '&'
	DB	00H, 'm', 00H, '_', 00H, 'S', 00H, 'e', 00H, 'r', 00H, 'i', 00H
	DB	'a', 00H, 'l', 00H, 'i', 00H, 'z', 00H, 'e', 00H, ')', 00H, 00H
	DB	00H
	ORG $+4
$SG82350 DB	'A', 00H, 'd', 00H, 'd', 00H, 'e', 00H, 'd', 00H, ' ', 00H
	DB	'a', 00H, 'd', 00H, 'v', 00H, 'i', 00H, 's', 00H, 'e', 00H, ' '
	DB	00H, '%', 00H, 'l', 00H, 'u', 00H, ',', 00H, ' ', 00H, 'f', 00H
	DB	'o', 00H, 'r', 00H, ' ', 00H, 't', 00H, 'h', 00H, 'r', 00H, 'e'
	DB	00H, 'a', 00H, 'd', 00H, ' ', 00H, '0', 00H, 'x', 00H, '%', 00H
	DB	'0', 00H, '2', 00H, 'X', 00H, ',', 00H, ' ', 00H, 's', 00H, 'c'
	DB	00H, 'h', 00H, 'e', 00H, 'd', 00H, 'u', 00H, 'l', 00H, 'e', 00H
	DB	'd', 00H, ' ', 00H, 'a', 00H, 't', 00H, ' ', 00H, '%', 00H, 'l'
	DB	00H, 'u', 00H, 00H, 00H
	ORG $+4
$SG82366 DB	'.', 00H, '.', 00H, '\', 00H, 's', 00H, 'c', 00H, 'h', 00H
	DB	'e', 00H, 'd', 00H, 'u', 00H, 'l', 00H, 'e', 00H, '.', 00H, 'c'
	DB	00H, 'p', 00H, 'p', 00H, 00H, 00H
$SG82367 DB	'p', 00H, 'P', 00H, 'a', 00H, 'c', 00H, 'k', 00H, 'e', 00H
	DB	't', 00H, '-', 00H, '>', 00H, 'm', 00H, '_', 00H, 'r', 00H, 't'
	DB	00H, 'E', 00H, 'v', 00H, 'e', 00H, 'n', 00H, 't', 00H, 'T', 00H
	DB	'i', 00H, 'm', 00H, 'e', 00H, ' ', 00H, '<', 00H, ' ', 00H, 'M'
	DB	00H, 'A', 00H, 'X', 00H, '_', 00H, 'T', 00H, 'I', 00H, 'M', 00H
	DB	'E', 00H, 00H, 00H
	ORG $+12
$SG82373 DB	'P', 00H, 'e', 00H, 'r', 00H, 'i', 00H, 'o', 00H, 'd', 00H
	DB	'i', 00H, 'c', 00H, ' ', 00H, 'a', 00H, 'd', 00H, 'v', 00H, 'i'
	DB	00H, 's', 00H, 'e', 00H, ' ', 00H, '%', 00H, 'l', 00H, 'u', 00H
	DB	',', 00H, ' ', 00H, 's', 00H, 'h', 00H, 'u', 00H, 'n', 00H, 't'
	DB	00H, 'e', 00H, 'd', 00H, ' ', 00H, 't', 00H, 'o', 00H, ' ', 00H
	DB	'%', 00H, 'l', 00H, 'u', 00H, 00H, 00H
	ORG $+8
$SG82378 DB	'C', 00H, 'A', 00H, 'M', 00H, 'S', 00H, 'c', 00H, 'h', 00H
	DB	'e', 00H, 'd', 00H, 'u', 00H, 'l', 00H, 'e', 00H, ':', 00H, ':'
	DB	00H, 'D', 00H, 'u', 00H, 'm', 00H, 'p', 00H, 'L', 00H, 'i', 00H
	DB	'n', 00H, 'k', 00H, 'e', 00H, 'd', 00H, 'L', 00H, 'i', 00H, 's'
	DB	00H, 't', 00H, '(', 00H, ')', 00H, ' ', 00H, 't', 00H, 'h', 00H
	DB	'i', 00H, 's', 00H, ' ', 00H, '=', 00H, ' ', 00H, '0', 00H, 'x'
	DB	00H, '%', 00H, 'p', 00H, 00H, 00H
	ORG $+12
$SG82383 DB	'A', 00H, 'd', 00H, 'v', 00H, 'i', 00H, 's', 00H, 'e', 00H
	DB	' ', 00H, 'L', 00H, 'i', 00H, 's', 00H, 't', 00H, ' ', 00H, '#'
	DB	00H, ' ', 00H, '%', 00H, 'l', 00H, 'u', 00H, ',', 00H, ' ', 00H
	DB	'C', 00H, 'o', 00H, 'o', 00H, 'k', 00H, 'i', 00H, 'e', 00H, ' '
	DB	00H, '%', 00H, 'd', 00H, ',', 00H, ' ', 00H, ' ', 00H, 'R', 00H
	DB	'e', 00H, 'f', 00H, 'T', 00H, 'i', 00H, 'm', 00H, 'e', 00H, ' '
	DB	00H, '%', 00H, 'l', 00H, 'u', 00H, 00H, 00H
CONST	ENDS
;	COMDAT IID_IAMFilterGraphCallback
CONST	SEGMENT
IID_IAMFilterGraphCallback DD 056a868fdH
	DW	0ad4H
	DW	011ceH
	DB	0b0H
	DB	0a3H
	DB	00H
	DB	020H
	DB	0afH
	DB	0bH
	DB	0a7H
	DB	070H
CONST	ENDS
PUBLIC	??0CAdvisePacket@CAMSchedule@@QEAA@PEAV01@_J@Z	; CAMSchedule::CAdvisePacket::CAdvisePacket
PUBLIC	??_7CAMSchedule@@6B@				; CAMSchedule::`vftable'
PUBLIC	??0CAMSchedule@@QEAA@PEAX@Z			; CAMSchedule::CAMSchedule
PUBLIC	??_R4CAMSchedule@@6B@				; CAMSchedule::`RTTI Complete Object Locator'
PUBLIC	??_R0?AVCAMSchedule@@@8				; CAMSchedule `RTTI Type Descriptor'
PUBLIC	??_R3CAMSchedule@@8				; CAMSchedule::`RTTI Class Hierarchy Descriptor'
PUBLIC	??_R2CAMSchedule@@8				; CAMSchedule::`RTTI Base Class Array'
PUBLIC	??_R1A@?0A@EA@CAMSchedule@@8			; CAMSchedule::`RTTI Base Class Descriptor at (0,-1,0,64)'
PUBLIC	??_R17?0A@EN@CBaseObject@@8			; CBaseObject::`RTTI Base Class Descriptor at (8,-1,0,77)'
PUBLIC	??_R0?AVCBaseObject@@@8				; CBaseObject `RTTI Type Descriptor'
PUBLIC	??_R3CBaseObject@@8				; CBaseObject::`RTTI Class Hierarchy Descriptor'
PUBLIC	??_R2CBaseObject@@8				; CBaseObject::`RTTI Base Class Array'
PUBLIC	??_R1A@?0A@EA@CBaseObject@@8			; CBaseObject::`RTTI Base Class Descriptor at (0,-1,0,64)'
EXTRN	__CxxFrameHandler3:PROC
EXTRN	??1CBaseObject@@QEAA@XZ:PROC			; CBaseObject::~CBaseObject
EXTRN	??0CCritSec@@QEAA@XZ:PROC			; CCritSec::CCritSec
EXTRN	??0CBaseObject@@QEAA@PEB_W@Z:PROC		; CBaseObject::CBaseObject
EXTRN	_RTC_Shutdown:PROC
EXTRN	_RTC_InitBase:PROC
EXTRN	??_7type_info@@6B@:BYTE				; type_info::`vftable'
EXTRN	??_ECAMSchedule@@UEAAPEAXI@Z:PROC		; CAMSchedule::`vector deleting destructor'
;	COMDAT pdata
; File c:\downloads\wpf mediakit - copy\src\filters\baseclasses\schedule.cpp
pdata	SEGMENT
$pdata$??0CAMSchedule@@QEAA@PEAX@Z DD imagerel $LN5
	DD	imagerel $LN5+271
	DD	imagerel $unwind$??0CAMSchedule@@QEAA@PEAX@Z
pdata	ENDS
;	COMDAT pdata
pdata	SEGMENT
$pdata$?dtor$0@?0???0CAMSchedule@@QEAA@PEAX@Z@4HA DD imagerel ?dtor$0@?0???0CAMSchedule@@QEAA@PEAX@Z@4HA
	DD	imagerel ?dtor$0@?0???0CAMSchedule@@QEAA@PEAX@Z@4HA+39
	DD	imagerel $unwind$?dtor$0@?0???0CAMSchedule@@QEAA@PEAX@Z@4HA
pdata	ENDS
;	COMDAT xdata
xdata	SEGMENT
$ip2state$??0CAMSchedule@@QEAA@PEAX@Z DD imagerel ??0CAMSchedule@@QEAA@PEAX@Z
	DD	0ffffffffH
	DD	imagerel ??0CAMSchedule@@QEAA@PEAX@Z+69
	DD	00H
	DD	imagerel ??0CAMSchedule@@QEAA@PEAX@Z+260
	DD	0ffffffffH
xdata	ENDS
;	COMDAT ??_R1A@?0A@EA@CBaseObject@@8
rdata$r	SEGMENT
??_R1A@?0A@EA@CBaseObject@@8 DD imagerel ??_R0?AVCBaseObject@@@8 ; CBaseObject::`RTTI Base Class Descriptor at (0,-1,0,64)'
	DD	00H
	DD	00H
	DD	0ffffffffH
	DD	00H
	DD	040H
	DD	imagerel ??_R3CBaseObject@@8
rdata$r	ENDS
;	COMDAT ??_R2CBaseObject@@8
rdata$r	SEGMENT
??_R2CBaseObject@@8 DD imagerel ??_R1A@?0A@EA@CBaseObject@@8 ; CBaseObject::`RTTI Base Class Array'
	ORG $+3
rdata$r	ENDS
;	COMDAT ??_R3CBaseObject@@8
rdata$r	SEGMENT
??_R3CBaseObject@@8 DD 00H				; CBaseObject::`RTTI Class Hierarchy Descriptor'
	DD	00H
	DD	01H
	DD	imagerel ??_R2CBaseObject@@8
rdata$r	ENDS
;	COMDAT ??_R0?AVCBaseObject@@@8
_DATA	SEGMENT
??_R0?AVCBaseObject@@@8 DQ FLAT:??_7type_info@@6B@	; CBaseObject `RTTI Type Descriptor'
	DQ	0000000000000000H
	DB	'.?AVCBaseObject@@', 00H
_DATA	ENDS
;	COMDAT ??_R17?0A@EN@CBaseObject@@8
rdata$r	SEGMENT
??_R17?0A@EN@CBaseObject@@8 DD imagerel ??_R0?AVCBaseObject@@@8 ; CBaseObject::`RTTI Base Class Descriptor at (8,-1,0,77)'
	DD	00H
	DD	08H
	DD	0ffffffffH
	DD	00H
	DD	04dH
	DD	imagerel ??_R3CBaseObject@@8
rdata$r	ENDS
;	COMDAT ??_R1A@?0A@EA@CAMSchedule@@8
rdata$r	SEGMENT
??_R1A@?0A@EA@CAMSchedule@@8 DD imagerel ??_R0?AVCAMSchedule@@@8 ; CAMSchedule::`RTTI Base Class Descriptor at (0,-1,0,64)'
	DD	01H
	DD	00H
	DD	0ffffffffH
	DD	00H
	DD	040H
	DD	imagerel ??_R3CAMSchedule@@8
rdata$r	ENDS
;	COMDAT ??_R2CAMSchedule@@8
rdata$r	SEGMENT
??_R2CAMSchedule@@8 DD imagerel ??_R1A@?0A@EA@CAMSchedule@@8 ; CAMSchedule::`RTTI Base Class Array'
	DD	imagerel ??_R17?0A@EN@CBaseObject@@8
	ORG $+3
rdata$r	ENDS
;	COMDAT ??_R3CAMSchedule@@8
rdata$r	SEGMENT
??_R3CAMSchedule@@8 DD 00H				; CAMSchedule::`RTTI Class Hierarchy Descriptor'
	DD	00H
	DD	02H
	DD	imagerel ??_R2CAMSchedule@@8
rdata$r	ENDS
;	COMDAT ??_R0?AVCAMSchedule@@@8
_DATA	SEGMENT
??_R0?AVCAMSchedule@@@8 DQ FLAT:??_7type_info@@6B@	; CAMSchedule `RTTI Type Descriptor'
	DQ	0000000000000000H
	DB	'.?AVCAMSchedule@@', 00H
_DATA	ENDS
;	COMDAT ??_R4CAMSchedule@@6B@
rdata$r	SEGMENT
??_R4CAMSchedule@@6B@ DD 01H				; CAMSchedule::`RTTI Complete Object Locator'
	DD	00H
	DD	00H
	DD	imagerel ??_R0?AVCAMSchedule@@@8
	DD	imagerel ??_R3CAMSchedule@@8
	DD	imagerel ??_R4CAMSchedule@@6B@
rdata$r	ENDS
;	COMDAT xdata
xdata	SEGMENT
$unwind$?dtor$0@?0???0CAMSchedule@@QEAA@PEAX@Z@4HA DD 031001H
	DD	0700c4210H
	DD	0500bH
xdata	ENDS
;	COMDAT xdata
xdata	SEGMENT
$unwind$??0CAMSchedule@@QEAA@PEAX@Z DD 022c11H
	DD	0700b520fH
	DD	imagerel __CxxFrameHandler3
	DD	imagerel $cppxdata$??0CAMSchedule@@QEAA@PEAX@Z
xdata	ENDS
;	COMDAT CONST
CONST	SEGMENT
$cppxdata$??0CAMSchedule@@QEAA@PEAX@Z DD 019930522H
	DD	01H
	DD	imagerel $stateUnwindMap$??0CAMSchedule@@QEAA@PEAX@Z
	DD	00H
	DD	00H
	DD	03H
	DD	imagerel $ip2state$??0CAMSchedule@@QEAA@PEAX@Z
	DD	020H
	DD	00H
	DD	01H
CONST	ENDS
;	COMDAT xdata
xdata	SEGMENT
$stateUnwindMap$??0CAMSchedule@@QEAA@PEAX@Z DD 0ffffffffH
	DD	imagerel ?dtor$0@?0???0CAMSchedule@@QEAA@PEAX@Z@4HA
xdata	ENDS
;	COMDAT ??_7CAMSchedule@@6B@
CONST	SEGMENT
??_7CAMSchedule@@6B@ DQ FLAT:??_R4CAMSchedule@@6B@	; CAMSchedule::`vftable'
	DQ	FLAT:??_ECAMSchedule@@UEAAPEAXI@Z
CONST	ENDS
;	COMDAT rtc$TMZ
rtc$TMZ	SEGMENT
_RTC_Shutdown.rtc$TMZ DQ FLAT:_RTC_Shutdown
rtc$TMZ	ENDS
;	COMDAT rtc$IMZ
rtc$IMZ	SEGMENT
_RTC_InitBase.rtc$IMZ DQ FLAT:_RTC_InitBase
; Function compile flags: /Odtp /RTCsu
rtc$IMZ	ENDS
;	COMDAT ??0CAMSchedule@@QEAA@PEAX@Z
_TEXT	SEGMENT
$T82885 = 32
this$ = 64
ev$ = 72
??0CAMSchedule@@QEAA@PEAX@Z PROC			; CAMSchedule::CAMSchedule, COMDAT
; Line 26
$LN5:
	mov	QWORD PTR [rsp+16], rdx
	mov	QWORD PTR [rsp+8], rcx
	push	rdi
	sub	rsp, 48					; 00000030H
	mov	rdi, rsp
	mov	ecx, 12
	mov	eax, -858993460				; ccccccccH
	rep stosd
	mov	rcx, QWORD PTR [rsp+64]
	mov	QWORD PTR $T82885[rsp], -2
	mov	rax, QWORD PTR this$[rsp]
	add	rax, 8
	lea	rdx, OFFSET FLAT:$SG82231
	mov	rcx, rax
	call	??0CBaseObject@@QEAA@PEB_W@Z		; CBaseObject::CBaseObject
	npad	1
	mov	rax, QWORD PTR this$[rsp]
	lea	rcx, OFFSET FLAT:??_7CAMSchedule@@6B@
	mov	QWORD PTR [rax], rcx
	mov	rax, QWORD PTR this$[rsp]
	add	rax, 64					; 00000040H
	mov	rcx, QWORD PTR this$[rsp]
	add	rcx, 16
	xor	r8d, r8d
	mov	rdx, rax
	call	??0CAdvisePacket@CAMSchedule@@QEAA@PEAV01@_J@Z ; CAMSchedule::CAdvisePacket::CAdvisePacket
	mov	rax, QWORD PTR this$[rsp]
	add	rax, 64					; 00000040H
	mov	r8, 9223372036854775807			; 7fffffffffffffffH
	xor	edx, edx
	mov	rcx, rax
	call	??0CAdvisePacket@CAMSchedule@@QEAA@PEAV01@_J@Z ; CAMSchedule::CAdvisePacket::CAdvisePacket
	mov	rax, QWORD PTR this$[rsp]
	mov	QWORD PTR [rax+112], 0
	mov	rax, QWORD PTR this$[rsp]
	mov	DWORD PTR [rax+120], 0
	mov	rax, QWORD PTR this$[rsp]
	add	rax, 128				; 00000080H
	mov	rcx, rax
	call	??0CCritSec@@QEAA@XZ			; CCritSec::CCritSec
	mov	rax, QWORD PTR this$[rsp]
	mov	rcx, QWORD PTR ev$[rsp]
	mov	QWORD PTR [rax+184], rcx
	mov	rax, QWORD PTR this$[rsp]
	mov	QWORD PTR [rax+192], 0
	mov	rax, QWORD PTR this$[rsp]
	mov	DWORD PTR [rax+200], 0
; Line 27
	mov	rax, QWORD PTR this$[rsp]
	mov	QWORD PTR [rax+72], 0
	mov	rax, QWORD PTR this$[rsp]
	mov	QWORD PTR [rax+24], 0
; Line 28
	mov	rax, QWORD PTR this$[rsp]
	add	rsp, 48					; 00000030H
	pop	rdi
	ret	0
??0CAMSchedule@@QEAA@PEAX@Z ENDP			; CAMSchedule::CAMSchedule
; Function compile flags: /Odtp /RTCsu
_TEXT	ENDS
;	COMDAT text$x
text$x	SEGMENT
$T82885 = 32
this$ = 64
ev$ = 72
?dtor$0@?0???0CAMSchedule@@QEAA@PEAX@Z@4HA PROC		; `CAMSchedule::CAMSchedule'::`1'::dtor$0
	mov	QWORD PTR [rsp+8], rcx
	mov	QWORD PTR [rsp+16], rdx
	push	rbp
	push	rdi
	sub	rsp, 40					; 00000028H
	mov	rbp, rdx
	mov	rcx, QWORD PTR this$[rbp]
	add	rcx, 8
	call	??1CBaseObject@@QEAA@XZ			; CBaseObject::~CBaseObject
	add	rsp, 40					; 00000028H
	pop	rdi
	pop	rbp
	ret	0
?dtor$0@?0???0CAMSchedule@@QEAA@PEAX@Z@4HA ENDP		; `CAMSchedule::CAMSchedule'::`1'::dtor$0
text$x	ENDS
;	COMDAT pdata
; File c:\downloads\wpf mediakit - copy\src\filters\baseclasses\dsschedule.h
pdata	SEGMENT
$pdata$??0CAdvisePacket@CAMSchedule@@QEAA@PEAV01@_J@Z DD imagerel $LN3
	DD	imagerel $LN3+50
	DD	imagerel $unwind$??0CAdvisePacket@CAMSchedule@@QEAA@PEAV01@_J@Z
pdata	ENDS
;	COMDAT xdata
xdata	SEGMENT
$unwind$??0CAdvisePacket@CAMSchedule@@QEAA@PEAV01@_J@Z DD 011001H
	DD	07010H
; Function compile flags: /Odtp /RTCsu
xdata	ENDS
;	COMDAT ??0CAdvisePacket@CAMSchedule@@QEAA@PEAV01@_J@Z
_TEXT	SEGMENT
this$ = 16
next$ = 24
time$ = 32
??0CAdvisePacket@CAMSchedule@@QEAA@PEAV01@_J@Z PROC	; CAMSchedule::CAdvisePacket::CAdvisePacket, COMDAT
; Line 54
$LN3:
	mov	QWORD PTR [rsp+24], r8
	mov	QWORD PTR [rsp+16], rdx
	mov	QWORD PTR [rsp+8], rcx
	push	rdi
	mov	rax, QWORD PTR this$[rsp]
	mov	rcx, QWORD PTR next$[rsp]
	mov	QWORD PTR [rax], rcx
	mov	rax, QWORD PTR this$[rsp]
	mov	rcx, QWORD PTR time$[rsp]
	mov	QWORD PTR [rax+16], rcx
	mov	rax, QWORD PTR this$[rsp]
	pop	rdi
	ret	0
??0CAdvisePacket@CAMSchedule@@QEAA@PEAV01@_J@Z ENDP	; CAMSchedule::CAdvisePacket::CAdvisePacket
_TEXT	ENDS
PUBLIC	??1CAMSchedule@@UEAA@XZ				; CAMSchedule::~CAMSchedule
EXTRN	??3@YAXPEAX@Z:PROC				; operator delete
;	COMDAT pdata
pdata	SEGMENT
$pdata$??_GCAMSchedule@@UEAAPEAXI@Z DD imagerel $LN4
	DD	imagerel $LN4+76
	DD	imagerel $unwind$??_GCAMSchedule@@UEAAPEAXI@Z
pdata	ENDS
;	COMDAT xdata
xdata	SEGMENT
$unwind$??_GCAMSchedule@@UEAAPEAXI@Z DD 022201H
	DD	0700a320eH
; Function compile flags: /Odtp /RTCsu
xdata	ENDS
;	COMDAT ??_GCAMSchedule@@UEAAPEAXI@Z
_TEXT	SEGMENT
this$ = 48
__flags$ = 56
??_GCAMSchedule@@UEAAPEAXI@Z PROC			; CAMSchedule::`scalar deleting destructor', COMDAT
$LN4:
	mov	DWORD PTR [rsp+16], edx
	mov	QWORD PTR [rsp+8], rcx
	push	rdi
	sub	rsp, 32					; 00000020H
	mov	rdi, rsp
	mov	ecx, 8
	mov	eax, -858993460				; ccccccccH
	rep stosd
	mov	rcx, QWORD PTR [rsp+48]
	mov	rcx, QWORD PTR this$[rsp]
	call	??1CAMSchedule@@UEAA@XZ			; CAMSchedule::~CAMSchedule
	mov	eax, DWORD PTR __flags$[rsp]
	and	eax, 1
	test	eax, eax
	je	SHORT $LN1@scalar
	mov	rcx, QWORD PTR this$[rsp]
	call	??3@YAXPEAX@Z				; operator delete
$LN1@scalar:
	mov	rax, QWORD PTR this$[rsp]
	add	rsp, 32					; 00000020H
	pop	rdi
	ret	0
??_GCAMSchedule@@UEAAPEAXI@Z ENDP			; CAMSchedule::`scalar deleting destructor'
_TEXT	ENDS
PUBLIC	?DeleteNext@CAdvisePacket@CAMSchedule@@QEAAXXZ	; CAMSchedule::CAdvisePacket::DeleteNext
PUBLIC	?IsZ@CAdvisePacket@CAMSchedule@@QEBAHXZ		; CAMSchedule::CAdvisePacket::IsZ
PUBLIC	?DumpLinkedList@CAMSchedule@@QEAAXXZ		; CAMSchedule::DumpLinkedList
EXTRN	??1CCritSec@@QEAA@XZ:PROC			; CCritSec::~CCritSec
EXTRN	?Unlock@CCritSec@@QEAAXXZ:PROC			; CCritSec::Unlock
EXTRN	?DbgAssert@@YAXPEB_W0H@Z:PROC			; DbgAssert
EXTRN	?Lock@CCritSec@@QEAAXXZ:PROC			; CCritSec::Lock
;	COMDAT pdata
; File c:\downloads\wpf mediakit - copy\src\filters\baseclasses\schedule.cpp
pdata	SEGMENT
$pdata$??1CAMSchedule@@UEAA@XZ DD imagerel $LN12
	DD	imagerel $LN12+357
	DD	imagerel $unwind$??1CAMSchedule@@UEAA@XZ
pdata	ENDS
;	COMDAT pdata
pdata	SEGMENT
$pdata$?dtor$0@?0???1CAMSchedule@@UEAA@XZ@4HA DD imagerel ?dtor$0@?0???1CAMSchedule@@UEAA@XZ@4HA
	DD	imagerel ?dtor$0@?0???1CAMSchedule@@UEAA@XZ@4HA+39
	DD	imagerel $unwind$?dtor$0@?0???1CAMSchedule@@UEAA@XZ@4HA
pdata	ENDS
;	COMDAT pdata
pdata	SEGMENT
$pdata$?dtor$1@?0???1CAMSchedule@@UEAA@XZ@4HA DD imagerel ?dtor$1@?0???1CAMSchedule@@UEAA@XZ@4HA
	DD	imagerel ?dtor$1@?0???1CAMSchedule@@UEAA@XZ@4HA+42
	DD	imagerel $unwind$?dtor$1@?0???1CAMSchedule@@UEAA@XZ@4HA
pdata	ENDS
;	COMDAT xdata
xdata	SEGMENT
$ip2state$??1CAMSchedule@@UEAA@XZ DD imagerel ??1CAMSchedule@@UEAA@XZ
	DD	0ffffffffH
	DD	imagerel ??1CAMSchedule@@UEAA@XZ+54
	DD	01H
	DD	imagerel ??1CAMSchedule@@UEAA@XZ+314
	DD	00H
	DD	imagerel ??1CAMSchedule@@UEAA@XZ+334
	DD	0ffffffffH
xdata	ENDS
;	COMDAT xdata
xdata	SEGMENT
$unwind$?dtor$1@?0???1CAMSchedule@@UEAA@XZ@4HA DD 031001H
	DD	0700c4210H
	DD	0500bH
xdata	ENDS
;	COMDAT xdata
xdata	SEGMENT
$unwind$?dtor$0@?0???1CAMSchedule@@UEAA@XZ@4HA DD 031001H
	DD	0700c4210H
	DD	0500bH
xdata	ENDS
;	COMDAT xdata
xdata	SEGMENT
$unwind$??1CAMSchedule@@UEAA@XZ DD 022711H
	DD	07006720aH
	DD	imagerel __CxxFrameHandler3
	DD	imagerel $cppxdata$??1CAMSchedule@@UEAA@XZ
xdata	ENDS
;	COMDAT CONST
CONST	SEGMENT
$cppxdata$??1CAMSchedule@@UEAA@XZ DD 019930522H
	DD	02H
	DD	imagerel $stateUnwindMap$??1CAMSchedule@@UEAA@XZ
	DD	00H
	DD	00H
	DD	04H
	DD	imagerel $ip2state$??1CAMSchedule@@UEAA@XZ
	DD	038H
	DD	00H
	DD	01H
CONST	ENDS
;	COMDAT xdata
xdata	SEGMENT
$stateUnwindMap$??1CAMSchedule@@UEAA@XZ DD 0ffffffffH
	DD	imagerel ?dtor$0@?0???1CAMSchedule@@UEAA@XZ@4HA
	DD	00H
	DD	imagerel ?dtor$1@?0???1CAMSchedule@@UEAA@XZ@4HA
; Function compile flags: /Odtp /RTCsu
xdata	ENDS
;	COMDAT ??1CAMSchedule@@UEAA@XZ
_TEXT	SEGMENT
p$ = 32
p_next$82243 = 40
$T82920 = 48
$T82928 = 56
this$ = 80
??1CAMSchedule@@UEAA@XZ PROC				; CAMSchedule::~CAMSchedule, COMDAT
; Line 31
$LN12:
	mov	QWORD PTR [rsp+8], rcx
	push	rdi
	sub	rsp, 64					; 00000040H
	mov	rdi, rsp
	mov	ecx, 16
	mov	eax, -858993460				; ccccccccH
	rep stosd
	mov	rcx, QWORD PTR [rsp+80]
	mov	QWORD PTR $T82928[rsp], -2
	mov	rax, QWORD PTR this$[rsp]
	lea	rcx, OFFSET FLAT:??_7CAMSchedule@@6B@
	mov	QWORD PTR [rax], rcx
; Line 32
	mov	rax, QWORD PTR this$[rsp]
	add	rax, 128				; 00000080H
	mov	rcx, rax
	call	?Lock@CCritSec@@QEAAXXZ			; CCritSec::Lock
; Line 35
	mov	rax, QWORD PTR this$[rsp]
	mov	rax, QWORD PTR [rax+192]
	mov	QWORD PTR p$[rsp], rax
$LN7@CAMSchedul:
; Line 36
	cmp	QWORD PTR p$[rsp], 0
	je	SHORT $LN6@CAMSchedul
; Line 38
	mov	rax, QWORD PTR p$[rsp]
	mov	rax, QWORD PTR [rax]
	mov	QWORD PTR p_next$82243[rsp], rax
; Line 39
	mov	rax, QWORD PTR p$[rsp]
	mov	QWORD PTR $T82920[rsp], rax
	mov	rcx, QWORD PTR $T82920[rsp]
	call	??3@YAXPEAX@Z				; operator delete
; Line 40
	mov	rax, QWORD PTR p_next$82243[rsp]
	mov	QWORD PTR p$[rsp], rax
; Line 41
	jmp	SHORT $LN7@CAMSchedul
$LN6@CAMSchedul:
; Line 43
	mov	rax, QWORD PTR this$[rsp]
	mov	eax, DWORD PTR [rax+120]
	test	eax, eax
	je	SHORT $LN5@CAMSchedul
	mov	r8d, 43					; 0000002bH
	lea	rdx, OFFSET FLAT:$SG82246
	lea	rcx, OFFSET FLAT:$SG82247
	call	?DbgAssert@@YAXPEB_W0H@Z		; DbgAssert
$LN5@CAMSchedul:
; Line 45
	mov	rax, QWORD PTR this$[rsp]
	mov	eax, DWORD PTR [rax+120]
	test	eax, eax
	jbe	SHORT $LN4@CAMSchedul
; Line 47
	mov	rcx, QWORD PTR this$[rsp]
	call	?DumpLinkedList@CAMSchedule@@QEAAXXZ	; CAMSchedule::DumpLinkedList
$LN3@CAMSchedul:
; Line 48
	mov	rax, QWORD PTR this$[rsp]
	mov	rcx, QWORD PTR [rax+16]
	call	?IsZ@CAdvisePacket@CAMSchedule@@QEBAHXZ	; CAMSchedule::CAdvisePacket::IsZ
	test	eax, eax
	jne	SHORT $LN4@CAMSchedul
; Line 50
	mov	rax, QWORD PTR this$[rsp]
	add	rax, 16
	mov	rcx, rax
	call	?DeleteNext@CAdvisePacket@CAMSchedule@@QEAAXXZ ; CAMSchedule::CAdvisePacket::DeleteNext
; Line 51
	mov	rax, QWORD PTR this$[rsp]
	mov	eax, DWORD PTR [rax+120]
	dec	eax
	mov	rcx, QWORD PTR this$[rsp]
	mov	DWORD PTR [rcx+120], eax
; Line 52
	jmp	SHORT $LN3@CAMSchedul
$LN4@CAMSchedul:
; Line 58
	mov	rax, QWORD PTR this$[rsp]
	mov	eax, DWORD PTR [rax+120]
	test	eax, eax
	je	SHORT $LN1@CAMSchedul
	mov	r8d, 58					; 0000003aH
	lea	rdx, OFFSET FLAT:$SG82253
	lea	rcx, OFFSET FLAT:$SG82254
	call	?DbgAssert@@YAXPEB_W0H@Z		; DbgAssert
$LN1@CAMSchedul:
; Line 60
	mov	rax, QWORD PTR this$[rsp]
	add	rax, 128				; 00000080H
	mov	rcx, rax
	call	?Unlock@CCritSec@@QEAAXXZ		; CCritSec::Unlock
	npad	1
; Line 61
	mov	rax, QWORD PTR this$[rsp]
	add	rax, 128				; 00000080H
	mov	rcx, rax
	call	??1CCritSec@@QEAA@XZ			; CCritSec::~CCritSec
	npad	1
	mov	rax, QWORD PTR this$[rsp]
	add	rax, 8
	mov	rcx, rax
	call	??1CBaseObject@@QEAA@XZ			; CBaseObject::~CBaseObject
	add	rsp, 64					; 00000040H
	pop	rdi
	ret	0
??1CAMSchedule@@UEAA@XZ ENDP				; CAMSchedule::~CAMSchedule
; Function compile flags: /Odtp /RTCsu
_TEXT	ENDS
;	COMDAT text$x
text$x	SEGMENT
p$ = 32
p_next$82243 = 40
$T82920 = 48
$T82928 = 56
this$ = 80
?dtor$0@?0???1CAMSchedule@@UEAA@XZ@4HA PROC		; `CAMSchedule::~CAMSchedule'::`1'::dtor$0
	mov	QWORD PTR [rsp+8], rcx
	mov	QWORD PTR [rsp+16], rdx
	push	rbp
	push	rdi
	sub	rsp, 40					; 00000028H
	mov	rbp, rdx
	mov	rcx, QWORD PTR this$[rbp]
	add	rcx, 8
	call	??1CBaseObject@@QEAA@XZ			; CBaseObject::~CBaseObject
	add	rsp, 40					; 00000028H
	pop	rdi
	pop	rbp
	ret	0
?dtor$0@?0???1CAMSchedule@@UEAA@XZ@4HA ENDP		; `CAMSchedule::~CAMSchedule'::`1'::dtor$0
; Function compile flags: /Odtp /RTCsu
p$ = 32
p_next$82243 = 40
$T82920 = 48
$T82928 = 56
this$ = 80
?dtor$1@?0???1CAMSchedule@@UEAA@XZ@4HA PROC		; `CAMSchedule::~CAMSchedule'::`1'::dtor$1
	mov	QWORD PTR [rsp+8], rcx
	mov	QWORD PTR [rsp+16], rdx
	push	rbp
	push	rdi
	sub	rsp, 40					; 00000028H
	mov	rbp, rdx
	mov	rcx, QWORD PTR this$[rbp]
	add	rcx, 128				; 00000080H
	call	??1CCritSec@@QEAA@XZ			; CCritSec::~CCritSec
	add	rsp, 40					; 00000028H
	pop	rdi
	pop	rbp
	ret	0
?dtor$1@?0???1CAMSchedule@@UEAA@XZ@4HA ENDP		; `CAMSchedule::~CAMSchedule'::`1'::dtor$1
text$x	ENDS
;	COMDAT pdata
; File c:\downloads\wpf mediakit - copy\src\filters\baseclasses\dsschedule.h
pdata	SEGMENT
$pdata$?IsZ@CAdvisePacket@CAMSchedule@@QEBAHXZ DD imagerel $LN5
	DD	imagerel $LN5+66
	DD	imagerel $unwind$?IsZ@CAdvisePacket@CAMSchedule@@QEBAHXZ
pdata	ENDS
;	COMDAT xdata
xdata	SEGMENT
$unwind$?IsZ@CAdvisePacket@CAMSchedule@@QEBAHXZ DD 021e01H
	DD	07006120aH
; Function compile flags: /Odtp /RTCsu
xdata	ENDS
;	COMDAT ?IsZ@CAdvisePacket@CAMSchedule@@QEBAHXZ
_TEXT	SEGMENT
tv65 = 0
this$ = 32
?IsZ@CAdvisePacket@CAMSchedule@@QEBAHXZ PROC		; CAMSchedule::CAdvisePacket::IsZ, COMDAT
; Line 63
$LN5:
	mov	QWORD PTR [rsp+8], rcx
	push	rdi
	sub	rsp, 16
	mov	rdi, rsp
	mov	ecx, 4
	mov	eax, -858993460				; ccccccccH
	rep stosd
	mov	rcx, QWORD PTR [rsp+32]
	mov	rax, QWORD PTR this$[rsp]
	cmp	QWORD PTR [rax], 0
	jne	SHORT $LN3@IsZ
	mov	DWORD PTR tv65[rsp], 1
	jmp	SHORT $LN4@IsZ
$LN3@IsZ:
	mov	DWORD PTR tv65[rsp], 0
$LN4@IsZ:
	mov	eax, DWORD PTR tv65[rsp]
	add	rsp, 16
	pop	rdi
	ret	0
?IsZ@CAdvisePacket@CAMSchedule@@QEBAHXZ ENDP		; CAMSchedule::CAdvisePacket::IsZ
_TEXT	ENDS
PUBLIC	?RemoveNext@CAdvisePacket@CAMSchedule@@QEAAPEAV12@XZ ; CAMSchedule::CAdvisePacket::RemoveNext
;	COMDAT pdata
pdata	SEGMENT
$pdata$?DeleteNext@CAdvisePacket@CAMSchedule@@QEAAXXZ DD imagerel $LN3
	DD	imagerel $LN3+61
	DD	imagerel $unwind$?DeleteNext@CAdvisePacket@CAMSchedule@@QEAAXXZ
pdata	ENDS
;	COMDAT xdata
xdata	SEGMENT
$unwind$?DeleteNext@CAdvisePacket@CAMSchedule@@QEAAXXZ DD 021e01H
	DD	07006520aH
; Function compile flags: /Odtp /RTCsu
xdata	ENDS
;	COMDAT ?DeleteNext@CAdvisePacket@CAMSchedule@@QEAAXXZ
_TEXT	SEGMENT
$T82959 = 32
this$ = 64
?DeleteNext@CAdvisePacket@CAMSchedule@@QEAAXXZ PROC	; CAMSchedule::CAdvisePacket::DeleteNext, COMDAT
; Line 74
$LN3:
	mov	QWORD PTR [rsp+8], rcx
	push	rdi
	sub	rsp, 48					; 00000030H
	mov	rdi, rsp
	mov	ecx, 12
	mov	eax, -858993460				; ccccccccH
	rep stosd
	mov	rcx, QWORD PTR [rsp+64]
; Line 75
	mov	rcx, QWORD PTR this$[rsp]
	call	?RemoveNext@CAdvisePacket@CAMSchedule@@QEAAPEAV12@XZ ; CAMSchedule::CAdvisePacket::RemoveNext
	mov	QWORD PTR $T82959[rsp], rax
	mov	rcx, QWORD PTR $T82959[rsp]
	call	??3@YAXPEAX@Z				; operator delete
; Line 76
	add	rsp, 48					; 00000030H
	pop	rdi
	ret	0
?DeleteNext@CAdvisePacket@CAMSchedule@@QEAAXXZ ENDP	; CAMSchedule::CAdvisePacket::DeleteNext
_TEXT	ENDS
;	COMDAT pdata
pdata	SEGMENT
$pdata$?RemoveNext@CAdvisePacket@CAMSchedule@@QEAAPEAV12@XZ DD imagerel $LN3
	DD	imagerel $LN3+77
	DD	imagerel $unwind$?RemoveNext@CAdvisePacket@CAMSchedule@@QEAAPEAV12@XZ
pdata	ENDS
;	COMDAT xdata
xdata	SEGMENT
$unwind$?RemoveNext@CAdvisePacket@CAMSchedule@@QEAAPEAV12@XZ DD 021e01H
	DD	07006120aH
; Function compile flags: /Odtp /RTCsu
xdata	ENDS
;	COMDAT ?RemoveNext@CAdvisePacket@CAMSchedule@@QEAAPEAV12@XZ
_TEXT	SEGMENT
next$ = 0
new_next$ = 8
this$ = 32
?RemoveNext@CAdvisePacket@CAMSchedule@@QEAAPEAV12@XZ PROC ; CAMSchedule::CAdvisePacket::RemoveNext, COMDAT
; Line 66
$LN3:
	mov	QWORD PTR [rsp+8], rcx
	push	rdi
	sub	rsp, 16
	mov	rdi, rsp
	mov	ecx, 4
	mov	eax, -858993460				; ccccccccH
	rep stosd
	mov	rcx, QWORD PTR [rsp+32]
; Line 67
	mov	rax, QWORD PTR this$[rsp]
	mov	rax, QWORD PTR [rax]
	mov	QWORD PTR next$[rsp], rax
; Line 68
	mov	rax, QWORD PTR next$[rsp]
	mov	rax, QWORD PTR [rax]
	mov	QWORD PTR new_next$[rsp], rax
; Line 69
	mov	rax, QWORD PTR this$[rsp]
	mov	rcx, QWORD PTR new_next$[rsp]
	mov	QWORD PTR [rax], rcx
; Line 70
	mov	rax, QWORD PTR next$[rsp]
; Line 71
	add	rsp, 16
	pop	rdi
	ret	0
?RemoveNext@CAdvisePacket@CAMSchedule@@QEAAPEAV12@XZ ENDP ; CAMSchedule::CAdvisePacket::RemoveNext
_TEXT	ENDS
PUBLIC	?GetAdviseCount@CAMSchedule@@QEAAKXZ		; CAMSchedule::GetAdviseCount
;	COMDAT pdata
; File c:\downloads\wpf mediakit - copy\src\filters\baseclasses\schedule.cpp
pdata	SEGMENT
$pdata$?GetAdviseCount@CAMSchedule@@QEAAKXZ DD imagerel $LN3
	DD	imagerel $LN3+16
	DD	imagerel $unwind$?GetAdviseCount@CAMSchedule@@QEAAKXZ
pdata	ENDS
;	COMDAT xdata
xdata	SEGMENT
$unwind$?GetAdviseCount@CAMSchedule@@QEAAKXZ DD 010601H
	DD	07006H
; Function compile flags: /Odtp /RTCsu
xdata	ENDS
;	COMDAT ?GetAdviseCount@CAMSchedule@@QEAAKXZ
_TEXT	SEGMENT
this$ = 16
?GetAdviseCount@CAMSchedule@@QEAAKXZ PROC		; CAMSchedule::GetAdviseCount, COMDAT
; Line 66
$LN3:
	mov	QWORD PTR [rsp+8], rcx
	push	rdi
; Line 68
	mov	rax, QWORD PTR this$[rsp]
	mov	eax, DWORD PTR [rax+120]
; Line 69
	pop	rdi
	ret	0
?GetAdviseCount@CAMSchedule@@QEAAKXZ ENDP		; CAMSchedule::GetAdviseCount
_TEXT	ENDS
PUBLIC	??1CAutoLock@@QEAA@XZ				; CAutoLock::~CAutoLock
PUBLIC	??0CAutoLock@@QEAA@PEAVCCritSec@@@Z		; CAutoLock::CAutoLock
PUBLIC	?GetNextAdviseTime@CAMSchedule@@QEAA_JXZ	; CAMSchedule::GetNextAdviseTime
EXTRN	_RTC_CheckStackVars:PROC
;	COMDAT pdata
pdata	SEGMENT
$pdata$?GetNextAdviseTime@CAMSchedule@@QEAA_JXZ DD imagerel $LN4
	DD	imagerel $LN4+114
	DD	imagerel $unwind$?GetNextAdviseTime@CAMSchedule@@QEAA_JXZ
pdata	ENDS
;	COMDAT xdata
xdata	SEGMENT
$unwind$?GetNextAdviseTime@CAMSchedule@@QEAA_JXZ DD 021e01H
	DD	07006720aH
xdata	ENDS
;	COMDAT CONST
CONST	SEGMENT
?GetNextAdviseTime@CAMSchedule@@QEAA_JXZ$rtcName$0 DB 06cH ; CAMSchedule::GetNextAdviseTime
	DB	063H
	DB	06bH
	DB	00H
	ORG $+12
?GetNextAdviseTime@CAMSchedule@@QEAA_JXZ$rtcVarDesc DD 028H ; CAMSchedule::GetNextAdviseTime
	DD	08H
	DQ	FLAT:?GetNextAdviseTime@CAMSchedule@@QEAA_JXZ$rtcName$0
	ORG $+48
?GetNextAdviseTime@CAMSchedule@@QEAA_JXZ$rtcFrameData DD 01H ; CAMSchedule::GetNextAdviseTime
	DD	00H
	DQ	FLAT:?GetNextAdviseTime@CAMSchedule@@QEAA_JXZ$rtcVarDesc
; Function compile flags: /Odtp /RTCsu
CONST	ENDS
;	COMDAT ?GetNextAdviseTime@CAMSchedule@@QEAA_JXZ
_TEXT	SEGMENT
lck$ = 40
$T82981 = 56
this$ = 80
?GetNextAdviseTime@CAMSchedule@@QEAA_JXZ PROC		; CAMSchedule::GetNextAdviseTime, COMDAT
; Line 72
$LN4:
	mov	QWORD PTR [rsp+8], rcx
	push	rdi
	sub	rsp, 64					; 00000040H
	mov	rdi, rsp
	mov	ecx, 16
	mov	eax, -858993460				; ccccccccH
	rep stosd
	mov	rcx, QWORD PTR [rsp+80]
; Line 73
	mov	rax, QWORD PTR this$[rsp]
	add	rax, 128				; 00000080H
	mov	rdx, rax
	lea	rcx, QWORD PTR lck$[rsp]
	call	??0CAutoLock@@QEAA@PEAVCCritSec@@@Z	; CAutoLock::CAutoLock
; Line 74
	mov	rax, QWORD PTR this$[rsp]
	mov	rax, QWORD PTR [rax+16]
	mov	rax, QWORD PTR [rax+16]
	mov	QWORD PTR $T82981[rsp], rax
	lea	rcx, QWORD PTR lck$[rsp]
	call	??1CAutoLock@@QEAA@XZ			; CAutoLock::~CAutoLock
	mov	rax, QWORD PTR $T82981[rsp]
; Line 75
	mov	rdi, rax
	mov	rcx, rsp
	lea	rdx, OFFSET FLAT:?GetNextAdviseTime@CAMSchedule@@QEAA_JXZ$rtcFrameData
	call	_RTC_CheckStackVars
	mov	rax, rdi
	add	rsp, 64					; 00000040H
	pop	rdi
	ret	0
?GetNextAdviseTime@CAMSchedule@@QEAA_JXZ ENDP		; CAMSchedule::GetNextAdviseTime
_TEXT	ENDS
;	COMDAT pdata
; File c:\downloads\wpf mediakit - copy\src\filters\baseclasses\wxutil.h
pdata	SEGMENT
$pdata$??0CAutoLock@@QEAA@PEAVCCritSec@@@Z DD imagerel $LN3
	DD	imagerel $LN3+72
	DD	imagerel $unwind$??0CAutoLock@@QEAA@PEAVCCritSec@@@Z
pdata	ENDS
;	COMDAT xdata
xdata	SEGMENT
$unwind$??0CAutoLock@@QEAA@PEAVCCritSec@@@Z DD 022301H
	DD	0700b320fH
; Function compile flags: /Odtp /RTCsu
xdata	ENDS
;	COMDAT ??0CAutoLock@@QEAA@PEAVCCritSec@@@Z
_TEXT	SEGMENT
this$ = 48
plock$ = 56
??0CAutoLock@@QEAA@PEAVCCritSec@@@Z PROC		; CAutoLock::CAutoLock, COMDAT
; Line 94
$LN3:
	mov	QWORD PTR [rsp+16], rdx
	mov	QWORD PTR [rsp+8], rcx
	push	rdi
	sub	rsp, 32					; 00000020H
	mov	rdi, rsp
	mov	ecx, 8
	mov	eax, -858993460				; ccccccccH
	rep stosd
	mov	rcx, QWORD PTR [rsp+48]
; Line 96
	mov	rax, QWORD PTR this$[rsp]
	mov	rcx, QWORD PTR plock$[rsp]
	mov	QWORD PTR [rax], rcx
; Line 97
	mov	rax, QWORD PTR this$[rsp]
	mov	rcx, QWORD PTR [rax]
	call	?Lock@CCritSec@@QEAAXXZ			; CCritSec::Lock
; Line 98
	mov	rax, QWORD PTR this$[rsp]
	add	rsp, 32					; 00000020H
	pop	rdi
	ret	0
??0CAutoLock@@QEAA@PEAVCCritSec@@@Z ENDP		; CAutoLock::CAutoLock
_TEXT	ENDS
;	COMDAT pdata
pdata	SEGMENT
$pdata$??1CAutoLock@@QEAA@XZ DD imagerel $LN3
	DD	imagerel $LN3+49
	DD	imagerel $unwind$??1CAutoLock@@QEAA@XZ
pdata	ENDS
;	COMDAT xdata
xdata	SEGMENT
$unwind$??1CAutoLock@@QEAA@XZ DD 021e01H
	DD	07006320aH
; Function compile flags: /Odtp /RTCsu
xdata	ENDS
;	COMDAT ??1CAutoLock@@QEAA@XZ
_TEXT	SEGMENT
this$ = 48
??1CAutoLock@@QEAA@XZ PROC				; CAutoLock::~CAutoLock, COMDAT
; Line 100
$LN3:
	mov	QWORD PTR [rsp+8], rcx
	push	rdi
	sub	rsp, 32					; 00000020H
	mov	rdi, rsp
	mov	ecx, 8
	mov	eax, -858993460				; ccccccccH
	rep stosd
	mov	rcx, QWORD PTR [rsp+48]
; Line 101
	mov	rax, QWORD PTR this$[rsp]
	mov	rcx, QWORD PTR [rax]
	call	?Unlock@CCritSec@@QEAAXXZ		; CCritSec::Unlock
; Line 102
	add	rsp, 32					; 00000020H
	pop	rdi
	ret	0
??1CAutoLock@@QEAA@XZ ENDP				; CAutoLock::~CAutoLock
_TEXT	ENDS
PUBLIC	?AddAdvisePacket@CAMSchedule@@AEAA_KPEAVCAdvisePacket@1@@Z ; CAMSchedule::AddAdvisePacket
PUBLIC	??0CAdvisePacket@CAMSchedule@@QEAA@XZ		; CAMSchedule::CAdvisePacket::CAdvisePacket
PUBLIC	?AddAdvisePacket@CAMSchedule@@QEAA_KAEB_J0PEAXH@Z ; CAMSchedule::AddAdvisePacket
EXTRN	??2@YAPEAX_K@Z:PROC				; operator new
;	COMDAT pdata
; File c:\downloads\wpf mediakit - copy\src\filters\baseclasses\schedule.cpp
pdata	SEGMENT
$pdata$?AddAdvisePacket@CAMSchedule@@QEAA_KAEB_J0PEAXH@Z DD imagerel $LN11
	DD	imagerel $LN11+397
	DD	imagerel $unwind$?AddAdvisePacket@CAMSchedule@@QEAA_KAEB_J0PEAXH@Z
pdata	ENDS
;	COMDAT pdata
pdata	SEGMENT
$pdata$?dtor$0@?0??AddAdvisePacket@CAMSchedule@@QEAA_KAEB_J0PEAXH@Z@4HA DD imagerel ?dtor$0@?0??AddAdvisePacket@CAMSchedule@@QEAA_KAEB_J0PEAXH@Z@4HA
	DD	imagerel ?dtor$0@?0??AddAdvisePacket@CAMSchedule@@QEAA_KAEB_J0PEAXH@Z@4HA+35
	DD	imagerel $unwind$?dtor$0@?0??AddAdvisePacket@CAMSchedule@@QEAA_KAEB_J0PEAXH@Z@4HA
pdata	ENDS
;	COMDAT xdata
xdata	SEGMENT
$ip2state$?AddAdvisePacket@CAMSchedule@@QEAA_KAEB_J0PEAXH@Z DD imagerel ?AddAdvisePacket@CAMSchedule@@QEAA_KAEB_J0PEAXH@Z
	DD	0ffffffffH
	DD	imagerel ?AddAdvisePacket@CAMSchedule@@QEAA_KAEB_J0PEAXH@Z+211
	DD	00H
	DD	imagerel ?AddAdvisePacket@CAMSchedule@@QEAA_KAEB_J0PEAXH@Z+255
	DD	0ffffffffH
xdata	ENDS
;	COMDAT xdata
xdata	SEGMENT
$unwind$?dtor$0@?0??AddAdvisePacket@CAMSchedule@@QEAA_KAEB_J0PEAXH@Z@4HA DD 031001H
	DD	0700c4210H
	DD	0500bH
xdata	ENDS
;	COMDAT xdata
xdata	SEGMENT
$unwind$?AddAdvisePacket@CAMSchedule@@QEAA_KAEB_J0PEAXH@Z DD 023611H
	DD	070159219H
	DD	imagerel __CxxFrameHandler3
	DD	imagerel $cppxdata$?AddAdvisePacket@CAMSchedule@@QEAA_KAEB_J0PEAXH@Z
xdata	ENDS
;	COMDAT CONST
CONST	SEGMENT
$cppxdata$?AddAdvisePacket@CAMSchedule@@QEAA_KAEB_J0PEAXH@Z DD 019930522H
	DD	01H
	DD	imagerel $stateUnwindMap$?AddAdvisePacket@CAMSchedule@@QEAA_KAEB_J0PEAXH@Z
	DD	00H
	DD	00H
	DD	03H
	DD	imagerel $ip2state$?AddAdvisePacket@CAMSchedule@@QEAA_KAEB_J0PEAXH@Z
	DD	040H
	DD	00H
	DD	01H
CONST	ENDS
;	COMDAT xdata
xdata	SEGMENT
$stateUnwindMap$?AddAdvisePacket@CAMSchedule@@QEAA_KAEB_J0PEAXH@Z DD 0ffffffffH
	DD	imagerel ?dtor$0@?0??AddAdvisePacket@CAMSchedule@@QEAA_KAEB_J0PEAXH@Z@4HA
; Function compile flags: /Odtp /RTCsu
xdata	ENDS
;	COMDAT ?AddAdvisePacket@CAMSchedule@@QEAA_KAEB_J0PEAXH@Z
_TEXT	SEGMENT
Result$ = 32
p$ = 40
$T83012 = 48
$T83013 = 56
$T83021 = 64
tv84 = 72
this$ = 96
time1$ = 104
time2$ = 112
h$ = 120
periodic$ = 128
?AddAdvisePacket@CAMSchedule@@QEAA_KAEB_J0PEAXH@Z PROC	; CAMSchedule::AddAdvisePacket, COMDAT
; Line 82
$LN11:
	mov	QWORD PTR [rsp+32], r9
	mov	QWORD PTR [rsp+24], r8
	mov	QWORD PTR [rsp+16], rdx
	mov	QWORD PTR [rsp+8], rcx
	push	rdi
	sub	rsp, 80					; 00000050H
	mov	rdi, rsp
	mov	ecx, 20
	mov	eax, -858993460				; ccccccccH
	rep stosd
	mov	rcx, QWORD PTR [rsp+96]
	mov	QWORD PTR $T83021[rsp], -2
; Line 85
	mov	rax, QWORD PTR time1$[rsp]
	mov	rcx, 9223372036854775807		; 7fffffffffffffffH
	cmp	QWORD PTR [rax], rcx
	jl	SHORT $LN5@AddAdviseP
	mov	r8d, 85					; 00000055H
	lea	rdx, OFFSET FLAT:$SG82271
	lea	rcx, OFFSET FLAT:$SG82272
	call	?DbgAssert@@YAXPEB_W0H@Z		; DbgAssert
$LN5@AddAdviseP:
; Line 89
	mov	rax, QWORD PTR this$[rsp]
	add	rax, 128				; 00000080H
	mov	rcx, rax
	call	?Lock@CCritSec@@QEAAXXZ			; CCritSec::Lock
; Line 91
	mov	rax, QWORD PTR this$[rsp]
	cmp	QWORD PTR [rax+192], 0
	je	SHORT $LN4@AddAdviseP
; Line 93
	mov	rax, QWORD PTR this$[rsp]
	mov	rax, QWORD PTR [rax+192]
	mov	QWORD PTR p$[rsp], rax
; Line 94
	mov	rax, QWORD PTR this$[rsp]
	mov	rcx, QWORD PTR p$[rsp]
	mov	rcx, QWORD PTR [rcx]
	mov	QWORD PTR [rax+192], rcx
; Line 95
	mov	rax, QWORD PTR this$[rsp]
	mov	eax, DWORD PTR [rax+200]
	dec	eax
	mov	rcx, QWORD PTR this$[rsp]
	mov	DWORD PTR [rcx+200], eax
; Line 97
	jmp	SHORT $LN3@AddAdviseP
$LN4@AddAdviseP:
; Line 99
	mov	ecx, 48					; 00000030H
	call	??2@YAPEAX_K@Z				; operator new
	mov	QWORD PTR $T83013[rsp], rax
	cmp	QWORD PTR $T83013[rsp], 0
	je	SHORT $LN8@AddAdviseP
	mov	rcx, QWORD PTR $T83013[rsp]
	call	??0CAdvisePacket@CAMSchedule@@QEAA@XZ	; CAMSchedule::CAdvisePacket::CAdvisePacket
	mov	QWORD PTR tv84[rsp], rax
	jmp	SHORT $LN9@AddAdviseP
$LN8@AddAdviseP:
	mov	QWORD PTR tv84[rsp], 0
$LN9@AddAdviseP:
	mov	rax, QWORD PTR tv84[rsp]
	mov	QWORD PTR $T83012[rsp], rax
	mov	rax, QWORD PTR $T83012[rsp]
	mov	QWORD PTR p$[rsp], rax
$LN3@AddAdviseP:
; Line 101
	cmp	QWORD PTR p$[rsp], 0
	je	SHORT $LN2@AddAdviseP
; Line 103
	mov	rax, QWORD PTR p$[rsp]
	mov	rcx, QWORD PTR time1$[rsp]
	mov	rcx, QWORD PTR [rcx]
	mov	QWORD PTR [rax+16], rcx
	mov	rax, QWORD PTR p$[rsp]
	mov	rcx, QWORD PTR time2$[rsp]
	mov	rcx, QWORD PTR [rcx]
	mov	QWORD PTR [rax+24], rcx
; Line 104
	mov	rax, QWORD PTR p$[rsp]
	mov	rcx, QWORD PTR h$[rsp]
	mov	QWORD PTR [rax+32], rcx
	mov	rax, QWORD PTR p$[rsp]
	mov	ecx, DWORD PTR periodic$[rsp]
	mov	DWORD PTR [rax+40], ecx
; Line 105
	mov	rdx, QWORD PTR p$[rsp]
	mov	rcx, QWORD PTR this$[rsp]
	call	?AddAdvisePacket@CAMSchedule@@AEAA_KPEAVCAdvisePacket@1@@Z ; CAMSchedule::AddAdvisePacket
	mov	QWORD PTR Result$[rsp], rax
	jmp	SHORT $LN1@AddAdviseP
$LN2@AddAdviseP:
; Line 107
	mov	QWORD PTR Result$[rsp], 0
$LN1@AddAdviseP:
; Line 109
	mov	rax, QWORD PTR this$[rsp]
	add	rax, 128				; 00000080H
	mov	rcx, rax
	call	?Unlock@CCritSec@@QEAAXXZ		; CCritSec::Unlock
; Line 111
	mov	rax, QWORD PTR Result$[rsp]
; Line 112
	add	rsp, 80					; 00000050H
	pop	rdi
	ret	0
?AddAdvisePacket@CAMSchedule@@QEAA_KAEB_J0PEAXH@Z ENDP	; CAMSchedule::AddAdvisePacket
; Function compile flags: /Odtp /RTCsu
_TEXT	ENDS
;	COMDAT text$x
text$x	SEGMENT
Result$ = 32
p$ = 40
$T83012 = 48
$T83013 = 56
$T83021 = 64
tv84 = 72
this$ = 96
time1$ = 104
time2$ = 112
h$ = 120
periodic$ = 128
?dtor$0@?0??AddAdvisePacket@CAMSchedule@@QEAA_KAEB_J0PEAXH@Z@4HA PROC ; `CAMSchedule::AddAdvisePacket'::`1'::dtor$0
	mov	QWORD PTR [rsp+8], rcx
	mov	QWORD PTR [rsp+16], rdx
	push	rbp
	push	rdi
	sub	rsp, 40					; 00000028H
	mov	rbp, rdx
	mov	rcx, QWORD PTR $T83013[rbp]
	call	??3@YAXPEAX@Z				; operator delete
	add	rsp, 40					; 00000028H
	pop	rdi
	pop	rbp
	ret	0
?dtor$0@?0??AddAdvisePacket@CAMSchedule@@QEAA_KAEB_J0PEAXH@Z@4HA ENDP ; `CAMSchedule::AddAdvisePacket'::`1'::dtor$0
text$x	ENDS
;	COMDAT pdata
; File c:\downloads\wpf mediakit - copy\src\filters\baseclasses\dsschedule.h
pdata	SEGMENT
$pdata$??0CAdvisePacket@CAMSchedule@@QEAA@XZ DD imagerel $LN3
	DD	imagerel $LN3+13
	DD	imagerel $unwind$??0CAdvisePacket@CAMSchedule@@QEAA@XZ
pdata	ENDS
;	COMDAT xdata
xdata	SEGMENT
$unwind$??0CAdvisePacket@CAMSchedule@@QEAA@XZ DD 010601H
	DD	07006H
; Function compile flags: /Odtp /RTCsu
xdata	ENDS
;	COMDAT ??0CAdvisePacket@CAMSchedule@@QEAA@XZ
_TEXT	SEGMENT
this$ = 16
??0CAdvisePacket@CAMSchedule@@QEAA@XZ PROC		; CAMSchedule::CAdvisePacket::CAdvisePacket, COMDAT
; Line 43
$LN3:
	mov	QWORD PTR [rsp+8], rcx
	push	rdi
	mov	rax, QWORD PTR this$[rsp]
	pop	rdi
	ret	0
??0CAdvisePacket@CAMSchedule@@QEAA@XZ ENDP		; CAMSchedule::CAdvisePacket::CAdvisePacket
_TEXT	ENDS
PUBLIC	?Delete@CAMSchedule@@AEAAXPEAVCAdvisePacket@1@@Z ; CAMSchedule::Delete
PUBLIC	?Next@CAdvisePacket@CAMSchedule@@QEBAPEAV12@XZ	; CAMSchedule::CAdvisePacket::Next
PUBLIC	?Unadvise@CAMSchedule@@QEAAJ_K@Z		; CAMSchedule::Unadvise
;	COMDAT pdata
; File c:\downloads\wpf mediakit - copy\src\filters\baseclasses\schedule.cpp
pdata	SEGMENT
$pdata$?Unadvise@CAMSchedule@@QEAAJ_K@Z DD imagerel $LN9
	DD	imagerel $LN9+290
	DD	imagerel $unwind$?Unadvise@CAMSchedule@@QEAAJ_K@Z
pdata	ENDS
;	COMDAT xdata
xdata	SEGMENT
$unwind$?Unadvise@CAMSchedule@@QEAAJ_K@Z DD 022301H
	DD	0700b720fH
; Function compile flags: /Odtp /RTCsu
xdata	ENDS
;	COMDAT ?Unadvise@CAMSchedule@@QEAAJ_K@Z
_TEXT	SEGMENT
hr$ = 32
p_prev$ = 40
p_n$ = 48
this$ = 80
dwAdviseCookie$ = 88
?Unadvise@CAMSchedule@@QEAAJ_K@Z PROC			; CAMSchedule::Unadvise, COMDAT
; Line 115
$LN9:
	mov	QWORD PTR [rsp+16], rdx
	mov	QWORD PTR [rsp+8], rcx
	push	rdi
	sub	rsp, 64					; 00000040H
	mov	rdi, rsp
	mov	ecx, 16
	mov	eax, -858993460				; ccccccccH
	rep stosd
	mov	rcx, QWORD PTR [rsp+80]
; Line 116
	mov	DWORD PTR hr$[rsp], 1
; Line 117
	mov	rax, QWORD PTR this$[rsp]
	add	rax, 16
	mov	QWORD PTR p_prev$[rsp], rax
; Line 119
	mov	rax, QWORD PTR this$[rsp]
	add	rax, 128				; 00000080H
	mov	rcx, rax
	call	?Lock@CCritSec@@QEAAXXZ			; CCritSec::Lock
$LN6@Unadvise:
; Line 120
	mov	rcx, QWORD PTR p_prev$[rsp]
	call	?Next@CAdvisePacket@CAMSchedule@@QEBAPEAV12@XZ ; CAMSchedule::CAdvisePacket::Next
	mov	QWORD PTR p_n$[rsp], rax
	cmp	QWORD PTR p_n$[rsp], 0
	je	$LN5@Unadvise
; Line 122
	mov	rax, QWORD PTR p_n$[rsp]
	mov	rcx, QWORD PTR dwAdviseCookie$[rsp]
	cmp	QWORD PTR [rax+8], rcx
	jne	SHORT $LN4@Unadvise
; Line 124
	mov	rcx, QWORD PTR p_prev$[rsp]
	call	?RemoveNext@CAdvisePacket@CAMSchedule@@QEAAPEAV12@XZ ; CAMSchedule::CAdvisePacket::RemoveNext
	mov	rdx, rax
	mov	rcx, QWORD PTR this$[rsp]
	call	?Delete@CAMSchedule@@AEAAXPEAVCAdvisePacket@1@@Z ; CAMSchedule::Delete
; Line 125
	mov	rax, QWORD PTR this$[rsp]
	mov	eax, DWORD PTR [rax+120]
	dec	eax
	mov	rcx, QWORD PTR this$[rsp]
	mov	DWORD PTR [rcx+120], eax
; Line 126
	mov	DWORD PTR hr$[rsp], 0
$LN3@Unadvise:
; Line 129
	mov	rcx, QWORD PTR p_prev$[rsp]
	call	?Next@CAdvisePacket@CAMSchedule@@QEBAPEAV12@XZ ; CAMSchedule::CAdvisePacket::Next
	mov	QWORD PTR p_n$[rsp], rax
	cmp	QWORD PTR p_n$[rsp], 0
	je	SHORT $LN2@Unadvise
; Line 131
	mov	rax, QWORD PTR p_n$[rsp]
	mov	rcx, QWORD PTR dwAdviseCookie$[rsp]
	cmp	QWORD PTR [rax+8], rcx
	jne	SHORT $LN1@Unadvise
	mov	r8d, 131				; 00000083H
	lea	rdx, OFFSET FLAT:$SG82300
	lea	rcx, OFFSET FLAT:$SG82301
	call	?DbgAssert@@YAXPEB_W0H@Z		; DbgAssert
$LN1@Unadvise:
; Line 132
	mov	rax, QWORD PTR p_n$[rsp]
	mov	QWORD PTR p_prev$[rsp], rax
; Line 133
	jmp	SHORT $LN3@Unadvise
$LN2@Unadvise:
; Line 135
	jmp	SHORT $LN5@Unadvise
$LN4@Unadvise:
; Line 137
	mov	rax, QWORD PTR p_n$[rsp]
	mov	QWORD PTR p_prev$[rsp], rax
; Line 138
	jmp	$LN6@Unadvise
$LN5@Unadvise:
; Line 139
	mov	rax, QWORD PTR this$[rsp]
	add	rax, 128				; 00000080H
	mov	rcx, rax
	call	?Unlock@CCritSec@@QEAAXXZ		; CCritSec::Unlock
; Line 140
	mov	eax, DWORD PTR hr$[rsp]
; Line 141
	add	rsp, 64					; 00000040H
	pop	rdi
	ret	0
?Unadvise@CAMSchedule@@QEAAJ_K@Z ENDP			; CAMSchedule::Unadvise
_TEXT	ENDS
;	COMDAT pdata
; File c:\downloads\wpf mediakit - copy\src\filters\baseclasses\dsschedule.h
pdata	SEGMENT
$pdata$?Next@CAdvisePacket@CAMSchedule@@QEBAPEAV12@XZ DD imagerel $LN4
	DD	imagerel $LN4+77
	DD	imagerel $unwind$?Next@CAdvisePacket@CAMSchedule@@QEBAPEAV12@XZ
pdata	ENDS
;	COMDAT xdata
xdata	SEGMENT
$unwind$?Next@CAdvisePacket@CAMSchedule@@QEBAPEAV12@XZ DD 021e01H
	DD	07006520aH
; Function compile flags: /Odtp /RTCsu
xdata	ENDS
;	COMDAT ?Next@CAdvisePacket@CAMSchedule@@QEBAPEAV12@XZ
_TEXT	SEGMENT
result$ = 32
this$ = 64
?Next@CAdvisePacket@CAMSchedule@@QEBAPEAV12@XZ PROC	; CAMSchedule::CAdvisePacket::Next, COMDAT
; Line 79
$LN4:
	mov	QWORD PTR [rsp+8], rcx
	push	rdi
	sub	rsp, 48					; 00000030H
	mov	rdi, rsp
	mov	ecx, 12
	mov	eax, -858993460				; ccccccccH
	rep stosd
	mov	rcx, QWORD PTR [rsp+64]
; Line 80
	mov	rax, QWORD PTR this$[rsp]
	mov	rax, QWORD PTR [rax]
	mov	QWORD PTR result$[rsp], rax
; Line 81
	mov	rcx, QWORD PTR result$[rsp]
	call	?IsZ@CAdvisePacket@CAMSchedule@@QEBAHXZ	; CAMSchedule::CAdvisePacket::IsZ
	test	eax, eax
	je	SHORT $LN1@Next
	mov	QWORD PTR result$[rsp], 0
$LN1@Next:
; Line 82
	mov	rax, QWORD PTR result$[rsp]
; Line 83
	add	rsp, 48					; 00000030H
	pop	rdi
	ret	0
?Next@CAdvisePacket@CAMSchedule@@QEBAPEAV12@XZ ENDP	; CAMSchedule::CAdvisePacket::Next
_TEXT	ENDS
PUBLIC	?ShuntHead@CAMSchedule@@AEAAXXZ			; CAMSchedule::ShuntHead
PUBLIC	?Advise@CAMSchedule@@QEAA_JAEB_J@Z		; CAMSchedule::Advise
EXTRN	__imp_SetEvent:PROC
EXTRN	__imp_ReleaseSemaphore:PROC
EXTRN	?DbgCheckModuleLevel@@YAHKK@Z:PROC		; DbgCheckModuleLevel
EXTRN	?DbgLogInfo@@YAXKKPEB_WZZ:PROC			; DbgLogInfo
;	COMDAT pdata
; File c:\downloads\wpf mediakit - copy\src\filters\baseclasses\schedule.cpp
pdata	SEGMENT
$pdata$?Advise@CAMSchedule@@QEAA_JAEB_J@Z DD imagerel $LN13
	DD	imagerel $LN13+628
	DD	imagerel $unwind$?Advise@CAMSchedule@@QEAA_JAEB_J@Z
pdata	ENDS
;	COMDAT pdata
pdata	SEGMENT
$pdata$?dtor$0@?0??Advise@CAMSchedule@@QEAA_JAEB_J@Z@4HA DD imagerel ?dtor$0@?0??Advise@CAMSchedule@@QEAA_JAEB_J@Z@4HA
	DD	imagerel ?dtor$0@?0??Advise@CAMSchedule@@QEAA_JAEB_J@Z@4HA+35
	DD	imagerel $unwind$?dtor$0@?0??Advise@CAMSchedule@@QEAA_JAEB_J@Z@4HA
pdata	ENDS
;	COMDAT xdata
xdata	SEGMENT
$ip2state$?Advise@CAMSchedule@@QEAA_JAEB_J@Z DD imagerel ?Advise@CAMSchedule@@QEAA_JAEB_J@Z
	DD	0ffffffffH
	DD	imagerel ?Advise@CAMSchedule@@QEAA_JAEB_J@Z+121
	DD	00H
	DD	imagerel ?Advise@CAMSchedule@@QEAA_JAEB_J@Z+586
	DD	0ffffffffH
xdata	ENDS
;	COMDAT xdata
xdata	SEGMENT
$unwind$?dtor$0@?0??Advise@CAMSchedule@@QEAA_JAEB_J@Z@4HA DD 031001H
	DD	0700c4210H
	DD	0500bH
xdata	ENDS
;	COMDAT xdata
xdata	SEGMENT
$unwind$?Advise@CAMSchedule@@QEAA_JAEB_J@Z DD 022f11H
	DD	0700bd20fH
	DD	imagerel __CxxFrameHandler3
	DD	imagerel $cppxdata$?Advise@CAMSchedule@@QEAA_JAEB_J@Z
xdata	ENDS
;	COMDAT xdata
xdata	SEGMENT
$stateUnwindMap$?Advise@CAMSchedule@@QEAA_JAEB_J@Z DD 0ffffffffH
	DD	imagerel ?dtor$0@?0??Advise@CAMSchedule@@QEAA_JAEB_J@Z@4HA
xdata	ENDS
;	COMDAT CONST
CONST	SEGMENT
?Advise@CAMSchedule@@QEAA_JAEB_J@Z$rtcName$0 DB 06cH	; CAMSchedule::Advise
	DB	063H
	DB	06bH
	DB	00H
	ORG $+12
?Advise@CAMSchedule@@QEAA_JAEB_J@Z$rtcVarDesc DD 048H	; CAMSchedule::Advise
	DD	08H
	DQ	FLAT:?Advise@CAMSchedule@@QEAA_JAEB_J@Z$rtcName$0
	ORG $+48
?Advise@CAMSchedule@@QEAA_JAEB_J@Z$rtcFrameData DD 01H	; CAMSchedule::Advise
	DD	00H
	DQ	FLAT:?Advise@CAMSchedule@@QEAA_JAEB_J@Z$rtcVarDesc
$cppxdata$?Advise@CAMSchedule@@QEAA_JAEB_J@Z DD 019930522H
	DD	01H
	DD	imagerel $stateUnwindMap$?Advise@CAMSchedule@@QEAA_JAEB_J@Z
	DD	00H
	DD	00H
	DD	03H
	DD	imagerel $ip2state$?Advise@CAMSchedule@@QEAA_JAEB_J@Z
	DD	060H
	DD	00H
	DD	01H
; Function compile flags: /Odtp /RTCsu
CONST	ENDS
;	COMDAT ?Advise@CAMSchedule@@QEAA_JAEB_J@Z
_TEXT	SEGMENT
rtNextTime$ = 48
pAdvise$ = 56
lck$ = 72
$T83060 = 88
$T83066 = 96
this$ = 128
rtTime$ = 136
?Advise@CAMSchedule@@QEAA_JAEB_J@Z PROC			; CAMSchedule::Advise, COMDAT
; Line 144
$LN13:
	mov	QWORD PTR [rsp+16], rdx
	mov	QWORD PTR [rsp+8], rcx
	push	rdi
	sub	rsp, 112				; 00000070H
	mov	rdi, rsp
	mov	ecx, 28
	mov	eax, -858993460				; ccccccccH
	rep stosd
	mov	rcx, QWORD PTR [rsp+128]
	mov	QWORD PTR $T83066[rsp], -2
; Line 149
	mov	rax, QWORD PTR rtTime$[rsp]
	mov	rax, QWORD PTR [rax]
	cdq
	mov	ecx, 10000				; 00002710H
	idiv	rcx
	mov	r9d, eax
	lea	r8, OFFSET FLAT:$SG82308
	mov	edx, 2
	mov	ecx, 1
	call	?DbgLogInfo@@YAXKKPEB_WZZ		; DbgLogInfo
; Line 151
	mov	rax, QWORD PTR this$[rsp]
	add	rax, 128				; 00000080H
	mov	rdx, rax
	lea	rcx, QWORD PTR lck$[rsp]
	call	??0CAutoLock@@QEAA@PEAVCCritSec@@@Z	; CAutoLock::CAutoLock
	npad	1
; Line 154
	mov	edx, 4
	mov	ecx, 1
	call	?DbgCheckModuleLevel@@YAHKK@Z		; DbgCheckModuleLevel
	test	eax, eax
	je	SHORT $LN8@Advise
	mov	rcx, QWORD PTR this$[rsp]
	call	?DumpLinkedList@CAMSchedule@@QEAAXXZ	; CAMSchedule::DumpLinkedList
$LN8@Advise:
; Line 159
	mov	rax, QWORD PTR this$[rsp]
	mov	rax, QWORD PTR [rax+16]
	mov	QWORD PTR pAdvise$[rsp], rax
	mov	rax, QWORD PTR pAdvise$[rsp]
	mov	rax, QWORD PTR [rax+16]
	mov	QWORD PTR rtNextTime$[rsp], rax
	mov	rax, QWORD PTR rtTime$[rsp]
	mov	rcx, QWORD PTR rtNextTime$[rsp]
	cmp	QWORD PTR [rax], rcx
	jl	$LN7@Advise
	mov	rcx, QWORD PTR pAdvise$[rsp]
	call	?IsZ@CAdvisePacket@CAMSchedule@@QEBAHXZ	; CAMSchedule::CAdvisePacket::IsZ
	test	eax, eax
	jne	$LN7@Advise
; Line 161
	mov	rax, QWORD PTR pAdvise$[rsp]
	cmp	QWORD PTR [rax+8], 0
	jne	SHORT $LN6@Advise
	mov	r8d, 161				; 000000a1H
	lea	rdx, OFFSET FLAT:$SG82315
	lea	rcx, OFFSET FLAT:$SG82316
	call	?DbgAssert@@YAXPEB_W0H@Z		; DbgAssert
$LN6@Advise:
; Line 163
	mov	rax, QWORD PTR pAdvise$[rsp]
	cmp	QWORD PTR [rax+32], -1
	jne	SHORT $LN5@Advise
	mov	r8d, 163				; 000000a3H
	lea	rdx, OFFSET FLAT:$SG82320
	lea	rcx, OFFSET FLAT:$SG82321
	call	?DbgAssert@@YAXPEB_W0H@Z		; DbgAssert
$LN5@Advise:
; Line 165
	mov	rax, QWORD PTR pAdvise$[rsp]
	cmp	DWORD PTR [rax+40], 1
	jne	SHORT $LN4@Advise
; Line 167
	xor	r8d, r8d
	mov	edx, 1
	mov	rax, QWORD PTR pAdvise$[rsp]
	mov	rcx, QWORD PTR [rax+32]
	call	QWORD PTR __imp_ReleaseSemaphore
; Line 168
	mov	rax, QWORD PTR pAdvise$[rsp]
	mov	rax, QWORD PTR [rax+16]
	mov	rcx, QWORD PTR pAdvise$[rsp]
	add	rax, QWORD PTR [rcx+24]
	mov	rcx, QWORD PTR pAdvise$[rsp]
	mov	QWORD PTR [rcx+16], rax
; Line 169
	mov	rcx, QWORD PTR this$[rsp]
	call	?ShuntHead@CAMSchedule@@AEAAXXZ		; CAMSchedule::ShuntHead
; Line 171
	jmp	$LN3@Advise
$LN4@Advise:
; Line 173
	mov	rax, QWORD PTR pAdvise$[rsp]
	cmp	DWORD PTR [rax+40], 0
	je	SHORT $LN2@Advise
	mov	r8d, 173				; 000000adH
	lea	rdx, OFFSET FLAT:$SG82325
	lea	rcx, OFFSET FLAT:$SG82326
	call	?DbgAssert@@YAXPEB_W0H@Z		; DbgAssert
$LN2@Advise:
; Line 174
	mov	rax, QWORD PTR pAdvise$[rsp]
	mov	rcx, QWORD PTR [rax+32]
	call	QWORD PTR __imp_SetEvent
	test	eax, eax
	jne	SHORT $LN1@Advise
	mov	r8d, 174				; 000000aeH
	lea	rdx, OFFSET FLAT:$SG82328
	lea	rcx, OFFSET FLAT:$SG82329
	call	?DbgAssert@@YAXPEB_W0H@Z		; DbgAssert
$LN1@Advise:
; Line 175
	mov	rax, QWORD PTR this$[rsp]
	mov	eax, DWORD PTR [rax+120]
	dec	eax
	mov	rcx, QWORD PTR this$[rsp]
	mov	DWORD PTR [rcx+120], eax
; Line 176
	mov	rax, QWORD PTR this$[rsp]
	add	rax, 16
	mov	rcx, rax
	call	?RemoveNext@CAdvisePacket@CAMSchedule@@QEAAPEAV12@XZ ; CAMSchedule::CAdvisePacket::RemoveNext
	mov	rdx, rax
	mov	rcx, QWORD PTR this$[rsp]
	call	?Delete@CAMSchedule@@AEAAXPEAVCAdvisePacket@1@@Z ; CAMSchedule::Delete
$LN3@Advise:
; Line 179
	jmp	$LN8@Advise
$LN7@Advise:
; Line 183
	mov	rax, QWORD PTR rtNextTime$[rsp]
	cdq
	mov	ecx, 10000				; 00002710H
	idiv	rcx
	mov	rcx, QWORD PTR pAdvise$[rsp]
	mov	rcx, QWORD PTR [rcx+8]
	mov	QWORD PTR [rsp+32], rcx
	mov	r9d, eax
	lea	r8, OFFSET FLAT:$SG82330
	mov	edx, 3
	mov	ecx, 1
	call	?DbgLogInfo@@YAXKKPEB_WZZ		; DbgLogInfo
; Line 185
	mov	rax, QWORD PTR rtNextTime$[rsp]
	mov	QWORD PTR $T83060[rsp], rax
	lea	rcx, QWORD PTR lck$[rsp]
	call	??1CAutoLock@@QEAA@XZ			; CAutoLock::~CAutoLock
	mov	rax, QWORD PTR $T83060[rsp]
; Line 186
	mov	rdi, rax
	mov	rcx, rsp
	lea	rdx, OFFSET FLAT:?Advise@CAMSchedule@@QEAA_JAEB_J@Z$rtcFrameData
	call	_RTC_CheckStackVars
	mov	rax, rdi
	add	rsp, 112				; 00000070H
	pop	rdi
	ret	0
?Advise@CAMSchedule@@QEAA_JAEB_J@Z ENDP			; CAMSchedule::Advise
; Function compile flags: /Odtp /RTCsu
_TEXT	ENDS
;	COMDAT text$x
text$x	SEGMENT
rtNextTime$ = 48
pAdvise$ = 56
lck$ = 72
$T83060 = 88
$T83066 = 96
this$ = 128
rtTime$ = 136
?dtor$0@?0??Advise@CAMSchedule@@QEAA_JAEB_J@Z@4HA PROC	; `CAMSchedule::Advise'::`1'::dtor$0
	mov	QWORD PTR [rsp+8], rcx
	mov	QWORD PTR [rsp+16], rdx
	push	rbp
	push	rdi
	sub	rsp, 40					; 00000028H
	mov	rbp, rdx
	lea	rcx, QWORD PTR lck$[rbp]
	call	??1CAutoLock@@QEAA@XZ			; CAutoLock::~CAutoLock
	add	rsp, 40					; 00000028H
	pop	rdi
	pop	rbp
	ret	0
?dtor$0@?0??Advise@CAMSchedule@@QEAA_JAEB_J@Z@4HA ENDP	; `CAMSchedule::Advise'::`1'::dtor$0
text$x	ENDS
PUBLIC	?InsertAfter@CAdvisePacket@CAMSchedule@@QEAAXPEAV12@@Z ; CAMSchedule::CAdvisePacket::InsertAfter
EXTRN	__imp_GetCurrentThreadId:PROC
EXTRN	?CritCheckIn@@YAHPEAVCCritSec@@@Z:PROC		; CritCheckIn
;	COMDAT pdata
pdata	SEGMENT
$pdata$?AddAdvisePacket@CAMSchedule@@AEAA_KPEAVCAdvisePacket@1@@Z DD imagerel $LN11
	DD	imagerel $LN11+412
	DD	imagerel $unwind$?AddAdvisePacket@CAMSchedule@@AEAA_KPEAVCAdvisePacket@1@@Z
pdata	ENDS
;	COMDAT xdata
xdata	SEGMENT
$unwind$?AddAdvisePacket@CAMSchedule@@AEAA_KPEAVCAdvisePacket@1@@Z DD 022301H
	DD	0700bb20fH
; Function compile flags: /Odtp /RTCsu
xdata	ENDS
;	COMDAT ?AddAdvisePacket@CAMSchedule@@AEAA_KPEAVCAdvisePacket@1@@Z
_TEXT	SEGMENT
p_prev$ = 48
p_n$ = 56
Result$ = 64
tv83 = 72
tv94 = 80
this$ = 112
pPacket$ = 120
?AddAdvisePacket@CAMSchedule@@AEAA_KPEAVCAdvisePacket@1@@Z PROC ; CAMSchedule::AddAdvisePacket, COMDAT
; Line 191
$LN11:
	mov	QWORD PTR [rsp+16], rdx
	mov	QWORD PTR [rsp+8], rcx
	push	rdi
	sub	rsp, 96					; 00000060H
	mov	rdi, rsp
	mov	ecx, 24
	mov	eax, -858993460				; ccccccccH
	rep stosd
	mov	rcx, QWORD PTR [rsp+112]
; Line 192
	mov	rax, QWORD PTR pPacket$[rsp]
	cmp	QWORD PTR [rax+16], 0
	jl	SHORT $LN7@AddAdviseP@2
	mov	rax, QWORD PTR pPacket$[rsp]
	mov	rcx, 9223372036854775807		; 7fffffffffffffffH
	cmp	QWORD PTR [rax+16], rcx
	jl	SHORT $LN8@AddAdviseP@2
$LN7@AddAdviseP@2:
	mov	r8d, 192				; 000000c0H
	lea	rdx, OFFSET FLAT:$SG82338
	lea	rcx, OFFSET FLAT:$SG82339
	call	?DbgAssert@@YAXPEB_W0H@Z		; DbgAssert
$LN8@AddAdviseP@2:
; Line 193
	mov	rax, QWORD PTR this$[rsp]
	add	rax, 128				; 00000080H
	mov	rcx, rax
	call	?CritCheckIn@@YAHPEAVCCritSec@@@Z	; CritCheckIn
	test	eax, eax
	jne	SHORT $LN6@AddAdviseP@2
	mov	r8d, 193				; 000000c1H
	lea	rdx, OFFSET FLAT:$SG82341
	lea	rcx, OFFSET FLAT:$SG82342
	call	?DbgAssert@@YAXPEB_W0H@Z		; DbgAssert
$LN6@AddAdviseP@2:
; Line 195
	mov	rax, QWORD PTR this$[rsp]
	add	rax, 16
	mov	QWORD PTR p_prev$[rsp], rax
; Line 198
	mov	rax, QWORD PTR this$[rsp]
	mov	rax, QWORD PTR [rax+112]
	inc	rax
	mov	QWORD PTR tv83[rsp], rax
	mov	rax, QWORD PTR this$[rsp]
	mov	rcx, QWORD PTR tv83[rsp]
	mov	QWORD PTR [rax+112], rcx
	mov	rax, QWORD PTR pPacket$[rsp]
	mov	rcx, QWORD PTR tv83[rsp]
	mov	QWORD PTR [rax+8], rcx
	mov	rax, QWORD PTR tv83[rsp]
	mov	QWORD PTR Result$[rsp], rax
	jmp	SHORT $LN5@AddAdviseP@2
$LN4@AddAdviseP@2:
; Line 200
	mov	rax, QWORD PTR p_n$[rsp]
	mov	QWORD PTR p_prev$[rsp], rax
$LN5@AddAdviseP@2:
; Line 202
	mov	rax, QWORD PTR p_prev$[rsp]
	mov	rax, QWORD PTR [rax]
	mov	QWORD PTR p_n$[rsp], rax
; Line 203
	mov	rax, QWORD PTR p_n$[rsp]
	mov	rcx, QWORD PTR pPacket$[rsp]
	mov	rcx, QWORD PTR [rcx+16]
	cmp	QWORD PTR [rax+16], rcx
	jl	SHORT $LN2@AddAdviseP@2
	jmp	SHORT $LN3@AddAdviseP@2
$LN2@AddAdviseP@2:
; Line 204
	jmp	SHORT $LN4@AddAdviseP@2
$LN3@AddAdviseP@2:
; Line 205
	mov	rdx, QWORD PTR pPacket$[rsp]
	mov	rcx, QWORD PTR p_prev$[rsp]
	call	?InsertAfter@CAdvisePacket@CAMSchedule@@QEAAXPEAV12@@Z ; CAMSchedule::CAdvisePacket::InsertAfter
; Line 206
	mov	rax, QWORD PTR this$[rsp]
	mov	eax, DWORD PTR [rax+120]
	inc	eax
	mov	rcx, QWORD PTR this$[rsp]
	mov	DWORD PTR [rcx+120], eax
; Line 209
	mov	rax, QWORD PTR pPacket$[rsp]
	mov	rax, QWORD PTR [rax+16]
	cdq
	mov	ecx, 10000				; 00002710H
	idiv	rcx
	mov	QWORD PTR tv94[rsp], rax
	call	QWORD PTR __imp_GetCurrentThreadId
	mov	rcx, QWORD PTR tv94[rsp]
	mov	QWORD PTR [rsp+40], rcx
	mov	DWORD PTR [rsp+32], eax
	mov	rax, QWORD PTR pPacket$[rsp]
	mov	r9, QWORD PTR [rax+8]
	lea	r8, OFFSET FLAT:$SG82350
	mov	edx, 2
	mov	ecx, 1
	call	?DbgLogInfo@@YAXKKPEB_WZZ		; DbgLogInfo
; Line 212
	mov	rax, QWORD PTR this$[rsp]
	add	rax, 16
	cmp	QWORD PTR p_prev$[rsp], rax
	jne	SHORT $LN1@AddAdviseP@2
	mov	rax, QWORD PTR this$[rsp]
	mov	rcx, QWORD PTR [rax+184]
	call	QWORD PTR __imp_SetEvent
$LN1@AddAdviseP@2:
; Line 214
	mov	rax, QWORD PTR Result$[rsp]
; Line 215
	add	rsp, 96					; 00000060H
	pop	rdi
	ret	0
?AddAdvisePacket@CAMSchedule@@AEAA_KPEAVCAdvisePacket@1@@Z ENDP ; CAMSchedule::AddAdvisePacket
_TEXT	ENDS
;	COMDAT pdata
; File c:\downloads\wpf mediakit - copy\src\filters\baseclasses\dsschedule.h
pdata	SEGMENT
$pdata$?InsertAfter@CAdvisePacket@CAMSchedule@@QEAAXPEAV12@@Z DD imagerel $LN3
	DD	imagerel $LN3+42
	DD	imagerel $unwind$?InsertAfter@CAdvisePacket@CAMSchedule@@QEAAXPEAV12@@Z
pdata	ENDS
;	COMDAT xdata
xdata	SEGMENT
$unwind$?InsertAfter@CAdvisePacket@CAMSchedule@@QEAAXPEAV12@@Z DD 010b01H
	DD	0700bH
; Function compile flags: /Odtp /RTCsu
xdata	ENDS
;	COMDAT ?InsertAfter@CAdvisePacket@CAMSchedule@@QEAAXPEAV12@@Z
_TEXT	SEGMENT
this$ = 16
p$ = 24
?InsertAfter@CAdvisePacket@CAMSchedule@@QEAAXPEAV12@@Z PROC ; CAMSchedule::CAdvisePacket::InsertAfter, COMDAT
; Line 57
$LN3:
	mov	QWORD PTR [rsp+16], rdx
	mov	QWORD PTR [rsp+8], rcx
	push	rdi
; Line 58
	mov	rax, QWORD PTR p$[rsp]
	mov	rcx, QWORD PTR this$[rsp]
	mov	rcx, QWORD PTR [rcx]
	mov	QWORD PTR [rax], rcx
; Line 59
	mov	rax, QWORD PTR this$[rsp]
	mov	rcx, QWORD PTR p$[rsp]
	mov	QWORD PTR [rax], rcx
; Line 60
	pop	rdi
	ret	0
?InsertAfter@CAdvisePacket@CAMSchedule@@QEAAXPEAV12@@Z ENDP ; CAMSchedule::CAdvisePacket::InsertAfter
_TEXT	ENDS
;	COMDAT pdata
; File c:\downloads\wpf mediakit - copy\src\filters\baseclasses\schedule.cpp
pdata	SEGMENT
$pdata$?Delete@CAMSchedule@@AEAAXPEAVCAdvisePacket@1@@Z DD imagerel $LN5
	DD	imagerel $LN5+176
	DD	imagerel $unwind$?Delete@CAMSchedule@@AEAAXPEAVCAdvisePacket@1@@Z
pdata	ENDS
;	COMDAT xdata
xdata	SEGMENT
$unwind$?Delete@CAMSchedule@@AEAAXPEAVCAdvisePacket@1@@Z DD 022301H
	DD	0700b520fH
; Function compile flags: /Odtp /RTCsu
xdata	ENDS
;	COMDAT ?Delete@CAMSchedule@@AEAAXPEAVCAdvisePacket@1@@Z
_TEXT	SEGMENT
$T83101 = 32
this$ = 64
pPacket$ = 72
?Delete@CAMSchedule@@AEAAXPEAVCAdvisePacket@1@@Z PROC	; CAMSchedule::Delete, COMDAT
; Line 218
$LN5:
	mov	QWORD PTR [rsp+16], rdx
	mov	QWORD PTR [rsp+8], rcx
	push	rdi
	sub	rsp, 48					; 00000030H
	mov	rdi, rsp
	mov	ecx, 12
	mov	eax, -858993460				; ccccccccH
	rep stosd
	mov	rcx, QWORD PTR [rsp+64]
; Line 219
	mov	rax, QWORD PTR this$[rsp]
	cmp	DWORD PTR [rax+200], 5
	jb	SHORT $LN2@Delete
	mov	rax, QWORD PTR pPacket$[rsp]
	mov	QWORD PTR $T83101[rsp], rax
	mov	rcx, QWORD PTR $T83101[rsp]
	call	??3@YAXPEAX@Z				; operator delete
; Line 220
	jmp	SHORT $LN1@Delete
$LN2@Delete:
; Line 222
	mov	rax, QWORD PTR this$[rsp]
	add	rax, 128				; 00000080H
	mov	rcx, rax
	call	?Lock@CCritSec@@QEAAXXZ			; CCritSec::Lock
; Line 223
	mov	rax, QWORD PTR pPacket$[rsp]
	mov	rcx, QWORD PTR this$[rsp]
	mov	rcx, QWORD PTR [rcx+192]
	mov	QWORD PTR [rax], rcx
; Line 224
	mov	rax, QWORD PTR this$[rsp]
	mov	rcx, QWORD PTR pPacket$[rsp]
	mov	QWORD PTR [rax+192], rcx
; Line 225
	mov	rax, QWORD PTR this$[rsp]
	mov	eax, DWORD PTR [rax+200]
	inc	eax
	mov	rcx, QWORD PTR this$[rsp]
	mov	DWORD PTR [rcx+200], eax
; Line 226
	mov	rax, QWORD PTR this$[rsp]
	add	rax, 128				; 00000080H
	mov	rcx, rax
	call	?Unlock@CCritSec@@QEAAXXZ		; CCritSec::Unlock
$LN1@Delete:
; Line 228
	add	rsp, 48					; 00000030H
	pop	rdi
	ret	0
?Delete@CAMSchedule@@AEAAXPEAVCAdvisePacket@1@@Z ENDP	; CAMSchedule::Delete
_TEXT	ENDS
;	COMDAT pdata
pdata	SEGMENT
$pdata$?ShuntHead@CAMSchedule@@AEAAXXZ DD imagerel $LN9
	DD	imagerel $LN9+307
	DD	imagerel $unwind$?ShuntHead@CAMSchedule@@AEAAXXZ
pdata	ENDS
;	COMDAT xdata
xdata	SEGMENT
$unwind$?ShuntHead@CAMSchedule@@AEAAXXZ DD 021e01H
	DD	07006920aH
; Function compile flags: /Odtp /RTCsu
xdata	ENDS
;	COMDAT ?ShuntHead@CAMSchedule@@AEAAXXZ
_TEXT	SEGMENT
p_prev$ = 48
p_n$ = 56
pPacket$ = 64
this$ = 96
?ShuntHead@CAMSchedule@@AEAAXXZ PROC			; CAMSchedule::ShuntHead, COMDAT
; Line 233
$LN9:
	mov	QWORD PTR [rsp+8], rcx
	push	rdi
	sub	rsp, 80					; 00000050H
	mov	rdi, rsp
	mov	ecx, 20
	mov	eax, -858993460				; ccccccccH
	rep stosd
	mov	rcx, QWORD PTR [rsp+96]
; Line 234
	mov	rax, QWORD PTR this$[rsp]
	add	rax, 16
	mov	QWORD PTR p_prev$[rsp], rax
; Line 237
	mov	rax, QWORD PTR this$[rsp]
	add	rax, 128				; 00000080H
	mov	rcx, rax
	call	?Lock@CCritSec@@QEAAXXZ			; CCritSec::Lock
; Line 238
	mov	rax, QWORD PTR this$[rsp]
	mov	rax, QWORD PTR [rax+16]
	mov	QWORD PTR pPacket$[rsp], rax
; Line 243
	mov	rax, QWORD PTR pPacket$[rsp]
	mov	rcx, 9223372036854775807		; 7fffffffffffffffH
	cmp	QWORD PTR [rax+16], rcx
	jl	SHORT $LN6@ShuntHead
	mov	r8d, 243				; 000000f3H
	lea	rdx, OFFSET FLAT:$SG82366
	lea	rcx, OFFSET FLAT:$SG82367
	call	?DbgAssert@@YAXPEB_W0H@Z		; DbgAssert
$LN6@ShuntHead:
; Line 246
	jmp	SHORT $LN5@ShuntHead
$LN4@ShuntHead:
	mov	rax, QWORD PTR p_n$[rsp]
	mov	QWORD PTR p_prev$[rsp], rax
$LN5@ShuntHead:
; Line 248
	mov	rax, QWORD PTR p_prev$[rsp]
	mov	rax, QWORD PTR [rax]
	mov	QWORD PTR p_n$[rsp], rax
; Line 249
	mov	rax, QWORD PTR p_n$[rsp]
	mov	rcx, QWORD PTR pPacket$[rsp]
	mov	rcx, QWORD PTR [rcx+16]
	cmp	QWORD PTR [rax+16], rcx
	jle	SHORT $LN2@ShuntHead
	jmp	SHORT $LN3@ShuntHead
$LN2@ShuntHead:
; Line 250
	jmp	SHORT $LN4@ShuntHead
$LN3@ShuntHead:
; Line 252
	mov	rax, QWORD PTR pPacket$[rsp]
	cmp	QWORD PTR p_prev$[rsp], rax
	je	SHORT $LN1@ShuntHead
; Line 254
	mov	rax, QWORD PTR this$[rsp]
	mov	rcx, QWORD PTR pPacket$[rsp]
	mov	rcx, QWORD PTR [rcx]
	mov	QWORD PTR [rax+16], rcx
; Line 255
	mov	rax, QWORD PTR p_prev$[rsp]
	mov	rcx, QWORD PTR pPacket$[rsp]
	mov	QWORD PTR [rax], rcx
	mov	rax, QWORD PTR pPacket$[rsp]
	mov	rcx, QWORD PTR p_n$[rsp]
	mov	QWORD PTR [rax], rcx
$LN1@ShuntHead:
; Line 259
	mov	rax, QWORD PTR pPacket$[rsp]
	mov	rax, QWORD PTR [rax+16]
	cdq
	mov	ecx, 10000				; 00002710H
	idiv	rcx
	mov	QWORD PTR [rsp+32], rax
	mov	rax, QWORD PTR pPacket$[rsp]
	mov	r9, QWORD PTR [rax+8]
	lea	r8, OFFSET FLAT:$SG82373
	mov	edx, 2
	mov	ecx, 1
	call	?DbgLogInfo@@YAXKKPEB_WZZ		; DbgLogInfo
; Line 261
	mov	rax, QWORD PTR this$[rsp]
	add	rax, 128				; 00000080H
	mov	rcx, rax
	call	?Unlock@CCritSec@@QEAAXXZ		; CCritSec::Unlock
; Line 262
	add	rsp, 80					; 00000050H
	pop	rdi
	ret	0
?ShuntHead@CAMSchedule@@AEAAXXZ ENDP			; CAMSchedule::ShuntHead
_TEXT	ENDS
;	COMDAT pdata
pdata	SEGMENT
$pdata$?DumpLinkedList@CAMSchedule@@QEAAXXZ DD imagerel $LN6
	DD	imagerel $LN6+223
	DD	imagerel $unwind$?DumpLinkedList@CAMSchedule@@QEAAXXZ
pdata	ENDS
;	COMDAT xdata
xdata	SEGMENT
$unwind$?DumpLinkedList@CAMSchedule@@QEAAXXZ DD 021e01H
	DD	07006720aH
; Function compile flags: /Odtp /RTCsu
xdata	ENDS
;	COMDAT ?DumpLinkedList@CAMSchedule@@QEAAXXZ
_TEXT	SEGMENT
i$ = 48
p$82379 = 56
this$ = 80
?DumpLinkedList@CAMSchedule@@QEAAXXZ PROC		; CAMSchedule::DumpLinkedList, COMDAT
; Line 267
$LN6:
	mov	QWORD PTR [rsp+8], rcx
	push	rdi
	sub	rsp, 64					; 00000040H
	mov	rdi, rsp
	mov	ecx, 16
	mov	eax, -858993460				; ccccccccH
	rep stosd
	mov	rcx, QWORD PTR [rsp+80]
; Line 268
	mov	rax, QWORD PTR this$[rsp]
	add	rax, 128				; 00000080H
	mov	rcx, rax
	call	?Lock@CCritSec@@QEAAXXZ			; CCritSec::Lock
; Line 269
	mov	DWORD PTR i$[rsp], 0
; Line 270
	mov	r9, QWORD PTR this$[rsp]
	lea	r8, OFFSET FLAT:$SG82378
	mov	edx, 1
	mov	ecx, 1
	call	?DbgLogInfo@@YAXKKPEB_WZZ		; DbgLogInfo
; Line 272
	mov	rax, QWORD PTR this$[rsp]
	add	rax, 16
	mov	QWORD PTR p$82379[rsp], rax
; Line 273
	jmp	SHORT $LN3@DumpLinked
$LN2@DumpLinked:
; Line 274
	mov	rax, QWORD PTR p$82379[rsp]
	mov	rax, QWORD PTR [rax]
	mov	QWORD PTR p$82379[rsp], rax
	mov	eax, DWORD PTR i$[rsp]
	inc	eax
	mov	DWORD PTR i$[rsp], eax
$LN3@DumpLinked:
	cmp	QWORD PTR p$82379[rsp], 0
	je	SHORT $LN1@DumpLinked
; Line 280
	mov	rax, QWORD PTR p$82379[rsp]
	mov	rax, QWORD PTR [rax+16]
	cdq
	mov	ecx, 10000				; 00002710H
	idiv	rcx
	mov	QWORD PTR [rsp+40], rax
	mov	rax, QWORD PTR p$82379[rsp]
	mov	rax, QWORD PTR [rax+8]
	mov	QWORD PTR [rsp+32], rax
	mov	r9d, DWORD PTR i$[rsp]
	lea	r8, OFFSET FLAT:$SG82383
	mov	edx, 1
	mov	ecx, 1
	call	?DbgLogInfo@@YAXKKPEB_WZZ		; DbgLogInfo
; Line 281
	jmp	SHORT $LN2@DumpLinked
$LN1@DumpLinked:
; Line 282
	mov	rax, QWORD PTR this$[rsp]
	add	rax, 128				; 00000080H
	mov	rcx, rax
	call	?Unlock@CCritSec@@QEAAXXZ		; CCritSec::Unlock
; Line 283
	add	rsp, 64					; 00000040H
	pop	rdi
	ret	0
?DumpLinkedList@CAMSchedule@@QEAAXXZ ENDP		; CAMSchedule::DumpLinkedList
_TEXT	ENDS
END
