; Listing generated by Microsoft (R) Optimizing Compiler Version 16.00.30319.01 

include listing.inc

INCLUDELIB LIBCMTD
INCLUDELIB OLDNAMES

PUBLIC	IID_IAMFilterGraphCallback
CONST	SEGMENT
$SG82275 DB	'S', 00H, 'e', 00H, 'e', 00H, 'k', 00H, 'i', 00H, 'n', 00H
	DB	'g', 00H, ' ', 00H, 'P', 00H, 'a', 00H, 's', 00H, 's', 00H, 'T'
	DB	00H, 'h', 00H, 'r', 00H, 'u', 00H, 00H, 00H
	ORG $+6
$SG82323 DB	'R', 00H, 'e', 00H, 'n', 00H, 'd', 00H, 'e', 00H, 'r', 00H
	DB	' ', 00H, 'S', 00H, 'e', 00H, 'e', 00H, 'k', 00H, 'i', 00H, 'n'
	DB	00H, 'g', 00H, ' ', 00H, 'C', 00H, 'O', 00H, 'M', 00H, ' ', 00H
	DB	'o', 00H, 'b', 00H, 'j', 00H, 'e', 00H, 'c', 00H, 't', 00H, 00H
	DB	00H
	ORG $+4
$SG82324 DB	'R', 00H, 'e', 00H, 'n', 00H, 'd', 00H, 'e', 00H, 'r', 00H
	DB	' ', 00H, 'S', 00H, 'e', 00H, 'e', 00H, 'k', 00H, 'i', 00H, 'n'
	DB	00H, 'g', 00H, ' ', 00H, 'C', 00H, 'O', 00H, 'M', 00H, ' ', 00H
	DB	'o', 00H, 'b', 00H, 'j', 00H, 'e', 00H, 'c', 00H, 't', 00H, 00H
	DB	00H
CONST	ENDS
;	COMDAT IID_IAMFilterGraphCallback
CONST	SEGMENT
IID_IAMFilterGraphCallback DD 056a868fdH
	DW	0ad4H
	DW	011ceH
	DB	0b0H
	DB	0a3H
	DB	00H
	DB	020H
	DB	0afH
	DB	0bH
	DB	0a7H
	DB	070H
CONST	ENDS
PUBLIC	??0CSeekingPassThru@@QEAA@PEA_WPEAUIUnknown@@PEAJ@Z ; CSeekingPassThru::CSeekingPassThru
PUBLIC	?CreateInstance@CSeekingPassThru@@SAPEAVCUnknown@@PEAUIUnknown@@PEAJ@Z ; CSeekingPassThru::CreateInstance
EXTRN	__CxxFrameHandler3:PROC
EXTRN	??3@YAXPEAX@Z:PROC				; operator delete
EXTRN	??2@YAPEAX_K@Z:PROC				; operator new
EXTRN	_RTC_Shutdown:PROC
EXTRN	_RTC_InitBase:PROC
;	COMDAT pdata
; File c:\downloads\wpf mediakit - copy\src\filters\baseclasses\seekpt.cpp
pdata	SEGMENT
$pdata$?CreateInstance@CSeekingPassThru@@SAPEAVCUnknown@@PEAUIUnknown@@PEAJ@Z DD imagerel $LN8
	DD	imagerel $LN8+164
	DD	imagerel $unwind$?CreateInstance@CSeekingPassThru@@SAPEAVCUnknown@@PEAUIUnknown@@PEAJ@Z
pdata	ENDS
;	COMDAT pdata
pdata	SEGMENT
$pdata$?dtor$0@?0??CreateInstance@CSeekingPassThru@@SAPEAVCUnknown@@PEAUIUnknown@@PEAJ@Z@4HA DD imagerel ?dtor$0@?0??CreateInstance@CSeekingPassThru@@SAPEAVCUnknown@@PEAUIUnknown@@PEAJ@Z@4HA
	DD	imagerel ?dtor$0@?0??CreateInstance@CSeekingPassThru@@SAPEAVCUnknown@@PEAUIUnknown@@PEAJ@Z@4HA+35
	DD	imagerel $unwind$?dtor$0@?0??CreateInstance@CSeekingPassThru@@SAPEAVCUnknown@@PEAUIUnknown@@PEAJ@Z@4HA
pdata	ENDS
;	COMDAT xdata
xdata	SEGMENT
$ip2state$?CreateInstance@CSeekingPassThru@@SAPEAVCUnknown@@PEAUIUnknown@@PEAJ@Z DD imagerel ?CreateInstance@CSeekingPassThru@@SAPEAVCUnknown@@PEAUIUnknown@@PEAJ@Z
	DD	0ffffffffH
	DD	imagerel ?CreateInstance@CSeekingPassThru@@SAPEAVCUnknown@@PEAUIUnknown@@PEAJ@Z+59
	DD	00H
	DD	imagerel ?CreateInstance@CSeekingPassThru@@SAPEAVCUnknown@@PEAUIUnknown@@PEAJ@Z+120
	DD	0ffffffffH
xdata	ENDS
;	COMDAT xdata
xdata	SEGMENT
$unwind$?dtor$0@?0??CreateInstance@CSeekingPassThru@@SAPEAVCUnknown@@PEAUIUnknown@@PEAJ@Z@4HA DD 031001H
	DD	0700c4210H
	DD	0500bH
xdata	ENDS
;	COMDAT xdata
xdata	SEGMENT
$unwind$?CreateInstance@CSeekingPassThru@@SAPEAVCUnknown@@PEAUIUnknown@@PEAJ@Z DD 022c11H
	DD	0700b920fH
	DD	imagerel __CxxFrameHandler3
	DD	imagerel $cppxdata$?CreateInstance@CSeekingPassThru@@SAPEAVCUnknown@@PEAUIUnknown@@PEAJ@Z
xdata	ENDS
;	COMDAT CONST
CONST	SEGMENT
$cppxdata$?CreateInstance@CSeekingPassThru@@SAPEAVCUnknown@@PEAUIUnknown@@PEAJ@Z DD 019930522H
	DD	01H
	DD	imagerel $stateUnwindMap$?CreateInstance@CSeekingPassThru@@SAPEAVCUnknown@@PEAUIUnknown@@PEAJ@Z
	DD	00H
	DD	00H
	DD	03H
	DD	imagerel $ip2state$?CreateInstance@CSeekingPassThru@@SAPEAVCUnknown@@PEAUIUnknown@@PEAJ@Z
	DD	030H
	DD	00H
	DD	01H
CONST	ENDS
;	COMDAT xdata
xdata	SEGMENT
$stateUnwindMap$?CreateInstance@CSeekingPassThru@@SAPEAVCUnknown@@PEAUIUnknown@@PEAJ@Z DD 0ffffffffH
	DD	imagerel ?dtor$0@?0??CreateInstance@CSeekingPassThru@@SAPEAVCUnknown@@PEAUIUnknown@@PEAJ@Z@4HA
xdata	ENDS
;	COMDAT rtc$TMZ
rtc$TMZ	SEGMENT
_RTC_Shutdown.rtc$TMZ DQ FLAT:_RTC_Shutdown
rtc$TMZ	ENDS
;	COMDAT rtc$IMZ
rtc$IMZ	SEGMENT
_RTC_InitBase.rtc$IMZ DQ FLAT:_RTC_InitBase
; Function compile flags: /Odtp /RTCsu
rtc$IMZ	ENDS
;	COMDAT ?CreateInstance@CSeekingPassThru@@SAPEAVCUnknown@@PEAUIUnknown@@PEAJ@Z
_TEXT	SEGMENT
$T82812 = 32
$T82813 = 40
$T82831 = 48
tv77 = 56
tv78 = 64
pUnk$ = 96
phr$ = 104
?CreateInstance@CSeekingPassThru@@SAPEAVCUnknown@@PEAUIUnknown@@PEAJ@Z PROC ; CSeekingPassThru::CreateInstance, COMDAT
; Line 21
$LN8:
	mov	QWORD PTR [rsp+16], rdx
	mov	QWORD PTR [rsp+8], rcx
	push	rdi
	sub	rsp, 80					; 00000050H
	mov	rdi, rsp
	mov	ecx, 20
	mov	eax, -858993460				; ccccccccH
	rep stosd
	mov	rcx, QWORD PTR [rsp+96]
	mov	QWORD PTR $T82831[rsp], -2
; Line 22
	mov	ecx, 48					; 00000030H
	call	??2@YAPEAX_K@Z				; operator new
	mov	QWORD PTR $T82813[rsp], rax
	cmp	QWORD PTR $T82813[rsp], 0
	je	SHORT $LN3@CreateInst
	mov	r9, QWORD PTR phr$[rsp]
	mov	r8, QWORD PTR pUnk$[rsp]
	lea	rdx, OFFSET FLAT:$SG82275
	mov	rcx, QWORD PTR $T82813[rsp]
	call	??0CSeekingPassThru@@QEAA@PEA_WPEAUIUnknown@@PEAJ@Z ; CSeekingPassThru::CSeekingPassThru
	mov	QWORD PTR tv77[rsp], rax
	jmp	SHORT $LN4@CreateInst
$LN3@CreateInst:
	mov	QWORD PTR tv77[rsp], 0
$LN4@CreateInst:
	mov	rax, QWORD PTR tv77[rsp]
	mov	QWORD PTR $T82812[rsp], rax
	cmp	QWORD PTR $T82812[rsp], 0
	je	SHORT $LN5@CreateInst
	mov	rax, QWORD PTR $T82812[rsp]
	add	rax, 8
	mov	QWORD PTR tv78[rsp], rax
	jmp	SHORT $LN6@CreateInst
$LN5@CreateInst:
	mov	QWORD PTR tv78[rsp], 0
$LN6@CreateInst:
	mov	rax, QWORD PTR tv78[rsp]
; Line 23
	add	rsp, 80					; 00000050H
	pop	rdi
	ret	0
?CreateInstance@CSeekingPassThru@@SAPEAVCUnknown@@PEAUIUnknown@@PEAJ@Z ENDP ; CSeekingPassThru::CreateInstance
; Function compile flags: /Odtp /RTCsu
_TEXT	ENDS
;	COMDAT text$x
text$x	SEGMENT
$T82812 = 32
$T82813 = 40
$T82831 = 48
tv77 = 56
tv78 = 64
pUnk$ = 96
phr$ = 104
?dtor$0@?0??CreateInstance@CSeekingPassThru@@SAPEAVCUnknown@@PEAUIUnknown@@PEAJ@Z@4HA PROC ; `CSeekingPassThru::CreateInstance'::`1'::dtor$0
	mov	QWORD PTR [rsp+8], rcx
	mov	QWORD PTR [rsp+16], rdx
	push	rbp
	push	rdi
	sub	rsp, 40					; 00000028H
	mov	rbp, rdx
	mov	rcx, QWORD PTR $T82813[rbp]
	call	??3@YAXPEAX@Z				; operator delete
	add	rsp, 40					; 00000028H
	pop	rdi
	pop	rbp
	ret	0
?dtor$0@?0??CreateInstance@CSeekingPassThru@@SAPEAVCUnknown@@PEAUIUnknown@@PEAJ@Z@4HA ENDP ; `CSeekingPassThru::CreateInstance'::`1'::dtor$0
text$x	ENDS
PUBLIC	==
PUBLIC	?NonDelegatingQueryInterface@CSeekingPassThru@@UEAAJAEBU_GUID@@PEAPEAX@Z ; CSeekingPassThru::NonDelegatingQueryInterface
EXTRN	?NonDelegatingQueryInterface@CUnknown@@UEAAJAEBU_GUID@@PEAPEAX@Z:PROC ; CUnknown::NonDelegatingQueryInterface
EXTRN	IID_IMediaPosition:BYTE
EXTRN	IID_IMediaSeeking:BYTE
EXTRN	GetInterface:PROC
EXTRN	IID_ISeekingPassThru:BYTE
;	COMDAT pdata
pdata	SEGMENT
$pdata$?NonDelegatingQueryInterface@CSeekingPassThru@@UEAAJAEBU_GUID@@PEAPEAX@Z DD imagerel $LN8
	DD	imagerel $LN8+212
	DD	imagerel $unwind$?NonDelegatingQueryInterface@CSeekingPassThru@@UEAAJAEBU_GUID@@PEAPEAX@Z
pdata	ENDS
;	COMDAT xdata
xdata	SEGMENT
$unwind$?NonDelegatingQueryInterface@CSeekingPassThru@@UEAAJAEBU_GUID@@PEAPEAX@Z DD 022801H
	DD	070103214H
; Function compile flags: /Odtp /RTCsu
xdata	ENDS
;	COMDAT ?NonDelegatingQueryInterface@CSeekingPassThru@@UEAAJAEBU_GUID@@PEAPEAX@Z
_TEXT	SEGMENT
this$ = 48
riid$ = 56
ppv$ = 64
?NonDelegatingQueryInterface@CSeekingPassThru@@UEAAJAEBU_GUID@@PEAPEAX@Z PROC ; CSeekingPassThru::NonDelegatingQueryInterface, COMDAT
; Line 27
$LN8:
	mov	QWORD PTR [rsp+24], r8
	mov	QWORD PTR [rsp+16], rdx
	mov	QWORD PTR [rsp+8], rcx
	push	rdi
	sub	rsp, 32					; 00000020H
	mov	rdi, rsp
	mov	ecx, 8
	mov	eax, -858993460				; ccccccccH
	rep stosd
	mov	rcx, QWORD PTR [rsp+48]
; Line 28
	lea	rdx, OFFSET FLAT:IID_ISeekingPassThru
	mov	rcx, QWORD PTR riid$[rsp]
	call	==
	test	eax, eax
	je	SHORT $LN5@NonDelegat
; Line 29
	mov	rax, QWORD PTR this$[rsp]
	sub	rax, 8
	mov	rdx, QWORD PTR ppv$[rsp]
	mov	rcx, rax
	call	GetInterface
	jmp	SHORT $LN6@NonDelegat
; Line 30
	jmp	SHORT $LN4@NonDelegat
$LN5@NonDelegat:
; Line 33
	mov	rax, QWORD PTR this$[rsp]
	cmp	QWORD PTR [rax+32], 0
	je	SHORT $LN3@NonDelegat
	lea	rdx, OFFSET FLAT:IID_IMediaSeeking
	mov	rcx, QWORD PTR riid$[rsp]
	call	==
	test	eax, eax
	jne	SHORT $LN2@NonDelegat
	lea	rdx, OFFSET FLAT:IID_IMediaPosition
	mov	rcx, QWORD PTR riid$[rsp]
	call	==
	test	eax, eax
	je	SHORT $LN3@NonDelegat
$LN2@NonDelegat:
; Line 34
	mov	rax, QWORD PTR this$[rsp]
	mov	rax, QWORD PTR [rax+32]
	mov	rcx, QWORD PTR this$[rsp]
	mov	rcx, QWORD PTR [rcx+32]
	add	rcx, 16
	mov	rax, QWORD PTR [rax+16]
	mov	r8, QWORD PTR ppv$[rsp]
	mov	rdx, QWORD PTR riid$[rsp]
	call	QWORD PTR [rax]
	jmp	SHORT $LN6@NonDelegat
; Line 35
	jmp	SHORT $LN1@NonDelegat
$LN3@NonDelegat:
; Line 36
	mov	rax, QWORD PTR this$[rsp]
	mov	r8, QWORD PTR ppv$[rsp]
	mov	rdx, QWORD PTR riid$[rsp]
	mov	rcx, rax
	call	?NonDelegatingQueryInterface@CUnknown@@UEAAJAEBU_GUID@@PEAPEAX@Z ; CUnknown::NonDelegatingQueryInterface
$LN1@NonDelegat:
$LN4@NonDelegat:
$LN6@NonDelegat:
; Line 39
	add	rsp, 32					; 00000020H
	pop	rdi
	ret	0
?NonDelegatingQueryInterface@CSeekingPassThru@@UEAAJAEBU_GUID@@PEAPEAX@Z ENDP ; CSeekingPassThru::NonDelegatingQueryInterface
_TEXT	ENDS
PUBLIC	IsEqualGUID
;	COMDAT pdata
; File c:\program files (x86)\microsoft sdks\windows\v7.0a\include\guiddef.h
pdata	SEGMENT
$pdata$== DD	imagerel $LN3
	DD	imagerel $LN3+56
	DD	imagerel $unwind$==
pdata	ENDS
;	COMDAT xdata
xdata	SEGMENT
$unwind$== DD	022301H
	DD	0700b320fH
; Function compile flags: /Odtp /RTCsu
xdata	ENDS
;	COMDAT ==
_TEXT	SEGMENT
guidOne$ = 48
guidOther$ = 56
==	PROC						; COMDAT
; Line 193
$LN3:
	mov	QWORD PTR [rsp+16], rdx
	mov	QWORD PTR [rsp+8], rcx
	push	rdi
	sub	rsp, 32					; 00000020H
	mov	rdi, rsp
	mov	ecx, 8
	mov	eax, -858993460				; ccccccccH
	rep stosd
	mov	rcx, QWORD PTR [rsp+48]
; Line 194
	mov	rdx, QWORD PTR guidOther$[rsp]
	mov	rcx, QWORD PTR guidOne$[rsp]
	call	IsEqualGUID
; Line 195
	add	rsp, 32					; 00000020H
	pop	rdi
	ret	0
==	ENDP
_TEXT	ENDS
EXTRN	memcmp:PROC
;	COMDAT pdata
pdata	SEGMENT
$pdata$IsEqualGUID DD imagerel $LN5
	DD	imagerel $LN5+88
	DD	imagerel $unwind$IsEqualGUID
pdata	ENDS
;	COMDAT xdata
xdata	SEGMENT
$unwind$IsEqualGUID DD 022301H
	DD	0700b520fH
; Function compile flags: /Odtp /RTCsu
xdata	ENDS
;	COMDAT IsEqualGUID
_TEXT	SEGMENT
tv69 = 32
rguid1$ = 64
rguid2$ = 72
IsEqualGUID PROC					; COMDAT
; Line 160
$LN5:
	mov	QWORD PTR [rsp+16], rdx
	mov	QWORD PTR [rsp+8], rcx
	push	rdi
	sub	rsp, 48					; 00000030H
	mov	rdi, rsp
	mov	ecx, 12
	mov	eax, -858993460				; ccccccccH
	rep stosd
	mov	rcx, QWORD PTR [rsp+64]
; Line 161
	mov	r8d, 16
	mov	rdx, QWORD PTR rguid2$[rsp]
	mov	rcx, QWORD PTR rguid1$[rsp]
	call	memcmp
	test	eax, eax
	jne	SHORT $LN3@IsEqualGUI
	mov	DWORD PTR tv69[rsp], 1
	jmp	SHORT $LN4@IsEqualGUI
$LN3@IsEqualGUI:
	mov	DWORD PTR tv69[rsp], 0
$LN4@IsEqualGUI:
	mov	eax, DWORD PTR tv69[rsp]
; Line 162
	add	rsp, 48					; 00000030H
	pop	rdi
	ret	0
IsEqualGUID ENDP
_TEXT	ENDS
PUBLIC	??_7CSeekingPassThru@@6BCUnknown@@@		; CSeekingPassThru::`vftable'
PUBLIC	??_7CSeekingPassThru@@6BISeekingPassThru@@@	; CSeekingPassThru::`vftable'
PUBLIC	??0ISeekingPassThru@@QEAA@XZ			; ISeekingPassThru::ISeekingPassThru
PUBLIC	??_R4CSeekingPassThru@@6BISeekingPassThru@@@	; CSeekingPassThru::`RTTI Complete Object Locator'
PUBLIC	??_R0?AVCSeekingPassThru@@@8			; CSeekingPassThru `RTTI Type Descriptor'
PUBLIC	??_R3CSeekingPassThru@@8			; CSeekingPassThru::`RTTI Class Hierarchy Descriptor'
PUBLIC	??_R2CSeekingPassThru@@8			; CSeekingPassThru::`RTTI Base Class Array'
PUBLIC	??_R1A@?0A@EA@CSeekingPassThru@@8		; CSeekingPassThru::`RTTI Base Class Descriptor at (0,-1,0,64)'
PUBLIC	??_R1A@?0A@EA@ISeekingPassThru@@8		; ISeekingPassThru::`RTTI Base Class Descriptor at (0,-1,0,64)'
PUBLIC	??_R0?AUISeekingPassThru@@@8			; ISeekingPassThru `RTTI Type Descriptor'
PUBLIC	??_R3ISeekingPassThru@@8			; ISeekingPassThru::`RTTI Class Hierarchy Descriptor'
PUBLIC	??_R2ISeekingPassThru@@8			; ISeekingPassThru::`RTTI Base Class Array'
PUBLIC	??_R1A@?0A@EA@IUnknown@@8			; IUnknown::`RTTI Base Class Descriptor at (0,-1,0,64)'
PUBLIC	??_R0?AUIUnknown@@@8				; IUnknown `RTTI Type Descriptor'
PUBLIC	??_R3IUnknown@@8				; IUnknown::`RTTI Class Hierarchy Descriptor'
PUBLIC	??_R2IUnknown@@8				; IUnknown::`RTTI Base Class Array'
PUBLIC	??_R17?0A@EA@CUnknown@@8			; CUnknown::`RTTI Base Class Descriptor at (8,-1,0,64)'
PUBLIC	??_R0?AVCUnknown@@@8				; CUnknown `RTTI Type Descriptor'
PUBLIC	??_R3CUnknown@@8				; CUnknown::`RTTI Class Hierarchy Descriptor'
PUBLIC	??_R2CUnknown@@8				; CUnknown::`RTTI Base Class Array'
PUBLIC	??_R1A@?0A@EA@CUnknown@@8			; CUnknown::`RTTI Base Class Descriptor at (0,-1,0,64)'
PUBLIC	??_R1A@?0A@EA@INonDelegatingUnknown@@8		; INonDelegatingUnknown::`RTTI Base Class Descriptor at (0,-1,0,64)'
PUBLIC	??_R0?AUINonDelegatingUnknown@@@8		; INonDelegatingUnknown `RTTI Type Descriptor'
PUBLIC	??_R3INonDelegatingUnknown@@8			; INonDelegatingUnknown::`RTTI Class Hierarchy Descriptor'
PUBLIC	??_R2INonDelegatingUnknown@@8			; INonDelegatingUnknown::`RTTI Base Class Array'
PUBLIC	??_R17?0A@EA@CBaseObject@@8			; CBaseObject::`RTTI Base Class Descriptor at (8,-1,0,64)'
PUBLIC	??_R0?AVCBaseObject@@@8				; CBaseObject `RTTI Type Descriptor'
PUBLIC	??_R3CBaseObject@@8				; CBaseObject::`RTTI Class Hierarchy Descriptor'
PUBLIC	??_R2CBaseObject@@8				; CBaseObject::`RTTI Base Class Array'
PUBLIC	??_R1A@?0A@EA@CBaseObject@@8			; CBaseObject::`RTTI Base Class Descriptor at (0,-1,0,64)'
PUBLIC	??_R17?0A@EA@INonDelegatingUnknown@@8		; INonDelegatingUnknown::`RTTI Base Class Descriptor at (8,-1,0,64)'
PUBLIC	??_R1BA@?0A@EA@CBaseObject@@8			; CBaseObject::`RTTI Base Class Descriptor at (16,-1,0,64)'
PUBLIC	?QueryInterface@CSeekingPassThru@@UEAAJAEBU_GUID@@PEAPEAX@Z ; CSeekingPassThru::QueryInterface
PUBLIC	?AddRef@CSeekingPassThru@@UEAAKXZ		; CSeekingPassThru::AddRef
PUBLIC	?Release@CSeekingPassThru@@UEAAKXZ		; CSeekingPassThru::Release
PUBLIC	?Init@CSeekingPassThru@@UEAAJHPEAUIPin@@@Z	; CSeekingPassThru::Init
PUBLIC	??_R4CSeekingPassThru@@6BCUnknown@@@		; CSeekingPassThru::`RTTI Complete Object Locator'
PUBLIC	??_ECSeekingPassThru@@W7EAAPEAXI@Z		; [thunk]:CSeekingPassThru::`vector deleting destructor'
EXTRN	??0CUnknown@@QEAA@PEA_WPEAUIUnknown@@PEAJ@Z:PROC ; CUnknown::CUnknown
EXTRN	??_7type_info@@6B@:BYTE				; type_info::`vftable'
EXTRN	?NonDelegatingAddRef@CUnknown@@UEAAKXZ:PROC	; CUnknown::NonDelegatingAddRef
EXTRN	?NonDelegatingRelease@CUnknown@@UEAAKXZ:PROC	; CUnknown::NonDelegatingRelease
;	COMDAT pdata
; File c:\downloads\wpf mediakit - copy\src\filters\baseclasses\seekpt.cpp
pdata	SEGMENT
$pdata$??0CSeekingPassThru@@QEAA@PEA_WPEAUIUnknown@@PEAJ@Z DD imagerel $LN4
	DD	imagerel $LN4+142
	DD	imagerel $unwind$??0CSeekingPassThru@@QEAA@PEA_WPEAUIUnknown@@PEAJ@Z
pdata	ENDS
;	COMDAT ??_R4CSeekingPassThru@@6BCUnknown@@@
rdata$r	SEGMENT
??_R4CSeekingPassThru@@6BCUnknown@@@ DD 01H		; CSeekingPassThru::`RTTI Complete Object Locator'
	DD	08H
	DD	00H
	DD	imagerel ??_R0?AVCSeekingPassThru@@@8
	DD	imagerel ??_R3CSeekingPassThru@@8
	DD	imagerel ??_R4CSeekingPassThru@@6BCUnknown@@@
rdata$r	ENDS
;	COMDAT ??_R1BA@?0A@EA@CBaseObject@@8
rdata$r	SEGMENT
??_R1BA@?0A@EA@CBaseObject@@8 DD imagerel ??_R0?AVCBaseObject@@@8 ; CBaseObject::`RTTI Base Class Descriptor at (16,-1,0,64)'
	DD	00H
	DD	010H
	DD	0ffffffffH
	DD	00H
	DD	040H
	DD	imagerel ??_R3CBaseObject@@8
rdata$r	ENDS
;	COMDAT ??_R17?0A@EA@INonDelegatingUnknown@@8
rdata$r	SEGMENT
??_R17?0A@EA@INonDelegatingUnknown@@8 DD imagerel ??_R0?AUINonDelegatingUnknown@@@8 ; INonDelegatingUnknown::`RTTI Base Class Descriptor at (8,-1,0,64)'
	DD	00H
	DD	08H
	DD	0ffffffffH
	DD	00H
	DD	040H
	DD	imagerel ??_R3INonDelegatingUnknown@@8
rdata$r	ENDS
;	COMDAT ??_R1A@?0A@EA@CBaseObject@@8
rdata$r	SEGMENT
??_R1A@?0A@EA@CBaseObject@@8 DD imagerel ??_R0?AVCBaseObject@@@8 ; CBaseObject::`RTTI Base Class Descriptor at (0,-1,0,64)'
	DD	00H
	DD	00H
	DD	0ffffffffH
	DD	00H
	DD	040H
	DD	imagerel ??_R3CBaseObject@@8
rdata$r	ENDS
;	COMDAT ??_R2CBaseObject@@8
rdata$r	SEGMENT
??_R2CBaseObject@@8 DD imagerel ??_R1A@?0A@EA@CBaseObject@@8 ; CBaseObject::`RTTI Base Class Array'
	ORG $+3
rdata$r	ENDS
;	COMDAT ??_R3CBaseObject@@8
rdata$r	SEGMENT
??_R3CBaseObject@@8 DD 00H				; CBaseObject::`RTTI Class Hierarchy Descriptor'
	DD	00H
	DD	01H
	DD	imagerel ??_R2CBaseObject@@8
rdata$r	ENDS
;	COMDAT ??_R0?AVCBaseObject@@@8
_DATA	SEGMENT
??_R0?AVCBaseObject@@@8 DQ FLAT:??_7type_info@@6B@	; CBaseObject `RTTI Type Descriptor'
	DQ	0000000000000000H
	DB	'.?AVCBaseObject@@', 00H
_DATA	ENDS
;	COMDAT ??_R17?0A@EA@CBaseObject@@8
rdata$r	SEGMENT
??_R17?0A@EA@CBaseObject@@8 DD imagerel ??_R0?AVCBaseObject@@@8 ; CBaseObject::`RTTI Base Class Descriptor at (8,-1,0,64)'
	DD	00H
	DD	08H
	DD	0ffffffffH
	DD	00H
	DD	040H
	DD	imagerel ??_R3CBaseObject@@8
rdata$r	ENDS
;	COMDAT ??_R2INonDelegatingUnknown@@8
rdata$r	SEGMENT
??_R2INonDelegatingUnknown@@8 DD imagerel ??_R1A@?0A@EA@INonDelegatingUnknown@@8 ; INonDelegatingUnknown::`RTTI Base Class Array'
	ORG $+3
rdata$r	ENDS
;	COMDAT ??_R3INonDelegatingUnknown@@8
rdata$r	SEGMENT
??_R3INonDelegatingUnknown@@8 DD 00H			; INonDelegatingUnknown::`RTTI Class Hierarchy Descriptor'
	DD	00H
	DD	01H
	DD	imagerel ??_R2INonDelegatingUnknown@@8
rdata$r	ENDS
;	COMDAT ??_R0?AUINonDelegatingUnknown@@@8
_DATA	SEGMENT
??_R0?AUINonDelegatingUnknown@@@8 DQ FLAT:??_7type_info@@6B@ ; INonDelegatingUnknown `RTTI Type Descriptor'
	DQ	0000000000000000H
	DB	'.?AUINonDelegatingUnknown@@', 00H
_DATA	ENDS
;	COMDAT ??_R1A@?0A@EA@INonDelegatingUnknown@@8
rdata$r	SEGMENT
??_R1A@?0A@EA@INonDelegatingUnknown@@8 DD imagerel ??_R0?AUINonDelegatingUnknown@@@8 ; INonDelegatingUnknown::`RTTI Base Class Descriptor at (0,-1,0,64)'
	DD	00H
	DD	00H
	DD	0ffffffffH
	DD	00H
	DD	040H
	DD	imagerel ??_R3INonDelegatingUnknown@@8
rdata$r	ENDS
;	COMDAT ??_R1A@?0A@EA@CUnknown@@8
rdata$r	SEGMENT
??_R1A@?0A@EA@CUnknown@@8 DD imagerel ??_R0?AVCUnknown@@@8 ; CUnknown::`RTTI Base Class Descriptor at (0,-1,0,64)'
	DD	02H
	DD	00H
	DD	0ffffffffH
	DD	00H
	DD	040H
	DD	imagerel ??_R3CUnknown@@8
rdata$r	ENDS
;	COMDAT ??_R2CUnknown@@8
rdata$r	SEGMENT
??_R2CUnknown@@8 DD imagerel ??_R1A@?0A@EA@CUnknown@@8	; CUnknown::`RTTI Base Class Array'
	DD	imagerel ??_R1A@?0A@EA@INonDelegatingUnknown@@8
	DD	imagerel ??_R17?0A@EA@CBaseObject@@8
	ORG $+3
rdata$r	ENDS
;	COMDAT ??_R3CUnknown@@8
rdata$r	SEGMENT
??_R3CUnknown@@8 DD 00H					; CUnknown::`RTTI Class Hierarchy Descriptor'
	DD	01H
	DD	03H
	DD	imagerel ??_R2CUnknown@@8
rdata$r	ENDS
;	COMDAT ??_R0?AVCUnknown@@@8
_DATA	SEGMENT
??_R0?AVCUnknown@@@8 DQ FLAT:??_7type_info@@6B@		; CUnknown `RTTI Type Descriptor'
	DQ	0000000000000000H
	DB	'.?AVCUnknown@@', 00H
_DATA	ENDS
;	COMDAT ??_R17?0A@EA@CUnknown@@8
rdata$r	SEGMENT
??_R17?0A@EA@CUnknown@@8 DD imagerel ??_R0?AVCUnknown@@@8 ; CUnknown::`RTTI Base Class Descriptor at (8,-1,0,64)'
	DD	02H
	DD	08H
	DD	0ffffffffH
	DD	00H
	DD	040H
	DD	imagerel ??_R3CUnknown@@8
rdata$r	ENDS
;	COMDAT ??_R2IUnknown@@8
rdata$r	SEGMENT
??_R2IUnknown@@8 DD imagerel ??_R1A@?0A@EA@IUnknown@@8	; IUnknown::`RTTI Base Class Array'
	ORG $+3
rdata$r	ENDS
;	COMDAT ??_R3IUnknown@@8
rdata$r	SEGMENT
??_R3IUnknown@@8 DD 00H					; IUnknown::`RTTI Class Hierarchy Descriptor'
	DD	00H
	DD	01H
	DD	imagerel ??_R2IUnknown@@8
rdata$r	ENDS
;	COMDAT ??_R0?AUIUnknown@@@8
_DATA	SEGMENT
??_R0?AUIUnknown@@@8 DQ FLAT:??_7type_info@@6B@		; IUnknown `RTTI Type Descriptor'
	DQ	0000000000000000H
	DB	'.?AUIUnknown@@', 00H
_DATA	ENDS
;	COMDAT ??_R1A@?0A@EA@IUnknown@@8
rdata$r	SEGMENT
??_R1A@?0A@EA@IUnknown@@8 DD imagerel ??_R0?AUIUnknown@@@8 ; IUnknown::`RTTI Base Class Descriptor at (0,-1,0,64)'
	DD	00H
	DD	00H
	DD	0ffffffffH
	DD	00H
	DD	040H
	DD	imagerel ??_R3IUnknown@@8
rdata$r	ENDS
;	COMDAT ??_R2ISeekingPassThru@@8
rdata$r	SEGMENT
??_R2ISeekingPassThru@@8 DD imagerel ??_R1A@?0A@EA@ISeekingPassThru@@8 ; ISeekingPassThru::`RTTI Base Class Array'
	DD	imagerel ??_R1A@?0A@EA@IUnknown@@8
	ORG $+3
rdata$r	ENDS
;	COMDAT ??_R3ISeekingPassThru@@8
rdata$r	SEGMENT
??_R3ISeekingPassThru@@8 DD 00H				; ISeekingPassThru::`RTTI Class Hierarchy Descriptor'
	DD	00H
	DD	02H
	DD	imagerel ??_R2ISeekingPassThru@@8
rdata$r	ENDS
;	COMDAT ??_R0?AUISeekingPassThru@@@8
_DATA	SEGMENT
??_R0?AUISeekingPassThru@@@8 DQ FLAT:??_7type_info@@6B@	; ISeekingPassThru `RTTI Type Descriptor'
	DQ	0000000000000000H
	DB	'.?AUISeekingPassThru@@', 00H
_DATA	ENDS
;	COMDAT ??_R1A@?0A@EA@ISeekingPassThru@@8
rdata$r	SEGMENT
??_R1A@?0A@EA@ISeekingPassThru@@8 DD imagerel ??_R0?AUISeekingPassThru@@@8 ; ISeekingPassThru::`RTTI Base Class Descriptor at (0,-1,0,64)'
	DD	01H
	DD	00H
	DD	0ffffffffH
	DD	00H
	DD	040H
	DD	imagerel ??_R3ISeekingPassThru@@8
rdata$r	ENDS
;	COMDAT ??_R1A@?0A@EA@CSeekingPassThru@@8
rdata$r	SEGMENT
??_R1A@?0A@EA@CSeekingPassThru@@8 DD imagerel ??_R0?AVCSeekingPassThru@@@8 ; CSeekingPassThru::`RTTI Base Class Descriptor at (0,-1,0,64)'
	DD	05H
	DD	00H
	DD	0ffffffffH
	DD	00H
	DD	040H
	DD	imagerel ??_R3CSeekingPassThru@@8
rdata$r	ENDS
;	COMDAT ??_R2CSeekingPassThru@@8
rdata$r	SEGMENT
??_R2CSeekingPassThru@@8 DD imagerel ??_R1A@?0A@EA@CSeekingPassThru@@8 ; CSeekingPassThru::`RTTI Base Class Array'
	DD	imagerel ??_R1A@?0A@EA@ISeekingPassThru@@8
	DD	imagerel ??_R1A@?0A@EA@IUnknown@@8
	DD	imagerel ??_R17?0A@EA@CUnknown@@8
	DD	imagerel ??_R17?0A@EA@INonDelegatingUnknown@@8
	DD	imagerel ??_R1BA@?0A@EA@CBaseObject@@8
	ORG $+3
rdata$r	ENDS
;	COMDAT ??_R3CSeekingPassThru@@8
rdata$r	SEGMENT
??_R3CSeekingPassThru@@8 DD 00H				; CSeekingPassThru::`RTTI Class Hierarchy Descriptor'
	DD	01H
	DD	06H
	DD	imagerel ??_R2CSeekingPassThru@@8
rdata$r	ENDS
;	COMDAT ??_R0?AVCSeekingPassThru@@@8
_DATA	SEGMENT
??_R0?AVCSeekingPassThru@@@8 DQ FLAT:??_7type_info@@6B@	; CSeekingPassThru `RTTI Type Descriptor'
	DQ	0000000000000000H
	DB	'.?AVCSeekingPassThru@@', 00H
_DATA	ENDS
;	COMDAT ??_R4CSeekingPassThru@@6BISeekingPassThru@@@
rdata$r	SEGMENT
??_R4CSeekingPassThru@@6BISeekingPassThru@@@ DD 01H	; CSeekingPassThru::`RTTI Complete Object Locator'
	DD	00H
	DD	00H
	DD	imagerel ??_R0?AVCSeekingPassThru@@@8
	DD	imagerel ??_R3CSeekingPassThru@@8
	DD	imagerel ??_R4CSeekingPassThru@@6BISeekingPassThru@@@
rdata$r	ENDS
;	COMDAT xdata
xdata	SEGMENT
$unwind$??0CSeekingPassThru@@QEAA@PEA_WPEAUIUnknown@@PEAJ@Z DD 022d01H
	DD	070153219H
xdata	ENDS
;	COMDAT ??_7CSeekingPassThru@@6BCUnknown@@@
CONST	SEGMENT
??_7CSeekingPassThru@@6BCUnknown@@@ DQ FLAT:??_R4CSeekingPassThru@@6BCUnknown@@@ ; CSeekingPassThru::`vftable'
	DQ	FLAT:?NonDelegatingQueryInterface@CSeekingPassThru@@UEAAJAEBU_GUID@@PEAPEAX@Z
	DQ	FLAT:?NonDelegatingAddRef@CUnknown@@UEAAKXZ
	DQ	FLAT:?NonDelegatingRelease@CUnknown@@UEAAKXZ
	DQ	FLAT:??_ECSeekingPassThru@@W7EAAPEAXI@Z
CONST	ENDS
;	COMDAT ??_7CSeekingPassThru@@6BISeekingPassThru@@@
CONST	SEGMENT
??_7CSeekingPassThru@@6BISeekingPassThru@@@ DQ FLAT:??_R4CSeekingPassThru@@6BISeekingPassThru@@@ ; CSeekingPassThru::`vftable'
	DQ	FLAT:?QueryInterface@CSeekingPassThru@@UEAAJAEBU_GUID@@PEAPEAX@Z
	DQ	FLAT:?AddRef@CSeekingPassThru@@UEAAKXZ
	DQ	FLAT:?Release@CSeekingPassThru@@UEAAKXZ
	DQ	FLAT:?Init@CSeekingPassThru@@UEAAJHPEAUIPin@@@Z
; Function compile flags: /Odtp /RTCsu
CONST	ENDS
;	COMDAT ??0CSeekingPassThru@@QEAA@PEA_WPEAUIUnknown@@PEAJ@Z
_TEXT	SEGMENT
this$ = 48
pName$ = 56
pUnk$ = 64
phr$ = 72
??0CSeekingPassThru@@QEAA@PEA_WPEAUIUnknown@@PEAJ@Z PROC ; CSeekingPassThru::CSeekingPassThru, COMDAT
; Line 45
$LN4:
	mov	QWORD PTR [rsp+32], r9
	mov	QWORD PTR [rsp+24], r8
	mov	QWORD PTR [rsp+16], rdx
	mov	QWORD PTR [rsp+8], rcx
	push	rdi
	sub	rsp, 32					; 00000020H
	mov	rdi, rsp
	mov	ecx, 8
	mov	eax, -858993460				; ccccccccH
	rep stosd
	mov	rcx, QWORD PTR [rsp+48]
	mov	rcx, QWORD PTR this$[rsp]
	call	??0ISeekingPassThru@@QEAA@XZ
	mov	rax, QWORD PTR this$[rsp]
	add	rax, 8
	mov	r9, QWORD PTR phr$[rsp]
	mov	r8, QWORD PTR pUnk$[rsp]
	mov	rdx, QWORD PTR pName$[rsp]
	mov	rcx, rax
	call	??0CUnknown@@QEAA@PEA_WPEAUIUnknown@@PEAJ@Z ; CUnknown::CUnknown
	mov	rax, QWORD PTR this$[rsp]
	lea	rcx, OFFSET FLAT:??_7CSeekingPassThru@@6BISeekingPassThru@@@
	mov	QWORD PTR [rax], rcx
	mov	rax, QWORD PTR this$[rsp]
	lea	rcx, OFFSET FLAT:??_7CSeekingPassThru@@6BCUnknown@@@
	mov	QWORD PTR [rax+8], rcx
	mov	rax, QWORD PTR this$[rsp]
	mov	QWORD PTR [rax+40], 0
; Line 46
	mov	rax, QWORD PTR this$[rsp]
	add	rsp, 32					; 00000020H
	pop	rdi
	ret	0
??0CSeekingPassThru@@QEAA@PEA_WPEAUIUnknown@@PEAJ@Z ENDP ; CSeekingPassThru::CSeekingPassThru
_TEXT	ENDS
PUBLIC	?GetOwner@CUnknown@@QEBAPEAUIUnknown@@XZ	; CUnknown::GetOwner
;	COMDAT pdata
; File c:\downloads\wpf mediakit - copy\src\filters\baseclasses\seekpt.h
pdata	SEGMENT
$pdata$?QueryInterface@CSeekingPassThru@@UEAAJAEBU_GUID@@PEAPEAX@Z DD imagerel $LN3
	DD	imagerel $LN3+93
	DD	imagerel $unwind$?QueryInterface@CSeekingPassThru@@UEAAJAEBU_GUID@@PEAPEAX@Z
pdata	ENDS
;	COMDAT xdata
xdata	SEGMENT
$unwind$?QueryInterface@CSeekingPassThru@@UEAAJAEBU_GUID@@PEAPEAX@Z DD 022801H
	DD	070105214H
; Function compile flags: /Odtp /RTCsu
xdata	ENDS
;	COMDAT ?QueryInterface@CSeekingPassThru@@UEAAJAEBU_GUID@@PEAPEAX@Z
_TEXT	SEGMENT
tv71 = 32
this$ = 64
riid$ = 72
ppv$ = 80
?QueryInterface@CSeekingPassThru@@UEAAJAEBU_GUID@@PEAPEAX@Z PROC ; CSeekingPassThru::QueryInterface, COMDAT
; Line 21
$LN3:
	mov	QWORD PTR [rsp+24], r8
	mov	QWORD PTR [rsp+16], rdx
	mov	QWORD PTR [rsp+8], rcx
	push	rdi
	sub	rsp, 48					; 00000030H
	mov	rdi, rsp
	mov	ecx, 12
	mov	eax, -858993460				; ccccccccH
	rep stosd
	mov	rcx, QWORD PTR [rsp+64]
	mov	rax, QWORD PTR this$[rsp]
	add	rax, 8
	mov	rcx, rax
	call	?GetOwner@CUnknown@@QEBAPEAUIUnknown@@XZ ; CUnknown::GetOwner
	mov	QWORD PTR tv71[rsp], rax
	mov	rax, QWORD PTR tv71[rsp]
	mov	rax, QWORD PTR [rax]
	mov	r8, QWORD PTR ppv$[rsp]
	mov	rdx, QWORD PTR riid$[rsp]
	mov	rcx, QWORD PTR tv71[rsp]
	call	QWORD PTR [rax]
	add	rsp, 48					; 00000030H
	pop	rdi
	ret	0
?QueryInterface@CSeekingPassThru@@UEAAJAEBU_GUID@@PEAPEAX@Z ENDP ; CSeekingPassThru::QueryInterface
_TEXT	ENDS
;	COMDAT pdata
; File c:\downloads\wpf mediakit - copy\src\filters\baseclasses\combase.h
pdata	SEGMENT
$pdata$?GetOwner@CUnknown@@QEBAPEAUIUnknown@@XZ DD imagerel $LN3
	DD	imagerel $LN3+17
	DD	imagerel $unwind$?GetOwner@CUnknown@@QEBAPEAUIUnknown@@XZ
pdata	ENDS
;	COMDAT xdata
xdata	SEGMENT
$unwind$?GetOwner@CUnknown@@QEBAPEAUIUnknown@@XZ DD 010601H
	DD	07006H
; Function compile flags: /Odtp /RTCsu
xdata	ENDS
;	COMDAT ?GetOwner@CUnknown@@QEBAPEAUIUnknown@@XZ
_TEXT	SEGMENT
this$ = 16
?GetOwner@CUnknown@@QEBAPEAUIUnknown@@XZ PROC		; CUnknown::GetOwner, COMDAT
; Line 224
$LN3:
	mov	QWORD PTR [rsp+8], rcx
	push	rdi
; Line 225
	mov	rax, QWORD PTR this$[rsp]
	mov	rax, QWORD PTR [rax+16]
; Line 226
	pop	rdi
	ret	0
?GetOwner@CUnknown@@QEBAPEAUIUnknown@@XZ ENDP		; CUnknown::GetOwner
_TEXT	ENDS
;	COMDAT pdata
; File c:\downloads\wpf mediakit - copy\src\filters\baseclasses\seekpt.h
pdata	SEGMENT
$pdata$?AddRef@CSeekingPassThru@@UEAAKXZ DD imagerel $LN3
	DD	imagerel $LN3+74
	DD	imagerel $unwind$?AddRef@CSeekingPassThru@@UEAAKXZ
pdata	ENDS
;	COMDAT xdata
xdata	SEGMENT
$unwind$?AddRef@CSeekingPassThru@@UEAAKXZ DD 021e01H
	DD	07006520aH
; Function compile flags: /Odtp /RTCsu
xdata	ENDS
;	COMDAT ?AddRef@CSeekingPassThru@@UEAAKXZ
_TEXT	SEGMENT
tv71 = 32
this$ = 64
?AddRef@CSeekingPassThru@@UEAAKXZ PROC			; CSeekingPassThru::AddRef, COMDAT
; Line 21
$LN3:
	mov	QWORD PTR [rsp+8], rcx
	push	rdi
	sub	rsp, 48					; 00000030H
	mov	rdi, rsp
	mov	ecx, 12
	mov	eax, -858993460				; ccccccccH
	rep stosd
	mov	rcx, QWORD PTR [rsp+64]
	mov	rax, QWORD PTR this$[rsp]
	add	rax, 8
	mov	rcx, rax
	call	?GetOwner@CUnknown@@QEBAPEAUIUnknown@@XZ ; CUnknown::GetOwner
	mov	QWORD PTR tv71[rsp], rax
	mov	rax, QWORD PTR tv71[rsp]
	mov	rax, QWORD PTR [rax]
	mov	rcx, QWORD PTR tv71[rsp]
	call	QWORD PTR [rax+8]
	add	rsp, 48					; 00000030H
	pop	rdi
	ret	0
?AddRef@CSeekingPassThru@@UEAAKXZ ENDP			; CSeekingPassThru::AddRef
_TEXT	ENDS
;	COMDAT pdata
pdata	SEGMENT
$pdata$?Release@CSeekingPassThru@@UEAAKXZ DD imagerel $LN3
	DD	imagerel $LN3+74
	DD	imagerel $unwind$?Release@CSeekingPassThru@@UEAAKXZ
pdata	ENDS
;	COMDAT xdata
xdata	SEGMENT
$unwind$?Release@CSeekingPassThru@@UEAAKXZ DD 021e01H
	DD	07006520aH
; Function compile flags: /Odtp /RTCsu
xdata	ENDS
;	COMDAT ?Release@CSeekingPassThru@@UEAAKXZ
_TEXT	SEGMENT
tv71 = 32
this$ = 64
?Release@CSeekingPassThru@@UEAAKXZ PROC			; CSeekingPassThru::Release, COMDAT
; Line 21
$LN3:
	mov	QWORD PTR [rsp+8], rcx
	push	rdi
	sub	rsp, 48					; 00000030H
	mov	rdi, rsp
	mov	ecx, 12
	mov	eax, -858993460				; ccccccccH
	rep stosd
	mov	rcx, QWORD PTR [rsp+64]
	mov	rax, QWORD PTR this$[rsp]
	add	rax, 8
	mov	rcx, rax
	call	?GetOwner@CUnknown@@QEBAPEAUIUnknown@@XZ ; CUnknown::GetOwner
	mov	QWORD PTR tv71[rsp], rax
	mov	rax, QWORD PTR tv71[rsp]
	mov	rax, QWORD PTR [rax]
	mov	rcx, QWORD PTR tv71[rsp]
	call	QWORD PTR [rax+16]
	add	rsp, 48					; 00000030H
	pop	rdi
	ret	0
?Release@CSeekingPassThru@@UEAAKXZ ENDP			; CSeekingPassThru::Release
_TEXT	ENDS
PUBLIC	??0IUnknown@@QEAA@XZ				; IUnknown::IUnknown
;	COMDAT pdata
pdata	SEGMENT
$pdata$??0ISeekingPassThru@@QEAA@XZ DD imagerel $LN3
	DD	imagerel $LN3+51
	DD	imagerel $unwind$??0ISeekingPassThru@@QEAA@XZ
pdata	ENDS
;	COMDAT xdata
xdata	SEGMENT
$unwind$??0ISeekingPassThru@@QEAA@XZ DD 021e01H
	DD	07006320aH
; Function compile flags: /Odtp /RTCsu
xdata	ENDS
;	COMDAT ??0ISeekingPassThru@@QEAA@XZ
_TEXT	SEGMENT
this$ = 48
??0ISeekingPassThru@@QEAA@XZ PROC			; ISeekingPassThru::ISeekingPassThru, COMDAT
$LN3:
	mov	QWORD PTR [rsp+8], rcx
	push	rdi
	sub	rsp, 32					; 00000020H
	mov	rdi, rsp
	mov	ecx, 8
	mov	eax, -858993460				; ccccccccH
	rep stosd
	mov	rcx, QWORD PTR [rsp+48]
	mov	rcx, QWORD PTR this$[rsp]
	call	??0IUnknown@@QEAA@XZ
	mov	rax, QWORD PTR this$[rsp]
	add	rsp, 32					; 00000020H
	pop	rdi
	ret	0
??0ISeekingPassThru@@QEAA@XZ ENDP			; ISeekingPassThru::ISeekingPassThru
_TEXT	ENDS
;	COMDAT pdata
pdata	SEGMENT
$pdata$??0IUnknown@@QEAA@XZ DD imagerel $LN3
	DD	imagerel $LN3+13
	DD	imagerel $unwind$??0IUnknown@@QEAA@XZ
pdata	ENDS
;	COMDAT xdata
xdata	SEGMENT
$unwind$??0IUnknown@@QEAA@XZ DD 010601H
	DD	07006H
; Function compile flags: /Odtp /RTCsu
xdata	ENDS
;	COMDAT ??0IUnknown@@QEAA@XZ
_TEXT	SEGMENT
this$ = 16
??0IUnknown@@QEAA@XZ PROC				; IUnknown::IUnknown, COMDAT
$LN3:
	mov	QWORD PTR [rsp+8], rcx
	push	rdi
	mov	rax, QWORD PTR this$[rsp]
	pop	rdi
	ret	0
??0IUnknown@@QEAA@XZ ENDP				; IUnknown::IUnknown
_TEXT	ENDS
PUBLIC	??1CUnknown@@UEAA@XZ				; CUnknown::~CUnknown
PUBLIC	??1CSeekingPassThru@@UEAA@XZ			; CSeekingPassThru::~CSeekingPassThru
;	COMDAT pdata
; File c:\downloads\wpf mediakit - copy\src\filters\baseclasses\seekpt.cpp
pdata	SEGMENT
$pdata$??1CSeekingPassThru@@UEAA@XZ DD imagerel $LN6
	DD	imagerel $LN6+180
	DD	imagerel $unwind$??1CSeekingPassThru@@UEAA@XZ
pdata	ENDS
;	COMDAT pdata
pdata	SEGMENT
$pdata$?dtor$0@?0???1CSeekingPassThru@@UEAA@XZ@4HA DD imagerel ?dtor$0@?0???1CSeekingPassThru@@UEAA@XZ@4HA
	DD	imagerel ?dtor$0@?0???1CSeekingPassThru@@UEAA@XZ@4HA+39
	DD	imagerel $unwind$?dtor$0@?0???1CSeekingPassThru@@UEAA@XZ@4HA
pdata	ENDS
;	COMDAT xdata
xdata	SEGMENT
$ip2state$??1CSeekingPassThru@@UEAA@XZ DD imagerel ??1CSeekingPassThru@@UEAA@XZ
	DD	0ffffffffH
	DD	imagerel ??1CSeekingPassThru@@UEAA@XZ+70
	DD	00H
	DD	imagerel ??1CSeekingPassThru@@UEAA@XZ+157
	DD	0ffffffffH
xdata	ENDS
;	COMDAT xdata
xdata	SEGMENT
$unwind$?dtor$0@?0???1CSeekingPassThru@@UEAA@XZ@4HA DD 031001H
	DD	0700c4210H
	DD	0500bH
xdata	ENDS
;	COMDAT xdata
xdata	SEGMENT
$unwind$??1CSeekingPassThru@@UEAA@XZ DD 022711H
	DD	07006920aH
	DD	imagerel __CxxFrameHandler3
	DD	imagerel $cppxdata$??1CSeekingPassThru@@UEAA@XZ
xdata	ENDS
;	COMDAT CONST
CONST	SEGMENT
$cppxdata$??1CSeekingPassThru@@UEAA@XZ DD 019930522H
	DD	01H
	DD	imagerel $stateUnwindMap$??1CSeekingPassThru@@UEAA@XZ
	DD	00H
	DD	00H
	DD	03H
	DD	imagerel $ip2state$??1CSeekingPassThru@@UEAA@XZ
	DD	030H
	DD	00H
	DD	01H
CONST	ENDS
;	COMDAT xdata
xdata	SEGMENT
$stateUnwindMap$??1CSeekingPassThru@@UEAA@XZ DD 0ffffffffH
	DD	imagerel ?dtor$0@?0???1CSeekingPassThru@@UEAA@XZ@4HA
; Function compile flags: /Odtp /RTCsu
xdata	ENDS
;	COMDAT ??1CSeekingPassThru@@UEAA@XZ
_TEXT	SEGMENT
$T82928 = 32
$T82929 = 40
$T82937 = 48
tv95 = 56
tv91 = 64
this$ = 96
??1CSeekingPassThru@@UEAA@XZ PROC			; CSeekingPassThru::~CSeekingPassThru, COMDAT
; Line 50
$LN6:
	mov	QWORD PTR [rsp+8], rcx
	push	rdi
	sub	rsp, 80					; 00000050H
	mov	rdi, rsp
	mov	ecx, 20
	mov	eax, -858993460				; ccccccccH
	rep stosd
	mov	rcx, QWORD PTR [rsp+96]
	mov	QWORD PTR $T82937[rsp], -2
	mov	rax, QWORD PTR this$[rsp]
	lea	rcx, OFFSET FLAT:??_7CSeekingPassThru@@6BISeekingPassThru@@@
	mov	QWORD PTR [rax], rcx
	mov	rax, QWORD PTR this$[rsp]
	lea	rcx, OFFSET FLAT:??_7CSeekingPassThru@@6BCUnknown@@@
	mov	QWORD PTR [rax+8], rcx
; Line 51
	mov	rax, QWORD PTR this$[rsp]
	mov	rax, QWORD PTR [rax+40]
	mov	QWORD PTR $T82929[rsp], rax
	mov	rax, QWORD PTR $T82929[rsp]
	mov	QWORD PTR $T82928[rsp], rax
	cmp	QWORD PTR $T82928[rsp], 0
	je	SHORT $LN3@CSeekingPa
	mov	rax, QWORD PTR $T82928[rsp]
	add	rax, 16
	mov	rcx, QWORD PTR $T82928[rsp]
	mov	rcx, QWORD PTR [rcx+16]
	mov	QWORD PTR tv95[rsp], rcx
	mov	edx, 1
	mov	rcx, rax
	mov	rax, QWORD PTR tv95[rsp]
	call	QWORD PTR [rax+24]
	mov	QWORD PTR tv91[rsp], rax
	jmp	SHORT $LN4@CSeekingPa
$LN3@CSeekingPa:
	mov	QWORD PTR tv91[rsp], 0
$LN4@CSeekingPa:
; Line 52
	mov	rax, QWORD PTR this$[rsp]
	add	rax, 8
	mov	rcx, rax
	call	??1CUnknown@@UEAA@XZ			; CUnknown::~CUnknown
	add	rsp, 80					; 00000050H
	pop	rdi
	ret	0
??1CSeekingPassThru@@UEAA@XZ ENDP			; CSeekingPassThru::~CSeekingPassThru
; Function compile flags: /Odtp /RTCsu
_TEXT	ENDS
;	COMDAT text$x
text$x	SEGMENT
$T82928 = 32
$T82929 = 40
$T82937 = 48
tv95 = 56
tv91 = 64
this$ = 96
?dtor$0@?0???1CSeekingPassThru@@UEAA@XZ@4HA PROC	; `CSeekingPassThru::~CSeekingPassThru'::`1'::dtor$0
	mov	QWORD PTR [rsp+8], rcx
	mov	QWORD PTR [rsp+16], rdx
	push	rbp
	push	rdi
	sub	rsp, 40					; 00000028H
	mov	rbp, rdx
	mov	rcx, QWORD PTR this$[rbp]
	add	rcx, 8
	call	??1CUnknown@@UEAA@XZ			; CUnknown::~CUnknown
	add	rsp, 40					; 00000028H
	pop	rdi
	pop	rbp
	ret	0
?dtor$0@?0???1CSeekingPassThru@@UEAA@XZ@4HA ENDP	; `CSeekingPassThru::~CSeekingPassThru'::`1'::dtor$0
text$x	ENDS
EXTRN	??1CBaseObject@@QEAA@XZ:PROC			; CBaseObject::~CBaseObject
;	COMDAT pdata
; File c:\downloads\wpf mediakit - copy\src\filters\baseclasses\combase.h
pdata	SEGMENT
$pdata$??1CUnknown@@UEAA@XZ DD imagerel $LN4
	DD	imagerel $LN4+53
	DD	imagerel $unwind$??1CUnknown@@UEAA@XZ
pdata	ENDS
;	COMDAT xdata
xdata	SEGMENT
$unwind$??1CUnknown@@UEAA@XZ DD 021e01H
	DD	07006320aH
; Function compile flags: /Odtp /RTCsu
xdata	ENDS
;	COMDAT ??1CUnknown@@UEAA@XZ
_TEXT	SEGMENT
this$ = 48
??1CUnknown@@UEAA@XZ PROC				; CUnknown::~CUnknown, COMDAT
; Line 212
$LN4:
	mov	QWORD PTR [rsp+8], rcx
	push	rdi
	sub	rsp, 32					; 00000020H
	mov	rdi, rsp
	mov	ecx, 8
	mov	eax, -858993460				; ccccccccH
	rep stosd
	mov	rcx, QWORD PTR [rsp+48]
	mov	rax, QWORD PTR this$[rsp]
	add	rax, 8
	mov	rcx, rax
	call	??1CBaseObject@@QEAA@XZ			; CBaseObject::~CBaseObject
	add	rsp, 32					; 00000020H
	pop	rdi
	ret	0
??1CUnknown@@UEAA@XZ ENDP				; CUnknown::~CUnknown
_TEXT	ENDS
EXTRN	??0CPosPassThru@@QEAA@PEB_WPEAUIUnknown@@PEAJPEAUIPin@@@Z:PROC ; CPosPassThru::CPosPassThru
EXTRN	??0CRendererPosPassThru@@QEAA@PEB_WPEAUIUnknown@@PEAJPEAUIPin@@@Z:PROC ; CRendererPosPassThru::CRendererPosPassThru
EXTRN	_RTC_CheckStackVars:PROC
;	COMDAT pdata
; File c:\downloads\wpf mediakit - copy\src\filters\baseclasses\seekpt.cpp
pdata	SEGMENT
$pdata$?Init@CSeekingPassThru@@UEAAJHPEAUIPin@@@Z DD imagerel $LN18
	DD	imagerel $LN18+532
	DD	imagerel $unwind$?Init@CSeekingPassThru@@UEAAJHPEAUIPin@@@Z
pdata	ENDS
;	COMDAT pdata
pdata	SEGMENT
$pdata$?dtor$0@?0??Init@CSeekingPassThru@@UEAAJHPEAUIPin@@@Z@4HA DD imagerel ?dtor$0@?0??Init@CSeekingPassThru@@UEAAJHPEAUIPin@@@Z@4HA
	DD	imagerel ?dtor$0@?0??Init@CSeekingPassThru@@UEAAJHPEAUIPin@@@Z@4HA+35
	DD	imagerel $unwind$?dtor$0@?0??Init@CSeekingPassThru@@UEAAJHPEAUIPin@@@Z@4HA
pdata	ENDS
;	COMDAT pdata
pdata	SEGMENT
$pdata$?dtor$1@?0??Init@CSeekingPassThru@@UEAAJHPEAUIPin@@@Z@4HA DD imagerel ?dtor$1@?0??Init@CSeekingPassThru@@UEAAJHPEAUIPin@@@Z@4HA
	DD	imagerel ?dtor$1@?0??Init@CSeekingPassThru@@UEAAJHPEAUIPin@@@Z@4HA+35
	DD	imagerel $unwind$?dtor$1@?0??Init@CSeekingPassThru@@UEAAJHPEAUIPin@@@Z@4HA
pdata	ENDS
;	COMDAT xdata
xdata	SEGMENT
$ip2state$?Init@CSeekingPassThru@@UEAAJHPEAUIPin@@@Z DD imagerel ?Init@CSeekingPassThru@@UEAAJHPEAUIPin@@@Z
	DD	0ffffffffH
	DD	imagerel ?Init@CSeekingPassThru@@UEAAJHPEAUIPin@@@Z+115
	DD	00H
	DD	imagerel ?Init@CSeekingPassThru@@UEAAJHPEAUIPin@@@Z+201
	DD	0ffffffffH
	DD	imagerel ?Init@CSeekingPassThru@@UEAAJHPEAUIPin@@@Z+231
	DD	01H
	DD	imagerel ?Init@CSeekingPassThru@@UEAAJHPEAUIPin@@@Z+317
	DD	0ffffffffH
xdata	ENDS
;	COMDAT xdata
xdata	SEGMENT
$unwind$?dtor$1@?0??Init@CSeekingPassThru@@UEAAJHPEAUIPin@@@Z@4HA DD 031001H
	DD	0700c4210H
	DD	0500bH
xdata	ENDS
;	COMDAT xdata
xdata	SEGMENT
$unwind$?dtor$0@?0??Init@CSeekingPassThru@@UEAAJHPEAUIPin@@@Z@4HA DD 031001H
	DD	0700c4210H
	DD	0500bH
xdata	ENDS
;	COMDAT xdata
xdata	SEGMENT
$unwind$?Init@CSeekingPassThru@@UEAAJHPEAUIPin@@@Z DD 033611H
	DD	0160116H
	DD	0700fH
	DD	imagerel __CxxFrameHandler3
	DD	imagerel $cppxdata$?Init@CSeekingPassThru@@UEAAJHPEAUIPin@@@Z
xdata	ENDS
;	COMDAT xdata
xdata	SEGMENT
$stateUnwindMap$?Init@CSeekingPassThru@@UEAAJHPEAUIPin@@@Z DD 0ffffffffH
	DD	imagerel ?dtor$0@?0??Init@CSeekingPassThru@@UEAAJHPEAUIPin@@@Z@4HA
	DD	0ffffffffH
	DD	imagerel ?dtor$1@?0??Init@CSeekingPassThru@@UEAAJHPEAUIPin@@@Z@4HA
xdata	ENDS
;	COMDAT CONST
CONST	SEGMENT
?Init@CSeekingPassThru@@UEAAJHPEAUIPin@@@Z$rtcName$0 DB 068H ; CSeekingPassThru::Init
	DB	072H
	DB	00H
	ORG $+13
?Init@CSeekingPassThru@@UEAAJHPEAUIPin@@@Z$rtcVarDesc DD 034H ; CSeekingPassThru::Init
	DD	04H
	DQ	FLAT:?Init@CSeekingPassThru@@UEAAJHPEAUIPin@@@Z$rtcName$0
	ORG $+48
?Init@CSeekingPassThru@@UEAAJHPEAUIPin@@@Z$rtcFrameData DD 01H ; CSeekingPassThru::Init
	DD	00H
	DQ	FLAT:?Init@CSeekingPassThru@@UEAAJHPEAUIPin@@@Z$rtcVarDesc
$cppxdata$?Init@CSeekingPassThru@@UEAAJHPEAUIPin@@@Z DD 019930522H
	DD	02H
	DD	imagerel $stateUnwindMap$?Init@CSeekingPassThru@@UEAAJHPEAUIPin@@@Z
	DD	00H
	DD	00H
	DD	05H
	DD	imagerel $ip2state$?Init@CSeekingPassThru@@UEAAJHPEAUIPin@@@Z
	DD	078H
	DD	00H
	DD	01H
; Function compile flags: /Odtp /RTCsu
CONST	ENDS
;	COMDAT ?Init@CSeekingPassThru@@UEAAJHPEAUIPin@@@Z
_TEXT	SEGMENT
hr$ = 52
$T82966 = 72
$T82967 = 80
$T82970 = 88
$T82971 = 96
$T82976 = 104
$T82977 = 112
$T82987 = 120
tv85 = 128
tv134 = 136
tv133 = 144
tv154 = 152
tv150 = 160
this$ = 192
bRendererSeeking$ = 200
pPin$ = 208
?Init@CSeekingPassThru@@UEAAJHPEAUIPin@@@Z PROC		; CSeekingPassThru::Init, COMDAT
; Line 55
$LN18:
	mov	QWORD PTR [rsp+24], r8
	mov	DWORD PTR [rsp+16], edx
	mov	QWORD PTR [rsp+8], rcx
	push	rdi
	sub	rsp, 176				; 000000b0H
	mov	rdi, rsp
	mov	ecx, 44					; 0000002cH
	mov	eax, -858993460				; ccccccccH
	rep stosd
	mov	rcx, QWORD PTR [rsp+192]
	mov	QWORD PTR $T82987[rsp], -2
; Line 56
	mov	DWORD PTR hr$[rsp], 0
; Line 57
	mov	rax, QWORD PTR this$[rsp]
	cmp	QWORD PTR [rax+40], 0
	je	SHORT $LN5@Init
; Line 58
	mov	DWORD PTR hr$[rsp], -2147467259		; ffffffff80004005H
; Line 59
	jmp	$LN4@Init
$LN5@Init:
; Line 71
	cmp	DWORD PTR bRendererSeeking$[rsp], 0
	je	SHORT $LN12@Init
	mov	ecx, 144				; 00000090H
	call	??2@YAPEAX_K@Z				; operator new
	mov	QWORD PTR $T82967[rsp], rax
	cmp	QWORD PTR $T82967[rsp], 0
	je	SHORT $LN8@Init
	mov	rax, QWORD PTR pPin$[rsp]
	mov	QWORD PTR [rsp+32], rax
	lea	r9, QWORD PTR hr$[rsp]
	mov	r8, QWORD PTR this$[rsp]
	lea	rdx, OFFSET FLAT:$SG82323
	mov	rcx, QWORD PTR $T82967[rsp]
	call	??0CRendererPosPassThru@@QEAA@PEB_WPEAUIUnknown@@PEAJPEAUIPin@@@Z ; CRendererPosPassThru::CRendererPosPassThru
	mov	QWORD PTR tv85[rsp], rax
	jmp	SHORT $LN9@Init
$LN8@Init:
	mov	QWORD PTR tv85[rsp], 0
$LN9@Init:
	mov	rax, QWORD PTR tv85[rsp]
	mov	QWORD PTR $T82966[rsp], rax
	mov	rax, QWORD PTR $T82966[rsp]
	mov	QWORD PTR tv134[rsp], rax
	jmp	SHORT $LN13@Init
$LN12@Init:
	mov	ecx, 64					; 00000040H
	call	??2@YAPEAX_K@Z				; operator new
	mov	QWORD PTR $T82971[rsp], rax
	cmp	QWORD PTR $T82971[rsp], 0
	je	SHORT $LN10@Init
	mov	rax, QWORD PTR pPin$[rsp]
	mov	QWORD PTR [rsp+32], rax
	lea	r9, QWORD PTR hr$[rsp]
	mov	r8, QWORD PTR this$[rsp]
	lea	rdx, OFFSET FLAT:$SG82324
	mov	rcx, QWORD PTR $T82971[rsp]
	call	??0CPosPassThru@@QEAA@PEB_WPEAUIUnknown@@PEAJPEAUIPin@@@Z ; CPosPassThru::CPosPassThru
	mov	QWORD PTR tv133[rsp], rax
	jmp	SHORT $LN11@Init
$LN10@Init:
	mov	QWORD PTR tv133[rsp], 0
$LN11@Init:
	mov	rax, QWORD PTR tv133[rsp]
	mov	QWORD PTR $T82970[rsp], rax
	mov	rax, QWORD PTR $T82970[rsp]
	mov	QWORD PTR tv134[rsp], rax
$LN13@Init:
	mov	rax, QWORD PTR this$[rsp]
	mov	rcx, QWORD PTR tv134[rsp]
	mov	QWORD PTR [rax+40], rcx
; Line 72
	mov	rax, QWORD PTR this$[rsp]
	cmp	QWORD PTR [rax+40], 0
	jne	SHORT $LN3@Init
; Line 73
	mov	DWORD PTR hr$[rsp], -2147024882		; ffffffff8007000eH
; Line 74
	jmp	SHORT $LN4@Init
$LN3@Init:
; Line 75
	cmp	DWORD PTR hr$[rsp], 0
	jge	SHORT $LN4@Init
; Line 76
	mov	rax, QWORD PTR this$[rsp]
	mov	rax, QWORD PTR [rax+40]
	mov	QWORD PTR $T82977[rsp], rax
	mov	rax, QWORD PTR $T82977[rsp]
	mov	QWORD PTR $T82976[rsp], rax
	cmp	QWORD PTR $T82976[rsp], 0
	je	SHORT $LN14@Init
	mov	rax, QWORD PTR $T82976[rsp]
	add	rax, 16
	mov	rcx, QWORD PTR $T82976[rsp]
	mov	rcx, QWORD PTR [rcx+16]
	mov	QWORD PTR tv154[rsp], rcx
	mov	edx, 1
	mov	rcx, rax
	mov	rax, QWORD PTR tv154[rsp]
	call	QWORD PTR [rax+24]
	mov	QWORD PTR tv150[rsp], rax
	jmp	SHORT $LN15@Init
$LN14@Init:
	mov	QWORD PTR tv150[rsp], 0
$LN15@Init:
; Line 77
	mov	rax, QWORD PTR this$[rsp]
	mov	QWORD PTR [rax+40], 0
$LN4@Init:
; Line 81
	mov	eax, DWORD PTR hr$[rsp]
; Line 82
	mov	edi, eax
	mov	rcx, rsp
	lea	rdx, OFFSET FLAT:?Init@CSeekingPassThru@@UEAAJHPEAUIPin@@@Z$rtcFrameData
	call	_RTC_CheckStackVars
	mov	eax, edi
	add	rsp, 176				; 000000b0H
	pop	rdi
	ret	0
?Init@CSeekingPassThru@@UEAAJHPEAUIPin@@@Z ENDP		; CSeekingPassThru::Init
; Function compile flags: /Odtp /RTCsu
_TEXT	ENDS
;	COMDAT text$x
text$x	SEGMENT
hr$ = 52
$T82966 = 72
$T82967 = 80
$T82970 = 88
$T82971 = 96
$T82976 = 104
$T82977 = 112
$T82987 = 120
tv85 = 128
tv134 = 136
tv133 = 144
tv154 = 152
tv150 = 160
this$ = 192
bRendererSeeking$ = 200
pPin$ = 208
?dtor$0@?0??Init@CSeekingPassThru@@UEAAJHPEAUIPin@@@Z@4HA PROC ; `CSeekingPassThru::Init'::`1'::dtor$0
	mov	QWORD PTR [rsp+8], rcx
	mov	QWORD PTR [rsp+16], rdx
	push	rbp
	push	rdi
	sub	rsp, 40					; 00000028H
	mov	rbp, rdx
	mov	rcx, QWORD PTR $T82967[rbp]
	call	??3@YAXPEAX@Z				; operator delete
	add	rsp, 40					; 00000028H
	pop	rdi
	pop	rbp
	ret	0
?dtor$0@?0??Init@CSeekingPassThru@@UEAAJHPEAUIPin@@@Z@4HA ENDP ; `CSeekingPassThru::Init'::`1'::dtor$0
; Function compile flags: /Odtp /RTCsu
hr$ = 52
$T82966 = 72
$T82967 = 80
$T82970 = 88
$T82971 = 96
$T82976 = 104
$T82977 = 112
$T82987 = 120
tv85 = 128
tv134 = 136
tv133 = 144
tv154 = 152
tv150 = 160
this$ = 192
bRendererSeeking$ = 200
pPin$ = 208
?dtor$1@?0??Init@CSeekingPassThru@@UEAAJHPEAUIPin@@@Z@4HA PROC ; `CSeekingPassThru::Init'::`1'::dtor$1
	mov	QWORD PTR [rsp+8], rcx
	mov	QWORD PTR [rsp+16], rdx
	push	rbp
	push	rdi
	sub	rsp, 40					; 00000028H
	mov	rbp, rdx
	mov	rcx, QWORD PTR $T82971[rbp]
	call	??3@YAXPEAX@Z				; operator delete
	add	rsp, 40					; 00000028H
	pop	rdi
	pop	rbp
	ret	0
?dtor$1@?0??Init@CSeekingPassThru@@UEAAJHPEAUIPin@@@Z@4HA ENDP ; `CSeekingPassThru::Init'::`1'::dtor$1
text$x	ENDS
EXTRN	??_ECSeekingPassThru@@UEAAPEAXI@Z:PROC		; CSeekingPassThru::`vector deleting destructor'
; Function compile flags: /Odtp /RTCsu
;	COMDAT ??_ECSeekingPassThru@@W7EAAPEAXI@Z
_TEXT	SEGMENT
??_ECSeekingPassThru@@W7EAAPEAXI@Z PROC			; [thunk]:CSeekingPassThru::`vector deleting destructor', COMDAT
	sub	rcx, 8
	jmp	??_ECSeekingPassThru@@UEAAPEAXI@Z
??_ECSeekingPassThru@@W7EAAPEAXI@Z ENDP			; [thunk]:CSeekingPassThru::`vector deleting destructor'
_TEXT	ENDS
;	COMDAT pdata
pdata	SEGMENT
$pdata$??_GCSeekingPassThru@@UEAAPEAXI@Z DD imagerel $LN4
	DD	imagerel $LN4+76
	DD	imagerel $unwind$??_GCSeekingPassThru@@UEAAPEAXI@Z
pdata	ENDS
;	COMDAT xdata
xdata	SEGMENT
$unwind$??_GCSeekingPassThru@@UEAAPEAXI@Z DD 022201H
	DD	0700a320eH
; Function compile flags: /Odtp /RTCsu
xdata	ENDS
;	COMDAT ??_GCSeekingPassThru@@UEAAPEAXI@Z
_TEXT	SEGMENT
this$ = 48
__flags$ = 56
??_GCSeekingPassThru@@UEAAPEAXI@Z PROC			; CSeekingPassThru::`scalar deleting destructor', COMDAT
$LN4:
	mov	DWORD PTR [rsp+16], edx
	mov	QWORD PTR [rsp+8], rcx
	push	rdi
	sub	rsp, 32					; 00000020H
	mov	rdi, rsp
	mov	ecx, 8
	mov	eax, -858993460				; ccccccccH
	rep stosd
	mov	rcx, QWORD PTR [rsp+48]
	mov	rcx, QWORD PTR this$[rsp]
	call	??1CSeekingPassThru@@UEAA@XZ		; CSeekingPassThru::~CSeekingPassThru
	mov	eax, DWORD PTR __flags$[rsp]
	and	eax, 1
	test	eax, eax
	je	SHORT $LN1@scalar
	mov	rcx, QWORD PTR this$[rsp]
	call	??3@YAXPEAX@Z				; operator delete
$LN1@scalar:
	mov	rax, QWORD PTR this$[rsp]
	add	rsp, 32					; 00000020H
	pop	rdi
	ret	0
??_GCSeekingPassThru@@UEAAPEAXI@Z ENDP			; CSeekingPassThru::`scalar deleting destructor'
_TEXT	ENDS
END
