; Listing generated by Microsoft (R) Optimizing Compiler Version 16.00.30319.01 

include listing.inc

INCLUDELIB LIBCMTD
INCLUDELIB OLDNAMES

PUBLIC	IID_IAMFilterGraphCallback
CONST	SEGMENT
$SG82266 DB	'.', 00H, '.', 00H, '\', 00H, 's', 00H, 'o', 00H, 'u', 00H
	DB	'r', 00H, 'c', 00H, 'e', 00H, '.', 00H, 'c', 00H, 'p', 00H, 'p'
	DB	00H, 00H, 00H
	ORG $+4
$SG82267 DB	'm', 00H, '_', 00H, 'p', 00H, 'a', 00H, 'S', 00H, 't', 00H
	DB	'r', 00H, 'e', 00H, 'a', 00H, 'm', 00H, 's', 00H, ' ', 00H, '='
	DB	00H, '=', 00H, ' ', 00H, 'N', 00H, 'U', 00H, 'L', 00H, 'L', 00H
	DB	00H, 00H
$SG82312 DB	'.', 00H, '.', 00H, '\', 00H, 's', 00H, 'o', 00H, 'u', 00H
	DB	'r', 00H, 'c', 00H, 'e', 00H, '.', 00H, 'c', 00H, 'p', 00H, 'p'
	DB	00H, 00H, 00H
	ORG $+4
$SG82313 DB	'"', 00H, 'I', 00H, 'n', 00H, 'v', 00H, 'a', 00H, 'l', 00H
	DB	'i', 00H, 'd', 00H, ' ', 00H, 'r', 00H, 'e', 00H, 'a', 00H, 'd'
	DB	00H, ' ', 00H, 'p', 00H, 'o', 00H, 'i', 00H, 'n', 00H, 't', 00H
	DB	'e', 00H, 'r', 00H, '"', 00H, 00H, 00H
	ORG $+2
$SG82317 DB	'.', 00H, '.', 00H, '\', 00H, 's', 00H, 'o', 00H, 'u', 00H
	DB	'r', 00H, 'c', 00H, 'e', 00H, '.', 00H, 'c', 00H, 'p', 00H, 'p'
	DB	00H, 00H, 00H
	ORG $+4
$SG82318 DB	'"', 00H, 'I', 00H, 'n', 00H, 'v', 00H, 'a', 00H, 'l', 00H
	DB	'i', 00H, 'd', 00H, ' ', 00H, 'w', 00H, 'r', 00H, 'i', 00H, 't'
	DB	00H, 'e', 00H, ' ', 00H, 'p', 00H, 'o', 00H, 'i', 00H, 'n', 00H
	DB	't', 00H, 'e', 00H, 'r', 00H, '"', 00H, 00H, 00H
$SG82346 DB	'.', 00H, '.', 00H, '\', 00H, 's', 00H, 'o', 00H, 'u', 00H
	DB	'r', 00H, 'c', 00H, 'e', 00H, '.', 00H, 'c', 00H, 'p', 00H, 'p'
	DB	00H, 00H, 00H
	ORG $+4
$SG82347 DB	'm', 00H, '_', 00H, 'p', 00H, 'a', 00H, 'S', 00H, 't', 00H
	DB	'r', 00H, 'e', 00H, 'a', 00H, 'm', 00H, 's', 00H, '[', 00H, 'n'
	DB	00H, ']', 00H, 00H, 00H
	ORG $+2
$SG82359 DB	'.', 00H, '.', 00H, '\', 00H, 's', 00H, 'o', 00H, 'u', 00H
	DB	'r', 00H, 'c', 00H, 'e', 00H, '.', 00H, 'c', 00H, 'p', 00H, 'p'
	DB	00H, 00H, 00H
	ORG $+4
$SG82360 DB	'"', 00H, 'I', 00H, 'n', 00H, 'v', 00H, 'a', 00H, 'l', 00H
	DB	'i', 00H, 'd', 00H, ' ', 00H, 'r', 00H, 'e', 00H, 'a', 00H, 'd'
	DB	00H, ' ', 00H, 'p', 00H, 'o', 00H, 'i', 00H, 'n', 00H, 't', 00H
	DB	'e', 00H, 'r', 00H, '"', 00H, 00H, 00H
	ORG $+2
$SG82364 DB	'.', 00H, '.', 00H, '\', 00H, 's', 00H, 'o', 00H, 'u', 00H
	DB	'r', 00H, 'c', 00H, 'e', 00H, '.', 00H, 'c', 00H, 'p', 00H, 'p'
	DB	00H, 00H, 00H
	ORG $+4
$SG82365 DB	'"', 00H, 'I', 00H, 'n', 00H, 'v', 00H, 'a', 00H, 'l', 00H
	DB	'i', 00H, 'd', 00H, ' ', 00H, 'w', 00H, 'r', 00H, 'i', 00H, 't'
	DB	00H, 'e', 00H, ' ', 00H, 'p', 00H, 'o', 00H, 'i', 00H, 'n', 00H
	DB	't', 00H, 'e', 00H, 'r', 00H, '"', 00H, 00H, 00H
$SG82434 DB	'.', 00H, '.', 00H, '\', 00H, 's', 00H, 'o', 00H, 'u', 00H
	DB	'r', 00H, 'c', 00H, 'e', 00H, '.', 00H, 'c', 00H, 'p', 00H, 'p'
	DB	00H, 00H, 00H
	ORG $+4
$SG82435 DB	'!', 00H, 'T', 00H, 'h', 00H, 'r', 00H, 'e', 00H, 'a', 00H
	DB	'd', 00H, 'E', 00H, 'x', 00H, 'i', 00H, 's', 00H, 't', 00H, 's'
	DB	00H, '(', 00H, ')', 00H, 00H, 00H
$SG82472 DB	'T', 00H, 'h', 00H, 'r', 00H, 'e', 00H, 'a', 00H, 'd', 00H
	DB	' ', 00H, 'e', 00H, 'x', 00H, 'p', 00H, 'e', 00H, 'c', 00H, 't'
	DB	00H, 'e', 00H, 'd', 00H, ' ', 00H, 'i', 00H, 'n', 00H, 'i', 00H
	DB	't', 00H, ' ', 00H, 'c', 00H, 'o', 00H, 'm', 00H, 'm', 00H, 'a'
	DB	00H, 'n', 00H, 'd', 00H, 00H, 00H
	ORG $+14
$SG82475 DB	'C', 00H, 'S', 00H, 'o', 00H, 'u', 00H, 'r', 00H, 'c', 00H
	DB	'e', 00H, 'S', 00H, 't', 00H, 'r', 00H, 'e', 00H, 'a', 00H, 'm'
	DB	00H, ' ', 00H, 'w', 00H, 'o', 00H, 'r', 00H, 'k', 00H, 'e', 00H
	DB	'r', 00H, ' ', 00H, 't', 00H, 'h', 00H, 'r', 00H, 'e', 00H, 'a'
	DB	00H, 'd', 00H, ' ', 00H, 'i', 00H, 'n', 00H, 'i', 00H, 't', 00H
	DB	'i', 00H, 'a', 00H, 'l', 00H, 'i', 00H, 'z', 00H, 'i', 00H, 'n'
	DB	00H, 'g', 00H, 00H, 00H
	ORG $+14
$SG82478 DB	'C', 00H, 'S', 00H, 'o', 00H, 'u', 00H, 'r', 00H, 'c', 00H
	DB	'e', 00H, 'S', 00H, 't', 00H, 'r', 00H, 'e', 00H, 'a', 00H, 'm'
	DB	00H, ':', 00H, ':', 00H, 'O', 00H, 'n', 00H, 'T', 00H, 'h', 00H
	DB	'r', 00H, 'e', 00H, 'a', 00H, 'd', 00H, 'C', 00H, 'r', 00H, 'e'
	DB	00H, 'a', 00H, 't', 00H, 'e', 00H, ' ', 00H, 'f', 00H, 'a', 00H
	DB	'i', 00H, 'l', 00H, 'e', 00H, 'd', 00H, '.', 00H, ' ', 00H, 'A'
	DB	00H, 'b', 00H, 'o', 00H, 'r', 00H, 't', 00H, 'i', 00H, 'n', 00H
	DB	'g', 00H, ' ', 00H, 't', 00H, 'h', 00H, 'r', 00H, 'e', 00H, 'a'
	DB	00H, 'd', 00H, '.', 00H, 00H, 00H
	ORG $+2
$SG82489 DB	'C', 00H, 'M', 00H, 'D', 00H, '_', 00H, 'R', 00H, 'U', 00H
	DB	'N', 00H, ' ', 00H, 'r', 00H, 'e', 00H, 'c', 00H, 'e', 00H, 'i'
	DB	00H, 'v', 00H, 'e', 00H, 'd', 00H, ' ', 00H, 'b', 00H, 'e', 00H
	DB	'f', 00H, 'o', 00H, 'r', 00H, 'e', 00H, ' ', 00H, 'a', 00H, ' '
	DB	00H, 'C', 00H, 'M', 00H, 'D', 00H, '_', 00H, 'P', 00H, 'A', 00H
	DB	'U', 00H, 'S', 00H, 'E', 00H, '?', 00H, '?', 00H, '?', 00H, 00H
	DB	00H
	ORG $+2
$SG82493 DB	'U', 00H, 'n', 00H, 'k', 00H, 'n', 00H, 'o', 00H, 'w', 00H
	DB	'n', 00H, ' ', 00H, 'c', 00H, 'o', 00H, 'm', 00H, 'm', 00H, 'a'
	DB	00H, 'n', 00H, 'd', 00H, ' ', 00H, '%', 00H, 'd', 00H, ' ', 00H
	DB	'r', 00H, 'e', 00H, 'c', 00H, 'e', 00H, 'i', 00H, 'v', 00H, 'e'
	DB	00H, 'd', 00H, '!', 00H, 00H, 00H
	ORG $+6
$SG82498 DB	'C', 00H, 'S', 00H, 'o', 00H, 'u', 00H, 'r', 00H, 'c', 00H
	DB	'e', 00H, 'S', 00H, 't', 00H, 'r', 00H, 'e', 00H, 'a', 00H, 'm'
	DB	00H, ':', 00H, ':', 00H, 'O', 00H, 'n', 00H, 'T', 00H, 'h', 00H
	DB	'r', 00H, 'e', 00H, 'a', 00H, 'd', 00H, 'D', 00H, 'e', 00H, 's'
	DB	00H, 't', 00H, 'r', 00H, 'o', 00H, 'y', 00H, ' ', 00H, 'f', 00H
	DB	'a', 00H, 'i', 00H, 'l', 00H, 'e', 00H, 'd', 00H, '.', 00H, ' '
	DB	00H, 'E', 00H, 'x', 00H, 'i', 00H, 't', 00H, 'i', 00H, 'n', 00H
	DB	'g', 00H, ' ', 00H, 't', 00H, 'h', 00H, 'r', 00H, 'e', 00H, 'a'
	DB	00H, 'd', 00H, '.', 00H, 00H, 00H
	ORG $+2
$SG82499 DB	'C', 00H, 'S', 00H, 'o', 00H, 'u', 00H, 'r', 00H, 'c', 00H
	DB	'e', 00H, 'S', 00H, 't', 00H, 'r', 00H, 'e', 00H, 'a', 00H, 'm'
	DB	00H, ' ', 00H, 'w', 00H, 'o', 00H, 'r', 00H, 'k', 00H, 'e', 00H
	DB	'r', 00H, ' ', 00H, 't', 00H, 'h', 00H, 'r', 00H, 'e', 00H, 'a'
	DB	00H, 'd', 00H, ' ', 00H, 'e', 00H, 'x', 00H, 'i', 00H, 't', 00H
	DB	'i', 00H, 'n', 00H, 'g', 00H, 00H, 00H
	ORG $+8
$SG82519 DB	'D', 00H, 'e', 00H, 'l', 00H, 'i', 00H, 'v', 00H, 'e', 00H
	DB	'r', 00H, '(', 00H, ')', 00H, ' ', 00H, 'r', 00H, 'e', 00H, 't'
	DB	00H, 'u', 00H, 'r', 00H, 'n', 00H, 'e', 00H, 'd', 00H, ' ', 00H
	DB	'%', 00H, '0', 00H, '8', 00H, 'x', 00H, ';', 00H, ' ', 00H, 's'
	DB	00H, 't', 00H, 'o', 00H, 'p', 00H, 'p', 00H, 'i', 00H, 'n', 00H
	DB	'g', 00H, 00H, 00H
	ORG $+4
$SG82526 DB	'E', 00H, 'r', 00H, 'r', 00H, 'o', 00H, 'r', 00H, ' ', 00H
	DB	'%', 00H, '0', 00H, '8', 00H, 'l', 00H, 'X', 00H, ' ', 00H, 'f'
	DB	00H, 'r', 00H, 'o', 00H, 'm', 00H, ' ', 00H, 'F', 00H, 'i', 00H
	DB	'l', 00H, 'l', 00H, 'B', 00H, 'u', 00H, 'f', 00H, 'f', 00H, 'e'
	DB	00H, 'r', 00H, '!', 00H, '!', 00H, '!', 00H, 00H, 00H
	ORG $+2
$SG82533 DB	'U', 00H, 'n', 00H, 'e', 00H, 'x', 00H, 'p', 00H, 'e', 00H
	DB	'c', 00H, 't', 00H, 'e', 00H, 'd', 00H, ' ', 00H, 'c', 00H, 'o'
	DB	00H, 'm', 00H, 'm', 00H, 'a', 00H, 'n', 00H, 'd', 00H, '!', 00H
	DB	'!', 00H, '!', 00H, 00H, 00H
CONST	ENDS
;	COMDAT IID_IAMFilterGraphCallback
CONST	SEGMENT
IID_IAMFilterGraphCallback DD 056a868fdH
	DW	0ad4H
	DW	011ceH
	DB	0b0H
	DB	0a3H
	DB	00H
	DB	020H
	DB	0afH
	DB	0bH
	DB	0a7H
	DB	070H
CONST	ENDS
PUBLIC	??_7CSource@@6BIAMovieSetup@@@			; CSource::`vftable'
PUBLIC	??_7CSource@@6BIBaseFilter@@@			; CSource::`vftable'
PUBLIC	??_7CSource@@6BCUnknown@@@			; CSource::`vftable'
PUBLIC	??0CSource@@QEAA@PEA_WPEAUIUnknown@@U_GUID@@@Z	; CSource::CSource
PUBLIC	??_R4CSource@@6BCUnknown@@@			; CSource::`RTTI Complete Object Locator'
PUBLIC	??_R0?AVCSource@@@8				; CSource `RTTI Type Descriptor'
PUBLIC	??_R3CSource@@8					; CSource::`RTTI Class Hierarchy Descriptor'
PUBLIC	??_R2CSource@@8					; CSource::`RTTI Base Class Array'
PUBLIC	??_R1A@?0A@EA@CSource@@8			; CSource::`RTTI Base Class Descriptor at (0,-1,0,64)'
PUBLIC	??_R1A@?0A@EA@CBaseFilter@@8			; CBaseFilter::`RTTI Base Class Descriptor at (0,-1,0,64)'
PUBLIC	??_R0?AVCBaseFilter@@@8				; CBaseFilter `RTTI Type Descriptor'
PUBLIC	??_R3CBaseFilter@@8				; CBaseFilter::`RTTI Class Hierarchy Descriptor'
PUBLIC	??_R2CBaseFilter@@8				; CBaseFilter::`RTTI Base Class Array'
PUBLIC	??_R1A@?0A@EA@CUnknown@@8			; CUnknown::`RTTI Base Class Descriptor at (0,-1,0,64)'
PUBLIC	??_R0?AVCUnknown@@@8				; CUnknown `RTTI Type Descriptor'
PUBLIC	??_R3CUnknown@@8				; CUnknown::`RTTI Class Hierarchy Descriptor'
PUBLIC	??_R2CUnknown@@8				; CUnknown::`RTTI Base Class Array'
PUBLIC	??_R1A@?0A@EA@INonDelegatingUnknown@@8		; INonDelegatingUnknown::`RTTI Base Class Descriptor at (0,-1,0,64)'
PUBLIC	??_R0?AUINonDelegatingUnknown@@@8		; INonDelegatingUnknown `RTTI Type Descriptor'
PUBLIC	??_R3INonDelegatingUnknown@@8			; INonDelegatingUnknown::`RTTI Class Hierarchy Descriptor'
PUBLIC	??_R2INonDelegatingUnknown@@8			; INonDelegatingUnknown::`RTTI Base Class Array'
PUBLIC	??_R17?0A@EA@CBaseObject@@8			; CBaseObject::`RTTI Base Class Descriptor at (8,-1,0,64)'
PUBLIC	??_R0?AVCBaseObject@@@8				; CBaseObject `RTTI Type Descriptor'
PUBLIC	??_R3CBaseObject@@8				; CBaseObject::`RTTI Class Hierarchy Descriptor'
PUBLIC	??_R2CBaseObject@@8				; CBaseObject::`RTTI Base Class Array'
PUBLIC	??_R1A@?0A@EA@CBaseObject@@8			; CBaseObject::`RTTI Base Class Descriptor at (0,-1,0,64)'
PUBLIC	??_R1CA@?0A@EA@IBaseFilter@@8			; IBaseFilter::`RTTI Base Class Descriptor at (32,-1,0,64)'
PUBLIC	??_R0?AUIBaseFilter@@@8				; IBaseFilter `RTTI Type Descriptor'
PUBLIC	??_R3IBaseFilter@@8				; IBaseFilter::`RTTI Class Hierarchy Descriptor'
PUBLIC	??_R2IBaseFilter@@8				; IBaseFilter::`RTTI Base Class Array'
PUBLIC	??_R1A@?0A@EA@IBaseFilter@@8			; IBaseFilter::`RTTI Base Class Descriptor at (0,-1,0,64)'
PUBLIC	??_R1A@?0A@EA@IMediaFilter@@8			; IMediaFilter::`RTTI Base Class Descriptor at (0,-1,0,64)'
PUBLIC	??_R0?AUIMediaFilter@@@8			; IMediaFilter `RTTI Type Descriptor'
PUBLIC	??_R3IMediaFilter@@8				; IMediaFilter::`RTTI Class Hierarchy Descriptor'
PUBLIC	??_R2IMediaFilter@@8				; IMediaFilter::`RTTI Base Class Array'
PUBLIC	??_R1A@?0A@EA@IPersist@@8			; IPersist::`RTTI Base Class Descriptor at (0,-1,0,64)'
PUBLIC	??_R0?AUIPersist@@@8				; IPersist `RTTI Type Descriptor'
PUBLIC	??_R3IPersist@@8				; IPersist::`RTTI Class Hierarchy Descriptor'
PUBLIC	??_R2IPersist@@8				; IPersist::`RTTI Base Class Array'
PUBLIC	??_R1A@?0A@EA@IUnknown@@8			; IUnknown::`RTTI Base Class Descriptor at (0,-1,0,64)'
PUBLIC	??_R0?AUIUnknown@@@8				; IUnknown `RTTI Type Descriptor'
PUBLIC	??_R3IUnknown@@8				; IUnknown::`RTTI Class Hierarchy Descriptor'
PUBLIC	??_R2IUnknown@@8				; IUnknown::`RTTI Base Class Array'
PUBLIC	??_R1CA@?0A@EA@IMediaFilter@@8			; IMediaFilter::`RTTI Base Class Descriptor at (32,-1,0,64)'
PUBLIC	??_R1CA@?0A@EA@IPersist@@8			; IPersist::`RTTI Base Class Descriptor at (32,-1,0,64)'
PUBLIC	??_R1CA@?0A@EC@IUnknown@@8			; IUnknown::`RTTI Base Class Descriptor at (32,-1,0,66)'
PUBLIC	??_R1CI@?0A@EA@IAMovieSetup@@8			; IAMovieSetup::`RTTI Base Class Descriptor at (40,-1,0,64)'
PUBLIC	??_R0?AUIAMovieSetup@@@8			; IAMovieSetup `RTTI Type Descriptor'
PUBLIC	??_R3IAMovieSetup@@8				; IAMovieSetup::`RTTI Class Hierarchy Descriptor'
PUBLIC	??_R2IAMovieSetup@@8				; IAMovieSetup::`RTTI Base Class Array'
PUBLIC	??_R1A@?0A@EA@IAMovieSetup@@8			; IAMovieSetup::`RTTI Base Class Descriptor at (0,-1,0,64)'
PUBLIC	??_R1CI@?0A@EC@IUnknown@@8			; IUnknown::`RTTI Base Class Descriptor at (40,-1,0,66)'
PUBLIC	?GetPinCount@CSource@@UEAAHXZ			; CSource::GetPinCount
PUBLIC	?GetPin@CSource@@UEAAPEAVCBasePin@@H@Z		; CSource::GetPin
PUBLIC	?GetSetupData@CBaseFilter@@UEAAPEAU_AMOVIESETUP_FILTER@@XZ ; CBaseFilter::GetSetupData
PUBLIC	??_R4CSource@@6BIBaseFilter@@@			; CSource::`RTTI Complete Object Locator'
PUBLIC	?QueryInterface@CBaseFilter@@UEAAJAEBU_GUID@@PEAPEAX@Z ; CBaseFilter::QueryInterface
PUBLIC	?AddRef@CBaseFilter@@UEAAKXZ			; CBaseFilter::AddRef
PUBLIC	?Release@CBaseFilter@@UEAAKXZ			; CBaseFilter::Release
PUBLIC	?FindPin@CSource@@UEAAJPEB_WPEAPEAUIPin@@@Z	; CSource::FindPin
PUBLIC	??_R4CSource@@6BIAMovieSetup@@@			; CSource::`RTTI Complete Object Locator'
PUBLIC	?QueryInterface@CBaseFilter@@W7EAAJAEBU_GUID@@PEAPEAX@Z ; [thunk]:CBaseFilter::QueryInterface`adjustor{8}'
PUBLIC	?AddRef@CBaseFilter@@W7EAAKXZ			; [thunk]:CBaseFilter::AddRef`adjustor{8}'
PUBLIC	?Release@CBaseFilter@@W7EAAKXZ			; [thunk]:CBaseFilter::Release`adjustor{8}'
EXTRN	__CxxFrameHandler3:PROC
EXTRN	??1CBaseFilter@@UEAA@XZ:PROC			; CBaseFilter::~CBaseFilter
EXTRN	??0CCritSec@@QEAA@XZ:PROC			; CCritSec::CCritSec
EXTRN	??0CBaseFilter@@QEAA@PEB_WPEAUIUnknown@@PEAVCCritSec@@AEBU_GUID@@@Z:PROC ; CBaseFilter::CBaseFilter
EXTRN	_RTC_CheckStackVars:PROC
EXTRN	_RTC_Shutdown:PROC
EXTRN	_RTC_InitBase:PROC
EXTRN	??_7type_info@@6B@:BYTE				; type_info::`vftable'
EXTRN	?NonDelegatingQueryInterface@CBaseFilter@@UEAAJAEBU_GUID@@PEAPEAX@Z:PROC ; CBaseFilter::NonDelegatingQueryInterface
EXTRN	?NonDelegatingAddRef@CUnknown@@UEAAKXZ:PROC	; CUnknown::NonDelegatingAddRef
EXTRN	?NonDelegatingRelease@CBaseFilter@@UEAAKXZ:PROC	; CBaseFilter::NonDelegatingRelease
EXTRN	??_ECSource@@UEAAPEAXI@Z:PROC			; CSource::`vector deleting destructor'
EXTRN	?StreamTime@CBaseFilter@@UEAAJAEAVCRefTime@@@Z:PROC ; CBaseFilter::StreamTime
EXTRN	?GetPinVersion@CBaseFilter@@UEAAJXZ:PROC	; CBaseFilter::GetPinVersion
EXTRN	?GetClassID@CBaseFilter@@UEAAJPEAU_GUID@@@Z:PROC ; CBaseFilter::GetClassID
EXTRN	?Stop@CBaseFilter@@UEAAJXZ:PROC			; CBaseFilter::Stop
EXTRN	?Pause@CBaseFilter@@UEAAJXZ:PROC		; CBaseFilter::Pause
EXTRN	?Run@CBaseFilter@@UEAAJ_J@Z:PROC		; CBaseFilter::Run
EXTRN	?GetState@CBaseFilter@@UEAAJKPEAW4_FilterState@@@Z:PROC ; CBaseFilter::GetState
EXTRN	?SetSyncSource@CBaseFilter@@UEAAJPEAUIReferenceClock@@@Z:PROC ; CBaseFilter::SetSyncSource
EXTRN	?GetSyncSource@CBaseFilter@@UEAAJPEAPEAUIReferenceClock@@@Z:PROC ; CBaseFilter::GetSyncSource
EXTRN	?EnumPins@CBaseFilter@@UEAAJPEAPEAUIEnumPins@@@Z:PROC ; CBaseFilter::EnumPins
EXTRN	?QueryFilterInfo@CBaseFilter@@UEAAJPEAU_FilterInfo@@@Z:PROC ; CBaseFilter::QueryFilterInfo
EXTRN	?JoinFilterGraph@CBaseFilter@@UEAAJPEAUIFilterGraph@@PEB_W@Z:PROC ; CBaseFilter::JoinFilterGraph
EXTRN	?QueryVendorInfo@CBaseFilter@@UEAAJPEAPEA_W@Z:PROC ; CBaseFilter::QueryVendorInfo
EXTRN	?Register@CBaseFilter@@UEAAJXZ:PROC		; CBaseFilter::Register
EXTRN	?Unregister@CBaseFilter@@UEAAJXZ:PROC		; CBaseFilter::Unregister
;	COMDAT pdata
; File c:\downloads\wpf mediakit - copy\src\filters\baseclasses\source.cpp
pdata	SEGMENT
$pdata$??0CSource@@QEAA@PEA_WPEAUIUnknown@@U_GUID@@@Z DD imagerel $LN5
	DD	imagerel $LN5+229
	DD	imagerel $unwind$??0CSource@@QEAA@PEA_WPEAUIUnknown@@U_GUID@@@Z
pdata	ENDS
;	COMDAT pdata
pdata	SEGMENT
$pdata$?dtor$0@?0???0CSource@@QEAA@PEA_WPEAUIUnknown@@U_GUID@@@Z@4HA DD imagerel ?dtor$0@?0???0CSource@@QEAA@PEA_WPEAUIUnknown@@U_GUID@@@Z@4HA
	DD	imagerel ?dtor$0@?0???0CSource@@QEAA@PEA_WPEAUIUnknown@@U_GUID@@@Z@4HA+35
	DD	imagerel $unwind$?dtor$0@?0???0CSource@@QEAA@PEA_WPEAUIUnknown@@U_GUID@@@Z@4HA
pdata	ENDS
;	COMDAT xdata
xdata	SEGMENT
$ip2state$??0CSource@@QEAA@PEA_WPEAUIUnknown@@U_GUID@@@Z DD imagerel ??0CSource@@QEAA@PEA_WPEAUIUnknown@@U_GUID@@@Z
	DD	0ffffffffH
	DD	imagerel ??0CSource@@QEAA@PEA_WPEAUIUnknown@@U_GUID@@@Z+99
	DD	00H
	DD	imagerel ??0CSource@@QEAA@PEA_WPEAUIUnknown@@U_GUID@@@Z+197
	DD	0ffffffffH
xdata	ENDS
;	COMDAT ??_R4CSource@@6BIAMovieSetup@@@
rdata$r	SEGMENT
??_R4CSource@@6BIAMovieSetup@@@ DD 01H			; CSource::`RTTI Complete Object Locator'
	DD	028H
	DD	00H
	DD	imagerel ??_R0?AVCSource@@@8
	DD	imagerel ??_R3CSource@@8
	DD	imagerel ??_R4CSource@@6BIAMovieSetup@@@
rdata$r	ENDS
;	COMDAT ??_R4CSource@@6BIBaseFilter@@@
rdata$r	SEGMENT
??_R4CSource@@6BIBaseFilter@@@ DD 01H			; CSource::`RTTI Complete Object Locator'
	DD	020H
	DD	00H
	DD	imagerel ??_R0?AVCSource@@@8
	DD	imagerel ??_R3CSource@@8
	DD	imagerel ??_R4CSource@@6BIBaseFilter@@@
rdata$r	ENDS
;	COMDAT ??_R1CI@?0A@EC@IUnknown@@8
rdata$r	SEGMENT
??_R1CI@?0A@EC@IUnknown@@8 DD imagerel ??_R0?AUIUnknown@@@8 ; IUnknown::`RTTI Base Class Descriptor at (40,-1,0,66)'
	DD	00H
	DD	028H
	DD	0ffffffffH
	DD	00H
	DD	042H
	DD	imagerel ??_R3IUnknown@@8
rdata$r	ENDS
;	COMDAT ??_R1A@?0A@EA@IAMovieSetup@@8
rdata$r	SEGMENT
??_R1A@?0A@EA@IAMovieSetup@@8 DD imagerel ??_R0?AUIAMovieSetup@@@8 ; IAMovieSetup::`RTTI Base Class Descriptor at (0,-1,0,64)'
	DD	01H
	DD	00H
	DD	0ffffffffH
	DD	00H
	DD	040H
	DD	imagerel ??_R3IAMovieSetup@@8
rdata$r	ENDS
;	COMDAT ??_R2IAMovieSetup@@8
rdata$r	SEGMENT
??_R2IAMovieSetup@@8 DD imagerel ??_R1A@?0A@EA@IAMovieSetup@@8 ; IAMovieSetup::`RTTI Base Class Array'
	DD	imagerel ??_R1A@?0A@EA@IUnknown@@8
	ORG $+3
rdata$r	ENDS
;	COMDAT ??_R3IAMovieSetup@@8
rdata$r	SEGMENT
??_R3IAMovieSetup@@8 DD 00H				; IAMovieSetup::`RTTI Class Hierarchy Descriptor'
	DD	00H
	DD	02H
	DD	imagerel ??_R2IAMovieSetup@@8
rdata$r	ENDS
;	COMDAT ??_R0?AUIAMovieSetup@@@8
_DATA	SEGMENT
??_R0?AUIAMovieSetup@@@8 DQ FLAT:??_7type_info@@6B@	; IAMovieSetup `RTTI Type Descriptor'
	DQ	0000000000000000H
	DB	'.?AUIAMovieSetup@@', 00H
_DATA	ENDS
;	COMDAT ??_R1CI@?0A@EA@IAMovieSetup@@8
rdata$r	SEGMENT
??_R1CI@?0A@EA@IAMovieSetup@@8 DD imagerel ??_R0?AUIAMovieSetup@@@8 ; IAMovieSetup::`RTTI Base Class Descriptor at (40,-1,0,64)'
	DD	01H
	DD	028H
	DD	0ffffffffH
	DD	00H
	DD	040H
	DD	imagerel ??_R3IAMovieSetup@@8
rdata$r	ENDS
;	COMDAT ??_R1CA@?0A@EC@IUnknown@@8
rdata$r	SEGMENT
??_R1CA@?0A@EC@IUnknown@@8 DD imagerel ??_R0?AUIUnknown@@@8 ; IUnknown::`RTTI Base Class Descriptor at (32,-1,0,66)'
	DD	00H
	DD	020H
	DD	0ffffffffH
	DD	00H
	DD	042H
	DD	imagerel ??_R3IUnknown@@8
rdata$r	ENDS
;	COMDAT ??_R1CA@?0A@EA@IPersist@@8
rdata$r	SEGMENT
??_R1CA@?0A@EA@IPersist@@8 DD imagerel ??_R0?AUIPersist@@@8 ; IPersist::`RTTI Base Class Descriptor at (32,-1,0,64)'
	DD	01H
	DD	020H
	DD	0ffffffffH
	DD	00H
	DD	040H
	DD	imagerel ??_R3IPersist@@8
rdata$r	ENDS
;	COMDAT ??_R1CA@?0A@EA@IMediaFilter@@8
rdata$r	SEGMENT
??_R1CA@?0A@EA@IMediaFilter@@8 DD imagerel ??_R0?AUIMediaFilter@@@8 ; IMediaFilter::`RTTI Base Class Descriptor at (32,-1,0,64)'
	DD	02H
	DD	020H
	DD	0ffffffffH
	DD	00H
	DD	040H
	DD	imagerel ??_R3IMediaFilter@@8
rdata$r	ENDS
;	COMDAT ??_R2IUnknown@@8
rdata$r	SEGMENT
??_R2IUnknown@@8 DD imagerel ??_R1A@?0A@EA@IUnknown@@8	; IUnknown::`RTTI Base Class Array'
	ORG $+3
rdata$r	ENDS
;	COMDAT ??_R3IUnknown@@8
rdata$r	SEGMENT
??_R3IUnknown@@8 DD 00H					; IUnknown::`RTTI Class Hierarchy Descriptor'
	DD	00H
	DD	01H
	DD	imagerel ??_R2IUnknown@@8
rdata$r	ENDS
;	COMDAT ??_R0?AUIUnknown@@@8
_DATA	SEGMENT
??_R0?AUIUnknown@@@8 DQ FLAT:??_7type_info@@6B@		; IUnknown `RTTI Type Descriptor'
	DQ	0000000000000000H
	DB	'.?AUIUnknown@@', 00H
_DATA	ENDS
;	COMDAT ??_R1A@?0A@EA@IUnknown@@8
rdata$r	SEGMENT
??_R1A@?0A@EA@IUnknown@@8 DD imagerel ??_R0?AUIUnknown@@@8 ; IUnknown::`RTTI Base Class Descriptor at (0,-1,0,64)'
	DD	00H
	DD	00H
	DD	0ffffffffH
	DD	00H
	DD	040H
	DD	imagerel ??_R3IUnknown@@8
rdata$r	ENDS
;	COMDAT ??_R2IPersist@@8
rdata$r	SEGMENT
??_R2IPersist@@8 DD imagerel ??_R1A@?0A@EA@IPersist@@8	; IPersist::`RTTI Base Class Array'
	DD	imagerel ??_R1A@?0A@EA@IUnknown@@8
	ORG $+3
rdata$r	ENDS
;	COMDAT ??_R3IPersist@@8
rdata$r	SEGMENT
??_R3IPersist@@8 DD 00H					; IPersist::`RTTI Class Hierarchy Descriptor'
	DD	00H
	DD	02H
	DD	imagerel ??_R2IPersist@@8
rdata$r	ENDS
;	COMDAT ??_R0?AUIPersist@@@8
_DATA	SEGMENT
??_R0?AUIPersist@@@8 DQ FLAT:??_7type_info@@6B@		; IPersist `RTTI Type Descriptor'
	DQ	0000000000000000H
	DB	'.?AUIPersist@@', 00H
_DATA	ENDS
;	COMDAT ??_R1A@?0A@EA@IPersist@@8
rdata$r	SEGMENT
??_R1A@?0A@EA@IPersist@@8 DD imagerel ??_R0?AUIPersist@@@8 ; IPersist::`RTTI Base Class Descriptor at (0,-1,0,64)'
	DD	01H
	DD	00H
	DD	0ffffffffH
	DD	00H
	DD	040H
	DD	imagerel ??_R3IPersist@@8
rdata$r	ENDS
;	COMDAT ??_R2IMediaFilter@@8
rdata$r	SEGMENT
??_R2IMediaFilter@@8 DD imagerel ??_R1A@?0A@EA@IMediaFilter@@8 ; IMediaFilter::`RTTI Base Class Array'
	DD	imagerel ??_R1A@?0A@EA@IPersist@@8
	DD	imagerel ??_R1A@?0A@EA@IUnknown@@8
	ORG $+3
rdata$r	ENDS
;	COMDAT ??_R3IMediaFilter@@8
rdata$r	SEGMENT
??_R3IMediaFilter@@8 DD 00H				; IMediaFilter::`RTTI Class Hierarchy Descriptor'
	DD	00H
	DD	03H
	DD	imagerel ??_R2IMediaFilter@@8
rdata$r	ENDS
;	COMDAT ??_R0?AUIMediaFilter@@@8
_DATA	SEGMENT
??_R0?AUIMediaFilter@@@8 DQ FLAT:??_7type_info@@6B@	; IMediaFilter `RTTI Type Descriptor'
	DQ	0000000000000000H
	DB	'.?AUIMediaFilter@@', 00H
_DATA	ENDS
;	COMDAT ??_R1A@?0A@EA@IMediaFilter@@8
rdata$r	SEGMENT
??_R1A@?0A@EA@IMediaFilter@@8 DD imagerel ??_R0?AUIMediaFilter@@@8 ; IMediaFilter::`RTTI Base Class Descriptor at (0,-1,0,64)'
	DD	02H
	DD	00H
	DD	0ffffffffH
	DD	00H
	DD	040H
	DD	imagerel ??_R3IMediaFilter@@8
rdata$r	ENDS
;	COMDAT ??_R1A@?0A@EA@IBaseFilter@@8
rdata$r	SEGMENT
??_R1A@?0A@EA@IBaseFilter@@8 DD imagerel ??_R0?AUIBaseFilter@@@8 ; IBaseFilter::`RTTI Base Class Descriptor at (0,-1,0,64)'
	DD	03H
	DD	00H
	DD	0ffffffffH
	DD	00H
	DD	040H
	DD	imagerel ??_R3IBaseFilter@@8
rdata$r	ENDS
;	COMDAT ??_R2IBaseFilter@@8
rdata$r	SEGMENT
??_R2IBaseFilter@@8 DD imagerel ??_R1A@?0A@EA@IBaseFilter@@8 ; IBaseFilter::`RTTI Base Class Array'
	DD	imagerel ??_R1A@?0A@EA@IMediaFilter@@8
	DD	imagerel ??_R1A@?0A@EA@IPersist@@8
	DD	imagerel ??_R1A@?0A@EA@IUnknown@@8
	ORG $+3
rdata$r	ENDS
;	COMDAT ??_R3IBaseFilter@@8
rdata$r	SEGMENT
??_R3IBaseFilter@@8 DD 00H				; IBaseFilter::`RTTI Class Hierarchy Descriptor'
	DD	00H
	DD	04H
	DD	imagerel ??_R2IBaseFilter@@8
rdata$r	ENDS
;	COMDAT ??_R0?AUIBaseFilter@@@8
_DATA	SEGMENT
??_R0?AUIBaseFilter@@@8 DQ FLAT:??_7type_info@@6B@	; IBaseFilter `RTTI Type Descriptor'
	DQ	0000000000000000H
	DB	'.?AUIBaseFilter@@', 00H
_DATA	ENDS
;	COMDAT ??_R1CA@?0A@EA@IBaseFilter@@8
rdata$r	SEGMENT
??_R1CA@?0A@EA@IBaseFilter@@8 DD imagerel ??_R0?AUIBaseFilter@@@8 ; IBaseFilter::`RTTI Base Class Descriptor at (32,-1,0,64)'
	DD	03H
	DD	020H
	DD	0ffffffffH
	DD	00H
	DD	040H
	DD	imagerel ??_R3IBaseFilter@@8
rdata$r	ENDS
;	COMDAT ??_R1A@?0A@EA@CBaseObject@@8
rdata$r	SEGMENT
??_R1A@?0A@EA@CBaseObject@@8 DD imagerel ??_R0?AVCBaseObject@@@8 ; CBaseObject::`RTTI Base Class Descriptor at (0,-1,0,64)'
	DD	00H
	DD	00H
	DD	0ffffffffH
	DD	00H
	DD	040H
	DD	imagerel ??_R3CBaseObject@@8
rdata$r	ENDS
;	COMDAT ??_R2CBaseObject@@8
rdata$r	SEGMENT
??_R2CBaseObject@@8 DD imagerel ??_R1A@?0A@EA@CBaseObject@@8 ; CBaseObject::`RTTI Base Class Array'
	ORG $+3
rdata$r	ENDS
;	COMDAT ??_R3CBaseObject@@8
rdata$r	SEGMENT
??_R3CBaseObject@@8 DD 00H				; CBaseObject::`RTTI Class Hierarchy Descriptor'
	DD	00H
	DD	01H
	DD	imagerel ??_R2CBaseObject@@8
rdata$r	ENDS
;	COMDAT ??_R0?AVCBaseObject@@@8
_DATA	SEGMENT
??_R0?AVCBaseObject@@@8 DQ FLAT:??_7type_info@@6B@	; CBaseObject `RTTI Type Descriptor'
	DQ	0000000000000000H
	DB	'.?AVCBaseObject@@', 00H
_DATA	ENDS
;	COMDAT ??_R17?0A@EA@CBaseObject@@8
rdata$r	SEGMENT
??_R17?0A@EA@CBaseObject@@8 DD imagerel ??_R0?AVCBaseObject@@@8 ; CBaseObject::`RTTI Base Class Descriptor at (8,-1,0,64)'
	DD	00H
	DD	08H
	DD	0ffffffffH
	DD	00H
	DD	040H
	DD	imagerel ??_R3CBaseObject@@8
rdata$r	ENDS
;	COMDAT ??_R2INonDelegatingUnknown@@8
rdata$r	SEGMENT
??_R2INonDelegatingUnknown@@8 DD imagerel ??_R1A@?0A@EA@INonDelegatingUnknown@@8 ; INonDelegatingUnknown::`RTTI Base Class Array'
	ORG $+3
rdata$r	ENDS
;	COMDAT ??_R3INonDelegatingUnknown@@8
rdata$r	SEGMENT
??_R3INonDelegatingUnknown@@8 DD 00H			; INonDelegatingUnknown::`RTTI Class Hierarchy Descriptor'
	DD	00H
	DD	01H
	DD	imagerel ??_R2INonDelegatingUnknown@@8
rdata$r	ENDS
;	COMDAT ??_R0?AUINonDelegatingUnknown@@@8
_DATA	SEGMENT
??_R0?AUINonDelegatingUnknown@@@8 DQ FLAT:??_7type_info@@6B@ ; INonDelegatingUnknown `RTTI Type Descriptor'
	DQ	0000000000000000H
	DB	'.?AUINonDelegatingUnknown@@', 00H
_DATA	ENDS
;	COMDAT ??_R1A@?0A@EA@INonDelegatingUnknown@@8
rdata$r	SEGMENT
??_R1A@?0A@EA@INonDelegatingUnknown@@8 DD imagerel ??_R0?AUINonDelegatingUnknown@@@8 ; INonDelegatingUnknown::`RTTI Base Class Descriptor at (0,-1,0,64)'
	DD	00H
	DD	00H
	DD	0ffffffffH
	DD	00H
	DD	040H
	DD	imagerel ??_R3INonDelegatingUnknown@@8
rdata$r	ENDS
;	COMDAT ??_R2CUnknown@@8
rdata$r	SEGMENT
??_R2CUnknown@@8 DD imagerel ??_R1A@?0A@EA@CUnknown@@8	; CUnknown::`RTTI Base Class Array'
	DD	imagerel ??_R1A@?0A@EA@INonDelegatingUnknown@@8
	DD	imagerel ??_R17?0A@EA@CBaseObject@@8
	ORG $+3
rdata$r	ENDS
;	COMDAT ??_R3CUnknown@@8
rdata$r	SEGMENT
??_R3CUnknown@@8 DD 00H					; CUnknown::`RTTI Class Hierarchy Descriptor'
	DD	01H
	DD	03H
	DD	imagerel ??_R2CUnknown@@8
rdata$r	ENDS
;	COMDAT ??_R0?AVCUnknown@@@8
_DATA	SEGMENT
??_R0?AVCUnknown@@@8 DQ FLAT:??_7type_info@@6B@		; CUnknown `RTTI Type Descriptor'
	DQ	0000000000000000H
	DB	'.?AVCUnknown@@', 00H
_DATA	ENDS
;	COMDAT ??_R1A@?0A@EA@CUnknown@@8
rdata$r	SEGMENT
??_R1A@?0A@EA@CUnknown@@8 DD imagerel ??_R0?AVCUnknown@@@8 ; CUnknown::`RTTI Base Class Descriptor at (0,-1,0,64)'
	DD	02H
	DD	00H
	DD	0ffffffffH
	DD	00H
	DD	040H
	DD	imagerel ??_R3CUnknown@@8
rdata$r	ENDS
;	COMDAT ??_R2CBaseFilter@@8
rdata$r	SEGMENT
??_R2CBaseFilter@@8 DD imagerel ??_R1A@?0A@EA@CBaseFilter@@8 ; CBaseFilter::`RTTI Base Class Array'
	DD	imagerel ??_R1A@?0A@EA@CUnknown@@8
	DD	imagerel ??_R1A@?0A@EA@INonDelegatingUnknown@@8
	DD	imagerel ??_R17?0A@EA@CBaseObject@@8
	DD	imagerel ??_R1CA@?0A@EA@IBaseFilter@@8
	DD	imagerel ??_R1CA@?0A@EA@IMediaFilter@@8
	DD	imagerel ??_R1CA@?0A@EA@IPersist@@8
	DD	imagerel ??_R1CA@?0A@EC@IUnknown@@8
	DD	imagerel ??_R1CI@?0A@EA@IAMovieSetup@@8
	DD	imagerel ??_R1CI@?0A@EC@IUnknown@@8
	ORG $+3
rdata$r	ENDS
;	COMDAT ??_R3CBaseFilter@@8
rdata$r	SEGMENT
??_R3CBaseFilter@@8 DD 00H				; CBaseFilter::`RTTI Class Hierarchy Descriptor'
	DD	01H
	DD	0aH
	DD	imagerel ??_R2CBaseFilter@@8
rdata$r	ENDS
;	COMDAT ??_R0?AVCBaseFilter@@@8
_DATA	SEGMENT
??_R0?AVCBaseFilter@@@8 DQ FLAT:??_7type_info@@6B@	; CBaseFilter `RTTI Type Descriptor'
	DQ	0000000000000000H
	DB	'.?AVCBaseFilter@@', 00H
_DATA	ENDS
;	COMDAT ??_R1A@?0A@EA@CBaseFilter@@8
rdata$r	SEGMENT
??_R1A@?0A@EA@CBaseFilter@@8 DD imagerel ??_R0?AVCBaseFilter@@@8 ; CBaseFilter::`RTTI Base Class Descriptor at (0,-1,0,64)'
	DD	09H
	DD	00H
	DD	0ffffffffH
	DD	00H
	DD	040H
	DD	imagerel ??_R3CBaseFilter@@8
rdata$r	ENDS
;	COMDAT ??_R1A@?0A@EA@CSource@@8
rdata$r	SEGMENT
??_R1A@?0A@EA@CSource@@8 DD imagerel ??_R0?AVCSource@@@8 ; CSource::`RTTI Base Class Descriptor at (0,-1,0,64)'
	DD	0aH
	DD	00H
	DD	0ffffffffH
	DD	00H
	DD	040H
	DD	imagerel ??_R3CSource@@8
rdata$r	ENDS
;	COMDAT ??_R2CSource@@8
rdata$r	SEGMENT
??_R2CSource@@8 DD imagerel ??_R1A@?0A@EA@CSource@@8	; CSource::`RTTI Base Class Array'
	DD	imagerel ??_R1A@?0A@EA@CBaseFilter@@8
	DD	imagerel ??_R1A@?0A@EA@CUnknown@@8
	DD	imagerel ??_R1A@?0A@EA@INonDelegatingUnknown@@8
	DD	imagerel ??_R17?0A@EA@CBaseObject@@8
	DD	imagerel ??_R1CA@?0A@EA@IBaseFilter@@8
	DD	imagerel ??_R1CA@?0A@EA@IMediaFilter@@8
	DD	imagerel ??_R1CA@?0A@EA@IPersist@@8
	DD	imagerel ??_R1CA@?0A@EC@IUnknown@@8
	DD	imagerel ??_R1CI@?0A@EA@IAMovieSetup@@8
	DD	imagerel ??_R1CI@?0A@EC@IUnknown@@8
	ORG $+3
rdata$r	ENDS
;	COMDAT ??_R3CSource@@8
rdata$r	SEGMENT
??_R3CSource@@8 DD 00H					; CSource::`RTTI Class Hierarchy Descriptor'
	DD	01H
	DD	0bH
	DD	imagerel ??_R2CSource@@8
rdata$r	ENDS
;	COMDAT ??_R0?AVCSource@@@8
_DATA	SEGMENT
??_R0?AVCSource@@@8 DQ FLAT:??_7type_info@@6B@		; CSource `RTTI Type Descriptor'
	DQ	0000000000000000H
	DB	'.?AVCSource@@', 00H
_DATA	ENDS
;	COMDAT ??_R4CSource@@6BCUnknown@@@
rdata$r	SEGMENT
??_R4CSource@@6BCUnknown@@@ DD 01H			; CSource::`RTTI Complete Object Locator'
	DD	00H
	DD	00H
	DD	imagerel ??_R0?AVCSource@@@8
	DD	imagerel ??_R3CSource@@8
	DD	imagerel ??_R4CSource@@6BCUnknown@@@
rdata$r	ENDS
;	COMDAT xdata
xdata	SEGMENT
$unwind$?dtor$0@?0???0CSource@@QEAA@PEA_WPEAUIUnknown@@U_GUID@@@Z@4HA DD 031001H
	DD	0700c4210H
	DD	0500bH
xdata	ENDS
;	COMDAT xdata
xdata	SEGMENT
$unwind$??0CSource@@QEAA@PEA_WPEAUIUnknown@@U_GUID@@@Z DD 023611H
	DD	070159219H
	DD	imagerel __CxxFrameHandler3
	DD	imagerel $cppxdata$??0CSource@@QEAA@PEA_WPEAUIUnknown@@U_GUID@@@Z
xdata	ENDS
;	COMDAT xdata
xdata	SEGMENT
$stateUnwindMap$??0CSource@@QEAA@PEA_WPEAUIUnknown@@U_GUID@@@Z DD 0ffffffffH
	DD	imagerel ?dtor$0@?0???0CSource@@QEAA@PEA_WPEAUIUnknown@@U_GUID@@@Z@4HA
xdata	ENDS
;	COMDAT ??_7CSource@@6BIAMovieSetup@@@
CONST	SEGMENT
??_7CSource@@6BIAMovieSetup@@@ DQ FLAT:??_R4CSource@@6BIAMovieSetup@@@ ; CSource::`vftable'
	DQ	FLAT:?QueryInterface@CBaseFilter@@W7EAAJAEBU_GUID@@PEAPEAX@Z
	DQ	FLAT:?AddRef@CBaseFilter@@W7EAAKXZ
	DQ	FLAT:?Release@CBaseFilter@@W7EAAKXZ
	DQ	FLAT:?Register@CBaseFilter@@UEAAJXZ
	DQ	FLAT:?Unregister@CBaseFilter@@UEAAJXZ
CONST	ENDS
;	COMDAT ??_7CSource@@6BIBaseFilter@@@
CONST	SEGMENT
??_7CSource@@6BIBaseFilter@@@ DQ FLAT:??_R4CSource@@6BIBaseFilter@@@ ; CSource::`vftable'
	DQ	FLAT:?QueryInterface@CBaseFilter@@UEAAJAEBU_GUID@@PEAPEAX@Z
	DQ	FLAT:?AddRef@CBaseFilter@@UEAAKXZ
	DQ	FLAT:?Release@CBaseFilter@@UEAAKXZ
	DQ	FLAT:?GetClassID@CBaseFilter@@UEAAJPEAU_GUID@@@Z
	DQ	FLAT:?Stop@CBaseFilter@@UEAAJXZ
	DQ	FLAT:?Pause@CBaseFilter@@UEAAJXZ
	DQ	FLAT:?Run@CBaseFilter@@UEAAJ_J@Z
	DQ	FLAT:?GetState@CBaseFilter@@UEAAJKPEAW4_FilterState@@@Z
	DQ	FLAT:?SetSyncSource@CBaseFilter@@UEAAJPEAUIReferenceClock@@@Z
	DQ	FLAT:?GetSyncSource@CBaseFilter@@UEAAJPEAPEAUIReferenceClock@@@Z
	DQ	FLAT:?EnumPins@CBaseFilter@@UEAAJPEAPEAUIEnumPins@@@Z
	DQ	FLAT:?FindPin@CSource@@UEAAJPEB_WPEAPEAUIPin@@@Z
	DQ	FLAT:?QueryFilterInfo@CBaseFilter@@UEAAJPEAU_FilterInfo@@@Z
	DQ	FLAT:?JoinFilterGraph@CBaseFilter@@UEAAJPEAUIFilterGraph@@PEB_W@Z
	DQ	FLAT:?QueryVendorInfo@CBaseFilter@@UEAAJPEAPEA_W@Z
CONST	ENDS
;	COMDAT ??_7CSource@@6BCUnknown@@@
CONST	SEGMENT
??_7CSource@@6BCUnknown@@@ DQ FLAT:??_R4CSource@@6BCUnknown@@@ ; CSource::`vftable'
	DQ	FLAT:?NonDelegatingQueryInterface@CBaseFilter@@UEAAJAEBU_GUID@@PEAPEAX@Z
	DQ	FLAT:?NonDelegatingAddRef@CUnknown@@UEAAKXZ
	DQ	FLAT:?NonDelegatingRelease@CBaseFilter@@UEAAKXZ
	DQ	FLAT:??_ECSource@@UEAAPEAXI@Z
	DQ	FLAT:?StreamTime@CBaseFilter@@UEAAJAEAVCRefTime@@@Z
	DQ	FLAT:?GetPinVersion@CBaseFilter@@UEAAJXZ
	DQ	FLAT:?GetPinCount@CSource@@UEAAHXZ
	DQ	FLAT:?GetPin@CSource@@UEAAPEAVCBasePin@@H@Z
	DQ	FLAT:?GetSetupData@CBaseFilter@@UEAAPEAU_AMOVIESETUP_FILTER@@XZ
CONST	ENDS
;	COMDAT CONST
CONST	SEGMENT
??0CSource@@QEAA@PEA_WPEAUIUnknown@@U_GUID@@@Z$rtcName$0 DB 05fH ; CSource::CSource
	DB	05fH
	DB	024H
	DB	041H
	DB	072H
	DB	072H
	DB	061H
	DB	079H
	DB	050H
	DB	061H
	DB	064H
	DB	00H
	ORG $+4
??0CSource@@QEAA@PEA_WPEAUIUnknown@@U_GUID@@@Z$rtcVarDesc DD 038H ; CSource::CSource
	DD	08H
	DQ	FLAT:??0CSource@@QEAA@PEA_WPEAUIUnknown@@U_GUID@@@Z$rtcName$0
	ORG $+48
??0CSource@@QEAA@PEA_WPEAUIUnknown@@U_GUID@@@Z$rtcFrameData DD 01H ; CSource::CSource
	DD	00H
	DQ	FLAT:??0CSource@@QEAA@PEA_WPEAUIUnknown@@U_GUID@@@Z$rtcVarDesc
$cppxdata$??0CSource@@QEAA@PEA_WPEAUIUnknown@@U_GUID@@@Z DD 019930522H
	DD	01H
	DD	imagerel $stateUnwindMap$??0CSource@@QEAA@PEA_WPEAUIUnknown@@U_GUID@@@Z
	DD	00H
	DD	00H
	DD	03H
	DD	imagerel $ip2state$??0CSource@@QEAA@PEA_WPEAUIUnknown@@U_GUID@@@Z
	DD	048H
	DD	00H
	DD	01H
CONST	ENDS
;	COMDAT rtc$TMZ
rtc$TMZ	SEGMENT
_RTC_Shutdown.rtc$TMZ DQ FLAT:_RTC_Shutdown
rtc$TMZ	ENDS
;	COMDAT rtc$IMZ
rtc$IMZ	SEGMENT
_RTC_InitBase.rtc$IMZ DQ FLAT:_RTC_InitBase
; Function compile flags: /Odtp /RTCsu
rtc$IMZ	ENDS
;	COMDAT ??0CSource@@QEAA@PEA_WPEAUIUnknown@@U_GUID@@@Z
_TEXT	SEGMENT
$T83296 = 72
this$ = 96
pName$ = 104
lpunk$ = 112
clsid$ = 120
??0CSource@@QEAA@PEA_WPEAUIUnknown@@U_GUID@@@Z PROC	; CSource::CSource, COMDAT
; Line 33
$LN5:
	mov	QWORD PTR [rsp+32], r9
	mov	QWORD PTR [rsp+24], r8
	mov	QWORD PTR [rsp+16], rdx
	mov	QWORD PTR [rsp+8], rcx
	push	rdi
	sub	rsp, 80					; 00000050H
	mov	rdi, rsp
	mov	ecx, 20
	mov	eax, -858993460				; ccccccccH
	rep stosd
	mov	rcx, QWORD PTR [rsp+96]
	mov	QWORD PTR $T83296[rsp], -2
	mov	rax, QWORD PTR this$[rsp]
	add	rax, 144				; 00000090H
	mov	rcx, QWORD PTR clsid$[rsp]
	mov	QWORD PTR [rsp+32], rcx
	mov	r9, rax
	mov	r8, QWORD PTR lpunk$[rsp]
	mov	rdx, QWORD PTR pName$[rsp]
	mov	rcx, QWORD PTR this$[rsp]
	call	??0CBaseFilter@@QEAA@PEB_WPEAUIUnknown@@PEAVCCritSec@@AEBU_GUID@@@Z ; CBaseFilter::CBaseFilter
	npad	1
	mov	rax, QWORD PTR this$[rsp]
	lea	rcx, OFFSET FLAT:??_7CSource@@6BCUnknown@@@
	mov	QWORD PTR [rax], rcx
	mov	rax, QWORD PTR this$[rsp]
	lea	rcx, OFFSET FLAT:??_7CSource@@6BIBaseFilter@@@
	mov	QWORD PTR [rax+32], rcx
	mov	rax, QWORD PTR this$[rsp]
	lea	rcx, OFFSET FLAT:??_7CSource@@6BIAMovieSetup@@@
	mov	QWORD PTR [rax+40], rcx
	mov	rax, QWORD PTR this$[rsp]
	mov	DWORD PTR [rax+128], 0
	mov	rax, QWORD PTR this$[rsp]
	mov	QWORD PTR [rax+136], 0
	mov	rax, QWORD PTR this$[rsp]
	add	rax, 144				; 00000090H
	mov	rcx, rax
	call	??0CCritSec@@QEAA@XZ			; CCritSec::CCritSec
	npad	1
; Line 34
	mov	rax, QWORD PTR this$[rsp]
	mov	rdi, rax
	mov	rcx, rsp
	lea	rdx, OFFSET FLAT:??0CSource@@QEAA@PEA_WPEAUIUnknown@@U_GUID@@@Z$rtcFrameData
	call	_RTC_CheckStackVars
	mov	rax, rdi
	add	rsp, 80					; 00000050H
	pop	rdi
	ret	0
??0CSource@@QEAA@PEA_WPEAUIUnknown@@U_GUID@@@Z ENDP	; CSource::CSource
; Function compile flags: /Odtp /RTCsu
_TEXT	ENDS
;	COMDAT text$x
text$x	SEGMENT
$T83296 = 72
this$ = 96
pName$ = 104
lpunk$ = 112
clsid$ = 120
?dtor$0@?0???0CSource@@QEAA@PEA_WPEAUIUnknown@@U_GUID@@@Z@4HA PROC ; `CSource::CSource'::`1'::dtor$0
	mov	QWORD PTR [rsp+8], rcx
	mov	QWORD PTR [rsp+16], rdx
	push	rbp
	push	rdi
	sub	rsp, 40					; 00000028H
	mov	rbp, rdx
	mov	rcx, QWORD PTR this$[rbp]
	call	??1CBaseFilter@@UEAA@XZ			; CBaseFilter::~CBaseFilter
	add	rsp, 40					; 00000028H
	pop	rdi
	pop	rbp
	ret	0
?dtor$0@?0???0CSource@@QEAA@PEA_WPEAUIUnknown@@U_GUID@@@Z@4HA ENDP ; `CSource::CSource'::`1'::dtor$0
text$x	ENDS
PUBLIC	?GetOwner@CUnknown@@QEBAPEAUIUnknown@@XZ	; CUnknown::GetOwner
;	COMDAT pdata
; File c:\downloads\wpf mediakit - copy\src\filters\baseclasses\amfilter.h
pdata	SEGMENT
$pdata$?QueryInterface@CBaseFilter@@UEAAJAEBU_GUID@@PEAPEAX@Z DD imagerel $LN3
	DD	imagerel $LN3+93
	DD	imagerel $unwind$?QueryInterface@CBaseFilter@@UEAAJAEBU_GUID@@PEAPEAX@Z
pdata	ENDS
;	COMDAT xdata
xdata	SEGMENT
$unwind$?QueryInterface@CBaseFilter@@UEAAJAEBU_GUID@@PEAPEAX@Z DD 022801H
	DD	070105214H
; Function compile flags: /Odtp /RTCsu
xdata	ENDS
;	COMDAT ?QueryInterface@CBaseFilter@@UEAAJAEBU_GUID@@PEAPEAX@Z
_TEXT	SEGMENT
tv72 = 32
this$ = 64
riid$ = 72
ppv$ = 80
?QueryInterface@CBaseFilter@@UEAAJAEBU_GUID@@PEAPEAX@Z PROC ; CBaseFilter::QueryInterface, COMDAT
; Line 198
$LN3:
	mov	QWORD PTR [rsp+24], r8
	mov	QWORD PTR [rsp+16], rdx
	mov	QWORD PTR [rsp+8], rcx
	push	rdi
	sub	rsp, 48					; 00000030H
	mov	rdi, rsp
	mov	ecx, 12
	mov	eax, -858993460				; ccccccccH
	rep stosd
	mov	rcx, QWORD PTR [rsp+64]
	mov	rax, QWORD PTR this$[rsp]
	sub	rax, 32					; 00000020H
	mov	rcx, rax
	call	?GetOwner@CUnknown@@QEBAPEAUIUnknown@@XZ ; CUnknown::GetOwner
	mov	QWORD PTR tv72[rsp], rax
	mov	rax, QWORD PTR tv72[rsp]
	mov	rax, QWORD PTR [rax]
	mov	r8, QWORD PTR ppv$[rsp]
	mov	rdx, QWORD PTR riid$[rsp]
	mov	rcx, QWORD PTR tv72[rsp]
	call	QWORD PTR [rax]
	add	rsp, 48					; 00000030H
	pop	rdi
	ret	0
?QueryInterface@CBaseFilter@@UEAAJAEBU_GUID@@PEAPEAX@Z ENDP ; CBaseFilter::QueryInterface
_TEXT	ENDS
;	COMDAT pdata
; File c:\downloads\wpf mediakit - copy\src\filters\baseclasses\combase.h
pdata	SEGMENT
$pdata$?GetOwner@CUnknown@@QEBAPEAUIUnknown@@XZ DD imagerel $LN3
	DD	imagerel $LN3+17
	DD	imagerel $unwind$?GetOwner@CUnknown@@QEBAPEAUIUnknown@@XZ
pdata	ENDS
;	COMDAT xdata
xdata	SEGMENT
$unwind$?GetOwner@CUnknown@@QEBAPEAUIUnknown@@XZ DD 010601H
	DD	07006H
; Function compile flags: /Odtp /RTCsu
xdata	ENDS
;	COMDAT ?GetOwner@CUnknown@@QEBAPEAUIUnknown@@XZ
_TEXT	SEGMENT
this$ = 16
?GetOwner@CUnknown@@QEBAPEAUIUnknown@@XZ PROC		; CUnknown::GetOwner, COMDAT
; Line 224
$LN3:
	mov	QWORD PTR [rsp+8], rcx
	push	rdi
; Line 225
	mov	rax, QWORD PTR this$[rsp]
	mov	rax, QWORD PTR [rax+16]
; Line 226
	pop	rdi
	ret	0
?GetOwner@CUnknown@@QEBAPEAUIUnknown@@XZ ENDP		; CUnknown::GetOwner
_TEXT	ENDS
;	COMDAT pdata
; File c:\downloads\wpf mediakit - copy\src\filters\baseclasses\amfilter.h
pdata	SEGMENT
$pdata$?AddRef@CBaseFilter@@UEAAKXZ DD imagerel $LN3
	DD	imagerel $LN3+74
	DD	imagerel $unwind$?AddRef@CBaseFilter@@UEAAKXZ
pdata	ENDS
;	COMDAT xdata
xdata	SEGMENT
$unwind$?AddRef@CBaseFilter@@UEAAKXZ DD 021e01H
	DD	07006520aH
; Function compile flags: /Odtp /RTCsu
xdata	ENDS
;	COMDAT ?AddRef@CBaseFilter@@UEAAKXZ
_TEXT	SEGMENT
tv72 = 32
this$ = 64
?AddRef@CBaseFilter@@UEAAKXZ PROC			; CBaseFilter::AddRef, COMDAT
; Line 198
$LN3:
	mov	QWORD PTR [rsp+8], rcx
	push	rdi
	sub	rsp, 48					; 00000030H
	mov	rdi, rsp
	mov	ecx, 12
	mov	eax, -858993460				; ccccccccH
	rep stosd
	mov	rcx, QWORD PTR [rsp+64]
	mov	rax, QWORD PTR this$[rsp]
	sub	rax, 32					; 00000020H
	mov	rcx, rax
	call	?GetOwner@CUnknown@@QEBAPEAUIUnknown@@XZ ; CUnknown::GetOwner
	mov	QWORD PTR tv72[rsp], rax
	mov	rax, QWORD PTR tv72[rsp]
	mov	rax, QWORD PTR [rax]
	mov	rcx, QWORD PTR tv72[rsp]
	call	QWORD PTR [rax+8]
	add	rsp, 48					; 00000030H
	pop	rdi
	ret	0
?AddRef@CBaseFilter@@UEAAKXZ ENDP			; CBaseFilter::AddRef
_TEXT	ENDS
;	COMDAT pdata
pdata	SEGMENT
$pdata$?Release@CBaseFilter@@UEAAKXZ DD imagerel $LN3
	DD	imagerel $LN3+74
	DD	imagerel $unwind$?Release@CBaseFilter@@UEAAKXZ
pdata	ENDS
;	COMDAT xdata
xdata	SEGMENT
$unwind$?Release@CBaseFilter@@UEAAKXZ DD 021e01H
	DD	07006520aH
; Function compile flags: /Odtp /RTCsu
xdata	ENDS
;	COMDAT ?Release@CBaseFilter@@UEAAKXZ
_TEXT	SEGMENT
tv72 = 32
this$ = 64
?Release@CBaseFilter@@UEAAKXZ PROC			; CBaseFilter::Release, COMDAT
; Line 198
$LN3:
	mov	QWORD PTR [rsp+8], rcx
	push	rdi
	sub	rsp, 48					; 00000030H
	mov	rdi, rsp
	mov	ecx, 12
	mov	eax, -858993460				; ccccccccH
	rep stosd
	mov	rcx, QWORD PTR [rsp+64]
	mov	rax, QWORD PTR this$[rsp]
	sub	rax, 32					; 00000020H
	mov	rcx, rax
	call	?GetOwner@CUnknown@@QEBAPEAUIUnknown@@XZ ; CUnknown::GetOwner
	mov	QWORD PTR tv72[rsp], rax
	mov	rax, QWORD PTR tv72[rsp]
	mov	rax, QWORD PTR [rax]
	mov	rcx, QWORD PTR tv72[rsp]
	call	QWORD PTR [rax+16]
	add	rsp, 48					; 00000030H
	pop	rdi
	ret	0
?Release@CBaseFilter@@UEAAKXZ ENDP			; CBaseFilter::Release
_TEXT	ENDS
;	COMDAT pdata
pdata	SEGMENT
$pdata$?GetSetupData@CBaseFilter@@UEAAPEAU_AMOVIESETUP_FILTER@@XZ DD imagerel $LN3
	DD	imagerel $LN3+10
	DD	imagerel $unwind$?GetSetupData@CBaseFilter@@UEAAPEAU_AMOVIESETUP_FILTER@@XZ
pdata	ENDS
;	COMDAT xdata
xdata	SEGMENT
$unwind$?GetSetupData@CBaseFilter@@UEAAPEAU_AMOVIESETUP_FILTER@@XZ DD 010601H
	DD	07006H
; Function compile flags: /Odtp /RTCsu
xdata	ENDS
;	COMDAT ?GetSetupData@CBaseFilter@@UEAAPEAU_AMOVIESETUP_FILTER@@XZ
_TEXT	SEGMENT
this$ = 16
?GetSetupData@CBaseFilter@@UEAAPEAU_AMOVIESETUP_FILTER@@XZ PROC ; CBaseFilter::GetSetupData, COMDAT
; Line 317
$LN3:
	mov	QWORD PTR [rsp+8], rcx
	push	rdi
	xor	eax, eax
	pop	rdi
	ret	0
?GetSetupData@CBaseFilter@@UEAAPEAU_AMOVIESETUP_FILTER@@XZ ENDP ; CBaseFilter::GetSetupData
_TEXT	ENDS
PUBLIC	??1CSource@@UEAA@XZ				; CSource::~CSource
EXTRN	??3@YAXPEAX@Z:PROC				; operator delete
;	COMDAT pdata
pdata	SEGMENT
$pdata$??_GCSource@@UEAAPEAXI@Z DD imagerel $LN4
	DD	imagerel $LN4+76
	DD	imagerel $unwind$??_GCSource@@UEAAPEAXI@Z
pdata	ENDS
;	COMDAT xdata
xdata	SEGMENT
$unwind$??_GCSource@@UEAAPEAXI@Z DD 022201H
	DD	0700a320eH
; Function compile flags: /Odtp /RTCsu
xdata	ENDS
;	COMDAT ??_GCSource@@UEAAPEAXI@Z
_TEXT	SEGMENT
this$ = 48
__flags$ = 56
??_GCSource@@UEAAPEAXI@Z PROC				; CSource::`scalar deleting destructor', COMDAT
$LN4:
	mov	DWORD PTR [rsp+16], edx
	mov	QWORD PTR [rsp+8], rcx
	push	rdi
	sub	rsp, 32					; 00000020H
	mov	rdi, rsp
	mov	ecx, 8
	mov	eax, -858993460				; ccccccccH
	rep stosd
	mov	rcx, QWORD PTR [rsp+48]
	mov	rcx, QWORD PTR this$[rsp]
	call	??1CSource@@UEAA@XZ			; CSource::~CSource
	mov	eax, DWORD PTR __flags$[rsp]
	and	eax, 1
	test	eax, eax
	je	SHORT $LN1@scalar
	mov	rcx, QWORD PTR this$[rsp]
	call	??3@YAXPEAX@Z				; operator delete
$LN1@scalar:
	mov	rax, QWORD PTR this$[rsp]
	add	rsp, 32					; 00000020H
	pop	rdi
	ret	0
??_GCSource@@UEAAPEAXI@Z ENDP				; CSource::`scalar deleting destructor'
_TEXT	ENDS
PUBLIC	??0CSource@@QEAA@PEA_WPEAUIUnknown@@U_GUID@@PEAJ@Z ; CSource::CSource
;	COMDAT pdata
; File c:\downloads\wpf mediakit - copy\src\filters\baseclasses\source.cpp
pdata	SEGMENT
$pdata$??0CSource@@QEAA@PEA_WPEAUIUnknown@@U_GUID@@PEAJ@Z DD imagerel $LN5
	DD	imagerel $LN5+229
	DD	imagerel $unwind$??0CSource@@QEAA@PEA_WPEAUIUnknown@@U_GUID@@PEAJ@Z
pdata	ENDS
;	COMDAT pdata
pdata	SEGMENT
$pdata$?dtor$0@?0???0CSource@@QEAA@PEA_WPEAUIUnknown@@U_GUID@@PEAJ@Z@4HA DD imagerel ?dtor$0@?0???0CSource@@QEAA@PEA_WPEAUIUnknown@@U_GUID@@PEAJ@Z@4HA
	DD	imagerel ?dtor$0@?0???0CSource@@QEAA@PEA_WPEAUIUnknown@@U_GUID@@PEAJ@Z@4HA+35
	DD	imagerel $unwind$?dtor$0@?0???0CSource@@QEAA@PEA_WPEAUIUnknown@@U_GUID@@PEAJ@Z@4HA
pdata	ENDS
;	COMDAT xdata
xdata	SEGMENT
$ip2state$??0CSource@@QEAA@PEA_WPEAUIUnknown@@U_GUID@@PEAJ@Z DD imagerel ??0CSource@@QEAA@PEA_WPEAUIUnknown@@U_GUID@@PEAJ@Z
	DD	0ffffffffH
	DD	imagerel ??0CSource@@QEAA@PEA_WPEAUIUnknown@@U_GUID@@PEAJ@Z+99
	DD	00H
	DD	imagerel ??0CSource@@QEAA@PEA_WPEAUIUnknown@@U_GUID@@PEAJ@Z+197
	DD	0ffffffffH
xdata	ENDS
;	COMDAT xdata
xdata	SEGMENT
$unwind$?dtor$0@?0???0CSource@@QEAA@PEA_WPEAUIUnknown@@U_GUID@@PEAJ@Z@4HA DD 031001H
	DD	0700c4210H
	DD	0500bH
xdata	ENDS
;	COMDAT xdata
xdata	SEGMENT
$unwind$??0CSource@@QEAA@PEA_WPEAUIUnknown@@U_GUID@@PEAJ@Z DD 023611H
	DD	070159219H
	DD	imagerel __CxxFrameHandler3
	DD	imagerel $cppxdata$??0CSource@@QEAA@PEA_WPEAUIUnknown@@U_GUID@@PEAJ@Z
xdata	ENDS
;	COMDAT xdata
xdata	SEGMENT
$stateUnwindMap$??0CSource@@QEAA@PEA_WPEAUIUnknown@@U_GUID@@PEAJ@Z DD 0ffffffffH
	DD	imagerel ?dtor$0@?0???0CSource@@QEAA@PEA_WPEAUIUnknown@@U_GUID@@PEAJ@Z@4HA
xdata	ENDS
;	COMDAT CONST
CONST	SEGMENT
??0CSource@@QEAA@PEA_WPEAUIUnknown@@U_GUID@@PEAJ@Z$rtcName$0 DB 05fH ; CSource::CSource
	DB	05fH
	DB	024H
	DB	041H
	DB	072H
	DB	072H
	DB	061H
	DB	079H
	DB	050H
	DB	061H
	DB	064H
	DB	00H
	ORG $+4
??0CSource@@QEAA@PEA_WPEAUIUnknown@@U_GUID@@PEAJ@Z$rtcVarDesc DD 038H ; CSource::CSource
	DD	08H
	DQ	FLAT:??0CSource@@QEAA@PEA_WPEAUIUnknown@@U_GUID@@PEAJ@Z$rtcName$0
	ORG $+48
??0CSource@@QEAA@PEA_WPEAUIUnknown@@U_GUID@@PEAJ@Z$rtcFrameData DD 01H ; CSource::CSource
	DD	00H
	DQ	FLAT:??0CSource@@QEAA@PEA_WPEAUIUnknown@@U_GUID@@PEAJ@Z$rtcVarDesc
$cppxdata$??0CSource@@QEAA@PEA_WPEAUIUnknown@@U_GUID@@PEAJ@Z DD 019930522H
	DD	01H
	DD	imagerel $stateUnwindMap$??0CSource@@QEAA@PEA_WPEAUIUnknown@@U_GUID@@PEAJ@Z
	DD	00H
	DD	00H
	DD	03H
	DD	imagerel $ip2state$??0CSource@@QEAA@PEA_WPEAUIUnknown@@U_GUID@@PEAJ@Z
	DD	048H
	DD	00H
	DD	01H
; Function compile flags: /Odtp /RTCsu
CONST	ENDS
;	COMDAT ??0CSource@@QEAA@PEA_WPEAUIUnknown@@U_GUID@@PEAJ@Z
_TEXT	SEGMENT
$T83371 = 72
this$ = 96
pName$ = 104
lpunk$ = 112
clsid$ = 120
phr$ = 128
??0CSource@@QEAA@PEA_WPEAUIUnknown@@U_GUID@@PEAJ@Z PROC	; CSource::CSource, COMDAT
; Line 40
$LN5:
	mov	QWORD PTR [rsp+32], r9
	mov	QWORD PTR [rsp+24], r8
	mov	QWORD PTR [rsp+16], rdx
	mov	QWORD PTR [rsp+8], rcx
	push	rdi
	sub	rsp, 80					; 00000050H
	mov	rdi, rsp
	mov	ecx, 20
	mov	eax, -858993460				; ccccccccH
	rep stosd
	mov	rcx, QWORD PTR [rsp+96]
	mov	QWORD PTR $T83371[rsp], -2
	mov	rax, QWORD PTR this$[rsp]
	add	rax, 144				; 00000090H
	mov	rcx, QWORD PTR clsid$[rsp]
	mov	QWORD PTR [rsp+32], rcx
	mov	r9, rax
	mov	r8, QWORD PTR lpunk$[rsp]
	mov	rdx, QWORD PTR pName$[rsp]
	mov	rcx, QWORD PTR this$[rsp]
	call	??0CBaseFilter@@QEAA@PEB_WPEAUIUnknown@@PEAVCCritSec@@AEBU_GUID@@@Z ; CBaseFilter::CBaseFilter
	npad	1
	mov	rax, QWORD PTR this$[rsp]
	lea	rcx, OFFSET FLAT:??_7CSource@@6BCUnknown@@@
	mov	QWORD PTR [rax], rcx
	mov	rax, QWORD PTR this$[rsp]
	lea	rcx, OFFSET FLAT:??_7CSource@@6BIBaseFilter@@@
	mov	QWORD PTR [rax+32], rcx
	mov	rax, QWORD PTR this$[rsp]
	lea	rcx, OFFSET FLAT:??_7CSource@@6BIAMovieSetup@@@
	mov	QWORD PTR [rax+40], rcx
	mov	rax, QWORD PTR this$[rsp]
	mov	DWORD PTR [rax+128], 0
	mov	rax, QWORD PTR this$[rsp]
	mov	QWORD PTR [rax+136], 0
	mov	rax, QWORD PTR this$[rsp]
	add	rax, 144				; 00000090H
	mov	rcx, rax
	call	??0CCritSec@@QEAA@XZ			; CCritSec::CCritSec
	npad	1
; Line 42
	mov	rax, QWORD PTR this$[rsp]
	mov	rdi, rax
	mov	rcx, rsp
	lea	rdx, OFFSET FLAT:??0CSource@@QEAA@PEA_WPEAUIUnknown@@U_GUID@@PEAJ@Z$rtcFrameData
	call	_RTC_CheckStackVars
	mov	rax, rdi
	add	rsp, 80					; 00000050H
	pop	rdi
	ret	0
??0CSource@@QEAA@PEA_WPEAUIUnknown@@U_GUID@@PEAJ@Z ENDP	; CSource::CSource
; Function compile flags: /Odtp /RTCsu
_TEXT	ENDS
;	COMDAT text$x
text$x	SEGMENT
$T83371 = 72
this$ = 96
pName$ = 104
lpunk$ = 112
clsid$ = 120
phr$ = 128
?dtor$0@?0???0CSource@@QEAA@PEA_WPEAUIUnknown@@U_GUID@@PEAJ@Z@4HA PROC ; `CSource::CSource'::`1'::dtor$0
	mov	QWORD PTR [rsp+8], rcx
	mov	QWORD PTR [rsp+16], rdx
	push	rbp
	push	rdi
	sub	rsp, 40					; 00000028H
	mov	rbp, rdx
	mov	rcx, QWORD PTR this$[rbp]
	call	??1CBaseFilter@@UEAA@XZ			; CBaseFilter::~CBaseFilter
	add	rsp, 40					; 00000028H
	pop	rdi
	pop	rbp
	ret	0
?dtor$0@?0???0CSource@@QEAA@PEA_WPEAUIUnknown@@U_GUID@@PEAJ@Z@4HA ENDP ; `CSource::CSource'::`1'::dtor$0
text$x	ENDS
PUBLIC	??0CSource@@QEAA@PEADPEAUIUnknown@@U_GUID@@@Z	; CSource::CSource
EXTRN	??0CBaseFilter@@QEAA@PEBDPEAUIUnknown@@PEAVCCritSec@@AEBU_GUID@@@Z:PROC ; CBaseFilter::CBaseFilter
;	COMDAT pdata
pdata	SEGMENT
$pdata$??0CSource@@QEAA@PEADPEAUIUnknown@@U_GUID@@@Z DD imagerel $LN5
	DD	imagerel $LN5+229
	DD	imagerel $unwind$??0CSource@@QEAA@PEADPEAUIUnknown@@U_GUID@@@Z
pdata	ENDS
;	COMDAT pdata
pdata	SEGMENT
$pdata$?dtor$0@?0???0CSource@@QEAA@PEADPEAUIUnknown@@U_GUID@@@Z@4HA DD imagerel ?dtor$0@?0???0CSource@@QEAA@PEADPEAUIUnknown@@U_GUID@@@Z@4HA
	DD	imagerel ?dtor$0@?0???0CSource@@QEAA@PEADPEAUIUnknown@@U_GUID@@@Z@4HA+35
	DD	imagerel $unwind$?dtor$0@?0???0CSource@@QEAA@PEADPEAUIUnknown@@U_GUID@@@Z@4HA
pdata	ENDS
;	COMDAT xdata
xdata	SEGMENT
$ip2state$??0CSource@@QEAA@PEADPEAUIUnknown@@U_GUID@@@Z DD imagerel ??0CSource@@QEAA@PEADPEAUIUnknown@@U_GUID@@@Z
	DD	0ffffffffH
	DD	imagerel ??0CSource@@QEAA@PEADPEAUIUnknown@@U_GUID@@@Z+99
	DD	00H
	DD	imagerel ??0CSource@@QEAA@PEADPEAUIUnknown@@U_GUID@@@Z+197
	DD	0ffffffffH
xdata	ENDS
;	COMDAT xdata
xdata	SEGMENT
$unwind$?dtor$0@?0???0CSource@@QEAA@PEADPEAUIUnknown@@U_GUID@@@Z@4HA DD 031001H
	DD	0700c4210H
	DD	0500bH
xdata	ENDS
;	COMDAT xdata
xdata	SEGMENT
$unwind$??0CSource@@QEAA@PEADPEAUIUnknown@@U_GUID@@@Z DD 023611H
	DD	070159219H
	DD	imagerel __CxxFrameHandler3
	DD	imagerel $cppxdata$??0CSource@@QEAA@PEADPEAUIUnknown@@U_GUID@@@Z
xdata	ENDS
;	COMDAT xdata
xdata	SEGMENT
$stateUnwindMap$??0CSource@@QEAA@PEADPEAUIUnknown@@U_GUID@@@Z DD 0ffffffffH
	DD	imagerel ?dtor$0@?0???0CSource@@QEAA@PEADPEAUIUnknown@@U_GUID@@@Z@4HA
xdata	ENDS
;	COMDAT CONST
CONST	SEGMENT
??0CSource@@QEAA@PEADPEAUIUnknown@@U_GUID@@@Z$rtcName$0 DB 05fH ; CSource::CSource
	DB	05fH
	DB	024H
	DB	041H
	DB	072H
	DB	072H
	DB	061H
	DB	079H
	DB	050H
	DB	061H
	DB	064H
	DB	00H
	ORG $+4
??0CSource@@QEAA@PEADPEAUIUnknown@@U_GUID@@@Z$rtcVarDesc DD 038H ; CSource::CSource
	DD	08H
	DQ	FLAT:??0CSource@@QEAA@PEADPEAUIUnknown@@U_GUID@@@Z$rtcName$0
	ORG $+48
??0CSource@@QEAA@PEADPEAUIUnknown@@U_GUID@@@Z$rtcFrameData DD 01H ; CSource::CSource
	DD	00H
	DQ	FLAT:??0CSource@@QEAA@PEADPEAUIUnknown@@U_GUID@@@Z$rtcVarDesc
$cppxdata$??0CSource@@QEAA@PEADPEAUIUnknown@@U_GUID@@@Z DD 019930522H
	DD	01H
	DD	imagerel $stateUnwindMap$??0CSource@@QEAA@PEADPEAUIUnknown@@U_GUID@@@Z
	DD	00H
	DD	00H
	DD	03H
	DD	imagerel $ip2state$??0CSource@@QEAA@PEADPEAUIUnknown@@U_GUID@@@Z
	DD	048H
	DD	00H
	DD	01H
; Function compile flags: /Odtp /RTCsu
CONST	ENDS
;	COMDAT ??0CSource@@QEAA@PEADPEAUIUnknown@@U_GUID@@@Z
_TEXT	SEGMENT
$T83400 = 72
this$ = 96
pName$ = 104
lpunk$ = 112
clsid$ = 120
??0CSource@@QEAA@PEADPEAUIUnknown@@U_GUID@@@Z PROC	; CSource::CSource, COMDAT
; Line 49
$LN5:
	mov	QWORD PTR [rsp+32], r9
	mov	QWORD PTR [rsp+24], r8
	mov	QWORD PTR [rsp+16], rdx
	mov	QWORD PTR [rsp+8], rcx
	push	rdi
	sub	rsp, 80					; 00000050H
	mov	rdi, rsp
	mov	ecx, 20
	mov	eax, -858993460				; ccccccccH
	rep stosd
	mov	rcx, QWORD PTR [rsp+96]
	mov	QWORD PTR $T83400[rsp], -2
	mov	rax, QWORD PTR this$[rsp]
	add	rax, 144				; 00000090H
	mov	rcx, QWORD PTR clsid$[rsp]
	mov	QWORD PTR [rsp+32], rcx
	mov	r9, rax
	mov	r8, QWORD PTR lpunk$[rsp]
	mov	rdx, QWORD PTR pName$[rsp]
	mov	rcx, QWORD PTR this$[rsp]
	call	??0CBaseFilter@@QEAA@PEBDPEAUIUnknown@@PEAVCCritSec@@AEBU_GUID@@@Z ; CBaseFilter::CBaseFilter
	npad	1
	mov	rax, QWORD PTR this$[rsp]
	lea	rcx, OFFSET FLAT:??_7CSource@@6BCUnknown@@@
	mov	QWORD PTR [rax], rcx
	mov	rax, QWORD PTR this$[rsp]
	lea	rcx, OFFSET FLAT:??_7CSource@@6BIBaseFilter@@@
	mov	QWORD PTR [rax+32], rcx
	mov	rax, QWORD PTR this$[rsp]
	lea	rcx, OFFSET FLAT:??_7CSource@@6BIAMovieSetup@@@
	mov	QWORD PTR [rax+40], rcx
	mov	rax, QWORD PTR this$[rsp]
	mov	DWORD PTR [rax+128], 0
	mov	rax, QWORD PTR this$[rsp]
	mov	QWORD PTR [rax+136], 0
	mov	rax, QWORD PTR this$[rsp]
	add	rax, 144				; 00000090H
	mov	rcx, rax
	call	??0CCritSec@@QEAA@XZ			; CCritSec::CCritSec
	npad	1
; Line 50
	mov	rax, QWORD PTR this$[rsp]
	mov	rdi, rax
	mov	rcx, rsp
	lea	rdx, OFFSET FLAT:??0CSource@@QEAA@PEADPEAUIUnknown@@U_GUID@@@Z$rtcFrameData
	call	_RTC_CheckStackVars
	mov	rax, rdi
	add	rsp, 80					; 00000050H
	pop	rdi
	ret	0
??0CSource@@QEAA@PEADPEAUIUnknown@@U_GUID@@@Z ENDP	; CSource::CSource
; Function compile flags: /Odtp /RTCsu
_TEXT	ENDS
;	COMDAT text$x
text$x	SEGMENT
$T83400 = 72
this$ = 96
pName$ = 104
lpunk$ = 112
clsid$ = 120
?dtor$0@?0???0CSource@@QEAA@PEADPEAUIUnknown@@U_GUID@@@Z@4HA PROC ; `CSource::CSource'::`1'::dtor$0
	mov	QWORD PTR [rsp+8], rcx
	mov	QWORD PTR [rsp+16], rdx
	push	rbp
	push	rdi
	sub	rsp, 40					; 00000028H
	mov	rbp, rdx
	mov	rcx, QWORD PTR this$[rbp]
	call	??1CBaseFilter@@UEAA@XZ			; CBaseFilter::~CBaseFilter
	add	rsp, 40					; 00000028H
	pop	rdi
	pop	rbp
	ret	0
?dtor$0@?0???0CSource@@QEAA@PEADPEAUIUnknown@@U_GUID@@@Z@4HA ENDP ; `CSource::CSource'::`1'::dtor$0
text$x	ENDS
PUBLIC	??0CSource@@QEAA@PEADPEAUIUnknown@@U_GUID@@PEAJ@Z ; CSource::CSource
;	COMDAT pdata
pdata	SEGMENT
$pdata$??0CSource@@QEAA@PEADPEAUIUnknown@@U_GUID@@PEAJ@Z DD imagerel $LN5
	DD	imagerel $LN5+229
	DD	imagerel $unwind$??0CSource@@QEAA@PEADPEAUIUnknown@@U_GUID@@PEAJ@Z
pdata	ENDS
;	COMDAT pdata
pdata	SEGMENT
$pdata$?dtor$0@?0???0CSource@@QEAA@PEADPEAUIUnknown@@U_GUID@@PEAJ@Z@4HA DD imagerel ?dtor$0@?0???0CSource@@QEAA@PEADPEAUIUnknown@@U_GUID@@PEAJ@Z@4HA
	DD	imagerel ?dtor$0@?0???0CSource@@QEAA@PEADPEAUIUnknown@@U_GUID@@PEAJ@Z@4HA+35
	DD	imagerel $unwind$?dtor$0@?0???0CSource@@QEAA@PEADPEAUIUnknown@@U_GUID@@PEAJ@Z@4HA
pdata	ENDS
;	COMDAT xdata
xdata	SEGMENT
$ip2state$??0CSource@@QEAA@PEADPEAUIUnknown@@U_GUID@@PEAJ@Z DD imagerel ??0CSource@@QEAA@PEADPEAUIUnknown@@U_GUID@@PEAJ@Z
	DD	0ffffffffH
	DD	imagerel ??0CSource@@QEAA@PEADPEAUIUnknown@@U_GUID@@PEAJ@Z+99
	DD	00H
	DD	imagerel ??0CSource@@QEAA@PEADPEAUIUnknown@@U_GUID@@PEAJ@Z+197
	DD	0ffffffffH
xdata	ENDS
;	COMDAT xdata
xdata	SEGMENT
$unwind$?dtor$0@?0???0CSource@@QEAA@PEADPEAUIUnknown@@U_GUID@@PEAJ@Z@4HA DD 031001H
	DD	0700c4210H
	DD	0500bH
xdata	ENDS
;	COMDAT xdata
xdata	SEGMENT
$unwind$??0CSource@@QEAA@PEADPEAUIUnknown@@U_GUID@@PEAJ@Z DD 023611H
	DD	070159219H
	DD	imagerel __CxxFrameHandler3
	DD	imagerel $cppxdata$??0CSource@@QEAA@PEADPEAUIUnknown@@U_GUID@@PEAJ@Z
xdata	ENDS
;	COMDAT xdata
xdata	SEGMENT
$stateUnwindMap$??0CSource@@QEAA@PEADPEAUIUnknown@@U_GUID@@PEAJ@Z DD 0ffffffffH
	DD	imagerel ?dtor$0@?0???0CSource@@QEAA@PEADPEAUIUnknown@@U_GUID@@PEAJ@Z@4HA
xdata	ENDS
;	COMDAT CONST
CONST	SEGMENT
??0CSource@@QEAA@PEADPEAUIUnknown@@U_GUID@@PEAJ@Z$rtcName$0 DB 05fH ; CSource::CSource
	DB	05fH
	DB	024H
	DB	041H
	DB	072H
	DB	072H
	DB	061H
	DB	079H
	DB	050H
	DB	061H
	DB	064H
	DB	00H
	ORG $+4
??0CSource@@QEAA@PEADPEAUIUnknown@@U_GUID@@PEAJ@Z$rtcVarDesc DD 038H ; CSource::CSource
	DD	08H
	DQ	FLAT:??0CSource@@QEAA@PEADPEAUIUnknown@@U_GUID@@PEAJ@Z$rtcName$0
	ORG $+48
??0CSource@@QEAA@PEADPEAUIUnknown@@U_GUID@@PEAJ@Z$rtcFrameData DD 01H ; CSource::CSource
	DD	00H
	DQ	FLAT:??0CSource@@QEAA@PEADPEAUIUnknown@@U_GUID@@PEAJ@Z$rtcVarDesc
$cppxdata$??0CSource@@QEAA@PEADPEAUIUnknown@@U_GUID@@PEAJ@Z DD 019930522H
	DD	01H
	DD	imagerel $stateUnwindMap$??0CSource@@QEAA@PEADPEAUIUnknown@@U_GUID@@PEAJ@Z
	DD	00H
	DD	00H
	DD	03H
	DD	imagerel $ip2state$??0CSource@@QEAA@PEADPEAUIUnknown@@U_GUID@@PEAJ@Z
	DD	048H
	DD	00H
	DD	01H
; Function compile flags: /Odtp /RTCsu
CONST	ENDS
;	COMDAT ??0CSource@@QEAA@PEADPEAUIUnknown@@U_GUID@@PEAJ@Z
_TEXT	SEGMENT
$T83429 = 72
this$ = 96
pName$ = 104
lpunk$ = 112
clsid$ = 120
phr$ = 128
??0CSource@@QEAA@PEADPEAUIUnknown@@U_GUID@@PEAJ@Z PROC	; CSource::CSource, COMDAT
; Line 56
$LN5:
	mov	QWORD PTR [rsp+32], r9
	mov	QWORD PTR [rsp+24], r8
	mov	QWORD PTR [rsp+16], rdx
	mov	QWORD PTR [rsp+8], rcx
	push	rdi
	sub	rsp, 80					; 00000050H
	mov	rdi, rsp
	mov	ecx, 20
	mov	eax, -858993460				; ccccccccH
	rep stosd
	mov	rcx, QWORD PTR [rsp+96]
	mov	QWORD PTR $T83429[rsp], -2
	mov	rax, QWORD PTR this$[rsp]
	add	rax, 144				; 00000090H
	mov	rcx, QWORD PTR clsid$[rsp]
	mov	QWORD PTR [rsp+32], rcx
	mov	r9, rax
	mov	r8, QWORD PTR lpunk$[rsp]
	mov	rdx, QWORD PTR pName$[rsp]
	mov	rcx, QWORD PTR this$[rsp]
	call	??0CBaseFilter@@QEAA@PEBDPEAUIUnknown@@PEAVCCritSec@@AEBU_GUID@@@Z ; CBaseFilter::CBaseFilter
	npad	1
	mov	rax, QWORD PTR this$[rsp]
	lea	rcx, OFFSET FLAT:??_7CSource@@6BCUnknown@@@
	mov	QWORD PTR [rax], rcx
	mov	rax, QWORD PTR this$[rsp]
	lea	rcx, OFFSET FLAT:??_7CSource@@6BIBaseFilter@@@
	mov	QWORD PTR [rax+32], rcx
	mov	rax, QWORD PTR this$[rsp]
	lea	rcx, OFFSET FLAT:??_7CSource@@6BIAMovieSetup@@@
	mov	QWORD PTR [rax+40], rcx
	mov	rax, QWORD PTR this$[rsp]
	mov	DWORD PTR [rax+128], 0
	mov	rax, QWORD PTR this$[rsp]
	mov	QWORD PTR [rax+136], 0
	mov	rax, QWORD PTR this$[rsp]
	add	rax, 144				; 00000090H
	mov	rcx, rax
	call	??0CCritSec@@QEAA@XZ			; CCritSec::CCritSec
	npad	1
; Line 58
	mov	rax, QWORD PTR this$[rsp]
	mov	rdi, rax
	mov	rcx, rsp
	lea	rdx, OFFSET FLAT:??0CSource@@QEAA@PEADPEAUIUnknown@@U_GUID@@PEAJ@Z$rtcFrameData
	call	_RTC_CheckStackVars
	mov	rax, rdi
	add	rsp, 80					; 00000050H
	pop	rdi
	ret	0
??0CSource@@QEAA@PEADPEAUIUnknown@@U_GUID@@PEAJ@Z ENDP	; CSource::CSource
; Function compile flags: /Odtp /RTCsu
_TEXT	ENDS
;	COMDAT text$x
text$x	SEGMENT
$T83429 = 72
this$ = 96
pName$ = 104
lpunk$ = 112
clsid$ = 120
phr$ = 128
?dtor$0@?0???0CSource@@QEAA@PEADPEAUIUnknown@@U_GUID@@PEAJ@Z@4HA PROC ; `CSource::CSource'::`1'::dtor$0
	mov	QWORD PTR [rsp+8], rcx
	mov	QWORD PTR [rsp+16], rdx
	push	rbp
	push	rdi
	sub	rsp, 40					; 00000028H
	mov	rbp, rdx
	mov	rcx, QWORD PTR this$[rbp]
	call	??1CBaseFilter@@UEAA@XZ			; CBaseFilter::~CBaseFilter
	add	rsp, 40					; 00000028H
	pop	rdi
	pop	rbp
	ret	0
?dtor$0@?0???0CSource@@QEAA@PEADPEAUIUnknown@@U_GUID@@PEAJ@Z@4HA ENDP ; `CSource::CSource'::`1'::dtor$0
text$x	ENDS
EXTRN	??1CCritSec@@QEAA@XZ:PROC			; CCritSec::~CCritSec
EXTRN	?DbgAssert@@YAXPEB_W0H@Z:PROC			; DbgAssert
;	COMDAT pdata
pdata	SEGMENT
$pdata$??1CSource@@UEAA@XZ DD imagerel $LN10
	DD	imagerel $LN10+270
	DD	imagerel $unwind$??1CSource@@UEAA@XZ
pdata	ENDS
;	COMDAT pdata
pdata	SEGMENT
$pdata$?dtor$0@?0???1CSource@@UEAA@XZ@4HA DD imagerel ?dtor$0@?0???1CSource@@UEAA@XZ@4HA
	DD	imagerel ?dtor$0@?0???1CSource@@UEAA@XZ@4HA+35
	DD	imagerel $unwind$?dtor$0@?0???1CSource@@UEAA@XZ@4HA
pdata	ENDS
;	COMDAT pdata
pdata	SEGMENT
$pdata$?dtor$1@?0???1CSource@@UEAA@XZ@4HA DD imagerel ?dtor$1@?0???1CSource@@UEAA@XZ@4HA
	DD	imagerel ?dtor$1@?0???1CSource@@UEAA@XZ@4HA+42
	DD	imagerel $unwind$?dtor$1@?0???1CSource@@UEAA@XZ@4HA
pdata	ENDS
;	COMDAT xdata
xdata	SEGMENT
$ip2state$??1CSource@@UEAA@XZ DD imagerel ??1CSource@@UEAA@XZ
	DD	0ffffffffH
	DD	imagerel ??1CSource@@UEAA@XZ+86
	DD	01H
	DD	imagerel ??1CSource@@UEAA@XZ+234
	DD	00H
	DD	imagerel ??1CSource@@UEAA@XZ+254
	DD	0ffffffffH
xdata	ENDS
;	COMDAT xdata
xdata	SEGMENT
$unwind$?dtor$1@?0???1CSource@@UEAA@XZ@4HA DD 031001H
	DD	0700c4210H
	DD	0500bH
xdata	ENDS
;	COMDAT xdata
xdata	SEGMENT
$unwind$?dtor$0@?0???1CSource@@UEAA@XZ@4HA DD 031001H
	DD	0700c4210H
	DD	0500bH
xdata	ENDS
;	COMDAT xdata
xdata	SEGMENT
$unwind$??1CSource@@UEAA@XZ DD 022711H
	DD	07006720aH
	DD	imagerel __CxxFrameHandler3
	DD	imagerel $cppxdata$??1CSource@@UEAA@XZ
xdata	ENDS
;	COMDAT CONST
CONST	SEGMENT
$cppxdata$??1CSource@@UEAA@XZ DD 019930522H
	DD	02H
	DD	imagerel $stateUnwindMap$??1CSource@@UEAA@XZ
	DD	00H
	DD	00H
	DD	04H
	DD	imagerel $ip2state$??1CSource@@UEAA@XZ
	DD	030H
	DD	00H
	DD	01H
CONST	ENDS
;	COMDAT xdata
xdata	SEGMENT
$stateUnwindMap$??1CSource@@UEAA@XZ DD 0ffffffffH
	DD	imagerel ?dtor$0@?0???1CSource@@UEAA@XZ@4HA
	DD	00H
	DD	imagerel ?dtor$1@?0???1CSource@@UEAA@XZ@4HA
; Function compile flags: /Odtp /RTCsu
xdata	ENDS
;	COMDAT ??1CSource@@UEAA@XZ
_TEXT	SEGMENT
$T83450 = 32
$T83451 = 40
$T83461 = 48
tv136 = 56
this$ = 80
??1CSource@@UEAA@XZ PROC				; CSource::~CSource, COMDAT
; Line 65
$LN10:
	mov	QWORD PTR [rsp+8], rcx
	push	rdi
	sub	rsp, 64					; 00000040H
	mov	rdi, rsp
	mov	ecx, 16
	mov	eax, -858993460				; ccccccccH
	rep stosd
	mov	rcx, QWORD PTR [rsp+80]
	mov	QWORD PTR $T83461[rsp], -2
	mov	rax, QWORD PTR this$[rsp]
	lea	rcx, OFFSET FLAT:??_7CSource@@6BCUnknown@@@
	mov	QWORD PTR [rax], rcx
	mov	rax, QWORD PTR this$[rsp]
	lea	rcx, OFFSET FLAT:??_7CSource@@6BIBaseFilter@@@
	mov	QWORD PTR [rax+32], rcx
	mov	rax, QWORD PTR this$[rsp]
	lea	rcx, OFFSET FLAT:??_7CSource@@6BIAMovieSetup@@@
	mov	QWORD PTR [rax+40], rcx
$LN3@CSource:
; Line 67
	mov	rax, QWORD PTR this$[rsp]
	cmp	DWORD PTR [rax+128], 0
	je	SHORT $LN2@CSource
; Line 69
	mov	rax, QWORD PTR this$[rsp]
	mov	eax, DWORD PTR [rax+128]
	dec	eax
	cdqe
	mov	rcx, QWORD PTR this$[rsp]
	mov	rcx, QWORD PTR [rcx+136]
	mov	rax, QWORD PTR [rcx+rax*8]
	mov	QWORD PTR $T83451[rsp], rax
	mov	rax, QWORD PTR $T83451[rsp]
	mov	QWORD PTR $T83450[rsp], rax
	cmp	QWORD PTR $T83450[rsp], 0
	je	SHORT $LN6@CSource
	mov	rax, QWORD PTR $T83450[rsp]
	mov	rax, QWORD PTR [rax]
	mov	edx, 1
	mov	rcx, QWORD PTR $T83450[rsp]
	call	QWORD PTR [rax+8]
	mov	QWORD PTR tv136[rsp], rax
	jmp	SHORT $LN7@CSource
$LN6@CSource:
	mov	QWORD PTR tv136[rsp], 0
$LN7@CSource:
; Line 70
	jmp	SHORT $LN3@CSource
$LN2@CSource:
; Line 72
	mov	rax, QWORD PTR this$[rsp]
	cmp	QWORD PTR [rax+136], 0
	je	SHORT $LN1@CSource
	mov	r8d, 72					; 00000048H
	lea	rdx, OFFSET FLAT:$SG82266
	lea	rcx, OFFSET FLAT:$SG82267
	call	?DbgAssert@@YAXPEB_W0H@Z		; DbgAssert
	npad	1
$LN1@CSource:
; Line 73
	mov	rax, QWORD PTR this$[rsp]
	add	rax, 144				; 00000090H
	mov	rcx, rax
	call	??1CCritSec@@QEAA@XZ			; CCritSec::~CCritSec
	npad	1
	mov	rcx, QWORD PTR this$[rsp]
	call	??1CBaseFilter@@UEAA@XZ			; CBaseFilter::~CBaseFilter
	add	rsp, 64					; 00000040H
	pop	rdi
	ret	0
??1CSource@@UEAA@XZ ENDP				; CSource::~CSource
; Function compile flags: /Odtp /RTCsu
_TEXT	ENDS
;	COMDAT text$x
text$x	SEGMENT
$T83450 = 32
$T83451 = 40
$T83461 = 48
tv136 = 56
this$ = 80
?dtor$0@?0???1CSource@@UEAA@XZ@4HA PROC			; `CSource::~CSource'::`1'::dtor$0
	mov	QWORD PTR [rsp+8], rcx
	mov	QWORD PTR [rsp+16], rdx
	push	rbp
	push	rdi
	sub	rsp, 40					; 00000028H
	mov	rbp, rdx
	mov	rcx, QWORD PTR this$[rbp]
	call	??1CBaseFilter@@UEAA@XZ			; CBaseFilter::~CBaseFilter
	add	rsp, 40					; 00000028H
	pop	rdi
	pop	rbp
	ret	0
?dtor$0@?0???1CSource@@UEAA@XZ@4HA ENDP			; `CSource::~CSource'::`1'::dtor$0
; Function compile flags: /Odtp /RTCsu
$T83450 = 32
$T83451 = 40
$T83461 = 48
tv136 = 56
this$ = 80
?dtor$1@?0???1CSource@@UEAA@XZ@4HA PROC			; `CSource::~CSource'::`1'::dtor$1
	mov	QWORD PTR [rsp+8], rcx
	mov	QWORD PTR [rsp+16], rdx
	push	rbp
	push	rdi
	sub	rsp, 40					; 00000028H
	mov	rbp, rdx
	mov	rcx, QWORD PTR this$[rbp]
	add	rcx, 144				; 00000090H
	call	??1CCritSec@@QEAA@XZ			; CCritSec::~CCritSec
	add	rsp, 40					; 00000028H
	pop	rdi
	pop	rbp
	ret	0
?dtor$1@?0???1CSource@@UEAA@XZ@4HA ENDP			; `CSource::~CSource'::`1'::dtor$1
text$x	ENDS
PUBLIC	??1CAutoLock@@QEAA@XZ				; CAutoLock::~CAutoLock
PUBLIC	??0CAutoLock@@QEAA@PEAVCCritSec@@@Z		; CAutoLock::CAutoLock
PUBLIC	?AddPin@CSource@@QEAAJPEAVCSourceStream@@@Z	; CSource::AddPin
EXTRN	memcpy:PROC
EXTRN	??2@YAPEAX_K@Z:PROC				; operator new
;	COMDAT pdata
pdata	SEGMENT
$pdata$?AddPin@CSource@@QEAAJPEAVCSourceStream@@@Z DD imagerel $LN6
	DD	imagerel $LN6+448
	DD	imagerel $unwind$?AddPin@CSource@@QEAAJPEAVCSourceStream@@@Z
pdata	ENDS
;	COMDAT pdata
pdata	SEGMENT
$pdata$?dtor$0@?0??AddPin@CSource@@QEAAJPEAVCSourceStream@@@Z@4HA DD imagerel ?dtor$0@?0??AddPin@CSource@@QEAAJPEAVCSourceStream@@@Z@4HA
	DD	imagerel ?dtor$0@?0??AddPin@CSource@@QEAAJPEAVCSourceStream@@@Z@4HA+35
	DD	imagerel $unwind$?dtor$0@?0??AddPin@CSource@@QEAAJPEAVCSourceStream@@@Z@4HA
pdata	ENDS
;	COMDAT xdata
xdata	SEGMENT
$ip2state$?AddPin@CSource@@QEAAJPEAVCSourceStream@@@Z DD imagerel ?AddPin@CSource@@QEAAJPEAVCSourceStream@@@Z
	DD	0ffffffffH
	DD	imagerel ?AddPin@CSource@@QEAAJPEAVCSourceStream@@@Z+75
	DD	00H
	DD	imagerel ?AddPin@CSource@@QEAAJPEAVCSourceStream@@@Z+161
	DD	0ffffffffH
	DD	imagerel ?AddPin@CSource@@QEAAJPEAVCSourceStream@@@Z+180
	DD	00H
	DD	imagerel ?AddPin@CSource@@QEAAJPEAVCSourceStream@@@Z+407
	DD	0ffffffffH
xdata	ENDS
;	COMDAT xdata
xdata	SEGMENT
$unwind$?dtor$0@?0??AddPin@CSource@@QEAAJPEAVCSourceStream@@@Z@4HA DD 031001H
	DD	0700c4210H
	DD	0500bH
xdata	ENDS
;	COMDAT xdata
xdata	SEGMENT
$unwind$?AddPin@CSource@@QEAAJPEAVCSourceStream@@@Z DD 022f11H
	DD	0700bd20fH
	DD	imagerel __CxxFrameHandler3
	DD	imagerel $cppxdata$?AddPin@CSource@@QEAAJPEAVCSourceStream@@@Z
xdata	ENDS
;	COMDAT xdata
xdata	SEGMENT
$stateUnwindMap$?AddPin@CSource@@QEAAJPEAVCSourceStream@@@Z DD 0ffffffffH
	DD	imagerel ?dtor$0@?0??AddPin@CSource@@QEAAJPEAVCSourceStream@@@Z@4HA
xdata	ENDS
;	COMDAT CONST
CONST	SEGMENT
?AddPin@CSource@@QEAAJPEAVCSourceStream@@@Z$rtcName$0 DB 06cH ; CSource::AddPin
	DB	06fH
	DB	063H
	DB	06bH
	DB	00H
	ORG $+11
?AddPin@CSource@@QEAAJPEAVCSourceStream@@@Z$rtcVarDesc DD 028H ; CSource::AddPin
	DD	08H
	DQ	FLAT:?AddPin@CSource@@QEAAJPEAVCSourceStream@@@Z$rtcName$0
	ORG $+48
?AddPin@CSource@@QEAAJPEAVCSourceStream@@@Z$rtcFrameData DD 01H ; CSource::AddPin
	DD	00H
	DQ	FLAT:?AddPin@CSource@@QEAAJPEAVCSourceStream@@@Z$rtcVarDesc
$cppxdata$?AddPin@CSource@@QEAAJPEAVCSourceStream@@@Z DD 019930522H
	DD	01H
	DD	imagerel $stateUnwindMap$?AddPin@CSource@@QEAAJPEAVCSourceStream@@@Z
	DD	00H
	DD	00H
	DD	05H
	DD	imagerel $ip2state$?AddPin@CSource@@QEAAJPEAVCSourceStream@@@Z
	DD	060H
	DD	00H
	DD	01H
; Function compile flags: /Odtp /RTCsu
CONST	ENDS
;	COMDAT ?AddPin@CSource@@QEAAJPEAVCSourceStream@@@Z
_TEXT	SEGMENT
lock$ = 40
paStreams$ = 56
$T83483 = 64
$T83484 = 72
$T83485 = 80
$T83486 = 88
$T83492 = 96
tv72 = 104
this$ = 128
pStream$ = 136
?AddPin@CSource@@QEAAJPEAVCSourceStream@@@Z PROC	; CSource::AddPin, COMDAT
; Line 80
$LN6:
	mov	QWORD PTR [rsp+16], rdx
	mov	QWORD PTR [rsp+8], rcx
	push	rdi
	sub	rsp, 112				; 00000070H
	mov	rdi, rsp
	mov	ecx, 28
	mov	eax, -858993460				; ccccccccH
	rep stosd
	mov	rcx, QWORD PTR [rsp+128]
	mov	QWORD PTR $T83492[rsp], -2
; Line 81
	mov	rax, QWORD PTR this$[rsp]
	add	rax, 144				; 00000090H
	mov	rdx, rax
	lea	rcx, QWORD PTR lock$[rsp]
	call	??0CAutoLock@@QEAA@PEAVCCritSec@@@Z	; CAutoLock::CAutoLock
	npad	1
; Line 84
	mov	rax, QWORD PTR this$[rsp]
	mov	eax, DWORD PTR [rax+128]
	inc	eax
	cdqe
	mov	QWORD PTR tv72[rsp], rax
	mov	eax, 8
	mov	rcx, QWORD PTR tv72[rsp]
	mul	rcx
	mov	rcx, -1
	cmovo	rax, rcx
	mov	rcx, rax
	call	??2@YAPEAX_K@Z				; operator new
	mov	QWORD PTR $T83483[rsp], rax
	mov	rax, QWORD PTR $T83483[rsp]
	mov	QWORD PTR paStreams$[rsp], rax
; Line 85
	cmp	QWORD PTR paStreams$[rsp], 0
	jne	SHORT $LN2@AddPin
; Line 86
	mov	DWORD PTR $T83484[rsp], -2147024882	; ffffffff8007000eH
	lea	rcx, QWORD PTR lock$[rsp]
	call	??1CAutoLock@@QEAA@XZ			; CAutoLock::~CAutoLock
	mov	eax, DWORD PTR $T83484[rsp]
	jmp	$LN3@AddPin
$LN2@AddPin:
; Line 88
	mov	rax, QWORD PTR this$[rsp]
	cmp	QWORD PTR [rax+136], 0
	je	SHORT $LN1@AddPin
; Line 90
	mov	rax, QWORD PTR this$[rsp]
	movsxd	rax, DWORD PTR [rax+128]
	shl	rax, 3
	mov	r8, rax
	mov	rax, QWORD PTR this$[rsp]
	mov	rdx, QWORD PTR [rax+136]
	mov	rcx, QWORD PTR paStreams$[rsp]
	call	memcpy
; Line 91
	mov	rax, QWORD PTR this$[rsp]
	movsxd	rax, DWORD PTR [rax+128]
	mov	rcx, QWORD PTR paStreams$[rsp]
	mov	rdx, QWORD PTR pStream$[rsp]
	mov	QWORD PTR [rcx+rax*8], rdx
; Line 92
	mov	rax, QWORD PTR this$[rsp]
	mov	rax, QWORD PTR [rax+136]
	mov	QWORD PTR $T83485[rsp], rax
	mov	rcx, QWORD PTR $T83485[rsp]
	call	??3@YAXPEAX@Z				; operator delete
$LN1@AddPin:
; Line 94
	mov	rax, QWORD PTR this$[rsp]
	mov	rcx, QWORD PTR paStreams$[rsp]
	mov	QWORD PTR [rax+136], rcx
; Line 95
	mov	rax, QWORD PTR this$[rsp]
	movsxd	rax, DWORD PTR [rax+128]
	mov	rcx, QWORD PTR this$[rsp]
	mov	rcx, QWORD PTR [rcx+136]
	mov	rdx, QWORD PTR pStream$[rsp]
	mov	QWORD PTR [rcx+rax*8], rdx
; Line 96
	mov	rax, QWORD PTR this$[rsp]
	mov	eax, DWORD PTR [rax+128]
	inc	eax
	mov	rcx, QWORD PTR this$[rsp]
	mov	DWORD PTR [rcx+128], eax
; Line 97
	mov	DWORD PTR $T83486[rsp], 0
	lea	rcx, QWORD PTR lock$[rsp]
	call	??1CAutoLock@@QEAA@XZ			; CAutoLock::~CAutoLock
	mov	eax, DWORD PTR $T83486[rsp]
$LN3@AddPin:
; Line 98
	mov	rdi, rax
	mov	rcx, rsp
	lea	rdx, OFFSET FLAT:?AddPin@CSource@@QEAAJPEAVCSourceStream@@@Z$rtcFrameData
	call	_RTC_CheckStackVars
	mov	rax, rdi
	add	rsp, 112				; 00000070H
	pop	rdi
	ret	0
?AddPin@CSource@@QEAAJPEAVCSourceStream@@@Z ENDP	; CSource::AddPin
; Function compile flags: /Odtp /RTCsu
_TEXT	ENDS
;	COMDAT text$x
text$x	SEGMENT
lock$ = 40
paStreams$ = 56
$T83483 = 64
$T83484 = 72
$T83485 = 80
$T83486 = 88
$T83492 = 96
tv72 = 104
this$ = 128
pStream$ = 136
?dtor$0@?0??AddPin@CSource@@QEAAJPEAVCSourceStream@@@Z@4HA PROC ; `CSource::AddPin'::`1'::dtor$0
	mov	QWORD PTR [rsp+8], rcx
	mov	QWORD PTR [rsp+16], rdx
	push	rbp
	push	rdi
	sub	rsp, 40					; 00000028H
	mov	rbp, rdx
	lea	rcx, QWORD PTR lock$[rbp]
	call	??1CAutoLock@@QEAA@XZ			; CAutoLock::~CAutoLock
	add	rsp, 40					; 00000028H
	pop	rdi
	pop	rbp
	ret	0
?dtor$0@?0??AddPin@CSource@@QEAAJPEAVCSourceStream@@@Z@4HA ENDP ; `CSource::AddPin'::`1'::dtor$0
text$x	ENDS
EXTRN	?Lock@CCritSec@@QEAAXXZ:PROC			; CCritSec::Lock
;	COMDAT pdata
; File c:\downloads\wpf mediakit - copy\src\filters\baseclasses\wxutil.h
pdata	SEGMENT
$pdata$??0CAutoLock@@QEAA@PEAVCCritSec@@@Z DD imagerel $LN3
	DD	imagerel $LN3+72
	DD	imagerel $unwind$??0CAutoLock@@QEAA@PEAVCCritSec@@@Z
pdata	ENDS
;	COMDAT xdata
xdata	SEGMENT
$unwind$??0CAutoLock@@QEAA@PEAVCCritSec@@@Z DD 022301H
	DD	0700b320fH
; Function compile flags: /Odtp /RTCsu
xdata	ENDS
;	COMDAT ??0CAutoLock@@QEAA@PEAVCCritSec@@@Z
_TEXT	SEGMENT
this$ = 48
plock$ = 56
??0CAutoLock@@QEAA@PEAVCCritSec@@@Z PROC		; CAutoLock::CAutoLock, COMDAT
; Line 94
$LN3:
	mov	QWORD PTR [rsp+16], rdx
	mov	QWORD PTR [rsp+8], rcx
	push	rdi
	sub	rsp, 32					; 00000020H
	mov	rdi, rsp
	mov	ecx, 8
	mov	eax, -858993460				; ccccccccH
	rep stosd
	mov	rcx, QWORD PTR [rsp+48]
; Line 96
	mov	rax, QWORD PTR this$[rsp]
	mov	rcx, QWORD PTR plock$[rsp]
	mov	QWORD PTR [rax], rcx
; Line 97
	mov	rax, QWORD PTR this$[rsp]
	mov	rcx, QWORD PTR [rax]
	call	?Lock@CCritSec@@QEAAXXZ			; CCritSec::Lock
; Line 98
	mov	rax, QWORD PTR this$[rsp]
	add	rsp, 32					; 00000020H
	pop	rdi
	ret	0
??0CAutoLock@@QEAA@PEAVCCritSec@@@Z ENDP		; CAutoLock::CAutoLock
_TEXT	ENDS
EXTRN	?Unlock@CCritSec@@QEAAXXZ:PROC			; CCritSec::Unlock
;	COMDAT pdata
pdata	SEGMENT
$pdata$??1CAutoLock@@QEAA@XZ DD imagerel $LN3
	DD	imagerel $LN3+49
	DD	imagerel $unwind$??1CAutoLock@@QEAA@XZ
pdata	ENDS
;	COMDAT xdata
xdata	SEGMENT
$unwind$??1CAutoLock@@QEAA@XZ DD 021e01H
	DD	07006320aH
; Function compile flags: /Odtp /RTCsu
xdata	ENDS
;	COMDAT ??1CAutoLock@@QEAA@XZ
_TEXT	SEGMENT
this$ = 48
??1CAutoLock@@QEAA@XZ PROC				; CAutoLock::~CAutoLock, COMDAT
; Line 100
$LN3:
	mov	QWORD PTR [rsp+8], rcx
	push	rdi
	sub	rsp, 32					; 00000020H
	mov	rdi, rsp
	mov	ecx, 8
	mov	eax, -858993460				; ccccccccH
	rep stosd
	mov	rcx, QWORD PTR [rsp+48]
; Line 101
	mov	rax, QWORD PTR this$[rsp]
	mov	rcx, QWORD PTR [rax]
	call	?Unlock@CCritSec@@QEAAXXZ		; CCritSec::Unlock
; Line 102
	add	rsp, 32					; 00000020H
	pop	rdi
	ret	0
??1CAutoLock@@QEAA@XZ ENDP				; CAutoLock::~CAutoLock
_TEXT	ENDS
PUBLIC	?RemovePin@CSource@@QEAAJPEAVCSourceStream@@@Z	; CSource::RemovePin
;	COMDAT pdata
; File c:\downloads\wpf mediakit - copy\src\filters\baseclasses\source.cpp
pdata	SEGMENT
$pdata$?RemovePin@CSource@@QEAAJPEAVCSourceStream@@@Z DD imagerel $LN11
	DD	imagerel $LN11+286
	DD	imagerel $unwind$?RemovePin@CSource@@QEAAJPEAVCSourceStream@@@Z
pdata	ENDS
;	COMDAT xdata
xdata	SEGMENT
$unwind$?RemovePin@CSource@@QEAAJPEAVCSourceStream@@@Z DD 022301H
	DD	0700b520fH
; Function compile flags: /Odtp /RTCsu
xdata	ENDS
;	COMDAT ?RemovePin@CSource@@QEAAJPEAVCSourceStream@@@Z
_TEXT	SEGMENT
i$ = 32
$T83527 = 40
this$ = 64
pStream$ = 72
?RemovePin@CSource@@QEAAJPEAVCSourceStream@@@Z PROC	; CSource::RemovePin, COMDAT
; Line 104
$LN11:
	mov	QWORD PTR [rsp+16], rdx
	mov	QWORD PTR [rsp+8], rcx
	push	rdi
	sub	rsp, 48					; 00000030H
	mov	rdi, rsp
	mov	ecx, 12
	mov	eax, -858993460				; ccccccccH
	rep stosd
	mov	rcx, QWORD PTR [rsp+64]
; Line 106
	mov	DWORD PTR i$[rsp], 0
	jmp	SHORT $LN8@RemovePin
$LN7@RemovePin:
	mov	eax, DWORD PTR i$[rsp]
	inc	eax
	mov	DWORD PTR i$[rsp], eax
$LN8@RemovePin:
	mov	rax, QWORD PTR this$[rsp]
	mov	eax, DWORD PTR [rax+128]
	cmp	DWORD PTR i$[rsp], eax
	jge	$LN6@RemovePin
; Line 107
	movsxd	rax, DWORD PTR i$[rsp]
	mov	rcx, QWORD PTR this$[rsp]
	mov	rcx, QWORD PTR [rcx+136]
	mov	rdx, QWORD PTR pStream$[rsp]
	cmp	QWORD PTR [rcx+rax*8], rdx
	jne	$LN5@RemovePin
; Line 108
	mov	rax, QWORD PTR this$[rsp]
	cmp	DWORD PTR [rax+128], 1
	jne	SHORT $LN4@RemovePin
; Line 109
	mov	rax, QWORD PTR this$[rsp]
	mov	rax, QWORD PTR [rax+136]
	mov	QWORD PTR $T83527[rsp], rax
	mov	rcx, QWORD PTR $T83527[rsp]
	call	??3@YAXPEAX@Z				; operator delete
; Line 110
	mov	rax, QWORD PTR this$[rsp]
	mov	QWORD PTR [rax+136], 0
; Line 111
	jmp	SHORT $LN3@RemovePin
$LN4@RemovePin:
$LN2@RemovePin:
; Line 113
	mov	eax, DWORD PTR i$[rsp]
	inc	eax
	mov	DWORD PTR i$[rsp], eax
	mov	rax, QWORD PTR this$[rsp]
	mov	eax, DWORD PTR [rax+128]
	cmp	DWORD PTR i$[rsp], eax
	jge	SHORT $LN1@RemovePin
; Line 114
	movsxd	rax, DWORD PTR i$[rsp]
	mov	rcx, QWORD PTR this$[rsp]
	mov	rcx, QWORD PTR [rcx+136]
	mov	edx, DWORD PTR i$[rsp]
	dec	edx
	movsxd	rdx, edx
	mov	r8, QWORD PTR this$[rsp]
	mov	r8, QWORD PTR [r8+136]
	mov	rax, QWORD PTR [rcx+rax*8]
	mov	QWORD PTR [r8+rdx*8], rax
	jmp	SHORT $LN2@RemovePin
$LN1@RemovePin:
$LN3@RemovePin:
; Line 116
	mov	rax, QWORD PTR this$[rsp]
	mov	eax, DWORD PTR [rax+128]
	dec	eax
	mov	rcx, QWORD PTR this$[rsp]
	mov	DWORD PTR [rcx+128], eax
; Line 117
	xor	eax, eax
	jmp	SHORT $LN9@RemovePin
$LN5@RemovePin:
; Line 119
	jmp	$LN7@RemovePin
$LN6@RemovePin:
; Line 120
	mov	eax, 1
$LN9@RemovePin:
; Line 121
	add	rsp, 48					; 00000030H
	pop	rdi
	ret	0
?RemovePin@CSource@@QEAAJPEAVCSourceStream@@@Z ENDP	; CSource::RemovePin
_TEXT	ENDS
EXTRN	_wtoi:PROC
EXTRN	__imp_IsBadWritePtr:PROC
EXTRN	?DbgBreakPoint@@YAXPEB_W0H@Z:PROC		; DbgBreakPoint
EXTRN	__imp_IsBadReadPtr:PROC
;	COMDAT pdata
pdata	SEGMENT
$pdata$?FindPin@CSource@@UEAAJPEB_WPEAPEAUIPin@@@Z DD imagerel $LN10
	DD	imagerel $LN10+305
	DD	imagerel $unwind$?FindPin@CSource@@UEAAJPEB_WPEAPEAUIPin@@@Z
pdata	ENDS
;	COMDAT xdata
xdata	SEGMENT
$unwind$?FindPin@CSource@@UEAAJPEB_WPEAPEAUIPin@@@Z DD 022801H
	DD	070107214H
; Function compile flags: /Odtp /RTCsu
xdata	ENDS
;	COMDAT ?FindPin@CSource@@UEAAJPEB_WPEAPEAUIPin@@@Z
_TEXT	SEGMENT
i$ = 32
tv143 = 40
tv130 = 48
tv129 = 56
this$ = 80
Id$ = 88
ppPin$ = 96
?FindPin@CSource@@UEAAJPEB_WPEAPEAUIPin@@@Z PROC	; CSource::FindPin, COMDAT
; Line 129
$LN10:
	mov	QWORD PTR [rsp+24], r8
	mov	QWORD PTR [rsp+16], rdx
	mov	QWORD PTR [rsp+8], rcx
	push	rdi
	sub	rsp, 64					; 00000040H
	mov	rdi, rsp
	mov	ecx, 16
	mov	eax, -858993460				; ccccccccH
	rep stosd
	mov	rcx, QWORD PTR [rsp+80]
; Line 130
	cmp	QWORD PTR ppPin$[rsp], 0
	jne	SHORT $LN5@FindPin
	mov	eax, -2147467261			; ffffffff80004003H
	jmp	$LN6@FindPin
$LN5@FindPin:
; Line 131
	mov	edx, 8
	mov	rcx, QWORD PTR ppPin$[rsp]
	call	QWORD PTR __imp_IsBadReadPtr
	cmp	eax, 1
	jne	SHORT $LN4@FindPin
	mov	r8d, 131				; 00000083H
	lea	rdx, OFFSET FLAT:$SG82312
	lea	rcx, OFFSET FLAT:$SG82313
	call	?DbgBreakPoint@@YAXPEB_W0H@Z		; DbgBreakPoint
$LN4@FindPin:
	mov	edx, 8
	mov	rcx, QWORD PTR ppPin$[rsp]
	call	QWORD PTR __imp_IsBadWritePtr
	cmp	eax, 1
	jne	SHORT $LN3@FindPin
	mov	r8d, 131				; 00000083H
	lea	rdx, OFFSET FLAT:$SG82317
	lea	rcx, OFFSET FLAT:$SG82318
	call	?DbgBreakPoint@@YAXPEB_W0H@Z		; DbgBreakPoint
$LN3@FindPin:
; Line 134
	mov	rcx, QWORD PTR Id$[rsp]
	call	_wtoi
	dec	eax
	mov	DWORD PTR i$[rsp], eax
; Line 135
	mov	rax, QWORD PTR this$[rsp]
	sub	rax, 32					; 00000020H
	mov	rcx, QWORD PTR this$[rsp]
	mov	rcx, QWORD PTR [rcx-32]
	mov	QWORD PTR tv143[rsp], rcx
	mov	edx, DWORD PTR i$[rsp]
	mov	rcx, rax
	mov	rax, QWORD PTR tv143[rsp]
	call	QWORD PTR [rax+56]
	mov	QWORD PTR tv130[rsp], rax
	cmp	QWORD PTR tv130[rsp], 0
	je	SHORT $LN8@FindPin
	mov	rax, QWORD PTR tv130[rsp]
	add	rax, 32					; 00000020H
	mov	QWORD PTR tv129[rsp], rax
	jmp	SHORT $LN9@FindPin
$LN8@FindPin:
	mov	QWORD PTR tv129[rsp], 0
$LN9@FindPin:
	mov	rax, QWORD PTR ppPin$[rsp]
	mov	rcx, QWORD PTR tv129[rsp]
	mov	QWORD PTR [rax], rcx
; Line 136
	mov	rax, QWORD PTR ppPin$[rsp]
	cmp	QWORD PTR [rax], 0
	je	SHORT $LN2@FindPin
; Line 137
	mov	rax, QWORD PTR ppPin$[rsp]
	mov	rax, QWORD PTR [rax]
	mov	rcx, QWORD PTR ppPin$[rsp]
	mov	rcx, QWORD PTR [rcx]
	mov	rax, QWORD PTR [rax]
	call	QWORD PTR [rax+8]
; Line 138
	xor	eax, eax
	jmp	SHORT $LN6@FindPin
; Line 139
	jmp	SHORT $LN1@FindPin
$LN2@FindPin:
; Line 140
	mov	eax, -2147220970			; ffffffff80040216H
$LN1@FindPin:
$LN6@FindPin:
; Line 142
	add	rsp, 64					; 00000040H
	pop	rdi
	ret	0
?FindPin@CSource@@UEAAJPEB_WPEAPEAUIPin@@@Z ENDP	; CSource::FindPin
_TEXT	ENDS
PUBLIC	?FindPinNumber@CSource@@QEAAHPEAUIPin@@@Z	; CSource::FindPinNumber
;	COMDAT pdata
pdata	SEGMENT
$pdata$?FindPinNumber@CSource@@QEAAHPEAUIPin@@@Z DD imagerel $LN9
	DD	imagerel $LN9+158
	DD	imagerel $unwind$?FindPinNumber@CSource@@QEAAHPEAUIPin@@@Z
pdata	ENDS
;	COMDAT xdata
xdata	SEGMENT
$unwind$?FindPinNumber@CSource@@QEAAHPEAUIPin@@@Z DD 022301H
	DD	0700b320fH
; Function compile flags: /Odtp /RTCsu
xdata	ENDS
;	COMDAT ?FindPinNumber@CSource@@QEAAHPEAUIPin@@@Z
_TEXT	SEGMENT
i$ = 0
tv76 = 8
tv75 = 16
this$ = 48
iPin$ = 56
?FindPinNumber@CSource@@QEAAHPEAUIPin@@@Z PROC		; CSource::FindPinNumber, COMDAT
; Line 148
$LN9:
	mov	QWORD PTR [rsp+16], rdx
	mov	QWORD PTR [rsp+8], rcx
	push	rdi
	sub	rsp, 32					; 00000020H
	mov	rdi, rsp
	mov	ecx, 8
	mov	eax, -858993460				; ccccccccH
	rep stosd
	mov	rcx, QWORD PTR [rsp+48]
; Line 150
	mov	DWORD PTR i$[rsp], 0
	jmp	SHORT $LN4@FindPinNum
$LN3@FindPinNum:
	mov	eax, DWORD PTR i$[rsp]
	inc	eax
	mov	DWORD PTR i$[rsp], eax
$LN4@FindPinNum:
	mov	rax, QWORD PTR this$[rsp]
	mov	eax, DWORD PTR [rax+128]
	cmp	DWORD PTR i$[rsp], eax
	jge	SHORT $LN2@FindPinNum
; Line 151
	movsxd	rax, DWORD PTR i$[rsp]
	mov	rcx, QWORD PTR this$[rsp]
	mov	rcx, QWORD PTR [rcx+136]
	mov	rax, QWORD PTR [rcx+rax*8]
	mov	QWORD PTR tv76[rsp], rax
	cmp	QWORD PTR tv76[rsp], 0
	je	SHORT $LN7@FindPinNum
	mov	rax, QWORD PTR tv76[rsp]
	add	rax, 184				; 000000b8H
	mov	QWORD PTR tv75[rsp], rax
	jmp	SHORT $LN8@FindPinNum
$LN7@FindPinNum:
	mov	QWORD PTR tv75[rsp], 0
$LN8@FindPinNum:
	mov	rax, QWORD PTR iPin$[rsp]
	cmp	QWORD PTR tv75[rsp], rax
	jne	SHORT $LN1@FindPinNum
; Line 152
	mov	eax, DWORD PTR i$[rsp]
	jmp	SHORT $LN5@FindPinNum
$LN1@FindPinNum:
; Line 154
	jmp	SHORT $LN3@FindPinNum
$LN2@FindPinNum:
; Line 155
	mov	eax, -1
$LN5@FindPinNum:
; Line 156
	add	rsp, 32					; 00000020H
	pop	rdi
	ret	0
?FindPinNumber@CSource@@QEAAHPEAUIPin@@@Z ENDP		; CSource::FindPinNumber
_TEXT	ENDS
;	COMDAT pdata
pdata	SEGMENT
$pdata$?GetPinCount@CSource@@UEAAHXZ DD imagerel $LN4
	DD	imagerel $LN4+108
	DD	imagerel $unwind$?GetPinCount@CSource@@UEAAHXZ
pdata	ENDS
;	COMDAT xdata
xdata	SEGMENT
$unwind$?GetPinCount@CSource@@UEAAHXZ DD 021e01H
	DD	07006720aH
xdata	ENDS
;	COMDAT CONST
CONST	SEGMENT
?GetPinCount@CSource@@UEAAHXZ$rtcName$0 DB 06cH		; CSource::GetPinCount
	DB	06fH
	DB	063H
	DB	06bH
	DB	00H
	ORG $+11
?GetPinCount@CSource@@UEAAHXZ$rtcVarDesc DD 028H	; CSource::GetPinCount
	DD	08H
	DQ	FLAT:?GetPinCount@CSource@@UEAAHXZ$rtcName$0
	ORG $+48
?GetPinCount@CSource@@UEAAHXZ$rtcFrameData DD 01H	; CSource::GetPinCount
	DD	00H
	DQ	FLAT:?GetPinCount@CSource@@UEAAHXZ$rtcVarDesc
; Function compile flags: /Odtp /RTCsu
CONST	ENDS
;	COMDAT ?GetPinCount@CSource@@UEAAHXZ
_TEXT	SEGMENT
lock$ = 40
$T83553 = 52
this$ = 80
?GetPinCount@CSource@@UEAAHXZ PROC			; CSource::GetPinCount, COMDAT
; Line 162
$LN4:
	mov	QWORD PTR [rsp+8], rcx
	push	rdi
	sub	rsp, 64					; 00000040H
	mov	rdi, rsp
	mov	ecx, 16
	mov	eax, -858993460				; ccccccccH
	rep stosd
	mov	rcx, QWORD PTR [rsp+80]
; Line 164
	mov	rax, QWORD PTR this$[rsp]
	add	rax, 144				; 00000090H
	mov	rdx, rax
	lea	rcx, QWORD PTR lock$[rsp]
	call	??0CAutoLock@@QEAA@PEAVCCritSec@@@Z	; CAutoLock::CAutoLock
; Line 165
	mov	rax, QWORD PTR this$[rsp]
	mov	eax, DWORD PTR [rax+128]
	mov	DWORD PTR $T83553[rsp], eax
	lea	rcx, QWORD PTR lock$[rsp]
	call	??1CAutoLock@@QEAA@XZ			; CAutoLock::~CAutoLock
	mov	eax, DWORD PTR $T83553[rsp]
; Line 166
	mov	edi, eax
	mov	rcx, rsp
	lea	rdx, OFFSET FLAT:?GetPinCount@CSource@@UEAAHXZ$rtcFrameData
	call	_RTC_CheckStackVars
	mov	eax, edi
	add	rsp, 64					; 00000040H
	pop	rdi
	ret	0
?GetPinCount@CSource@@UEAAHXZ ENDP			; CSource::GetPinCount
_TEXT	ENDS
;	COMDAT pdata
pdata	SEGMENT
$pdata$?GetPin@CSource@@UEAAPEAVCBasePin@@H@Z DD imagerel $LN8
	DD	imagerel $LN8+288
	DD	imagerel $unwind$?GetPin@CSource@@UEAAPEAVCBasePin@@H@Z
pdata	ENDS
;	COMDAT pdata
pdata	SEGMENT
$pdata$?dtor$0@?0??GetPin@CSource@@UEAAPEAVCBasePin@@H@Z@4HA DD imagerel ?dtor$0@?0??GetPin@CSource@@UEAAPEAVCBasePin@@H@Z@4HA
	DD	imagerel ?dtor$0@?0??GetPin@CSource@@UEAAPEAVCBasePin@@H@Z@4HA+35
	DD	imagerel $unwind$?dtor$0@?0??GetPin@CSource@@UEAAPEAVCBasePin@@H@Z@4HA
pdata	ENDS
;	COMDAT xdata
xdata	SEGMENT
$ip2state$?GetPin@CSource@@UEAAPEAVCBasePin@@H@Z DD imagerel ?GetPin@CSource@@UEAAPEAVCBasePin@@H@Z
	DD	0ffffffffH
	DD	imagerel ?GetPin@CSource@@UEAAPEAVCBasePin@@H@Z+68
	DD	00H
	DD	imagerel ?GetPin@CSource@@UEAAPEAVCBasePin@@H@Z+220
	DD	0ffffffffH
	DD	imagerel ?GetPin@CSource@@UEAAPEAVCBasePin@@H@Z+237
	DD	00H
	DD	imagerel ?GetPin@CSource@@UEAAPEAVCBasePin@@H@Z+246
	DD	0ffffffffH
xdata	ENDS
;	COMDAT xdata
xdata	SEGMENT
$unwind$?dtor$0@?0??GetPin@CSource@@UEAAPEAVCBasePin@@H@Z@4HA DD 031001H
	DD	0700c4210H
	DD	0500bH
xdata	ENDS
;	COMDAT xdata
xdata	SEGMENT
$unwind$?GetPin@CSource@@UEAAPEAVCBasePin@@H@Z DD 022b11H
	DD	0700ab20eH
	DD	imagerel __CxxFrameHandler3
	DD	imagerel $cppxdata$?GetPin@CSource@@UEAAPEAVCBasePin@@H@Z
xdata	ENDS
;	COMDAT xdata
xdata	SEGMENT
$stateUnwindMap$?GetPin@CSource@@UEAAPEAVCBasePin@@H@Z DD 0ffffffffH
	DD	imagerel ?dtor$0@?0??GetPin@CSource@@UEAAPEAVCBasePin@@H@Z@4HA
xdata	ENDS
;	COMDAT CONST
CONST	SEGMENT
?GetPin@CSource@@UEAAPEAVCBasePin@@H@Z$rtcName$0 DB 06cH ; CSource::GetPin
	DB	06fH
	DB	063H
	DB	06bH
	DB	00H
	ORG $+11
?GetPin@CSource@@UEAAPEAVCBasePin@@H@Z$rtcVarDesc DD 028H ; CSource::GetPin
	DD	08H
	DQ	FLAT:?GetPin@CSource@@UEAAPEAVCBasePin@@H@Z$rtcName$0
	ORG $+48
?GetPin@CSource@@UEAAPEAVCBasePin@@H@Z$rtcFrameData DD 01H ; CSource::GetPin
	DD	00H
	DQ	FLAT:?GetPin@CSource@@UEAAPEAVCBasePin@@H@Z$rtcVarDesc
$cppxdata$?GetPin@CSource@@UEAAPEAVCBasePin@@H@Z DD 019930522H
	DD	01H
	DD	imagerel $stateUnwindMap$?GetPin@CSource@@UEAAPEAVCBasePin@@H@Z
	DD	00H
	DD	00H
	DD	05H
	DD	imagerel $ip2state$?GetPin@CSource@@UEAAPEAVCBasePin@@H@Z
	DD	048H
	DD	00H
	DD	01H
; Function compile flags: /Odtp /RTCsu
CONST	ENDS
;	COMDAT ?GetPin@CSource@@UEAAPEAVCBasePin@@H@Z
_TEXT	SEGMENT
lock$ = 40
$T83569 = 56
$T83572 = 64
$T83578 = 72
tv89 = 80
tv88 = 88
this$ = 112
n$ = 120
?GetPin@CSource@@UEAAPEAVCBasePin@@H@Z PROC		; CSource::GetPin, COMDAT
; Line 174
$LN8:
	mov	DWORD PTR [rsp+16], edx
	mov	QWORD PTR [rsp+8], rcx
	push	rdi
	sub	rsp, 96					; 00000060H
	mov	rdi, rsp
	mov	ecx, 24
	mov	eax, -858993460				; ccccccccH
	rep stosd
	mov	rcx, QWORD PTR [rsp+112]
	mov	QWORD PTR $T83578[rsp], -2
; Line 176
	mov	rax, QWORD PTR this$[rsp]
	add	rax, 144				; 00000090H
	mov	rdx, rax
	lea	rcx, QWORD PTR lock$[rsp]
	call	??0CAutoLock@@QEAA@PEAVCCritSec@@@Z	; CAutoLock::CAutoLock
	npad	1
; Line 181
	cmp	DWORD PTR n$[rsp], 0
	jl	$LN2@GetPin
	mov	rax, QWORD PTR this$[rsp]
	mov	eax, DWORD PTR [rax+128]
	cmp	DWORD PTR n$[rsp], eax
	jge	$LN2@GetPin
; Line 183
	movsxd	rax, DWORD PTR n$[rsp]
	mov	rcx, QWORD PTR this$[rsp]
	mov	rcx, QWORD PTR [rcx+136]
	cmp	QWORD PTR [rcx+rax*8], 0
	jne	SHORT $LN1@GetPin
	mov	r8d, 183				; 000000b7H
	lea	rdx, OFFSET FLAT:$SG82346
	lea	rcx, OFFSET FLAT:$SG82347
	call	?DbgAssert@@YAXPEB_W0H@Z		; DbgAssert
$LN1@GetPin:
; Line 184
	movsxd	rax, DWORD PTR n$[rsp]
	mov	rcx, QWORD PTR this$[rsp]
	mov	rcx, QWORD PTR [rcx+136]
	mov	rax, QWORD PTR [rcx+rax*8]
	mov	QWORD PTR tv89[rsp], rax
	cmp	QWORD PTR tv89[rsp], 0
	je	SHORT $LN5@GetPin
	mov	rax, QWORD PTR tv89[rsp]
	add	rax, 152				; 00000098H
	mov	QWORD PTR tv88[rsp], rax
	jmp	SHORT $LN6@GetPin
$LN5@GetPin:
	mov	QWORD PTR tv88[rsp], 0
$LN6@GetPin:
	mov	rax, QWORD PTR tv88[rsp]
	mov	QWORD PTR $T83569[rsp], rax
	lea	rcx, QWORD PTR lock$[rsp]
	call	??1CAutoLock@@QEAA@XZ			; CAutoLock::~CAutoLock
	mov	rax, QWORD PTR $T83569[rsp]
	jmp	SHORT $LN3@GetPin
$LN2@GetPin:
; Line 186
	mov	QWORD PTR $T83572[rsp], 0
	lea	rcx, QWORD PTR lock$[rsp]
	call	??1CAutoLock@@QEAA@XZ			; CAutoLock::~CAutoLock
	mov	rax, QWORD PTR $T83572[rsp]
$LN3@GetPin:
; Line 187
	mov	rdi, rax
	mov	rcx, rsp
	lea	rdx, OFFSET FLAT:?GetPin@CSource@@UEAAPEAVCBasePin@@H@Z$rtcFrameData
	call	_RTC_CheckStackVars
	mov	rax, rdi
	add	rsp, 96					; 00000060H
	pop	rdi
	ret	0
?GetPin@CSource@@UEAAPEAVCBasePin@@H@Z ENDP		; CSource::GetPin
; Function compile flags: /Odtp /RTCsu
_TEXT	ENDS
;	COMDAT text$x
text$x	SEGMENT
lock$ = 40
$T83569 = 56
$T83572 = 64
$T83578 = 72
tv89 = 80
tv88 = 88
this$ = 112
n$ = 120
?dtor$0@?0??GetPin@CSource@@UEAAPEAVCBasePin@@H@Z@4HA PROC ; `CSource::GetPin'::`1'::dtor$0
	mov	QWORD PTR [rsp+8], rcx
	mov	QWORD PTR [rsp+16], rdx
	push	rbp
	push	rdi
	sub	rsp, 40					; 00000028H
	mov	rbp, rdx
	lea	rcx, QWORD PTR lock$[rbp]
	call	??1CAutoLock@@QEAA@XZ			; CAutoLock::~CAutoLock
	add	rsp, 40					; 00000028H
	pop	rdi
	pop	rbp
	ret	0
?dtor$0@?0??GetPin@CSource@@UEAAPEAVCBasePin@@H@Z@4HA ENDP ; `CSource::GetPin'::`1'::dtor$0
text$x	ENDS
PUBLIC	?QueryId@CSourceStream@@MEAAJPEAPEA_W@Z		; CSourceStream::QueryId
EXTRN	?IntToWstr@@YAXHPEA_W@Z:PROC			; IntToWstr
EXTRN	__imp_CoTaskMemAlloc:PROC
;	COMDAT pdata
pdata	SEGMENT
$pdata$?QueryId@CSourceStream@@MEAAJPEAPEA_W@Z DD imagerel $LN10
	DD	imagerel $LN10+298
	DD	imagerel $unwind$?QueryId@CSourceStream@@MEAAJPEAPEA_W@Z
pdata	ENDS
;	COMDAT xdata
xdata	SEGMENT
$unwind$?QueryId@CSourceStream@@MEAAJPEAPEA_W@Z DD 022301H
	DD	0700b520fH
; Function compile flags: /Odtp /RTCsu
xdata	ENDS
;	COMDAT ?QueryId@CSourceStream@@MEAAJPEAPEA_W@Z
_TEXT	SEGMENT
i$ = 32
tv88 = 40
this$ = 64
Id$ = 72
?QueryId@CSourceStream@@MEAAJPEAPEA_W@Z PROC		; CSourceStream::QueryId, COMDAT
; Line 199
$LN10:
	mov	QWORD PTR [rsp+16], rdx
	mov	QWORD PTR [rsp+8], rcx
	push	rdi
	sub	rsp, 48					; 00000030H
	mov	rdi, rsp
	mov	ecx, 12
	mov	eax, -858993460				; ccccccccH
	rep stosd
	mov	rcx, QWORD PTR [rsp+64]
; Line 200
	cmp	QWORD PTR Id$[rsp], 0
	jne	SHORT $LN5@QueryId
	mov	eax, -2147467261			; ffffffff80004003H
	jmp	$LN6@QueryId
$LN5@QueryId:
; Line 201
	mov	edx, 8
	mov	rcx, QWORD PTR Id$[rsp]
	call	QWORD PTR __imp_IsBadReadPtr
	cmp	eax, 1
	jne	SHORT $LN4@QueryId
	mov	r8d, 201				; 000000c9H
	lea	rdx, OFFSET FLAT:$SG82359
	lea	rcx, OFFSET FLAT:$SG82360
	call	?DbgBreakPoint@@YAXPEB_W0H@Z		; DbgBreakPoint
$LN4@QueryId:
	mov	edx, 8
	mov	rcx, QWORD PTR Id$[rsp]
	call	QWORD PTR __imp_IsBadWritePtr
	cmp	eax, 1
	jne	SHORT $LN3@QueryId
	mov	r8d, 201				; 000000c9H
	lea	rdx, OFFSET FLAT:$SG82364
	lea	rcx, OFFSET FLAT:$SG82365
	call	?DbgBreakPoint@@YAXPEB_W0H@Z		; DbgBreakPoint
$LN3@QueryId:
; Line 205
	mov	rax, QWORD PTR this$[rsp]
	sub	rax, 184				; 000000b8H
	test	rax, rax
	je	SHORT $LN8@QueryId
	mov	rax, QWORD PTR this$[rsp]
	sub	rax, 184				; 000000b8H
	add	rax, 184				; 000000b8H
	mov	QWORD PTR tv88[rsp], rax
	jmp	SHORT $LN9@QueryId
$LN8@QueryId:
	mov	QWORD PTR tv88[rsp], 0
$LN9@QueryId:
	mov	rdx, QWORD PTR tv88[rsp]
	mov	rax, QWORD PTR this$[rsp]
	mov	rcx, QWORD PTR [rax+216]
	call	?FindPinNumber@CSource@@QEAAHPEAUIPin@@@Z ; CSource::FindPinNumber
	inc	eax
	mov	DWORD PTR i$[rsp], eax
; Line 206
	cmp	DWORD PTR i$[rsp], 1
	jge	SHORT $LN2@QueryId
	mov	eax, -2147220970			; ffffffff80040216H
	jmp	SHORT $LN6@QueryId
$LN2@QueryId:
; Line 207
	mov	ecx, 8
	call	QWORD PTR __imp_CoTaskMemAlloc
	mov	rcx, QWORD PTR Id$[rsp]
	mov	QWORD PTR [rcx], rax
; Line 208
	mov	rax, QWORD PTR Id$[rsp]
	cmp	QWORD PTR [rax], 0
	jne	SHORT $LN1@QueryId
; Line 209
	mov	eax, -2147024882			; ffffffff8007000eH
	jmp	SHORT $LN6@QueryId
$LN1@QueryId:
; Line 211
	mov	rax, QWORD PTR Id$[rsp]
	mov	rdx, QWORD PTR [rax]
	mov	ecx, DWORD PTR i$[rsp]
	call	?IntToWstr@@YAXHPEA_W@Z			; IntToWstr
; Line 212
	xor	eax, eax
$LN6@QueryId:
; Line 213
	add	rsp, 48					; 00000030H
	pop	rdi
	ret	0
?QueryId@CSourceStream@@MEAAJPEAPEA_W@Z ENDP		; CSourceStream::QueryId
_TEXT	ENDS
PUBLIC	??1CBaseOutputPin@@UEAA@XZ			; CBaseOutputPin::~CBaseOutputPin
PUBLIC	??_7CSourceStream@@6BIQualityControl@@@		; CSourceStream::`vftable'
PUBLIC	??_7CSourceStream@@6BIPin@@@			; CSourceStream::`vftable'
PUBLIC	??_7CSourceStream@@6BCUnknown@@@		; CSourceStream::`vftable'
PUBLIC	??_7CSourceStream@@6B@				; CSourceStream::`vftable'
PUBLIC	?pStateLock@CSource@@QEAAPEAVCCritSec@@XZ	; CSource::pStateLock
PUBLIC	??0CSourceStream@@QEAA@PEA_WPEAJPEAVCSource@@PEB_W@Z ; CSourceStream::CSourceStream
PUBLIC	??_R4CSourceStream@@6B@				; CSourceStream::`RTTI Complete Object Locator'
PUBLIC	??_R0?AVCSourceStream@@@8			; CSourceStream `RTTI Type Descriptor'
PUBLIC	??_R3CSourceStream@@8				; CSourceStream::`RTTI Class Hierarchy Descriptor'
PUBLIC	??_R2CSourceStream@@8				; CSourceStream::`RTTI Base Class Array'
PUBLIC	??_R1A@?0A@EA@CSourceStream@@8			; CSourceStream::`RTTI Base Class Descriptor at (0,-1,0,64)'
PUBLIC	??_R1A@?0A@EA@CAMThread@@8			; CAMThread::`RTTI Base Class Descriptor at (0,-1,0,64)'
PUBLIC	??_R0?AVCAMThread@@@8				; CAMThread `RTTI Type Descriptor'
PUBLIC	??_R3CAMThread@@8				; CAMThread::`RTTI Class Hierarchy Descriptor'
PUBLIC	??_R2CAMThread@@8				; CAMThread::`RTTI Base Class Array'
PUBLIC	??_R1JI@?0A@EA@CBaseOutputPin@@8		; CBaseOutputPin::`RTTI Base Class Descriptor at (152,-1,0,64)'
PUBLIC	??_R0?AVCBaseOutputPin@@@8			; CBaseOutputPin `RTTI Type Descriptor'
PUBLIC	??_R3CBaseOutputPin@@8				; CBaseOutputPin::`RTTI Class Hierarchy Descriptor'
PUBLIC	??_R2CBaseOutputPin@@8				; CBaseOutputPin::`RTTI Base Class Array'
PUBLIC	??_R1A@?0A@EA@CBaseOutputPin@@8			; CBaseOutputPin::`RTTI Base Class Descriptor at (0,-1,0,64)'
PUBLIC	??_R1A@?0A@EA@CBasePin@@8			; CBasePin::`RTTI Base Class Descriptor at (0,-1,0,64)'
PUBLIC	??_R0?AVCBasePin@@@8				; CBasePin `RTTI Type Descriptor'
PUBLIC	??_R3CBasePin@@8				; CBasePin::`RTTI Class Hierarchy Descriptor'
PUBLIC	??_R2CBasePin@@8				; CBasePin::`RTTI Base Class Array'
PUBLIC	??_R1CA@?0A@EA@IPin@@8				; IPin::`RTTI Base Class Descriptor at (32,-1,0,64)'
PUBLIC	??_R0?AUIPin@@@8				; IPin `RTTI Type Descriptor'
PUBLIC	??_R3IPin@@8					; IPin::`RTTI Class Hierarchy Descriptor'
PUBLIC	??_R2IPin@@8					; IPin::`RTTI Base Class Array'
PUBLIC	??_R1A@?0A@EA@IPin@@8				; IPin::`RTTI Base Class Descriptor at (0,-1,0,64)'
PUBLIC	??_R1CI@?0A@EA@IQualityControl@@8		; IQualityControl::`RTTI Base Class Descriptor at (40,-1,0,64)'
PUBLIC	??_R0?AUIQualityControl@@@8			; IQualityControl `RTTI Type Descriptor'
PUBLIC	??_R3IQualityControl@@8				; IQualityControl::`RTTI Class Hierarchy Descriptor'
PUBLIC	??_R2IQualityControl@@8				; IQualityControl::`RTTI Base Class Array'
PUBLIC	??_R1A@?0A@EA@IQualityControl@@8		; IQualityControl::`RTTI Base Class Descriptor at (0,-1,0,64)'
PUBLIC	??_R1JI@?0A@EA@CBasePin@@8			; CBasePin::`RTTI Base Class Descriptor at (152,-1,0,64)'
PUBLIC	??_R1JI@?0A@EA@CUnknown@@8			; CUnknown::`RTTI Base Class Descriptor at (152,-1,0,64)'
PUBLIC	??_R1JI@?0A@EA@INonDelegatingUnknown@@8		; INonDelegatingUnknown::`RTTI Base Class Descriptor at (152,-1,0,64)'
PUBLIC	??_R1KA@?0A@EA@CBaseObject@@8			; CBaseObject::`RTTI Base Class Descriptor at (160,-1,0,64)'
PUBLIC	??_R1LI@?0A@EA@IPin@@8				; IPin::`RTTI Base Class Descriptor at (184,-1,0,64)'
PUBLIC	??_R1LI@?0A@EC@IUnknown@@8			; IUnknown::`RTTI Base Class Descriptor at (184,-1,0,66)'
PUBLIC	??_R1MA@?0A@EA@IQualityControl@@8		; IQualityControl::`RTTI Base Class Descriptor at (192,-1,0,64)'
PUBLIC	??_R1MA@?0A@EC@IUnknown@@8			; IUnknown::`RTTI Base Class Descriptor at (192,-1,0,66)'
PUBLIC	?ThreadProc@CSourceStream@@MEAAKXZ		; CSourceStream::ThreadProc
PUBLIC	?OnThreadCreate@CSourceStream@@MEAAJXZ		; CSourceStream::OnThreadCreate
PUBLIC	?OnThreadDestroy@CSourceStream@@MEAAJXZ		; CSourceStream::OnThreadDestroy
PUBLIC	?OnThreadStartPlay@CSourceStream@@MEAAJXZ	; CSourceStream::OnThreadStartPlay
PUBLIC	?DoBufferProcessingLoop@CSourceStream@@MEAAJXZ	; CSourceStream::DoBufferProcessingLoop
PUBLIC	?GetMediaType@CSourceStream@@MEAAJPEAVCMediaType@@@Z ; CSourceStream::GetMediaType
PUBLIC	??_R4CSourceStream@@6BCUnknown@@@		; CSourceStream::`RTTI Complete Object Locator'
PUBLIC	??_ECSourceStream@@WJI@EAAPEAXI@Z		; [thunk]:CSourceStream::`vector deleting destructor'
PUBLIC	?Active@CSourceStream@@MEAAJXZ			; CSourceStream::Active
PUBLIC	?Inactive@CSourceStream@@MEAAJXZ		; CSourceStream::Inactive
PUBLIC	?CheckMediaType@CSourceStream@@MEAAJPEBVCMediaType@@@Z ; CSourceStream::CheckMediaType
PUBLIC	?GetMediaType@CSourceStream@@MEAAJHPEAVCMediaType@@@Z ; CSourceStream::GetMediaType
PUBLIC	??_R4CSourceStream@@6BIPin@@@			; CSourceStream::`RTTI Complete Object Locator'
PUBLIC	?QueryInterface@CBasePin@@UEAAJAEBU_GUID@@PEAPEAX@Z ; CBasePin::QueryInterface
PUBLIC	?AddRef@CBasePin@@UEAAKXZ			; CBasePin::AddRef
PUBLIC	?Release@CBasePin@@UEAAKXZ			; CBasePin::Release
PUBLIC	?QueryInternalConnections@CBasePin@@UEAAJPEAPEAUIPin@@PEAK@Z ; CBasePin::QueryInternalConnections
PUBLIC	??_R4CSourceStream@@6BIQualityControl@@@	; CSourceStream::`RTTI Complete Object Locator'
PUBLIC	?QueryInterface@CBasePin@@W7EAAJAEBU_GUID@@PEAPEAX@Z ; [thunk]:CBasePin::QueryInterface`adjustor{8}'
PUBLIC	?AddRef@CBasePin@@W7EAAKXZ			; [thunk]:CBasePin::AddRef`adjustor{8}'
PUBLIC	?Release@CBasePin@@W7EAAKXZ			; [thunk]:CBasePin::Release`adjustor{8}'
EXTRN	??1CAMThread@@UEAA@XZ:PROC			; CAMThread::~CAMThread
EXTRN	??0CBaseOutputPin@@QEAA@PEA_WPEAVCBaseFilter@@PEAVCCritSec@@PEAJPEB_W@Z:PROC ; CBaseOutputPin::CBaseOutputPin
EXTRN	??0CAMThread@@QEAA@XZ:PROC			; CAMThread::CAMThread
EXTRN	??_ECSourceStream@@UEAAPEAXI@Z:PROC		; CSourceStream::`vector deleting destructor'
EXTRN	_purecall:PROC
EXTRN	?NonDelegatingQueryInterface@CBasePin@@UEAAJAEBU_GUID@@PEAPEAX@Z:PROC ; CBasePin::NonDelegatingQueryInterface
EXTRN	?NonDelegatingAddRef@CBasePin@@UEAAKXZ:PROC	; CBasePin::NonDelegatingAddRef
EXTRN	?NonDelegatingRelease@CBasePin@@UEAAKXZ:PROC	; CBasePin::NonDelegatingRelease
EXTRN	?GetMediaTypeVersion@CBasePin@@UEAAJXZ:PROC	; CBasePin::GetMediaTypeVersion
EXTRN	?Run@CBasePin@@UEAAJ_J@Z:PROC			; CBasePin::Run
EXTRN	?SetMediaType@CBasePin@@UEAAJPEBVCMediaType@@@Z:PROC ; CBasePin::SetMediaType
EXTRN	?CheckConnect@CBaseOutputPin@@UEAAJPEAUIPin@@@Z:PROC ; CBaseOutputPin::CheckConnect
EXTRN	?BreakConnect@CBaseOutputPin@@UEAAJXZ:PROC	; CBaseOutputPin::BreakConnect
EXTRN	?CompleteConnect@CBaseOutputPin@@UEAAJPEAUIPin@@@Z:PROC ; CBaseOutputPin::CompleteConnect
EXTRN	?DecideAllocator@CBaseOutputPin@@UEAAJPEAUIMemInputPin@@PEAPEAUIMemAllocator@@@Z:PROC ; CBaseOutputPin::DecideAllocator
EXTRN	?GetDeliveryBuffer@CBaseOutputPin@@UEAAJPEAPEAUIMediaSample@@PEA_J1K@Z:PROC ; CBaseOutputPin::GetDeliveryBuffer
EXTRN	?Deliver@CBaseOutputPin@@UEAAJPEAUIMediaSample@@@Z:PROC ; CBaseOutputPin::Deliver
EXTRN	?InitAllocator@CBaseOutputPin@@UEAAJPEAPEAUIMemAllocator@@@Z:PROC ; CBaseOutputPin::InitAllocator
EXTRN	?DeliverEndOfStream@CBaseOutputPin@@UEAAJXZ:PROC ; CBaseOutputPin::DeliverEndOfStream
EXTRN	?DeliverBeginFlush@CBaseOutputPin@@UEAAJXZ:PROC	; CBaseOutputPin::DeliverBeginFlush
EXTRN	?DeliverEndFlush@CBaseOutputPin@@UEAAJXZ:PROC	; CBaseOutputPin::DeliverEndFlush
EXTRN	?DeliverNewSegment@CBaseOutputPin@@UEAAJ_J0N@Z:PROC ; CBaseOutputPin::DeliverNewSegment
EXTRN	?Connect@CBasePin@@UEAAJPEAUIPin@@PEBU_AMMediaType@@@Z:PROC ; CBasePin::Connect
EXTRN	?ReceiveConnection@CBasePin@@UEAAJPEAUIPin@@PEBU_AMMediaType@@@Z:PROC ; CBasePin::ReceiveConnection
EXTRN	?Disconnect@CBasePin@@UEAAJXZ:PROC		; CBasePin::Disconnect
EXTRN	?ConnectedTo@CBasePin@@UEAAJPEAPEAUIPin@@@Z:PROC ; CBasePin::ConnectedTo
EXTRN	?ConnectionMediaType@CBasePin@@UEAAJPEAU_AMMediaType@@@Z:PROC ; CBasePin::ConnectionMediaType
EXTRN	?QueryPinInfo@CBasePin@@UEAAJPEAU_PinInfo@@@Z:PROC ; CBasePin::QueryPinInfo
EXTRN	?QueryDirection@CBasePin@@UEAAJPEAW4_PinDirection@@@Z:PROC ; CBasePin::QueryDirection
EXTRN	?QueryAccept@CBasePin@@UEAAJPEBU_AMMediaType@@@Z:PROC ; CBasePin::QueryAccept
EXTRN	?EnumMediaTypes@CBasePin@@UEAAJPEAPEAUIEnumMediaTypes@@@Z:PROC ; CBasePin::EnumMediaTypes
EXTRN	?EndOfStream@CBaseOutputPin@@UEAAJXZ:PROC	; CBaseOutputPin::EndOfStream
EXTRN	?BeginFlush@CBaseOutputPin@@UEAAJXZ:PROC	; CBaseOutputPin::BeginFlush
EXTRN	?EndFlush@CBaseOutputPin@@UEAAJXZ:PROC		; CBaseOutputPin::EndFlush
EXTRN	?NewSegment@CBasePin@@UEAAJ_J0N@Z:PROC		; CBasePin::NewSegment
EXTRN	?Notify@CBasePin@@UEAAJPEAUIBaseFilter@@UtagQuality@@@Z:PROC ; CBasePin::Notify
EXTRN	?SetSink@CBasePin@@UEAAJPEAUIQualityControl@@@Z:PROC ; CBasePin::SetSink
;	COMDAT pdata
pdata	SEGMENT
$pdata$??0CSourceStream@@QEAA@PEA_WPEAJPEAVCSource@@PEB_W@Z DD imagerel $LN5
	DD	imagerel $LN5+255
	DD	imagerel $unwind$??0CSourceStream@@QEAA@PEA_WPEAJPEAVCSource@@PEB_W@Z
pdata	ENDS
;	COMDAT pdata
pdata	SEGMENT
$pdata$?dtor$0@?0???0CSourceStream@@QEAA@PEA_WPEAJPEAVCSource@@PEB_W@Z@4HA DD imagerel ?dtor$0@?0???0CSourceStream@@QEAA@PEA_WPEAJPEAVCSource@@PEB_W@Z@4HA
	DD	imagerel ?dtor$0@?0???0CSourceStream@@QEAA@PEA_WPEAJPEAVCSource@@PEB_W@Z@4HA+35
	DD	imagerel $unwind$?dtor$0@?0???0CSourceStream@@QEAA@PEA_WPEAJPEAVCSource@@PEB_W@Z@4HA
pdata	ENDS
;	COMDAT pdata
pdata	SEGMENT
$pdata$?dtor$1@?0???0CSourceStream@@QEAA@PEA_WPEAJPEAVCSource@@PEB_W@Z@4HA DD imagerel ?dtor$1@?0???0CSourceStream@@QEAA@PEA_WPEAJPEAVCSource@@PEB_W@Z@4HA
	DD	imagerel ?dtor$1@?0???0CSourceStream@@QEAA@PEA_WPEAJPEAVCSource@@PEB_W@Z@4HA+42
	DD	imagerel $unwind$?dtor$1@?0???0CSourceStream@@QEAA@PEA_WPEAJPEAVCSource@@PEB_W@Z@4HA
pdata	ENDS
;	COMDAT xdata
xdata	SEGMENT
$ip2state$??0CSourceStream@@QEAA@PEA_WPEAJPEAVCSource@@PEB_W@Z DD imagerel ??0CSourceStream@@QEAA@PEA_WPEAJPEAVCSource@@PEB_W@Z
	DD	0ffffffffH
	DD	imagerel ??0CSourceStream@@QEAA@PEA_WPEAJPEAVCSource@@PEB_W@Z+65
	DD	00H
	DD	imagerel ??0CSourceStream@@QEAA@PEA_WPEAJPEAVCSource@@PEB_W@Z+126
	DD	01H
	DD	imagerel ??0CSourceStream@@QEAA@PEA_WPEAJPEAVCSource@@PEB_W@Z+244
	DD	0ffffffffH
xdata	ENDS
;	COMDAT ??_R4CSourceStream@@6BIQualityControl@@@
rdata$r	SEGMENT
??_R4CSourceStream@@6BIQualityControl@@@ DD 01H		; CSourceStream::`RTTI Complete Object Locator'
	DD	0c0H
	DD	00H
	DD	imagerel ??_R0?AVCSourceStream@@@8
	DD	imagerel ??_R3CSourceStream@@8
	DD	imagerel ??_R4CSourceStream@@6BIQualityControl@@@
rdata$r	ENDS
;	COMDAT ??_R4CSourceStream@@6BIPin@@@
rdata$r	SEGMENT
??_R4CSourceStream@@6BIPin@@@ DD 01H			; CSourceStream::`RTTI Complete Object Locator'
	DD	0b8H
	DD	00H
	DD	imagerel ??_R0?AVCSourceStream@@@8
	DD	imagerel ??_R3CSourceStream@@8
	DD	imagerel ??_R4CSourceStream@@6BIPin@@@
rdata$r	ENDS
;	COMDAT ??_R4CSourceStream@@6BCUnknown@@@
rdata$r	SEGMENT
??_R4CSourceStream@@6BCUnknown@@@ DD 01H		; CSourceStream::`RTTI Complete Object Locator'
	DD	098H
	DD	00H
	DD	imagerel ??_R0?AVCSourceStream@@@8
	DD	imagerel ??_R3CSourceStream@@8
	DD	imagerel ??_R4CSourceStream@@6BCUnknown@@@
rdata$r	ENDS
;	COMDAT ??_R1MA@?0A@EC@IUnknown@@8
rdata$r	SEGMENT
??_R1MA@?0A@EC@IUnknown@@8 DD imagerel ??_R0?AUIUnknown@@@8 ; IUnknown::`RTTI Base Class Descriptor at (192,-1,0,66)'
	DD	00H
	DD	0c0H
	DD	0ffffffffH
	DD	00H
	DD	042H
	DD	imagerel ??_R3IUnknown@@8
rdata$r	ENDS
;	COMDAT ??_R1MA@?0A@EA@IQualityControl@@8
rdata$r	SEGMENT
??_R1MA@?0A@EA@IQualityControl@@8 DD imagerel ??_R0?AUIQualityControl@@@8 ; IQualityControl::`RTTI Base Class Descriptor at (192,-1,0,64)'
	DD	01H
	DD	0c0H
	DD	0ffffffffH
	DD	00H
	DD	040H
	DD	imagerel ??_R3IQualityControl@@8
rdata$r	ENDS
;	COMDAT ??_R1LI@?0A@EC@IUnknown@@8
rdata$r	SEGMENT
??_R1LI@?0A@EC@IUnknown@@8 DD imagerel ??_R0?AUIUnknown@@@8 ; IUnknown::`RTTI Base Class Descriptor at (184,-1,0,66)'
	DD	00H
	DD	0b8H
	DD	0ffffffffH
	DD	00H
	DD	042H
	DD	imagerel ??_R3IUnknown@@8
rdata$r	ENDS
;	COMDAT ??_R1LI@?0A@EA@IPin@@8
rdata$r	SEGMENT
??_R1LI@?0A@EA@IPin@@8 DD imagerel ??_R0?AUIPin@@@8	; IPin::`RTTI Base Class Descriptor at (184,-1,0,64)'
	DD	01H
	DD	0b8H
	DD	0ffffffffH
	DD	00H
	DD	040H
	DD	imagerel ??_R3IPin@@8
rdata$r	ENDS
;	COMDAT ??_R1KA@?0A@EA@CBaseObject@@8
rdata$r	SEGMENT
??_R1KA@?0A@EA@CBaseObject@@8 DD imagerel ??_R0?AVCBaseObject@@@8 ; CBaseObject::`RTTI Base Class Descriptor at (160,-1,0,64)'
	DD	00H
	DD	0a0H
	DD	0ffffffffH
	DD	00H
	DD	040H
	DD	imagerel ??_R3CBaseObject@@8
rdata$r	ENDS
;	COMDAT ??_R1JI@?0A@EA@INonDelegatingUnknown@@8
rdata$r	SEGMENT
??_R1JI@?0A@EA@INonDelegatingUnknown@@8 DD imagerel ??_R0?AUINonDelegatingUnknown@@@8 ; INonDelegatingUnknown::`RTTI Base Class Descriptor at (152,-1,0,64)'
	DD	00H
	DD	098H
	DD	0ffffffffH
	DD	00H
	DD	040H
	DD	imagerel ??_R3INonDelegatingUnknown@@8
rdata$r	ENDS
;	COMDAT ??_R1JI@?0A@EA@CUnknown@@8
rdata$r	SEGMENT
??_R1JI@?0A@EA@CUnknown@@8 DD imagerel ??_R0?AVCUnknown@@@8 ; CUnknown::`RTTI Base Class Descriptor at (152,-1,0,64)'
	DD	02H
	DD	098H
	DD	0ffffffffH
	DD	00H
	DD	040H
	DD	imagerel ??_R3CUnknown@@8
rdata$r	ENDS
;	COMDAT ??_R1JI@?0A@EA@CBasePin@@8
rdata$r	SEGMENT
??_R1JI@?0A@EA@CBasePin@@8 DD imagerel ??_R0?AVCBasePin@@@8 ; CBasePin::`RTTI Base Class Descriptor at (152,-1,0,64)'
	DD	07H
	DD	098H
	DD	0ffffffffH
	DD	00H
	DD	040H
	DD	imagerel ??_R3CBasePin@@8
rdata$r	ENDS
;	COMDAT ??_R1A@?0A@EA@IQualityControl@@8
rdata$r	SEGMENT
??_R1A@?0A@EA@IQualityControl@@8 DD imagerel ??_R0?AUIQualityControl@@@8 ; IQualityControl::`RTTI Base Class Descriptor at (0,-1,0,64)'
	DD	01H
	DD	00H
	DD	0ffffffffH
	DD	00H
	DD	040H
	DD	imagerel ??_R3IQualityControl@@8
rdata$r	ENDS
;	COMDAT ??_R2IQualityControl@@8
rdata$r	SEGMENT
??_R2IQualityControl@@8 DD imagerel ??_R1A@?0A@EA@IQualityControl@@8 ; IQualityControl::`RTTI Base Class Array'
	DD	imagerel ??_R1A@?0A@EA@IUnknown@@8
	ORG $+3
rdata$r	ENDS
;	COMDAT ??_R3IQualityControl@@8
rdata$r	SEGMENT
??_R3IQualityControl@@8 DD 00H				; IQualityControl::`RTTI Class Hierarchy Descriptor'
	DD	00H
	DD	02H
	DD	imagerel ??_R2IQualityControl@@8
rdata$r	ENDS
;	COMDAT ??_R0?AUIQualityControl@@@8
_DATA	SEGMENT
??_R0?AUIQualityControl@@@8 DQ FLAT:??_7type_info@@6B@	; IQualityControl `RTTI Type Descriptor'
	DQ	0000000000000000H
	DB	'.?AUIQualityControl@@', 00H
_DATA	ENDS
;	COMDAT ??_R1CI@?0A@EA@IQualityControl@@8
rdata$r	SEGMENT
??_R1CI@?0A@EA@IQualityControl@@8 DD imagerel ??_R0?AUIQualityControl@@@8 ; IQualityControl::`RTTI Base Class Descriptor at (40,-1,0,64)'
	DD	01H
	DD	028H
	DD	0ffffffffH
	DD	00H
	DD	040H
	DD	imagerel ??_R3IQualityControl@@8
rdata$r	ENDS
;	COMDAT ??_R1A@?0A@EA@IPin@@8
rdata$r	SEGMENT
??_R1A@?0A@EA@IPin@@8 DD imagerel ??_R0?AUIPin@@@8	; IPin::`RTTI Base Class Descriptor at (0,-1,0,64)'
	DD	01H
	DD	00H
	DD	0ffffffffH
	DD	00H
	DD	040H
	DD	imagerel ??_R3IPin@@8
rdata$r	ENDS
;	COMDAT ??_R2IPin@@8
rdata$r	SEGMENT
??_R2IPin@@8 DD	imagerel ??_R1A@?0A@EA@IPin@@8		; IPin::`RTTI Base Class Array'
	DD	imagerel ??_R1A@?0A@EA@IUnknown@@8
	ORG $+3
rdata$r	ENDS
;	COMDAT ??_R3IPin@@8
rdata$r	SEGMENT
??_R3IPin@@8 DD	00H					; IPin::`RTTI Class Hierarchy Descriptor'
	DD	00H
	DD	02H
	DD	imagerel ??_R2IPin@@8
rdata$r	ENDS
;	COMDAT ??_R0?AUIPin@@@8
_DATA	SEGMENT
??_R0?AUIPin@@@8 DQ FLAT:??_7type_info@@6B@		; IPin `RTTI Type Descriptor'
	DQ	0000000000000000H
	DB	'.?AUIPin@@', 00H
_DATA	ENDS
;	COMDAT ??_R1CA@?0A@EA@IPin@@8
rdata$r	SEGMENT
??_R1CA@?0A@EA@IPin@@8 DD imagerel ??_R0?AUIPin@@@8	; IPin::`RTTI Base Class Descriptor at (32,-1,0,64)'
	DD	01H
	DD	020H
	DD	0ffffffffH
	DD	00H
	DD	040H
	DD	imagerel ??_R3IPin@@8
rdata$r	ENDS
;	COMDAT ??_R2CBasePin@@8
rdata$r	SEGMENT
??_R2CBasePin@@8 DD imagerel ??_R1A@?0A@EA@CBasePin@@8	; CBasePin::`RTTI Base Class Array'
	DD	imagerel ??_R1A@?0A@EA@CUnknown@@8
	DD	imagerel ??_R1A@?0A@EA@INonDelegatingUnknown@@8
	DD	imagerel ??_R17?0A@EA@CBaseObject@@8
	DD	imagerel ??_R1CA@?0A@EA@IPin@@8
	DD	imagerel ??_R1CA@?0A@EC@IUnknown@@8
	DD	imagerel ??_R1CI@?0A@EA@IQualityControl@@8
	DD	imagerel ??_R1CI@?0A@EC@IUnknown@@8
	ORG $+3
rdata$r	ENDS
;	COMDAT ??_R3CBasePin@@8
rdata$r	SEGMENT
??_R3CBasePin@@8 DD 00H					; CBasePin::`RTTI Class Hierarchy Descriptor'
	DD	05H
	DD	08H
	DD	imagerel ??_R2CBasePin@@8
rdata$r	ENDS
;	COMDAT ??_R0?AVCBasePin@@@8
_DATA	SEGMENT
??_R0?AVCBasePin@@@8 DQ FLAT:??_7type_info@@6B@		; CBasePin `RTTI Type Descriptor'
	DQ	0000000000000000H
	DB	'.?AVCBasePin@@', 00H
_DATA	ENDS
;	COMDAT ??_R1A@?0A@EA@CBasePin@@8
rdata$r	SEGMENT
??_R1A@?0A@EA@CBasePin@@8 DD imagerel ??_R0?AVCBasePin@@@8 ; CBasePin::`RTTI Base Class Descriptor at (0,-1,0,64)'
	DD	07H
	DD	00H
	DD	0ffffffffH
	DD	00H
	DD	040H
	DD	imagerel ??_R3CBasePin@@8
rdata$r	ENDS
;	COMDAT ??_R1A@?0A@EA@CBaseOutputPin@@8
rdata$r	SEGMENT
??_R1A@?0A@EA@CBaseOutputPin@@8 DD imagerel ??_R0?AVCBaseOutputPin@@@8 ; CBaseOutputPin::`RTTI Base Class Descriptor at (0,-1,0,64)'
	DD	08H
	DD	00H
	DD	0ffffffffH
	DD	00H
	DD	040H
	DD	imagerel ??_R3CBaseOutputPin@@8
rdata$r	ENDS
;	COMDAT ??_R2CBaseOutputPin@@8
rdata$r	SEGMENT
??_R2CBaseOutputPin@@8 DD imagerel ??_R1A@?0A@EA@CBaseOutputPin@@8 ; CBaseOutputPin::`RTTI Base Class Array'
	DD	imagerel ??_R1A@?0A@EA@CBasePin@@8
	DD	imagerel ??_R1A@?0A@EA@CUnknown@@8
	DD	imagerel ??_R1A@?0A@EA@INonDelegatingUnknown@@8
	DD	imagerel ??_R17?0A@EA@CBaseObject@@8
	DD	imagerel ??_R1CA@?0A@EA@IPin@@8
	DD	imagerel ??_R1CA@?0A@EC@IUnknown@@8
	DD	imagerel ??_R1CI@?0A@EA@IQualityControl@@8
	DD	imagerel ??_R1CI@?0A@EC@IUnknown@@8
	ORG $+3
rdata$r	ENDS
;	COMDAT ??_R3CBaseOutputPin@@8
rdata$r	SEGMENT
??_R3CBaseOutputPin@@8 DD 00H				; CBaseOutputPin::`RTTI Class Hierarchy Descriptor'
	DD	01H
	DD	09H
	DD	imagerel ??_R2CBaseOutputPin@@8
rdata$r	ENDS
;	COMDAT ??_R0?AVCBaseOutputPin@@@8
_DATA	SEGMENT
??_R0?AVCBaseOutputPin@@@8 DQ FLAT:??_7type_info@@6B@	; CBaseOutputPin `RTTI Type Descriptor'
	DQ	0000000000000000H
	DB	'.?AVCBaseOutputPin@@', 00H
_DATA	ENDS
;	COMDAT ??_R1JI@?0A@EA@CBaseOutputPin@@8
rdata$r	SEGMENT
??_R1JI@?0A@EA@CBaseOutputPin@@8 DD imagerel ??_R0?AVCBaseOutputPin@@@8 ; CBaseOutputPin::`RTTI Base Class Descriptor at (152,-1,0,64)'
	DD	08H
	DD	098H
	DD	0ffffffffH
	DD	00H
	DD	040H
	DD	imagerel ??_R3CBaseOutputPin@@8
rdata$r	ENDS
;	COMDAT ??_R2CAMThread@@8
rdata$r	SEGMENT
??_R2CAMThread@@8 DD imagerel ??_R1A@?0A@EA@CAMThread@@8 ; CAMThread::`RTTI Base Class Array'
	ORG $+3
rdata$r	ENDS
;	COMDAT ??_R3CAMThread@@8
rdata$r	SEGMENT
??_R3CAMThread@@8 DD 00H				; CAMThread::`RTTI Class Hierarchy Descriptor'
	DD	00H
	DD	01H
	DD	imagerel ??_R2CAMThread@@8
rdata$r	ENDS
;	COMDAT ??_R0?AVCAMThread@@@8
_DATA	SEGMENT
??_R0?AVCAMThread@@@8 DQ FLAT:??_7type_info@@6B@	; CAMThread `RTTI Type Descriptor'
	DQ	0000000000000000H
	DB	'.?AVCAMThread@@', 00H
_DATA	ENDS
;	COMDAT ??_R1A@?0A@EA@CAMThread@@8
rdata$r	SEGMENT
??_R1A@?0A@EA@CAMThread@@8 DD imagerel ??_R0?AVCAMThread@@@8 ; CAMThread::`RTTI Base Class Descriptor at (0,-1,0,64)'
	DD	00H
	DD	00H
	DD	0ffffffffH
	DD	00H
	DD	040H
	DD	imagerel ??_R3CAMThread@@8
rdata$r	ENDS
;	COMDAT ??_R1A@?0A@EA@CSourceStream@@8
rdata$r	SEGMENT
??_R1A@?0A@EA@CSourceStream@@8 DD imagerel ??_R0?AVCSourceStream@@@8 ; CSourceStream::`RTTI Base Class Descriptor at (0,-1,0,64)'
	DD	0aH
	DD	00H
	DD	0ffffffffH
	DD	00H
	DD	040H
	DD	imagerel ??_R3CSourceStream@@8
rdata$r	ENDS
;	COMDAT ??_R2CSourceStream@@8
rdata$r	SEGMENT
??_R2CSourceStream@@8 DD imagerel ??_R1A@?0A@EA@CSourceStream@@8 ; CSourceStream::`RTTI Base Class Array'
	DD	imagerel ??_R1A@?0A@EA@CAMThread@@8
	DD	imagerel ??_R1JI@?0A@EA@CBaseOutputPin@@8
	DD	imagerel ??_R1JI@?0A@EA@CBasePin@@8
	DD	imagerel ??_R1JI@?0A@EA@CUnknown@@8
	DD	imagerel ??_R1JI@?0A@EA@INonDelegatingUnknown@@8
	DD	imagerel ??_R1KA@?0A@EA@CBaseObject@@8
	DD	imagerel ??_R1LI@?0A@EA@IPin@@8
	DD	imagerel ??_R1LI@?0A@EC@IUnknown@@8
	DD	imagerel ??_R1MA@?0A@EA@IQualityControl@@8
	DD	imagerel ??_R1MA@?0A@EC@IUnknown@@8
	ORG $+3
rdata$r	ENDS
;	COMDAT ??_R3CSourceStream@@8
rdata$r	SEGMENT
??_R3CSourceStream@@8 DD 00H				; CSourceStream::`RTTI Class Hierarchy Descriptor'
	DD	05H
	DD	0bH
	DD	imagerel ??_R2CSourceStream@@8
rdata$r	ENDS
;	COMDAT ??_R0?AVCSourceStream@@@8
_DATA	SEGMENT
??_R0?AVCSourceStream@@@8 DQ FLAT:??_7type_info@@6B@	; CSourceStream `RTTI Type Descriptor'
	DQ	0000000000000000H
	DB	'.?AVCSourceStream@@', 00H
_DATA	ENDS
;	COMDAT ??_R4CSourceStream@@6B@
rdata$r	SEGMENT
??_R4CSourceStream@@6B@ DD 01H				; CSourceStream::`RTTI Complete Object Locator'
	DD	00H
	DD	00H
	DD	imagerel ??_R0?AVCSourceStream@@@8
	DD	imagerel ??_R3CSourceStream@@8
	DD	imagerel ??_R4CSourceStream@@6B@
rdata$r	ENDS
;	COMDAT xdata
xdata	SEGMENT
$unwind$?dtor$1@?0???0CSourceStream@@QEAA@PEA_WPEAJPEAVCSource@@PEB_W@Z@4HA DD 031001H
	DD	0700c4210H
	DD	0500bH
xdata	ENDS
;	COMDAT xdata
xdata	SEGMENT
$unwind$?dtor$0@?0???0CSourceStream@@QEAA@PEA_WPEAJPEAVCSource@@PEB_W@Z@4HA DD 031001H
	DD	0700c4210H
	DD	0500bH
xdata	ENDS
;	COMDAT xdata
xdata	SEGMENT
$unwind$??0CSourceStream@@QEAA@PEA_WPEAJPEAVCSource@@PEB_W@Z DD 023611H
	DD	070157219H
	DD	imagerel __CxxFrameHandler3
	DD	imagerel $cppxdata$??0CSourceStream@@QEAA@PEA_WPEAJPEAVCSource@@PEB_W@Z
xdata	ENDS
;	COMDAT CONST
CONST	SEGMENT
$cppxdata$??0CSourceStream@@QEAA@PEA_WPEAJPEAVCSource@@PEB_W@Z DD 019930522H
	DD	02H
	DD	imagerel $stateUnwindMap$??0CSourceStream@@QEAA@PEA_WPEAJPEAVCSource@@PEB_W@Z
	DD	00H
	DD	00H
	DD	04H
	DD	imagerel $ip2state$??0CSourceStream@@QEAA@PEA_WPEAJPEAVCSource@@PEB_W@Z
	DD	030H
	DD	00H
	DD	01H
CONST	ENDS
;	COMDAT xdata
xdata	SEGMENT
$stateUnwindMap$??0CSourceStream@@QEAA@PEA_WPEAJPEAVCSource@@PEB_W@Z DD 0ffffffffH
	DD	imagerel ?dtor$0@?0???0CSourceStream@@QEAA@PEA_WPEAJPEAVCSource@@PEB_W@Z@4HA
	DD	00H
	DD	imagerel ?dtor$1@?0???0CSourceStream@@QEAA@PEA_WPEAJPEAVCSource@@PEB_W@Z@4HA
xdata	ENDS
;	COMDAT ??_7CSourceStream@@6BIQualityControl@@@
CONST	SEGMENT
??_7CSourceStream@@6BIQualityControl@@@ DQ FLAT:??_R4CSourceStream@@6BIQualityControl@@@ ; CSourceStream::`vftable'
	DQ	FLAT:?QueryInterface@CBasePin@@W7EAAJAEBU_GUID@@PEAPEAX@Z
	DQ	FLAT:?AddRef@CBasePin@@W7EAAKXZ
	DQ	FLAT:?Release@CBasePin@@W7EAAKXZ
	DQ	FLAT:?Notify@CBasePin@@UEAAJPEAUIBaseFilter@@UtagQuality@@@Z
	DQ	FLAT:?SetSink@CBasePin@@UEAAJPEAUIQualityControl@@@Z
CONST	ENDS
;	COMDAT ??_7CSourceStream@@6BIPin@@@
CONST	SEGMENT
??_7CSourceStream@@6BIPin@@@ DQ FLAT:??_R4CSourceStream@@6BIPin@@@ ; CSourceStream::`vftable'
	DQ	FLAT:?QueryInterface@CBasePin@@UEAAJAEBU_GUID@@PEAPEAX@Z
	DQ	FLAT:?AddRef@CBasePin@@UEAAKXZ
	DQ	FLAT:?Release@CBasePin@@UEAAKXZ
	DQ	FLAT:?Connect@CBasePin@@UEAAJPEAUIPin@@PEBU_AMMediaType@@@Z
	DQ	FLAT:?ReceiveConnection@CBasePin@@UEAAJPEAUIPin@@PEBU_AMMediaType@@@Z
	DQ	FLAT:?Disconnect@CBasePin@@UEAAJXZ
	DQ	FLAT:?ConnectedTo@CBasePin@@UEAAJPEAPEAUIPin@@@Z
	DQ	FLAT:?ConnectionMediaType@CBasePin@@UEAAJPEAU_AMMediaType@@@Z
	DQ	FLAT:?QueryPinInfo@CBasePin@@UEAAJPEAU_PinInfo@@@Z
	DQ	FLAT:?QueryDirection@CBasePin@@UEAAJPEAW4_PinDirection@@@Z
	DQ	FLAT:?QueryId@CSourceStream@@MEAAJPEAPEA_W@Z
	DQ	FLAT:?QueryAccept@CBasePin@@UEAAJPEBU_AMMediaType@@@Z
	DQ	FLAT:?EnumMediaTypes@CBasePin@@UEAAJPEAPEAUIEnumMediaTypes@@@Z
	DQ	FLAT:?QueryInternalConnections@CBasePin@@UEAAJPEAPEAUIPin@@PEAK@Z
	DQ	FLAT:?EndOfStream@CBaseOutputPin@@UEAAJXZ
	DQ	FLAT:?BeginFlush@CBaseOutputPin@@UEAAJXZ
	DQ	FLAT:?EndFlush@CBaseOutputPin@@UEAAJXZ
	DQ	FLAT:?NewSegment@CBasePin@@UEAAJ_J0N@Z
CONST	ENDS
;	COMDAT ??_7CSourceStream@@6BCUnknown@@@
CONST	SEGMENT
??_7CSourceStream@@6BCUnknown@@@ DQ FLAT:??_R4CSourceStream@@6BCUnknown@@@ ; CSourceStream::`vftable'
	DQ	FLAT:?NonDelegatingQueryInterface@CBasePin@@UEAAJAEBU_GUID@@PEAPEAX@Z
	DQ	FLAT:?NonDelegatingAddRef@CBasePin@@UEAAKXZ
	DQ	FLAT:?NonDelegatingRelease@CBasePin@@UEAAKXZ
	DQ	FLAT:??_ECSourceStream@@WJI@EAAPEAXI@Z
	DQ	FLAT:?GetMediaTypeVersion@CBasePin@@UEAAJXZ
	DQ	FLAT:?Active@CSourceStream@@MEAAJXZ
	DQ	FLAT:?Inactive@CSourceStream@@MEAAJXZ
	DQ	FLAT:?Run@CBasePin@@UEAAJ_J@Z
	DQ	FLAT:?CheckMediaType@CSourceStream@@MEAAJPEBVCMediaType@@@Z
	DQ	FLAT:?SetMediaType@CBasePin@@UEAAJPEBVCMediaType@@@Z
	DQ	FLAT:?CheckConnect@CBaseOutputPin@@UEAAJPEAUIPin@@@Z
	DQ	FLAT:?BreakConnect@CBaseOutputPin@@UEAAJXZ
	DQ	FLAT:?CompleteConnect@CBaseOutputPin@@UEAAJPEAUIPin@@@Z
	DQ	FLAT:?GetMediaType@CSourceStream@@MEAAJHPEAVCMediaType@@@Z
	DQ	FLAT:?DecideAllocator@CBaseOutputPin@@UEAAJPEAUIMemInputPin@@PEAPEAUIMemAllocator@@@Z
	DQ	FLAT:_purecall
	DQ	FLAT:?GetDeliveryBuffer@CBaseOutputPin@@UEAAJPEAPEAUIMediaSample@@PEA_J1K@Z
	DQ	FLAT:?Deliver@CBaseOutputPin@@UEAAJPEAUIMediaSample@@@Z
	DQ	FLAT:?InitAllocator@CBaseOutputPin@@UEAAJPEAPEAUIMemAllocator@@@Z
	DQ	FLAT:?DeliverEndOfStream@CBaseOutputPin@@UEAAJXZ
	DQ	FLAT:?DeliverBeginFlush@CBaseOutputPin@@UEAAJXZ
	DQ	FLAT:?DeliverEndFlush@CBaseOutputPin@@UEAAJXZ
	DQ	FLAT:?DeliverNewSegment@CBaseOutputPin@@UEAAJ_J0N@Z
CONST	ENDS
;	COMDAT ??_7CSourceStream@@6B@
CONST	SEGMENT
??_7CSourceStream@@6B@ DQ FLAT:??_R4CSourceStream@@6B@	; CSourceStream::`vftable'
	DQ	FLAT:?ThreadProc@CSourceStream@@MEAAKXZ
	DQ	FLAT:??_ECSourceStream@@UEAAPEAXI@Z
	DQ	FLAT:_purecall
	DQ	FLAT:?OnThreadCreate@CSourceStream@@MEAAJXZ
	DQ	FLAT:?OnThreadDestroy@CSourceStream@@MEAAJXZ
	DQ	FLAT:?OnThreadStartPlay@CSourceStream@@MEAAJXZ
	DQ	FLAT:?DoBufferProcessingLoop@CSourceStream@@MEAAJXZ
	DQ	FLAT:?GetMediaType@CSourceStream@@MEAAJPEAVCMediaType@@@Z
; Function compile flags: /Odtp /RTCsu
CONST	ENDS
;	COMDAT ??0CSourceStream@@QEAA@PEA_WPEAJPEAVCSource@@PEB_W@Z
_TEXT	SEGMENT
$T83615 = 48
this$ = 80
pObjectName$ = 88
phr$ = 96
ps$ = 104
pPinName$ = 112
??0CSourceStream@@QEAA@PEA_WPEAJPEAVCSource@@PEB_W@Z PROC ; CSourceStream::CSourceStream, COMDAT
; Line 227
$LN5:
	mov	QWORD PTR [rsp+32], r9
	mov	QWORD PTR [rsp+24], r8
	mov	QWORD PTR [rsp+16], rdx
	mov	QWORD PTR [rsp+8], rcx
	push	rdi
	sub	rsp, 64					; 00000040H
	mov	rdi, rsp
	mov	ecx, 16
	mov	eax, -858993460				; ccccccccH
	rep stosd
	mov	rcx, QWORD PTR [rsp+80]
	mov	QWORD PTR $T83615[rsp], -2
	mov	rcx, QWORD PTR this$[rsp]
	call	??0CAMThread@@QEAA@XZ			; CAMThread::CAMThread
	npad	1
	mov	rcx, QWORD PTR ps$[rsp]
	call	?pStateLock@CSource@@QEAAPEAVCCritSec@@XZ ; CSource::pStateLock
	mov	rcx, QWORD PTR this$[rsp]
	add	rcx, 152				; 00000098H
	mov	rdx, QWORD PTR pPinName$[rsp]
	mov	QWORD PTR [rsp+40], rdx
	mov	rdx, QWORD PTR phr$[rsp]
	mov	QWORD PTR [rsp+32], rdx
	mov	r9, rax
	mov	r8, QWORD PTR ps$[rsp]
	mov	rdx, QWORD PTR pObjectName$[rsp]
	call	??0CBaseOutputPin@@QEAA@PEA_WPEAVCBaseFilter@@PEAVCCritSec@@PEAJPEB_W@Z ; CBaseOutputPin::CBaseOutputPin
	npad	1
	mov	rax, QWORD PTR this$[rsp]
	lea	rcx, OFFSET FLAT:??_7CSourceStream@@6B@
	mov	QWORD PTR [rax], rcx
	mov	rax, QWORD PTR this$[rsp]
	lea	rcx, OFFSET FLAT:??_7CSourceStream@@6BCUnknown@@@
	mov	QWORD PTR [rax+152], rcx
	mov	rax, QWORD PTR this$[rsp]
	lea	rcx, OFFSET FLAT:??_7CSourceStream@@6BIPin@@@
	mov	QWORD PTR [rax+184], rcx
	mov	rax, QWORD PTR this$[rsp]
	lea	rcx, OFFSET FLAT:??_7CSourceStream@@6BIQualityControl@@@
	mov	QWORD PTR [rax+192], rcx
	mov	rax, QWORD PTR this$[rsp]
	mov	rcx, QWORD PTR ps$[rsp]
	mov	QWORD PTR [rax+400], rcx
; Line 229
	mov	rdx, QWORD PTR this$[rsp]
	mov	rax, QWORD PTR this$[rsp]
	mov	rcx, QWORD PTR [rax+400]
	call	?AddPin@CSource@@QEAAJPEAVCSourceStream@@@Z ; CSource::AddPin
	mov	rcx, QWORD PTR phr$[rsp]
	mov	DWORD PTR [rcx], eax
; Line 230
	mov	rax, QWORD PTR this$[rsp]
	add	rsp, 64					; 00000040H
	pop	rdi
	ret	0
??0CSourceStream@@QEAA@PEA_WPEAJPEAVCSource@@PEB_W@Z ENDP ; CSourceStream::CSourceStream
; Function compile flags: /Odtp /RTCsu
_TEXT	ENDS
;	COMDAT text$x
text$x	SEGMENT
$T83615 = 48
this$ = 80
pObjectName$ = 88
phr$ = 96
ps$ = 104
pPinName$ = 112
?dtor$0@?0???0CSourceStream@@QEAA@PEA_WPEAJPEAVCSource@@PEB_W@Z@4HA PROC ; `CSourceStream::CSourceStream'::`1'::dtor$0
	mov	QWORD PTR [rsp+8], rcx
	mov	QWORD PTR [rsp+16], rdx
	push	rbp
	push	rdi
	sub	rsp, 40					; 00000028H
	mov	rbp, rdx
	mov	rcx, QWORD PTR this$[rbp]
	call	??1CAMThread@@UEAA@XZ			; CAMThread::~CAMThread
	add	rsp, 40					; 00000028H
	pop	rdi
	pop	rbp
	ret	0
?dtor$0@?0???0CSourceStream@@QEAA@PEA_WPEAJPEAVCSource@@PEB_W@Z@4HA ENDP ; `CSourceStream::CSourceStream'::`1'::dtor$0
; Function compile flags: /Odtp /RTCsu
$T83615 = 48
this$ = 80
pObjectName$ = 88
phr$ = 96
ps$ = 104
pPinName$ = 112
?dtor$1@?0???0CSourceStream@@QEAA@PEA_WPEAJPEAVCSource@@PEB_W@Z@4HA PROC ; `CSourceStream::CSourceStream'::`1'::dtor$1
	mov	QWORD PTR [rsp+8], rcx
	mov	QWORD PTR [rsp+16], rdx
	push	rbp
	push	rdi
	sub	rsp, 40					; 00000028H
	mov	rbp, rdx
	mov	rcx, QWORD PTR this$[rbp]
	add	rcx, 152				; 00000098H
	call	??1CBaseOutputPin@@UEAA@XZ
	add	rsp, 40					; 00000028H
	pop	rdi
	pop	rbp
	ret	0
?dtor$1@?0???0CSourceStream@@QEAA@PEA_WPEAJPEAVCSource@@PEB_W@Z@4HA ENDP ; `CSourceStream::CSourceStream'::`1'::dtor$1
text$x	ENDS
;	COMDAT pdata
; File c:\downloads\wpf mediakit - copy\src\filters\baseclasses\amfilter.h
pdata	SEGMENT
$pdata$?QueryInterface@CBasePin@@UEAAJAEBU_GUID@@PEAPEAX@Z DD imagerel $LN3
	DD	imagerel $LN3+93
	DD	imagerel $unwind$?QueryInterface@CBasePin@@UEAAJAEBU_GUID@@PEAPEAX@Z
pdata	ENDS
;	COMDAT xdata
xdata	SEGMENT
$unwind$?QueryInterface@CBasePin@@UEAAJAEBU_GUID@@PEAPEAX@Z DD 022801H
	DD	070105214H
; Function compile flags: /Odtp /RTCsu
xdata	ENDS
;	COMDAT ?QueryInterface@CBasePin@@UEAAJAEBU_GUID@@PEAPEAX@Z
_TEXT	SEGMENT
tv72 = 32
this$ = 64
riid$ = 72
ppv$ = 80
?QueryInterface@CBasePin@@UEAAJAEBU_GUID@@PEAPEAX@Z PROC ; CBasePin::QueryInterface, COMDAT
; Line 411
$LN3:
	mov	QWORD PTR [rsp+24], r8
	mov	QWORD PTR [rsp+16], rdx
	mov	QWORD PTR [rsp+8], rcx
	push	rdi
	sub	rsp, 48					; 00000030H
	mov	rdi, rsp
	mov	ecx, 12
	mov	eax, -858993460				; ccccccccH
	rep stosd
	mov	rcx, QWORD PTR [rsp+64]
	mov	rax, QWORD PTR this$[rsp]
	sub	rax, 32					; 00000020H
	mov	rcx, rax
	call	?GetOwner@CUnknown@@QEBAPEAUIUnknown@@XZ ; CUnknown::GetOwner
	mov	QWORD PTR tv72[rsp], rax
	mov	rax, QWORD PTR tv72[rsp]
	mov	rax, QWORD PTR [rax]
	mov	r8, QWORD PTR ppv$[rsp]
	mov	rdx, QWORD PTR riid$[rsp]
	mov	rcx, QWORD PTR tv72[rsp]
	call	QWORD PTR [rax]
	add	rsp, 48					; 00000030H
	pop	rdi
	ret	0
?QueryInterface@CBasePin@@UEAAJAEBU_GUID@@PEAPEAX@Z ENDP ; CBasePin::QueryInterface
_TEXT	ENDS
;	COMDAT pdata
pdata	SEGMENT
$pdata$?AddRef@CBasePin@@UEAAKXZ DD imagerel $LN3
	DD	imagerel $LN3+74
	DD	imagerel $unwind$?AddRef@CBasePin@@UEAAKXZ
pdata	ENDS
;	COMDAT xdata
xdata	SEGMENT
$unwind$?AddRef@CBasePin@@UEAAKXZ DD 021e01H
	DD	07006520aH
; Function compile flags: /Odtp /RTCsu
xdata	ENDS
;	COMDAT ?AddRef@CBasePin@@UEAAKXZ
_TEXT	SEGMENT
tv72 = 32
this$ = 64
?AddRef@CBasePin@@UEAAKXZ PROC				; CBasePin::AddRef, COMDAT
; Line 411
$LN3:
	mov	QWORD PTR [rsp+8], rcx
	push	rdi
	sub	rsp, 48					; 00000030H
	mov	rdi, rsp
	mov	ecx, 12
	mov	eax, -858993460				; ccccccccH
	rep stosd
	mov	rcx, QWORD PTR [rsp+64]
	mov	rax, QWORD PTR this$[rsp]
	sub	rax, 32					; 00000020H
	mov	rcx, rax
	call	?GetOwner@CUnknown@@QEBAPEAUIUnknown@@XZ ; CUnknown::GetOwner
	mov	QWORD PTR tv72[rsp], rax
	mov	rax, QWORD PTR tv72[rsp]
	mov	rax, QWORD PTR [rax]
	mov	rcx, QWORD PTR tv72[rsp]
	call	QWORD PTR [rax+8]
	add	rsp, 48					; 00000030H
	pop	rdi
	ret	0
?AddRef@CBasePin@@UEAAKXZ ENDP				; CBasePin::AddRef
_TEXT	ENDS
;	COMDAT pdata
pdata	SEGMENT
$pdata$?Release@CBasePin@@UEAAKXZ DD imagerel $LN3
	DD	imagerel $LN3+74
	DD	imagerel $unwind$?Release@CBasePin@@UEAAKXZ
pdata	ENDS
;	COMDAT xdata
xdata	SEGMENT
$unwind$?Release@CBasePin@@UEAAKXZ DD 021e01H
	DD	07006520aH
; Function compile flags: /Odtp /RTCsu
xdata	ENDS
;	COMDAT ?Release@CBasePin@@UEAAKXZ
_TEXT	SEGMENT
tv72 = 32
this$ = 64
?Release@CBasePin@@UEAAKXZ PROC				; CBasePin::Release, COMDAT
; Line 411
$LN3:
	mov	QWORD PTR [rsp+8], rcx
	push	rdi
	sub	rsp, 48					; 00000030H
	mov	rdi, rsp
	mov	ecx, 12
	mov	eax, -858993460				; ccccccccH
	rep stosd
	mov	rcx, QWORD PTR [rsp+64]
	mov	rax, QWORD PTR this$[rsp]
	sub	rax, 32					; 00000020H
	mov	rcx, rax
	call	?GetOwner@CUnknown@@QEBAPEAUIUnknown@@XZ ; CUnknown::GetOwner
	mov	QWORD PTR tv72[rsp], rax
	mov	rax, QWORD PTR tv72[rsp]
	mov	rax, QWORD PTR [rax]
	mov	rcx, QWORD PTR tv72[rsp]
	call	QWORD PTR [rax+16]
	add	rsp, 48					; 00000030H
	pop	rdi
	ret	0
?Release@CBasePin@@UEAAKXZ ENDP				; CBasePin::Release
_TEXT	ENDS
;	COMDAT pdata
pdata	SEGMENT
$pdata$?QueryInternalConnections@CBasePin@@UEAAJPEAPEAUIPin@@PEAK@Z DD imagerel $LN3
	DD	imagerel $LN3+23
	DD	imagerel $unwind$?QueryInternalConnections@CBasePin@@UEAAJPEAPEAUIPin@@PEAK@Z
pdata	ENDS
;	COMDAT xdata
xdata	SEGMENT
$unwind$?QueryInternalConnections@CBasePin@@UEAAJPEAPEAUIPin@@PEAK@Z DD 011001H
	DD	07010H
; Function compile flags: /Odtp /RTCsu
xdata	ENDS
;	COMDAT ?QueryInternalConnections@CBasePin@@UEAAJPEAPEAUIPin@@PEAK@Z
_TEXT	SEGMENT
this$ = 16
apPin$ = 24
nPin$ = 32
?QueryInternalConnections@CBasePin@@UEAAJPEAPEAUIPin@@PEAK@Z PROC ; CBasePin::QueryInternalConnections, COMDAT
; Line 472
$LN3:
	mov	QWORD PTR [rsp+24], r8
	mov	QWORD PTR [rsp+16], rdx
	mov	QWORD PTR [rsp+8], rcx
	push	rdi
	mov	eax, -2147467263			; ffffffff80004001H
	pop	rdi
	ret	0
?QueryInternalConnections@CBasePin@@UEAAJPEAPEAUIPin@@PEAK@Z ENDP ; CBasePin::QueryInternalConnections
_TEXT	ENDS
;	COMDAT pdata
; File c:\downloads\wpf mediakit - copy\src\filters\baseclasses\source.h
pdata	SEGMENT
$pdata$?pStateLock@CSource@@QEAAPEAVCCritSec@@XZ DD imagerel $LN3
	DD	imagerel $LN3+19
	DD	imagerel $unwind$?pStateLock@CSource@@QEAAPEAVCCritSec@@XZ
pdata	ENDS
;	COMDAT xdata
xdata	SEGMENT
$unwind$?pStateLock@CSource@@QEAAPEAVCCritSec@@XZ DD 010601H
	DD	07006H
; Function compile flags: /Odtp /RTCsu
xdata	ENDS
;	COMDAT ?pStateLock@CSource@@QEAAPEAVCCritSec@@XZ
_TEXT	SEGMENT
this$ = 16
?pStateLock@CSource@@QEAAPEAVCCritSec@@XZ PROC		; CSource::pStateLock, COMDAT
; Line 59
$LN3:
	mov	QWORD PTR [rsp+8], rcx
	push	rdi
	mov	rax, QWORD PTR this$[rsp]
	add	rax, 144				; 00000090H
	pop	rdi
	ret	0
?pStateLock@CSource@@QEAAPEAVCCritSec@@XZ ENDP		; CSource::pStateLock
_TEXT	ENDS
;	COMDAT pdata
pdata	SEGMENT
$pdata$?OnThreadCreate@CSourceStream@@MEAAJXZ DD imagerel $LN3
	DD	imagerel $LN3+10
	DD	imagerel $unwind$?OnThreadCreate@CSourceStream@@MEAAJXZ
pdata	ENDS
;	COMDAT xdata
xdata	SEGMENT
$unwind$?OnThreadCreate@CSourceStream@@MEAAJXZ DD 010601H
	DD	07006H
; Function compile flags: /Odtp /RTCsu
xdata	ENDS
;	COMDAT ?OnThreadCreate@CSourceStream@@MEAAJXZ
_TEXT	SEGMENT
this$ = 16
?OnThreadCreate@CSourceStream@@MEAAJXZ PROC		; CSourceStream::OnThreadCreate, COMDAT
; Line 122
$LN3:
	mov	QWORD PTR [rsp+8], rcx
	push	rdi
	xor	eax, eax
	pop	rdi
	ret	0
?OnThreadCreate@CSourceStream@@MEAAJXZ ENDP		; CSourceStream::OnThreadCreate
_TEXT	ENDS
;	COMDAT pdata
pdata	SEGMENT
$pdata$?OnThreadDestroy@CSourceStream@@MEAAJXZ DD imagerel $LN3
	DD	imagerel $LN3+10
	DD	imagerel $unwind$?OnThreadDestroy@CSourceStream@@MEAAJXZ
pdata	ENDS
;	COMDAT xdata
xdata	SEGMENT
$unwind$?OnThreadDestroy@CSourceStream@@MEAAJXZ DD 010601H
	DD	07006H
; Function compile flags: /Odtp /RTCsu
xdata	ENDS
;	COMDAT ?OnThreadDestroy@CSourceStream@@MEAAJXZ
_TEXT	SEGMENT
this$ = 16
?OnThreadDestroy@CSourceStream@@MEAAJXZ PROC		; CSourceStream::OnThreadDestroy, COMDAT
; Line 123
$LN3:
	mov	QWORD PTR [rsp+8], rcx
	push	rdi
	xor	eax, eax
	pop	rdi
	ret	0
?OnThreadDestroy@CSourceStream@@MEAAJXZ ENDP		; CSourceStream::OnThreadDestroy
_TEXT	ENDS
;	COMDAT pdata
pdata	SEGMENT
$pdata$?OnThreadStartPlay@CSourceStream@@MEAAJXZ DD imagerel $LN3
	DD	imagerel $LN3+10
	DD	imagerel $unwind$?OnThreadStartPlay@CSourceStream@@MEAAJXZ
pdata	ENDS
;	COMDAT xdata
xdata	SEGMENT
$unwind$?OnThreadStartPlay@CSourceStream@@MEAAJXZ DD 010601H
	DD	07006H
; Function compile flags: /Odtp /RTCsu
xdata	ENDS
;	COMDAT ?OnThreadStartPlay@CSourceStream@@MEAAJXZ
_TEXT	SEGMENT
this$ = 16
?OnThreadStartPlay@CSourceStream@@MEAAJXZ PROC		; CSourceStream::OnThreadStartPlay, COMDAT
; Line 124
$LN3:
	mov	QWORD PTR [rsp+8], rcx
	push	rdi
	xor	eax, eax
	pop	rdi
	ret	0
?OnThreadStartPlay@CSourceStream@@MEAAJXZ ENDP		; CSourceStream::OnThreadStartPlay
_TEXT	ENDS
;	COMDAT pdata
pdata	SEGMENT
$pdata$?GetMediaType@CSourceStream@@MEAAJPEAVCMediaType@@@Z DD imagerel $LN3
	DD	imagerel $LN3+18
	DD	imagerel $unwind$?GetMediaType@CSourceStream@@MEAAJPEAVCMediaType@@@Z
pdata	ENDS
;	COMDAT xdata
xdata	SEGMENT
$unwind$?GetMediaType@CSourceStream@@MEAAJPEAVCMediaType@@@Z DD 010b01H
	DD	0700bH
; Function compile flags: /Odtp /RTCsu
xdata	ENDS
;	COMDAT ?GetMediaType@CSourceStream@@MEAAJPEAVCMediaType@@@Z
_TEXT	SEGMENT
this$ = 16
pMediaType$ = 24
?GetMediaType@CSourceStream@@MEAAJPEAVCMediaType@@@Z PROC ; CSourceStream::GetMediaType, COMDAT
; Line 164
$LN3:
	mov	QWORD PTR [rsp+16], rdx
	mov	QWORD PTR [rsp+8], rcx
	push	rdi
	mov	eax, -2147418113			; ffffffff8000ffffH
	pop	rdi
	ret	0
?GetMediaType@CSourceStream@@MEAAJPEAVCMediaType@@@Z ENDP ; CSourceStream::GetMediaType
_TEXT	ENDS
PUBLIC	??1CSourceStream@@UEAA@XZ			; CSourceStream::~CSourceStream
;	COMDAT pdata
pdata	SEGMENT
$pdata$??_GCSourceStream@@UEAAPEAXI@Z DD imagerel $LN4
	DD	imagerel $LN4+76
	DD	imagerel $unwind$??_GCSourceStream@@UEAAPEAXI@Z
pdata	ENDS
;	COMDAT xdata
xdata	SEGMENT
$unwind$??_GCSourceStream@@UEAAPEAXI@Z DD 022201H
	DD	0700a320eH
; Function compile flags: /Odtp /RTCsu
xdata	ENDS
;	COMDAT ??_GCSourceStream@@UEAAPEAXI@Z
_TEXT	SEGMENT
this$ = 48
__flags$ = 56
??_GCSourceStream@@UEAAPEAXI@Z PROC			; CSourceStream::`scalar deleting destructor', COMDAT
$LN4:
	mov	DWORD PTR [rsp+16], edx
	mov	QWORD PTR [rsp+8], rcx
	push	rdi
	sub	rsp, 32					; 00000020H
	mov	rdi, rsp
	mov	ecx, 8
	mov	eax, -858993460				; ccccccccH
	rep stosd
	mov	rcx, QWORD PTR [rsp+48]
	mov	rcx, QWORD PTR this$[rsp]
	call	??1CSourceStream@@UEAA@XZ		; CSourceStream::~CSourceStream
	mov	eax, DWORD PTR __flags$[rsp]
	and	eax, 1
	test	eax, eax
	je	SHORT $LN1@scalar@2
	mov	rcx, QWORD PTR this$[rsp]
	call	??3@YAXPEAX@Z				; operator delete
$LN1@scalar@2:
	mov	rax, QWORD PTR this$[rsp]
	add	rsp, 32					; 00000020H
	pop	rdi
	ret	0
??_GCSourceStream@@UEAAPEAXI@Z ENDP			; CSourceStream::`scalar deleting destructor'
_TEXT	ENDS
EXTRN	??1CBasePin@@UEAA@XZ:PROC			; CBasePin::~CBasePin
;	COMDAT pdata
pdata	SEGMENT
$pdata$??1CBaseOutputPin@@UEAA@XZ DD imagerel $LN4
	DD	imagerel $LN4+46
	DD	imagerel $unwind$??1CBaseOutputPin@@UEAA@XZ
pdata	ENDS
;	COMDAT xdata
xdata	SEGMENT
$unwind$??1CBaseOutputPin@@UEAA@XZ DD 021e01H
	DD	07006320aH
; Function compile flags: /Odtp /RTCsu
xdata	ENDS
;	COMDAT ??1CBaseOutputPin@@UEAA@XZ
_TEXT	SEGMENT
this$ = 48
??1CBaseOutputPin@@UEAA@XZ PROC				; CBaseOutputPin::~CBaseOutputPin, COMDAT
$LN4:
	mov	QWORD PTR [rsp+8], rcx
	push	rdi
	sub	rsp, 32					; 00000020H
	mov	rdi, rsp
	mov	ecx, 8
	mov	eax, -858993460				; ccccccccH
	rep stosd
	mov	rcx, QWORD PTR [rsp+48]
	mov	rcx, QWORD PTR this$[rsp]
	call	??1CBasePin@@UEAA@XZ			; CBasePin::~CBasePin
	add	rsp, 32					; 00000020H
	pop	rdi
	ret	0
??1CBaseOutputPin@@UEAA@XZ ENDP				; CBaseOutputPin::~CBaseOutputPin
_TEXT	ENDS
PUBLIC	??0CSourceStream@@QEAA@PEADPEAJPEAVCSource@@PEB_W@Z ; CSourceStream::CSourceStream
EXTRN	??0CBaseOutputPin@@QEAA@PEADPEAVCBaseFilter@@PEAVCCritSec@@PEAJPEB_W@Z:PROC ; CBaseOutputPin::CBaseOutputPin
;	COMDAT pdata
; File c:\downloads\wpf mediakit - copy\src\filters\baseclasses\source.cpp
pdata	SEGMENT
$pdata$??0CSourceStream@@QEAA@PEADPEAJPEAVCSource@@PEB_W@Z DD imagerel $LN5
	DD	imagerel $LN5+255
	DD	imagerel $unwind$??0CSourceStream@@QEAA@PEADPEAJPEAVCSource@@PEB_W@Z
pdata	ENDS
;	COMDAT pdata
pdata	SEGMENT
$pdata$?dtor$0@?0???0CSourceStream@@QEAA@PEADPEAJPEAVCSource@@PEB_W@Z@4HA DD imagerel ?dtor$0@?0???0CSourceStream@@QEAA@PEADPEAJPEAVCSource@@PEB_W@Z@4HA
	DD	imagerel ?dtor$0@?0???0CSourceStream@@QEAA@PEADPEAJPEAVCSource@@PEB_W@Z@4HA+35
	DD	imagerel $unwind$?dtor$0@?0???0CSourceStream@@QEAA@PEADPEAJPEAVCSource@@PEB_W@Z@4HA
pdata	ENDS
;	COMDAT pdata
pdata	SEGMENT
$pdata$?dtor$1@?0???0CSourceStream@@QEAA@PEADPEAJPEAVCSource@@PEB_W@Z@4HA DD imagerel ?dtor$1@?0???0CSourceStream@@QEAA@PEADPEAJPEAVCSource@@PEB_W@Z@4HA
	DD	imagerel ?dtor$1@?0???0CSourceStream@@QEAA@PEADPEAJPEAVCSource@@PEB_W@Z@4HA+42
	DD	imagerel $unwind$?dtor$1@?0???0CSourceStream@@QEAA@PEADPEAJPEAVCSource@@PEB_W@Z@4HA
pdata	ENDS
;	COMDAT xdata
xdata	SEGMENT
$ip2state$??0CSourceStream@@QEAA@PEADPEAJPEAVCSource@@PEB_W@Z DD imagerel ??0CSourceStream@@QEAA@PEADPEAJPEAVCSource@@PEB_W@Z
	DD	0ffffffffH
	DD	imagerel ??0CSourceStream@@QEAA@PEADPEAJPEAVCSource@@PEB_W@Z+65
	DD	00H
	DD	imagerel ??0CSourceStream@@QEAA@PEADPEAJPEAVCSource@@PEB_W@Z+126
	DD	01H
	DD	imagerel ??0CSourceStream@@QEAA@PEADPEAJPEAVCSource@@PEB_W@Z+244
	DD	0ffffffffH
xdata	ENDS
;	COMDAT xdata
xdata	SEGMENT
$unwind$?dtor$1@?0???0CSourceStream@@QEAA@PEADPEAJPEAVCSource@@PEB_W@Z@4HA DD 031001H
	DD	0700c4210H
	DD	0500bH
xdata	ENDS
;	COMDAT xdata
xdata	SEGMENT
$unwind$?dtor$0@?0???0CSourceStream@@QEAA@PEADPEAJPEAVCSource@@PEB_W@Z@4HA DD 031001H
	DD	0700c4210H
	DD	0500bH
xdata	ENDS
;	COMDAT xdata
xdata	SEGMENT
$unwind$??0CSourceStream@@QEAA@PEADPEAJPEAVCSource@@PEB_W@Z DD 023611H
	DD	070157219H
	DD	imagerel __CxxFrameHandler3
	DD	imagerel $cppxdata$??0CSourceStream@@QEAA@PEADPEAJPEAVCSource@@PEB_W@Z
xdata	ENDS
;	COMDAT CONST
CONST	SEGMENT
$cppxdata$??0CSourceStream@@QEAA@PEADPEAJPEAVCSource@@PEB_W@Z DD 019930522H
	DD	02H
	DD	imagerel $stateUnwindMap$??0CSourceStream@@QEAA@PEADPEAJPEAVCSource@@PEB_W@Z
	DD	00H
	DD	00H
	DD	04H
	DD	imagerel $ip2state$??0CSourceStream@@QEAA@PEADPEAJPEAVCSource@@PEB_W@Z
	DD	030H
	DD	00H
	DD	01H
CONST	ENDS
;	COMDAT xdata
xdata	SEGMENT
$stateUnwindMap$??0CSourceStream@@QEAA@PEADPEAJPEAVCSource@@PEB_W@Z DD 0ffffffffH
	DD	imagerel ?dtor$0@?0???0CSourceStream@@QEAA@PEADPEAJPEAVCSource@@PEB_W@Z@4HA
	DD	00H
	DD	imagerel ?dtor$1@?0???0CSourceStream@@QEAA@PEADPEAJPEAVCSource@@PEB_W@Z@4HA
; Function compile flags: /Odtp /RTCsu
xdata	ENDS
;	COMDAT ??0CSourceStream@@QEAA@PEADPEAJPEAVCSource@@PEB_W@Z
_TEXT	SEGMENT
$T83725 = 48
this$ = 80
pObjectName$ = 88
phr$ = 96
ps$ = 104
pPinName$ = 112
??0CSourceStream@@QEAA@PEADPEAJPEAVCSource@@PEB_W@Z PROC ; CSourceStream::CSourceStream, COMDAT
; Line 239
$LN5:
	mov	QWORD PTR [rsp+32], r9
	mov	QWORD PTR [rsp+24], r8
	mov	QWORD PTR [rsp+16], rdx
	mov	QWORD PTR [rsp+8], rcx
	push	rdi
	sub	rsp, 64					; 00000040H
	mov	rdi, rsp
	mov	ecx, 16
	mov	eax, -858993460				; ccccccccH
	rep stosd
	mov	rcx, QWORD PTR [rsp+80]
	mov	QWORD PTR $T83725[rsp], -2
	mov	rcx, QWORD PTR this$[rsp]
	call	??0CAMThread@@QEAA@XZ			; CAMThread::CAMThread
	npad	1
	mov	rcx, QWORD PTR ps$[rsp]
	call	?pStateLock@CSource@@QEAAPEAVCCritSec@@XZ ; CSource::pStateLock
	mov	rcx, QWORD PTR this$[rsp]
	add	rcx, 152				; 00000098H
	mov	rdx, QWORD PTR pPinName$[rsp]
	mov	QWORD PTR [rsp+40], rdx
	mov	rdx, QWORD PTR phr$[rsp]
	mov	QWORD PTR [rsp+32], rdx
	mov	r9, rax
	mov	r8, QWORD PTR ps$[rsp]
	mov	rdx, QWORD PTR pObjectName$[rsp]
	call	??0CBaseOutputPin@@QEAA@PEADPEAVCBaseFilter@@PEAVCCritSec@@PEAJPEB_W@Z ; CBaseOutputPin::CBaseOutputPin
	npad	1
	mov	rax, QWORD PTR this$[rsp]
	lea	rcx, OFFSET FLAT:??_7CSourceStream@@6B@
	mov	QWORD PTR [rax], rcx
	mov	rax, QWORD PTR this$[rsp]
	lea	rcx, OFFSET FLAT:??_7CSourceStream@@6BCUnknown@@@
	mov	QWORD PTR [rax+152], rcx
	mov	rax, QWORD PTR this$[rsp]
	lea	rcx, OFFSET FLAT:??_7CSourceStream@@6BIPin@@@
	mov	QWORD PTR [rax+184], rcx
	mov	rax, QWORD PTR this$[rsp]
	lea	rcx, OFFSET FLAT:??_7CSourceStream@@6BIQualityControl@@@
	mov	QWORD PTR [rax+192], rcx
	mov	rax, QWORD PTR this$[rsp]
	mov	rcx, QWORD PTR ps$[rsp]
	mov	QWORD PTR [rax+400], rcx
; Line 241
	mov	rdx, QWORD PTR this$[rsp]
	mov	rax, QWORD PTR this$[rsp]
	mov	rcx, QWORD PTR [rax+400]
	call	?AddPin@CSource@@QEAAJPEAVCSourceStream@@@Z ; CSource::AddPin
	mov	rcx, QWORD PTR phr$[rsp]
	mov	DWORD PTR [rcx], eax
; Line 242
	mov	rax, QWORD PTR this$[rsp]
	add	rsp, 64					; 00000040H
	pop	rdi
	ret	0
??0CSourceStream@@QEAA@PEADPEAJPEAVCSource@@PEB_W@Z ENDP ; CSourceStream::CSourceStream
; Function compile flags: /Odtp /RTCsu
_TEXT	ENDS
;	COMDAT text$x
text$x	SEGMENT
$T83725 = 48
this$ = 80
pObjectName$ = 88
phr$ = 96
ps$ = 104
pPinName$ = 112
?dtor$0@?0???0CSourceStream@@QEAA@PEADPEAJPEAVCSource@@PEB_W@Z@4HA PROC ; `CSourceStream::CSourceStream'::`1'::dtor$0
	mov	QWORD PTR [rsp+8], rcx
	mov	QWORD PTR [rsp+16], rdx
	push	rbp
	push	rdi
	sub	rsp, 40					; 00000028H
	mov	rbp, rdx
	mov	rcx, QWORD PTR this$[rbp]
	call	??1CAMThread@@UEAA@XZ			; CAMThread::~CAMThread
	add	rsp, 40					; 00000028H
	pop	rdi
	pop	rbp
	ret	0
?dtor$0@?0???0CSourceStream@@QEAA@PEADPEAJPEAVCSource@@PEB_W@Z@4HA ENDP ; `CSourceStream::CSourceStream'::`1'::dtor$0
; Function compile flags: /Odtp /RTCsu
$T83725 = 48
this$ = 80
pObjectName$ = 88
phr$ = 96
ps$ = 104
pPinName$ = 112
?dtor$1@?0???0CSourceStream@@QEAA@PEADPEAJPEAVCSource@@PEB_W@Z@4HA PROC ; `CSourceStream::CSourceStream'::`1'::dtor$1
	mov	QWORD PTR [rsp+8], rcx
	mov	QWORD PTR [rsp+16], rdx
	push	rbp
	push	rdi
	sub	rsp, 40					; 00000028H
	mov	rbp, rdx
	mov	rcx, QWORD PTR this$[rbp]
	add	rcx, 152				; 00000098H
	call	??1CBaseOutputPin@@UEAA@XZ
	add	rsp, 40					; 00000028H
	pop	rdi
	pop	rbp
	ret	0
?dtor$1@?0???0CSourceStream@@QEAA@PEADPEAJPEAVCSource@@PEB_W@Z@4HA ENDP ; `CSourceStream::CSourceStream'::`1'::dtor$1
text$x	ENDS
;	COMDAT pdata
pdata	SEGMENT
$pdata$??1CSourceStream@@UEAA@XZ DD imagerel $LN5
	DD	imagerel $LN5+170
	DD	imagerel $unwind$??1CSourceStream@@UEAA@XZ
pdata	ENDS
;	COMDAT pdata
pdata	SEGMENT
$pdata$?dtor$0@?0???1CSourceStream@@UEAA@XZ@4HA DD imagerel ?dtor$0@?0???1CSourceStream@@UEAA@XZ@4HA
	DD	imagerel ?dtor$0@?0???1CSourceStream@@UEAA@XZ@4HA+35
	DD	imagerel $unwind$?dtor$0@?0???1CSourceStream@@UEAA@XZ@4HA
pdata	ENDS
;	COMDAT pdata
pdata	SEGMENT
$pdata$?dtor$1@?0???1CSourceStream@@UEAA@XZ@4HA DD imagerel ?dtor$1@?0???1CSourceStream@@UEAA@XZ@4HA
	DD	imagerel ?dtor$1@?0???1CSourceStream@@UEAA@XZ@4HA+42
	DD	imagerel $unwind$?dtor$1@?0???1CSourceStream@@UEAA@XZ@4HA
pdata	ENDS
;	COMDAT xdata
xdata	SEGMENT
$ip2state$??1CSourceStream@@UEAA@XZ DD imagerel ??1CSourceStream@@UEAA@XZ
	DD	0ffffffffH
	DD	imagerel ??1CSourceStream@@UEAA@XZ+111
	DD	01H
	DD	imagerel ??1CSourceStream@@UEAA@XZ+134
	DD	00H
	DD	imagerel ??1CSourceStream@@UEAA@XZ+154
	DD	0ffffffffH
xdata	ENDS
;	COMDAT xdata
xdata	SEGMENT
$unwind$?dtor$1@?0???1CSourceStream@@UEAA@XZ@4HA DD 031001H
	DD	0700c4210H
	DD	0500bH
xdata	ENDS
;	COMDAT xdata
xdata	SEGMENT
$unwind$?dtor$0@?0???1CSourceStream@@UEAA@XZ@4HA DD 031001H
	DD	0700c4210H
	DD	0500bH
xdata	ENDS
;	COMDAT xdata
xdata	SEGMENT
$unwind$??1CSourceStream@@UEAA@XZ DD 022711H
	DD	07006520aH
	DD	imagerel __CxxFrameHandler3
	DD	imagerel $cppxdata$??1CSourceStream@@UEAA@XZ
xdata	ENDS
;	COMDAT CONST
CONST	SEGMENT
$cppxdata$??1CSourceStream@@UEAA@XZ DD 019930522H
	DD	02H
	DD	imagerel $stateUnwindMap$??1CSourceStream@@UEAA@XZ
	DD	00H
	DD	00H
	DD	04H
	DD	imagerel $ip2state$??1CSourceStream@@UEAA@XZ
	DD	020H
	DD	00H
	DD	01H
CONST	ENDS
;	COMDAT xdata
xdata	SEGMENT
$stateUnwindMap$??1CSourceStream@@UEAA@XZ DD 0ffffffffH
	DD	imagerel ?dtor$0@?0???1CSourceStream@@UEAA@XZ@4HA
	DD	00H
	DD	imagerel ?dtor$1@?0???1CSourceStream@@UEAA@XZ@4HA
; Function compile flags: /Odtp /RTCsu
xdata	ENDS
;	COMDAT ??1CSourceStream@@UEAA@XZ
_TEXT	SEGMENT
$T83754 = 32
this$ = 64
??1CSourceStream@@UEAA@XZ PROC				; CSourceStream::~CSourceStream, COMDAT
; Line 248
$LN5:
	mov	QWORD PTR [rsp+8], rcx
	push	rdi
	sub	rsp, 48					; 00000030H
	mov	rdi, rsp
	mov	ecx, 12
	mov	eax, -858993460				; ccccccccH
	rep stosd
	mov	rcx, QWORD PTR [rsp+64]
	mov	QWORD PTR $T83754[rsp], -2
	mov	rax, QWORD PTR this$[rsp]
	lea	rcx, OFFSET FLAT:??_7CSourceStream@@6B@
	mov	QWORD PTR [rax], rcx
	mov	rax, QWORD PTR this$[rsp]
	lea	rcx, OFFSET FLAT:??_7CSourceStream@@6BCUnknown@@@
	mov	QWORD PTR [rax+152], rcx
	mov	rax, QWORD PTR this$[rsp]
	lea	rcx, OFFSET FLAT:??_7CSourceStream@@6BIPin@@@
	mov	QWORD PTR [rax+184], rcx
	mov	rax, QWORD PTR this$[rsp]
	lea	rcx, OFFSET FLAT:??_7CSourceStream@@6BIQualityControl@@@
	mov	QWORD PTR [rax+192], rcx
; Line 250
	mov	rdx, QWORD PTR this$[rsp]
	mov	rax, QWORD PTR this$[rsp]
	mov	rcx, QWORD PTR [rax+400]
	call	?RemovePin@CSource@@QEAAJPEAVCSourceStream@@@Z ; CSource::RemovePin
	npad	1
; Line 251
	mov	rax, QWORD PTR this$[rsp]
	add	rax, 152				; 00000098H
	mov	rcx, rax
	call	??1CBaseOutputPin@@UEAA@XZ
	npad	1
	mov	rcx, QWORD PTR this$[rsp]
	call	??1CAMThread@@UEAA@XZ			; CAMThread::~CAMThread
	add	rsp, 48					; 00000030H
	pop	rdi
	ret	0
??1CSourceStream@@UEAA@XZ ENDP				; CSourceStream::~CSourceStream
; Function compile flags: /Odtp /RTCsu
_TEXT	ENDS
;	COMDAT text$x
text$x	SEGMENT
$T83754 = 32
this$ = 64
?dtor$0@?0???1CSourceStream@@UEAA@XZ@4HA PROC		; `CSourceStream::~CSourceStream'::`1'::dtor$0
	mov	QWORD PTR [rsp+8], rcx
	mov	QWORD PTR [rsp+16], rdx
	push	rbp
	push	rdi
	sub	rsp, 40					; 00000028H
	mov	rbp, rdx
	mov	rcx, QWORD PTR this$[rbp]
	call	??1CAMThread@@UEAA@XZ			; CAMThread::~CAMThread
	add	rsp, 40					; 00000028H
	pop	rdi
	pop	rbp
	ret	0
?dtor$0@?0???1CSourceStream@@UEAA@XZ@4HA ENDP		; `CSourceStream::~CSourceStream'::`1'::dtor$0
; Function compile flags: /Odtp /RTCsu
$T83754 = 32
this$ = 64
?dtor$1@?0???1CSourceStream@@UEAA@XZ@4HA PROC		; `CSourceStream::~CSourceStream'::`1'::dtor$1
	mov	QWORD PTR [rsp+8], rcx
	mov	QWORD PTR [rsp+16], rdx
	push	rbp
	push	rdi
	sub	rsp, 40					; 00000028H
	mov	rbp, rdx
	mov	rcx, QWORD PTR this$[rbp]
	add	rcx, 152				; 00000098H
	call	??1CBaseOutputPin@@UEAA@XZ
	add	rsp, 40					; 00000028H
	pop	rdi
	pop	rbp
	ret	0
?dtor$1@?0???1CSourceStream@@UEAA@XZ@4HA ENDP		; `CSourceStream::~CSourceStream'::`1'::dtor$1
text$x	ENDS
PUBLIC	__$ArrayPad$
EXTRN	__GSHandlerCheck_EH:PROC
EXTRN	??1CMediaType@@QEAA@XZ:PROC			; CMediaType::~CMediaType
EXTRN	??8CMediaType@@QEBAHAEBV0@@Z:PROC		; CMediaType::operator==
EXTRN	??0CMediaType@@QEAA@XZ:PROC			; CMediaType::CMediaType
EXTRN	__security_cookie:QWORD
EXTRN	__security_check_cookie:PROC
;	COMDAT pdata
pdata	SEGMENT
$pdata$?CheckMediaType@CSourceStream@@MEAAJPEBVCMediaType@@@Z DD imagerel $LN6
	DD	imagerel $LN6+320
	DD	imagerel $unwind$?CheckMediaType@CSourceStream@@MEAAJPEBVCMediaType@@@Z
pdata	ENDS
;	COMDAT pdata
pdata	SEGMENT
$pdata$?dtor$0@?0??CheckMediaType@CSourceStream@@MEAAJPEBVCMediaType@@@Z@4HA DD imagerel ?dtor$0@?0??CheckMediaType@CSourceStream@@MEAAJPEBVCMediaType@@@Z@4HA
	DD	imagerel ?dtor$0@?0??CheckMediaType@CSourceStream@@MEAAJPEBVCMediaType@@@Z@4HA+35
	DD	imagerel $unwind$?dtor$0@?0??CheckMediaType@CSourceStream@@MEAAJPEBVCMediaType@@@Z@4HA
pdata	ENDS
;	COMDAT pdata
pdata	SEGMENT
$pdata$?dtor$1@?0??CheckMediaType@CSourceStream@@MEAAJPEBVCMediaType@@@Z@4HA DD imagerel ?dtor$1@?0??CheckMediaType@CSourceStream@@MEAAJPEBVCMediaType@@@Z@4HA
	DD	imagerel ?dtor$1@?0??CheckMediaType@CSourceStream@@MEAAJPEBVCMediaType@@@Z@4HA+35
	DD	imagerel $unwind$?dtor$1@?0??CheckMediaType@CSourceStream@@MEAAJPEBVCMediaType@@@Z@4HA
pdata	ENDS
;	COMDAT xdata
xdata	SEGMENT
$ip2state$?CheckMediaType@CSourceStream@@MEAAJPEBVCMediaType@@@Z DD imagerel ?CheckMediaType@CSourceStream@@MEAAJPEBVCMediaType@@@Z
	DD	0ffffffffH
	DD	imagerel ?CheckMediaType@CSourceStream@@MEAAJPEBVCMediaType@@@Z+105
	DD	00H
	DD	imagerel ?CheckMediaType@CSourceStream@@MEAAJPEBVCMediaType@@@Z+116
	DD	01H
	DD	imagerel ?CheckMediaType@CSourceStream@@MEAAJPEBVCMediaType@@@Z+205
	DD	00H
	DD	imagerel ?CheckMediaType@CSourceStream@@MEAAJPEBVCMediaType@@@Z+216
	DD	0ffffffffH
	DD	imagerel ?CheckMediaType@CSourceStream@@MEAAJPEBVCMediaType@@@Z+235
	DD	01H
	DD	imagerel ?CheckMediaType@CSourceStream@@MEAAJPEBVCMediaType@@@Z+246
	DD	00H
	DD	imagerel ?CheckMediaType@CSourceStream@@MEAAJPEBVCMediaType@@@Z+257
	DD	0ffffffffH
xdata	ENDS
;	COMDAT xdata
xdata	SEGMENT
$unwind$?dtor$1@?0??CheckMediaType@CSourceStream@@MEAAJPEBVCMediaType@@@Z@4HA DD 031001H
	DD	0700c4210H
	DD	0500bH
xdata	ENDS
;	COMDAT xdata
xdata	SEGMENT
$unwind$?dtor$0@?0??CheckMediaType@CSourceStream@@MEAAJPEBVCMediaType@@@Z@4HA DD 031001H
	DD	0700c4210H
	DD	0500bH
xdata	ENDS
;	COMDAT xdata
xdata	SEGMENT
$unwind$?CheckMediaType@CSourceStream@@MEAAJPEBVCMediaType@@@Z DD 034719H
	DD	01c0112H
	DD	0700bH
	DD	imagerel __GSHandlerCheck_EH
	DD	imagerel $cppxdata$?CheckMediaType@CSourceStream@@MEAAJPEBVCMediaType@@@Z
	DD	0daH
xdata	ENDS
;	COMDAT xdata
xdata	SEGMENT
$stateUnwindMap$?CheckMediaType@CSourceStream@@MEAAJPEBVCMediaType@@@Z DD 0ffffffffH
	DD	imagerel ?dtor$0@?0??CheckMediaType@CSourceStream@@MEAAJPEBVCMediaType@@@Z@4HA
	DD	00H
	DD	imagerel ?dtor$1@?0??CheckMediaType@CSourceStream@@MEAAJPEBVCMediaType@@@Z@4HA
xdata	ENDS
;	COMDAT CONST
CONST	SEGMENT
?CheckMediaType@CSourceStream@@MEAAJPEBVCMediaType@@@Z$rtcName$0 DB 06cH ; CSourceStream::CheckMediaType
	DB	06fH
	DB	063H
	DB	06bH
	DB	00H
	ORG $+3
?CheckMediaType@CSourceStream@@MEAAJPEBVCMediaType@@@Z$rtcName$1 DB 06dH ; CSourceStream::CheckMediaType
	DB	074H
	DB	00H
	ORG $+5
?CheckMediaType@CSourceStream@@MEAAJPEBVCMediaType@@@Z$rtcVarDesc DD 050H ; CSourceStream::CheckMediaType
	DD	058H
	DQ	FLAT:?CheckMediaType@CSourceStream@@MEAAJPEBVCMediaType@@@Z$rtcName$1
	DD	028H
	DD	08H
	DQ	FLAT:?CheckMediaType@CSourceStream@@MEAAJPEBVCMediaType@@@Z$rtcName$0
	ORG $+96
?CheckMediaType@CSourceStream@@MEAAJPEBVCMediaType@@@Z$rtcFrameData DD 02H ; CSourceStream::CheckMediaType
	DD	00H
	DQ	FLAT:?CheckMediaType@CSourceStream@@MEAAJPEBVCMediaType@@@Z$rtcVarDesc
$cppxdata$?CheckMediaType@CSourceStream@@MEAAJPEBVCMediaType@@@Z DD 019930522H
	DD	02H
	DD	imagerel $stateUnwindMap$?CheckMediaType@CSourceStream@@MEAAJPEBVCMediaType@@@Z
	DD	00H
	DD	00H
	DD	08H
	DD	imagerel $ip2state$?CheckMediaType@CSourceStream@@MEAAJPEBVCMediaType@@@Z
	DD	0c8H
	DD	00H
	DD	01H
; Function compile flags: /Odtp /RTCsu
CONST	ENDS
;	COMDAT ?CheckMediaType@CSourceStream@@MEAAJPEBVCMediaType@@@Z
_TEXT	SEGMENT
lock$ = 40
mt$ = 80
$T83777 = 192
$T83778 = 196
$T83786 = 200
tv73 = 208
__$ArrayPad$ = 216
this$ = 240
pMediaType$ = 248
?CheckMediaType@CSourceStream@@MEAAJPEBVCMediaType@@@Z PROC ; CSourceStream::CheckMediaType, COMDAT
; Line 258
$LN6:
	mov	QWORD PTR [rsp+16], rdx
	mov	QWORD PTR [rsp+8], rcx
	push	rdi
	sub	rsp, 224				; 000000e0H
	mov	rdi, rsp
	mov	ecx, 56					; 00000038H
	mov	eax, -858993460				; ccccccccH
	rep stosd
	mov	rcx, QWORD PTR [rsp+240]
	mov	QWORD PTR $T83786[rsp], -2
	mov	rax, QWORD PTR __security_cookie
	xor	rax, rsp
	mov	QWORD PTR __$ArrayPad$[rsp], rax
; Line 260
	mov	rax, QWORD PTR this$[rsp]
	mov	rcx, QWORD PTR [rax+248]
	call	?pStateLock@CSource@@QEAAPEAVCCritSec@@XZ ; CSource::pStateLock
	mov	rdx, rax
	lea	rcx, QWORD PTR lock$[rsp]
	call	??0CAutoLock@@QEAA@PEAVCCritSec@@@Z	; CAutoLock::CAutoLock
	npad	1
; Line 262
	lea	rcx, QWORD PTR mt$[rsp]
	call	??0CMediaType@@QEAA@XZ			; CMediaType::CMediaType
	npad	1
; Line 263
	mov	rax, QWORD PTR this$[rsp]
	sub	rax, 152				; 00000098H
	mov	rcx, QWORD PTR this$[rsp]
	mov	rcx, QWORD PTR [rcx-152]
	mov	QWORD PTR tv73[rsp], rcx
	lea	rdx, QWORD PTR mt$[rsp]
	mov	rcx, rax
	mov	rax, QWORD PTR tv73[rsp]
	call	QWORD PTR [rax+56]
; Line 265
	mov	rdx, QWORD PTR pMediaType$[rsp]
	lea	rcx, QWORD PTR mt$[rsp]
	call	??8CMediaType@@QEBAHAEBV0@@Z		; CMediaType::operator==
	test	eax, eax
	je	SHORT $LN1@CheckMedia
; Line 266
	mov	DWORD PTR $T83777[rsp], 0
	lea	rcx, QWORD PTR mt$[rsp]
	call	??1CMediaType@@QEAA@XZ			; CMediaType::~CMediaType
	npad	1
	lea	rcx, QWORD PTR lock$[rsp]
	call	??1CAutoLock@@QEAA@XZ			; CAutoLock::~CAutoLock
	mov	eax, DWORD PTR $T83777[rsp]
	jmp	SHORT $LN2@CheckMedia
$LN1@CheckMedia:
; Line 269
	mov	DWORD PTR $T83778[rsp], -2147467259	; ffffffff80004005H
	lea	rcx, QWORD PTR mt$[rsp]
	call	??1CMediaType@@QEAA@XZ			; CMediaType::~CMediaType
	npad	1
	lea	rcx, QWORD PTR lock$[rsp]
	call	??1CAutoLock@@QEAA@XZ			; CAutoLock::~CAutoLock
	mov	eax, DWORD PTR $T83778[rsp]
$LN2@CheckMedia:
; Line 270
	mov	rdi, rax
	mov	rcx, rsp
	lea	rdx, OFFSET FLAT:?CheckMediaType@CSourceStream@@MEAAJPEBVCMediaType@@@Z$rtcFrameData
	call	_RTC_CheckStackVars
	mov	rax, rdi
	mov	rcx, QWORD PTR __$ArrayPad$[rsp]
	xor	rcx, rsp
	call	__security_check_cookie
	add	rsp, 224				; 000000e0H
	pop	rdi
	ret	0
?CheckMediaType@CSourceStream@@MEAAJPEBVCMediaType@@@Z ENDP ; CSourceStream::CheckMediaType
; Function compile flags: /Odtp /RTCsu
_TEXT	ENDS
;	COMDAT text$x
text$x	SEGMENT
lock$ = 40
mt$ = 80
$T83777 = 192
$T83778 = 196
$T83786 = 200
tv73 = 208
__$ArrayPad$ = 216
this$ = 240
pMediaType$ = 248
?dtor$0@?0??CheckMediaType@CSourceStream@@MEAAJPEBVCMediaType@@@Z@4HA PROC ; `CSourceStream::CheckMediaType'::`1'::dtor$0
	mov	QWORD PTR [rsp+8], rcx
	mov	QWORD PTR [rsp+16], rdx
	push	rbp
	push	rdi
	sub	rsp, 40					; 00000028H
	mov	rbp, rdx
	lea	rcx, QWORD PTR lock$[rbp]
	call	??1CAutoLock@@QEAA@XZ			; CAutoLock::~CAutoLock
	add	rsp, 40					; 00000028H
	pop	rdi
	pop	rbp
	ret	0
?dtor$0@?0??CheckMediaType@CSourceStream@@MEAAJPEBVCMediaType@@@Z@4HA ENDP ; `CSourceStream::CheckMediaType'::`1'::dtor$0
; Function compile flags: /Odtp /RTCsu
lock$ = 40
mt$ = 80
$T83777 = 192
$T83778 = 196
$T83786 = 200
tv73 = 208
__$ArrayPad$ = 216
this$ = 240
pMediaType$ = 248
?dtor$1@?0??CheckMediaType@CSourceStream@@MEAAJPEBVCMediaType@@@Z@4HA PROC ; `CSourceStream::CheckMediaType'::`1'::dtor$1
	mov	QWORD PTR [rsp+8], rcx
	mov	QWORD PTR [rsp+16], rdx
	push	rbp
	push	rdi
	sub	rsp, 40					; 00000028H
	mov	rbp, rdx
	lea	rcx, QWORD PTR mt$[rbp]
	call	??1CMediaType@@QEAA@XZ			; CMediaType::~CMediaType
	add	rsp, 40					; 00000028H
	pop	rdi
	pop	rbp
	ret	0
?dtor$1@?0??CheckMediaType@CSourceStream@@MEAAJPEBVCMediaType@@@Z@4HA ENDP ; `CSourceStream::CheckMediaType'::`1'::dtor$1
text$x	ENDS
;	COMDAT pdata
pdata	SEGMENT
$pdata$?GetMediaType@CSourceStream@@MEAAJHPEAVCMediaType@@@Z DD imagerel $LN6
	DD	imagerel $LN6+230
	DD	imagerel $unwind$?GetMediaType@CSourceStream@@MEAAJHPEAVCMediaType@@@Z
pdata	ENDS
;	COMDAT pdata
pdata	SEGMENT
$pdata$?dtor$0@?0??GetMediaType@CSourceStream@@MEAAJHPEAVCMediaType@@@Z@4HA DD imagerel ?dtor$0@?0??GetMediaType@CSourceStream@@MEAAJHPEAVCMediaType@@@Z@4HA
	DD	imagerel ?dtor$0@?0??GetMediaType@CSourceStream@@MEAAJHPEAVCMediaType@@@Z@4HA+35
	DD	imagerel $unwind$?dtor$0@?0??GetMediaType@CSourceStream@@MEAAJHPEAVCMediaType@@@Z@4HA
pdata	ENDS
;	COMDAT xdata
xdata	SEGMENT
$ip2state$?GetMediaType@CSourceStream@@MEAAJHPEAVCMediaType@@@Z DD imagerel ?GetMediaType@CSourceStream@@MEAAJHPEAVCMediaType@@@Z
	DD	0ffffffffH
	DD	imagerel ?GetMediaType@CSourceStream@@MEAAJHPEAVCMediaType@@@Z+79
	DD	00H
	DD	imagerel ?GetMediaType@CSourceStream@@MEAAJHPEAVCMediaType@@@Z+94
	DD	0ffffffffH
	DD	imagerel ?GetMediaType@CSourceStream@@MEAAJHPEAVCMediaType@@@Z+110
	DD	00H
	DD	imagerel ?GetMediaType@CSourceStream@@MEAAJHPEAVCMediaType@@@Z+125
	DD	0ffffffffH
	DD	imagerel ?GetMediaType@CSourceStream@@MEAAJHPEAVCMediaType@@@Z+141
	DD	00H
	DD	imagerel ?GetMediaType@CSourceStream@@MEAAJHPEAVCMediaType@@@Z+189
	DD	0ffffffffH
xdata	ENDS
;	COMDAT xdata
xdata	SEGMENT
$unwind$?dtor$0@?0??GetMediaType@CSourceStream@@MEAAJHPEAVCMediaType@@@Z@4HA DD 031001H
	DD	0700c4210H
	DD	0500bH
xdata	ENDS
;	COMDAT xdata
xdata	SEGMENT
$unwind$?GetMediaType@CSourceStream@@MEAAJHPEAVCMediaType@@@Z DD 023011H
	DD	0700f9213H
	DD	imagerel __CxxFrameHandler3
	DD	imagerel $cppxdata$?GetMediaType@CSourceStream@@MEAAJHPEAVCMediaType@@@Z
xdata	ENDS
;	COMDAT xdata
xdata	SEGMENT
$stateUnwindMap$?GetMediaType@CSourceStream@@MEAAJHPEAVCMediaType@@@Z DD 0ffffffffH
	DD	imagerel ?dtor$0@?0??GetMediaType@CSourceStream@@MEAAJHPEAVCMediaType@@@Z@4HA
xdata	ENDS
;	COMDAT CONST
CONST	SEGMENT
?GetMediaType@CSourceStream@@MEAAJHPEAVCMediaType@@@Z$rtcName$0 DB 06cH ; CSourceStream::GetMediaType
	DB	06fH
	DB	063H
	DB	06bH
	DB	00H
	ORG $+11
?GetMediaType@CSourceStream@@MEAAJHPEAVCMediaType@@@Z$rtcVarDesc DD 028H ; CSourceStream::GetMediaType
	DD	08H
	DQ	FLAT:?GetMediaType@CSourceStream@@MEAAJHPEAVCMediaType@@@Z$rtcName$0
	ORG $+48
?GetMediaType@CSourceStream@@MEAAJHPEAVCMediaType@@@Z$rtcFrameData DD 01H ; CSourceStream::GetMediaType
	DD	00H
	DQ	FLAT:?GetMediaType@CSourceStream@@MEAAJHPEAVCMediaType@@@Z$rtcVarDesc
$cppxdata$?GetMediaType@CSourceStream@@MEAAJHPEAVCMediaType@@@Z DD 019930522H
	DD	01H
	DD	imagerel $stateUnwindMap$?GetMediaType@CSourceStream@@MEAAJHPEAVCMediaType@@@Z
	DD	00H
	DD	00H
	DD	07H
	DD	imagerel $ip2state$?GetMediaType@CSourceStream@@MEAAJHPEAVCMediaType@@@Z
	DD	040H
	DD	00H
	DD	01H
; Function compile flags: /Odtp /RTCsu
CONST	ENDS
;	COMDAT ?GetMediaType@CSourceStream@@MEAAJHPEAVCMediaType@@@Z
_TEXT	SEGMENT
lock$ = 40
$T83815 = 52
$T83816 = 56
$T83817 = 60
$T83823 = 64
tv65 = 72
this$ = 96
iPosition$ = 104
pMediaType$ = 112
?GetMediaType@CSourceStream@@MEAAJHPEAVCMediaType@@@Z PROC ; CSourceStream::GetMediaType, COMDAT
; Line 278
$LN6:
	mov	QWORD PTR [rsp+24], r8
	mov	DWORD PTR [rsp+16], edx
	mov	QWORD PTR [rsp+8], rcx
	push	rdi
	sub	rsp, 80					; 00000050H
	mov	rdi, rsp
	mov	ecx, 20
	mov	eax, -858993460				; ccccccccH
	rep stosd
	mov	rcx, QWORD PTR [rsp+96]
	mov	QWORD PTR $T83823[rsp], -2
; Line 280
	mov	rax, QWORD PTR this$[rsp]
	mov	rcx, QWORD PTR [rax+248]
	call	?pStateLock@CSource@@QEAAPEAVCCritSec@@XZ ; CSource::pStateLock
	mov	rdx, rax
	lea	rcx, QWORD PTR lock$[rsp]
	call	??0CAutoLock@@QEAA@PEAVCCritSec@@@Z	; CAutoLock::CAutoLock
	npad	1
; Line 282
	cmp	DWORD PTR iPosition$[rsp], 0
	jge	SHORT $LN2@GetMediaTy
; Line 283
	mov	DWORD PTR $T83815[rsp], -2147024809	; ffffffff80070057H
	lea	rcx, QWORD PTR lock$[rsp]
	call	??1CAutoLock@@QEAA@XZ			; CAutoLock::~CAutoLock
	mov	eax, DWORD PTR $T83815[rsp]
	jmp	SHORT $LN3@GetMediaTy
$LN2@GetMediaTy:
; Line 285
	cmp	DWORD PTR iPosition$[rsp], 0
	jle	SHORT $LN1@GetMediaTy
; Line 286
	mov	DWORD PTR $T83816[rsp], 262403		; 00040103H
	lea	rcx, QWORD PTR lock$[rsp]
	call	??1CAutoLock@@QEAA@XZ			; CAutoLock::~CAutoLock
	mov	eax, DWORD PTR $T83816[rsp]
	jmp	SHORT $LN3@GetMediaTy
$LN1@GetMediaTy:
; Line 288
	mov	rax, QWORD PTR this$[rsp]
	sub	rax, 152				; 00000098H
	mov	rcx, QWORD PTR this$[rsp]
	mov	rcx, QWORD PTR [rcx-152]
	mov	QWORD PTR tv65[rsp], rcx
	mov	rdx, QWORD PTR pMediaType$[rsp]
	mov	rcx, rax
	mov	rax, QWORD PTR tv65[rsp]
	call	QWORD PTR [rax+56]
	mov	DWORD PTR $T83817[rsp], eax
	lea	rcx, QWORD PTR lock$[rsp]
	call	??1CAutoLock@@QEAA@XZ			; CAutoLock::~CAutoLock
	mov	eax, DWORD PTR $T83817[rsp]
$LN3@GetMediaTy:
; Line 289
	mov	rdi, rax
	mov	rcx, rsp
	lea	rdx, OFFSET FLAT:?GetMediaType@CSourceStream@@MEAAJHPEAVCMediaType@@@Z$rtcFrameData
	call	_RTC_CheckStackVars
	mov	rax, rdi
	add	rsp, 80					; 00000050H
	pop	rdi
	ret	0
?GetMediaType@CSourceStream@@MEAAJHPEAVCMediaType@@@Z ENDP ; CSourceStream::GetMediaType
; Function compile flags: /Odtp /RTCsu
_TEXT	ENDS
;	COMDAT text$x
text$x	SEGMENT
lock$ = 40
$T83815 = 52
$T83816 = 56
$T83817 = 60
$T83823 = 64
tv65 = 72
this$ = 96
iPosition$ = 104
pMediaType$ = 112
?dtor$0@?0??GetMediaType@CSourceStream@@MEAAJHPEAVCMediaType@@@Z@4HA PROC ; `CSourceStream::GetMediaType'::`1'::dtor$0
	mov	QWORD PTR [rsp+8], rcx
	mov	QWORD PTR [rsp+16], rdx
	push	rbp
	push	rdi
	sub	rsp, 40					; 00000028H
	mov	rbp, rdx
	lea	rcx, QWORD PTR lock$[rbp]
	call	??1CAutoLock@@QEAA@XZ			; CAutoLock::~CAutoLock
	add	rsp, 40					; 00000028H
	pop	rdi
	pop	rbp
	ret	0
?dtor$0@?0??GetMediaType@CSourceStream@@MEAAJHPEAVCMediaType@@@Z@4HA ENDP ; `CSourceStream::GetMediaType'::`1'::dtor$0
text$x	ENDS
PUBLIC	?Pause@CSourceStream@@QEAAJXZ			; CSourceStream::Pause
PUBLIC	?Init@CSourceStream@@QEAAJXZ			; CSourceStream::Init
PUBLIC	?ThreadExists@CAMThread@@QEBAHXZ		; CAMThread::ThreadExists
PUBLIC	?IsConnected@CBasePin@@QEAAHXZ			; CBasePin::IsConnected
PUBLIC	?IsActive@CBaseFilter@@QEAAHXZ			; CBaseFilter::IsActive
EXTRN	?Create@CAMThread@@QEAAHXZ:PROC			; CAMThread::Create
EXTRN	?Active@CBaseOutputPin@@UEAAJXZ:PROC		; CBaseOutputPin::Active
;	COMDAT pdata
pdata	SEGMENT
$pdata$?Active@CSourceStream@@MEAAJXZ DD imagerel $LN10
	DD	imagerel $LN10+426
	DD	imagerel $unwind$?Active@CSourceStream@@MEAAJXZ
pdata	ENDS
;	COMDAT pdata
pdata	SEGMENT
$pdata$?dtor$0@?0??Active@CSourceStream@@MEAAJXZ@4HA DD imagerel ?dtor$0@?0??Active@CSourceStream@@MEAAJXZ@4HA
	DD	imagerel ?dtor$0@?0??Active@CSourceStream@@MEAAJXZ@4HA+35
	DD	imagerel $unwind$?dtor$0@?0??Active@CSourceStream@@MEAAJXZ@4HA
pdata	ENDS
;	COMDAT xdata
xdata	SEGMENT
$ip2state$?Active@CSourceStream@@MEAAJXZ DD imagerel ?Active@CSourceStream@@MEAAJXZ
	DD	0ffffffffH
	DD	imagerel ?Active@CSourceStream@@MEAAJXZ+70
	DD	00H
	DD	imagerel ?Active@CSourceStream@@MEAAJXZ+99
	DD	0ffffffffH
	DD	imagerel ?Active@CSourceStream@@MEAAJXZ+118
	DD	00H
	DD	imagerel ?Active@CSourceStream@@MEAAJXZ+143
	DD	0ffffffffH
	DD	imagerel ?Active@CSourceStream@@MEAAJXZ+162
	DD	00H
	DD	imagerel ?Active@CSourceStream@@MEAAJXZ+194
	DD	0ffffffffH
	DD	imagerel ?Active@CSourceStream@@MEAAJXZ+213
	DD	00H
	DD	imagerel ?Active@CSourceStream@@MEAAJXZ+292
	DD	0ffffffffH
	DD	imagerel ?Active@CSourceStream@@MEAAJXZ+308
	DD	00H
	DD	imagerel ?Active@CSourceStream@@MEAAJXZ+346
	DD	0ffffffffH
	DD	imagerel ?Active@CSourceStream@@MEAAJXZ+362
	DD	00H
	DD	imagerel ?Active@CSourceStream@@MEAAJXZ+385
	DD	0ffffffffH
xdata	ENDS
;	COMDAT xdata
xdata	SEGMENT
$unwind$?dtor$0@?0??Active@CSourceStream@@MEAAJXZ@4HA DD 031001H
	DD	0700c4210H
	DD	0500bH
xdata	ENDS
;	COMDAT xdata
xdata	SEGMENT
$unwind$?Active@CSourceStream@@MEAAJXZ DD 022711H
	DD	07006b20aH
	DD	imagerel __CxxFrameHandler3
	DD	imagerel $cppxdata$?Active@CSourceStream@@MEAAJXZ
xdata	ENDS
;	COMDAT xdata
xdata	SEGMENT
$stateUnwindMap$?Active@CSourceStream@@MEAAJXZ DD 0ffffffffH
	DD	imagerel ?dtor$0@?0??Active@CSourceStream@@MEAAJXZ@4HA
xdata	ENDS
;	COMDAT CONST
CONST	SEGMENT
?Active@CSourceStream@@MEAAJXZ$rtcName$0 DB 06cH	; CSourceStream::Active
	DB	06fH
	DB	063H
	DB	06bH
	DB	00H
	ORG $+11
?Active@CSourceStream@@MEAAJXZ$rtcVarDesc DD 028H	; CSourceStream::Active
	DD	08H
	DQ	FLAT:?Active@CSourceStream@@MEAAJXZ$rtcName$0
	ORG $+48
?Active@CSourceStream@@MEAAJXZ$rtcFrameData DD 01H	; CSourceStream::Active
	DD	00H
	DQ	FLAT:?Active@CSourceStream@@MEAAJXZ$rtcVarDesc
$cppxdata$?Active@CSourceStream@@MEAAJXZ DD 019930522H
	DD	01H
	DD	imagerel $stateUnwindMap$?Active@CSourceStream@@MEAAJXZ
	DD	00H
	DD	00H
	DD	0dH
	DD	imagerel $ip2state$?Active@CSourceStream@@MEAAJXZ
	DD	050H
	DD	00H
	DD	01H
; Function compile flags: /Odtp /RTCsu
CONST	ENDS
;	COMDAT ?Active@CSourceStream@@MEAAJXZ
_TEXT	SEGMENT
lock$ = 40
hr$ = 52
$T83844 = 56
$T83845 = 60
$T83846 = 64
$T83847 = 68
$T83848 = 72
$T83849 = 76
$T83855 = 80
this$ = 112
?Active@CSourceStream@@MEAAJXZ PROC			; CSourceStream::Active, COMDAT
; Line 296
$LN10:
	mov	QWORD PTR [rsp+8], rcx
	push	rdi
	sub	rsp, 96					; 00000060H
	mov	rdi, rsp
	mov	ecx, 24
	mov	eax, -858993460				; ccccccccH
	rep stosd
	mov	rcx, QWORD PTR [rsp+112]
	mov	QWORD PTR $T83855[rsp], -2
; Line 298
	mov	rax, QWORD PTR this$[rsp]
	mov	rcx, QWORD PTR [rax+248]
	call	?pStateLock@CSource@@QEAAPEAVCCritSec@@XZ ; CSource::pStateLock
	mov	rdx, rax
	lea	rcx, QWORD PTR lock$[rsp]
	call	??0CAutoLock@@QEAA@PEAVCCritSec@@@Z	; CAutoLock::CAutoLock
	npad	1
; Line 302
	mov	rax, QWORD PTR this$[rsp]
	mov	rcx, QWORD PTR [rax+248]
	call	?IsActive@CBaseFilter@@QEAAHXZ		; CBaseFilter::IsActive
	test	eax, eax
	je	SHORT $LN6@Active
; Line 303
	mov	DWORD PTR $T83844[rsp], 1
	lea	rcx, QWORD PTR lock$[rsp]
	call	??1CAutoLock@@QEAA@XZ			; CAutoLock::~CAutoLock
	mov	eax, DWORD PTR $T83844[rsp]
	jmp	$LN7@Active
$LN6@Active:
; Line 308
	mov	rax, QWORD PTR this$[rsp]
	mov	rcx, rax
	call	?IsConnected@CBasePin@@QEAAHXZ		; CBasePin::IsConnected
	test	eax, eax
	jne	SHORT $LN5@Active
; Line 309
	mov	DWORD PTR $T83845[rsp], 0
	lea	rcx, QWORD PTR lock$[rsp]
	call	??1CAutoLock@@QEAA@XZ			; CAutoLock::~CAutoLock
	mov	eax, DWORD PTR $T83845[rsp]
	jmp	$LN7@Active
$LN5@Active:
; Line 312
	mov	rax, QWORD PTR this$[rsp]
	mov	rcx, rax
	call	?Active@CBaseOutputPin@@UEAAJXZ		; CBaseOutputPin::Active
	mov	DWORD PTR hr$[rsp], eax
; Line 313
	cmp	DWORD PTR hr$[rsp], 0
	jge	SHORT $LN4@Active
; Line 314
	mov	eax, DWORD PTR hr$[rsp]
	mov	DWORD PTR $T83846[rsp], eax
	lea	rcx, QWORD PTR lock$[rsp]
	call	??1CAutoLock@@QEAA@XZ			; CAutoLock::~CAutoLock
	mov	eax, DWORD PTR $T83846[rsp]
	jmp	$LN7@Active
$LN4@Active:
; Line 317
	mov	rax, QWORD PTR this$[rsp]
	sub	rax, 152				; 00000098H
	mov	rcx, rax
	call	?ThreadExists@CAMThread@@QEBAHXZ	; CAMThread::ThreadExists
	test	eax, eax
	je	SHORT $LN3@Active
	mov	r8d, 317				; 0000013dH
	lea	rdx, OFFSET FLAT:$SG82434
	lea	rcx, OFFSET FLAT:$SG82435
	call	?DbgAssert@@YAXPEB_W0H@Z		; DbgAssert
$LN3@Active:
; Line 320
	mov	rax, QWORD PTR this$[rsp]
	sub	rax, 152				; 00000098H
	mov	rcx, rax
	call	?Create@CAMThread@@QEAAHXZ		; CAMThread::Create
	test	eax, eax
	jne	SHORT $LN2@Active
; Line 321
	mov	DWORD PTR $T83847[rsp], -2147467259	; ffffffff80004005H
	lea	rcx, QWORD PTR lock$[rsp]
	call	??1CAutoLock@@QEAA@XZ			; CAutoLock::~CAutoLock
	mov	eax, DWORD PTR $T83847[rsp]
	jmp	SHORT $LN7@Active
$LN2@Active:
; Line 325
	mov	rax, QWORD PTR this$[rsp]
	sub	rax, 152				; 00000098H
	mov	rcx, rax
	call	?Init@CSourceStream@@QEAAJXZ		; CSourceStream::Init
	mov	DWORD PTR hr$[rsp], eax
; Line 326
	cmp	DWORD PTR hr$[rsp], 0
	jge	SHORT $LN1@Active
; Line 327
	mov	eax, DWORD PTR hr$[rsp]
	mov	DWORD PTR $T83848[rsp], eax
	lea	rcx, QWORD PTR lock$[rsp]
	call	??1CAutoLock@@QEAA@XZ			; CAutoLock::~CAutoLock
	mov	eax, DWORD PTR $T83848[rsp]
	jmp	SHORT $LN7@Active
$LN1@Active:
; Line 329
	mov	rax, QWORD PTR this$[rsp]
	sub	rax, 152				; 00000098H
	mov	rcx, rax
	call	?Pause@CSourceStream@@QEAAJXZ		; CSourceStream::Pause
	mov	DWORD PTR $T83849[rsp], eax
	lea	rcx, QWORD PTR lock$[rsp]
	call	??1CAutoLock@@QEAA@XZ			; CAutoLock::~CAutoLock
	mov	eax, DWORD PTR $T83849[rsp]
$LN7@Active:
; Line 330
	mov	rdi, rax
	mov	rcx, rsp
	lea	rdx, OFFSET FLAT:?Active@CSourceStream@@MEAAJXZ$rtcFrameData
	call	_RTC_CheckStackVars
	mov	rax, rdi
	add	rsp, 96					; 00000060H
	pop	rdi
	ret	0
?Active@CSourceStream@@MEAAJXZ ENDP			; CSourceStream::Active
; Function compile flags: /Odtp /RTCsu
_TEXT	ENDS
;	COMDAT text$x
text$x	SEGMENT
lock$ = 40
hr$ = 52
$T83844 = 56
$T83845 = 60
$T83846 = 64
$T83847 = 68
$T83848 = 72
$T83849 = 76
$T83855 = 80
this$ = 112
?dtor$0@?0??Active@CSourceStream@@MEAAJXZ@4HA PROC	; `CSourceStream::Active'::`1'::dtor$0
	mov	QWORD PTR [rsp+8], rcx
	mov	QWORD PTR [rsp+16], rdx
	push	rbp
	push	rdi
	sub	rsp, 40					; 00000028H
	mov	rbp, rdx
	lea	rcx, QWORD PTR lock$[rbp]
	call	??1CAutoLock@@QEAA@XZ			; CAutoLock::~CAutoLock
	add	rsp, 40					; 00000028H
	pop	rdi
	pop	rbp
	ret	0
?dtor$0@?0??Active@CSourceStream@@MEAAJXZ@4HA ENDP	; `CSourceStream::Active'::`1'::dtor$0
text$x	ENDS
;	COMDAT pdata
; File c:\downloads\wpf mediakit - copy\src\filters\baseclasses\wxutil.h
pdata	SEGMENT
$pdata$?ThreadExists@CAMThread@@QEBAHXZ DD imagerel $LN5
	DD	imagerel $LN5+31
	DD	imagerel $unwind$?ThreadExists@CAMThread@@QEBAHXZ
pdata	ENDS
;	COMDAT xdata
xdata	SEGMENT
$unwind$?ThreadExists@CAMThread@@QEBAHXZ DD 010601H
	DD	07006H
; Function compile flags: /Odtp /RTCsu
xdata	ENDS
;	COMDAT ?ThreadExists@CAMThread@@QEBAHXZ
_TEXT	SEGMENT
this$ = 16
?ThreadExists@CAMThread@@QEBAHXZ PROC			; CAMThread::ThreadExists, COMDAT
; Line 205
$LN5:
	mov	QWORD PTR [rsp+8], rcx
	push	rdi
; Line 206
	mov	rax, QWORD PTR this$[rsp]
	cmp	QWORD PTR [rax+32], 0
	jne	SHORT $LN2@ThreadExis
; Line 207
	xor	eax, eax
	jmp	SHORT $LN3@ThreadExis
; Line 208
	jmp	SHORT $LN1@ThreadExis
$LN2@ThreadExis:
; Line 209
	mov	eax, 1
$LN1@ThreadExis:
$LN3@ThreadExis:
; Line 211
	pop	rdi
	ret	0
?ThreadExists@CAMThread@@QEBAHXZ ENDP			; CAMThread::ThreadExists
_TEXT	ENDS
;	COMDAT pdata
; File c:\downloads\wpf mediakit - copy\src\filters\baseclasses\amfilter.h
pdata	SEGMENT
$pdata$?IsActive@CBaseFilter@@QEAAHXZ DD imagerel $LN6
	DD	imagerel $LN6+136
	DD	imagerel $unwind$?IsActive@CBaseFilter@@QEAAHXZ
pdata	ENDS
;	COMDAT xdata
xdata	SEGMENT
$unwind$?IsActive@CBaseFilter@@QEAAHXZ DD 021e01H
	DD	07006720aH
xdata	ENDS
;	COMDAT CONST
CONST	SEGMENT
?IsActive@CBaseFilter@@QEAAHXZ$rtcName$0 DB 063H	; CBaseFilter::IsActive
	DB	04fH
	DB	062H
	DB	06aH
	DB	065H
	DB	063H
	DB	074H
	DB	04cH
	DB	06fH
	DB	063H
	DB	06bH
	DB	00H
	ORG $+4
?IsActive@CBaseFilter@@QEAAHXZ$rtcVarDesc DD 028H	; CBaseFilter::IsActive
	DD	08H
	DQ	FLAT:?IsActive@CBaseFilter@@QEAAHXZ$rtcName$0
	ORG $+48
?IsActive@CBaseFilter@@QEAAHXZ$rtcFrameData DD 01H	; CBaseFilter::IsActive
	DD	00H
	DQ	FLAT:?IsActive@CBaseFilter@@QEAAHXZ$rtcVarDesc
; Function compile flags: /Odtp /RTCsu
CONST	ENDS
;	COMDAT ?IsActive@CBaseFilter@@QEAAHXZ
_TEXT	SEGMENT
cObjectLock$ = 40
$T83883 = 52
tv73 = 56
this$ = 80
?IsActive@CBaseFilter@@QEAAHXZ PROC			; CBaseFilter::IsActive, COMDAT
; Line 240
$LN6:
	mov	QWORD PTR [rsp+8], rcx
	push	rdi
	sub	rsp, 64					; 00000040H
	mov	rdi, rsp
	mov	ecx, 16
	mov	eax, -858993460				; ccccccccH
	rep stosd
	mov	rcx, QWORD PTR [rsp+80]
; Line 241
	mov	rax, QWORD PTR this$[rsp]
	mov	rdx, QWORD PTR [rax+88]
	lea	rcx, QWORD PTR cObjectLock$[rsp]
	call	??0CAutoLock@@QEAA@PEAVCCritSec@@@Z	; CAutoLock::CAutoLock
; Line 242
	mov	rax, QWORD PTR this$[rsp]
	cmp	DWORD PTR [rax+48], 1
	je	SHORT $LN3@IsActive
	mov	rax, QWORD PTR this$[rsp]
	cmp	DWORD PTR [rax+48], 2
	je	SHORT $LN3@IsActive
	mov	DWORD PTR tv73[rsp], 0
	jmp	SHORT $LN4@IsActive
$LN3@IsActive:
	mov	DWORD PTR tv73[rsp], 1
$LN4@IsActive:
	mov	eax, DWORD PTR tv73[rsp]
	mov	DWORD PTR $T83883[rsp], eax
	lea	rcx, QWORD PTR cObjectLock$[rsp]
	call	??1CAutoLock@@QEAA@XZ			; CAutoLock::~CAutoLock
	mov	eax, DWORD PTR $T83883[rsp]
; Line 243
	mov	edi, eax
	mov	rcx, rsp
	lea	rdx, OFFSET FLAT:?IsActive@CBaseFilter@@QEAAHXZ$rtcFrameData
	call	_RTC_CheckStackVars
	mov	eax, edi
	add	rsp, 64					; 00000040H
	pop	rdi
	ret	0
?IsActive@CBaseFilter@@QEAAHXZ ENDP			; CBaseFilter::IsActive
_TEXT	ENDS
;	COMDAT pdata
pdata	SEGMENT
$pdata$?IsConnected@CBasePin@@QEAAHXZ DD imagerel $LN5
	DD	imagerel $LN5+67
	DD	imagerel $unwind$?IsConnected@CBasePin@@QEAAHXZ
pdata	ENDS
;	COMDAT xdata
xdata	SEGMENT
$unwind$?IsConnected@CBasePin@@QEAAHXZ DD 021e01H
	DD	07006120aH
; Function compile flags: /Odtp /RTCsu
xdata	ENDS
;	COMDAT ?IsConnected@CBasePin@@QEAAHXZ
_TEXT	SEGMENT
tv66 = 0
this$ = 32
?IsConnected@CBasePin@@QEAAHXZ PROC			; CBasePin::IsConnected, COMDAT
; Line 499
$LN5:
	mov	QWORD PTR [rsp+8], rcx
	push	rdi
	sub	rsp, 16
	mov	rdi, rsp
	mov	ecx, 4
	mov	eax, -858993460				; ccccccccH
	rep stosd
	mov	rcx, QWORD PTR [rsp+32]
	mov	rax, QWORD PTR this$[rsp]
	cmp	QWORD PTR [rax+56], 0
	je	SHORT $LN3@IsConnecte
	mov	DWORD PTR tv66[rsp], 1
	jmp	SHORT $LN4@IsConnecte
$LN3@IsConnecte:
	mov	DWORD PTR tv66[rsp], 0
$LN4@IsConnecte:
	mov	eax, DWORD PTR tv66[rsp]
	add	rsp, 16
	pop	rdi
	ret	0
?IsConnected@CBasePin@@QEAAHXZ ENDP			; CBasePin::IsConnected
_TEXT	ENDS
EXTRN	?CallWorker@CAMThread@@QEAAKK@Z:PROC		; CAMThread::CallWorker
;	COMDAT pdata
; File c:\downloads\wpf mediakit - copy\src\filters\baseclasses\source.h
pdata	SEGMENT
$pdata$?Init@CSourceStream@@QEAAJXZ DD imagerel $LN3
	DD	imagerel $LN3+48
	DD	imagerel $unwind$?Init@CSourceStream@@QEAAJXZ
pdata	ENDS
;	COMDAT xdata
xdata	SEGMENT
$unwind$?Init@CSourceStream@@QEAAJXZ DD 021e01H
	DD	07006320aH
; Function compile flags: /Odtp /RTCsu
xdata	ENDS
;	COMDAT ?Init@CSourceStream@@QEAAJXZ
_TEXT	SEGMENT
this$ = 48
?Init@CSourceStream@@QEAAJXZ PROC			; CSourceStream::Init, COMDAT
; Line 136
$LN3:
	mov	QWORD PTR [rsp+8], rcx
	push	rdi
	sub	rsp, 32					; 00000020H
	mov	rdi, rsp
	mov	ecx, 8
	mov	eax, -858993460				; ccccccccH
	rep stosd
	mov	rcx, QWORD PTR [rsp+48]
	xor	edx, edx
	mov	rcx, QWORD PTR this$[rsp]
	call	?CallWorker@CAMThread@@QEAAKK@Z		; CAMThread::CallWorker
	add	rsp, 32					; 00000020H
	pop	rdi
	ret	0
?Init@CSourceStream@@QEAAJXZ ENDP			; CSourceStream::Init
_TEXT	ENDS
;	COMDAT pdata
pdata	SEGMENT
$pdata$?Pause@CSourceStream@@QEAAJXZ DD imagerel $LN3
	DD	imagerel $LN3+51
	DD	imagerel $unwind$?Pause@CSourceStream@@QEAAJXZ
pdata	ENDS
;	COMDAT xdata
xdata	SEGMENT
$unwind$?Pause@CSourceStream@@QEAAJXZ DD 021e01H
	DD	07006320aH
; Function compile flags: /Odtp /RTCsu
xdata	ENDS
;	COMDAT ?Pause@CSourceStream@@QEAAJXZ
_TEXT	SEGMENT
this$ = 48
?Pause@CSourceStream@@QEAAJXZ PROC			; CSourceStream::Pause, COMDAT
; Line 139
$LN3:
	mov	QWORD PTR [rsp+8], rcx
	push	rdi
	sub	rsp, 32					; 00000020H
	mov	rdi, rsp
	mov	ecx, 8
	mov	eax, -858993460				; ccccccccH
	rep stosd
	mov	rcx, QWORD PTR [rsp+48]
	mov	edx, 1
	mov	rcx, QWORD PTR this$[rsp]
	call	?CallWorker@CAMThread@@QEAAKK@Z		; CAMThread::CallWorker
	add	rsp, 32					; 00000020H
	pop	rdi
	ret	0
?Pause@CSourceStream@@QEAAJXZ ENDP			; CSourceStream::Pause
_TEXT	ENDS
PUBLIC	?Close@CAMThread@@QEAAXXZ			; CAMThread::Close
PUBLIC	?Exit@CSourceStream@@QEAAJXZ			; CSourceStream::Exit
PUBLIC	?Stop@CSourceStream@@QEAAJXZ			; CSourceStream::Stop
EXTRN	?Inactive@CBaseOutputPin@@UEAAJXZ:PROC		; CBaseOutputPin::Inactive
;	COMDAT pdata
; File c:\downloads\wpf mediakit - copy\src\filters\baseclasses\source.cpp
pdata	SEGMENT
$pdata$?Inactive@CSourceStream@@MEAAJXZ DD imagerel $LN9
	DD	imagerel $LN9+364
	DD	imagerel $unwind$?Inactive@CSourceStream@@MEAAJXZ
pdata	ENDS
;	COMDAT pdata
pdata	SEGMENT
$pdata$?dtor$0@?0??Inactive@CSourceStream@@MEAAJXZ@4HA DD imagerel ?dtor$0@?0??Inactive@CSourceStream@@MEAAJXZ@4HA
	DD	imagerel ?dtor$0@?0??Inactive@CSourceStream@@MEAAJXZ@4HA+35
	DD	imagerel $unwind$?dtor$0@?0??Inactive@CSourceStream@@MEAAJXZ@4HA
pdata	ENDS
;	COMDAT xdata
xdata	SEGMENT
$ip2state$?Inactive@CSourceStream@@MEAAJXZ DD imagerel ?Inactive@CSourceStream@@MEAAJXZ
	DD	0ffffffffH
	DD	imagerel ?Inactive@CSourceStream@@MEAAJXZ+70
	DD	00H
	DD	imagerel ?Inactive@CSourceStream@@MEAAJXZ+95
	DD	0ffffffffH
	DD	imagerel ?Inactive@CSourceStream@@MEAAJXZ+114
	DD	00H
	DD	imagerel ?Inactive@CSourceStream@@MEAAJXZ+146
	DD	0ffffffffH
	DD	imagerel ?Inactive@CSourceStream@@MEAAJXZ+165
	DD	00H
	DD	imagerel ?Inactive@CSourceStream@@MEAAJXZ+226
	DD	0ffffffffH
	DD	imagerel ?Inactive@CSourceStream@@MEAAJXZ+242
	DD	00H
	DD	imagerel ?Inactive@CSourceStream@@MEAAJXZ+280
	DD	0ffffffffH
	DD	imagerel ?Inactive@CSourceStream@@MEAAJXZ+296
	DD	00H
	DD	imagerel ?Inactive@CSourceStream@@MEAAJXZ+323
	DD	0ffffffffH
xdata	ENDS
;	COMDAT xdata
xdata	SEGMENT
$unwind$?dtor$0@?0??Inactive@CSourceStream@@MEAAJXZ@4HA DD 031001H
	DD	0700c4210H
	DD	0500bH
xdata	ENDS
;	COMDAT xdata
xdata	SEGMENT
$unwind$?Inactive@CSourceStream@@MEAAJXZ DD 022711H
	DD	07006b20aH
	DD	imagerel __CxxFrameHandler3
	DD	imagerel $cppxdata$?Inactive@CSourceStream@@MEAAJXZ
xdata	ENDS
;	COMDAT xdata
xdata	SEGMENT
$stateUnwindMap$?Inactive@CSourceStream@@MEAAJXZ DD 0ffffffffH
	DD	imagerel ?dtor$0@?0??Inactive@CSourceStream@@MEAAJXZ@4HA
xdata	ENDS
;	COMDAT CONST
CONST	SEGMENT
?Inactive@CSourceStream@@MEAAJXZ$rtcName$0 DB 06cH	; CSourceStream::Inactive
	DB	06fH
	DB	063H
	DB	06bH
	DB	00H
	ORG $+11
?Inactive@CSourceStream@@MEAAJXZ$rtcVarDesc DD 028H	; CSourceStream::Inactive
	DD	08H
	DQ	FLAT:?Inactive@CSourceStream@@MEAAJXZ$rtcName$0
	ORG $+48
?Inactive@CSourceStream@@MEAAJXZ$rtcFrameData DD 01H	; CSourceStream::Inactive
	DD	00H
	DQ	FLAT:?Inactive@CSourceStream@@MEAAJXZ$rtcVarDesc
$cppxdata$?Inactive@CSourceStream@@MEAAJXZ DD 019930522H
	DD	01H
	DD	imagerel $stateUnwindMap$?Inactive@CSourceStream@@MEAAJXZ
	DD	00H
	DD	00H
	DD	0bH
	DD	imagerel $ip2state$?Inactive@CSourceStream@@MEAAJXZ
	DD	050H
	DD	00H
	DD	01H
; Function compile flags: /Odtp /RTCsu
CONST	ENDS
;	COMDAT ?Inactive@CSourceStream@@MEAAJXZ
_TEXT	SEGMENT
lock$ = 40
hr$ = 52
$T83924 = 56
$T83925 = 60
$T83926 = 64
$T83927 = 68
$T83928 = 72
$T83934 = 80
this$ = 112
?Inactive@CSourceStream@@MEAAJXZ PROC			; CSourceStream::Inactive, COMDAT
; Line 338
$LN9:
	mov	QWORD PTR [rsp+8], rcx
	push	rdi
	sub	rsp, 96					; 00000060H
	mov	rdi, rsp
	mov	ecx, 24
	mov	eax, -858993460				; ccccccccH
	rep stosd
	mov	rcx, QWORD PTR [rsp+112]
	mov	QWORD PTR $T83934[rsp], -2
; Line 340
	mov	rax, QWORD PTR this$[rsp]
	mov	rcx, QWORD PTR [rax+248]
	call	?pStateLock@CSource@@QEAAPEAVCCritSec@@XZ ; CSource::pStateLock
	mov	rdx, rax
	lea	rcx, QWORD PTR lock$[rsp]
	call	??0CAutoLock@@QEAA@PEAVCCritSec@@@Z	; CAutoLock::CAutoLock
	npad	1
; Line 346
	mov	rax, QWORD PTR this$[rsp]
	mov	rcx, rax
	call	?IsConnected@CBasePin@@QEAAHXZ		; CBasePin::IsConnected
	test	eax, eax
	jne	SHORT $LN5@Inactive
; Line 347
	mov	DWORD PTR $T83924[rsp], 0
	lea	rcx, QWORD PTR lock$[rsp]
	call	??1CAutoLock@@QEAA@XZ			; CAutoLock::~CAutoLock
	mov	eax, DWORD PTR $T83924[rsp]
	jmp	$LN6@Inactive
$LN5@Inactive:
; Line 353
	mov	rax, QWORD PTR this$[rsp]
	mov	rcx, rax
	call	?Inactive@CBaseOutputPin@@UEAAJXZ	; CBaseOutputPin::Inactive
	mov	DWORD PTR hr$[rsp], eax
; Line 354
	cmp	DWORD PTR hr$[rsp], 0
	jge	SHORT $LN4@Inactive
; Line 355
	mov	eax, DWORD PTR hr$[rsp]
	mov	DWORD PTR $T83925[rsp], eax
	lea	rcx, QWORD PTR lock$[rsp]
	call	??1CAutoLock@@QEAA@XZ			; CAutoLock::~CAutoLock
	mov	eax, DWORD PTR $T83925[rsp]
	jmp	$LN6@Inactive
$LN4@Inactive:
; Line 358
	mov	rax, QWORD PTR this$[rsp]
	sub	rax, 152				; 00000098H
	mov	rcx, rax
	call	?ThreadExists@CAMThread@@QEBAHXZ	; CAMThread::ThreadExists
	test	eax, eax
	je	SHORT $LN3@Inactive
; Line 359
	mov	rax, QWORD PTR this$[rsp]
	sub	rax, 152				; 00000098H
	mov	rcx, rax
	call	?Stop@CSourceStream@@QEAAJXZ		; CSourceStream::Stop
	mov	DWORD PTR hr$[rsp], eax
; Line 361
	cmp	DWORD PTR hr$[rsp], 0
	jge	SHORT $LN2@Inactive
; Line 362
	mov	eax, DWORD PTR hr$[rsp]
	mov	DWORD PTR $T83926[rsp], eax
	lea	rcx, QWORD PTR lock$[rsp]
	call	??1CAutoLock@@QEAA@XZ			; CAutoLock::~CAutoLock
	mov	eax, DWORD PTR $T83926[rsp]
	jmp	SHORT $LN6@Inactive
$LN2@Inactive:
; Line 365
	mov	rax, QWORD PTR this$[rsp]
	sub	rax, 152				; 00000098H
	mov	rcx, rax
	call	?Exit@CSourceStream@@QEAAJXZ		; CSourceStream::Exit
	mov	DWORD PTR hr$[rsp], eax
; Line 366
	cmp	DWORD PTR hr$[rsp], 0
	jge	SHORT $LN1@Inactive
; Line 367
	mov	eax, DWORD PTR hr$[rsp]
	mov	DWORD PTR $T83927[rsp], eax
	lea	rcx, QWORD PTR lock$[rsp]
	call	??1CAutoLock@@QEAA@XZ			; CAutoLock::~CAutoLock
	mov	eax, DWORD PTR $T83927[rsp]
	jmp	SHORT $LN6@Inactive
$LN1@Inactive:
; Line 370
	mov	rax, QWORD PTR this$[rsp]
	sub	rax, 152				; 00000098H
	mov	rcx, rax
	call	?Close@CAMThread@@QEAAXXZ		; CAMThread::Close
$LN3@Inactive:
; Line 378
	mov	DWORD PTR $T83928[rsp], 0
	lea	rcx, QWORD PTR lock$[rsp]
	call	??1CAutoLock@@QEAA@XZ			; CAutoLock::~CAutoLock
	mov	eax, DWORD PTR $T83928[rsp]
$LN6@Inactive:
; Line 379
	mov	rdi, rax
	mov	rcx, rsp
	lea	rdx, OFFSET FLAT:?Inactive@CSourceStream@@MEAAJXZ$rtcFrameData
	call	_RTC_CheckStackVars
	mov	rax, rdi
	add	rsp, 96					; 00000060H
	pop	rdi
	ret	0
?Inactive@CSourceStream@@MEAAJXZ ENDP			; CSourceStream::Inactive
; Function compile flags: /Odtp /RTCsu
_TEXT	ENDS
;	COMDAT text$x
text$x	SEGMENT
lock$ = 40
hr$ = 52
$T83924 = 56
$T83925 = 60
$T83926 = 64
$T83927 = 68
$T83928 = 72
$T83934 = 80
this$ = 112
?dtor$0@?0??Inactive@CSourceStream@@MEAAJXZ@4HA PROC	; `CSourceStream::Inactive'::`1'::dtor$0
	mov	QWORD PTR [rsp+8], rcx
	mov	QWORD PTR [rsp+16], rdx
	push	rbp
	push	rdi
	sub	rsp, 40					; 00000028H
	mov	rbp, rdx
	lea	rcx, QWORD PTR lock$[rbp]
	call	??1CAutoLock@@QEAA@XZ			; CAutoLock::~CAutoLock
	add	rsp, 40					; 00000028H
	pop	rdi
	pop	rbp
	ret	0
?dtor$0@?0??Inactive@CSourceStream@@MEAAJXZ@4HA ENDP	; `CSourceStream::Inactive'::`1'::dtor$0
text$x	ENDS
EXTRN	__imp_CloseHandle:PROC
EXTRN	__imp_WaitForSingleObject:PROC
;	COMDAT pdata
; File c:\downloads\wpf mediakit - copy\src\filters\baseclasses\wxutil.h
pdata	SEGMENT
$pdata$?Close@CAMThread@@QEAAXXZ DD imagerel $LN4
	DD	imagerel $LN4+93
	DD	imagerel $unwind$?Close@CAMThread@@QEAAXXZ
pdata	ENDS
;	COMDAT xdata
xdata	SEGMENT
$unwind$?Close@CAMThread@@QEAAXXZ DD 021e01H
	DD	07006520aH
; Function compile flags: /Odtp /RTCsu
xdata	ENDS
;	COMDAT ?Close@CAMThread@@QEAAXXZ
_TEXT	SEGMENT
hThread$ = 32
this$ = 64
?Close@CAMThread@@QEAAXXZ PROC				; CAMThread::Close, COMDAT
; Line 194
$LN4:
	mov	QWORD PTR [rsp+8], rcx
	push	rdi
	sub	rsp, 48					; 00000030H
	mov	rdi, rsp
	mov	ecx, 12
	mov	eax, -858993460				; ccccccccH
	rep stosd
	mov	rcx, QWORD PTR [rsp+64]
; Line 195
	mov	rax, QWORD PTR this$[rsp]
	add	rax, 32					; 00000020H
	xor	ecx, ecx
	xchg	QWORD PTR [rax], rcx
	mov	rax, rcx
	mov	QWORD PTR hThread$[rsp], rax
; Line 196
	cmp	QWORD PTR hThread$[rsp], 0
	je	SHORT $LN1@Close
; Line 197
	mov	edx, -1					; ffffffffH
	mov	rcx, QWORD PTR hThread$[rsp]
	call	QWORD PTR __imp_WaitForSingleObject
; Line 198
	mov	rcx, QWORD PTR hThread$[rsp]
	call	QWORD PTR __imp_CloseHandle
$LN1@Close:
; Line 200
	add	rsp, 48					; 00000030H
	pop	rdi
	ret	0
?Close@CAMThread@@QEAAXXZ ENDP				; CAMThread::Close
_TEXT	ENDS
;	COMDAT pdata
; File c:\downloads\wpf mediakit - copy\src\filters\baseclasses\source.h
pdata	SEGMENT
$pdata$?Exit@CSourceStream@@QEAAJXZ DD imagerel $LN3
	DD	imagerel $LN3+51
	DD	imagerel $unwind$?Exit@CSourceStream@@QEAAJXZ
pdata	ENDS
;	COMDAT xdata
xdata	SEGMENT
$unwind$?Exit@CSourceStream@@QEAAJXZ DD 021e01H
	DD	07006320aH
; Function compile flags: /Odtp /RTCsu
xdata	ENDS
;	COMDAT ?Exit@CSourceStream@@QEAAJXZ
_TEXT	SEGMENT
this$ = 48
?Exit@CSourceStream@@QEAAJXZ PROC			; CSourceStream::Exit, COMDAT
; Line 137
$LN3:
	mov	QWORD PTR [rsp+8], rcx
	push	rdi
	sub	rsp, 32					; 00000020H
	mov	rdi, rsp
	mov	ecx, 8
	mov	eax, -858993460				; ccccccccH
	rep stosd
	mov	rcx, QWORD PTR [rsp+48]
	mov	edx, 4
	mov	rcx, QWORD PTR this$[rsp]
	call	?CallWorker@CAMThread@@QEAAKK@Z		; CAMThread::CallWorker
	add	rsp, 32					; 00000020H
	pop	rdi
	ret	0
?Exit@CSourceStream@@QEAAJXZ ENDP			; CSourceStream::Exit
_TEXT	ENDS
;	COMDAT pdata
pdata	SEGMENT
$pdata$?Stop@CSourceStream@@QEAAJXZ DD imagerel $LN3
	DD	imagerel $LN3+51
	DD	imagerel $unwind$?Stop@CSourceStream@@QEAAJXZ
pdata	ENDS
;	COMDAT xdata
xdata	SEGMENT
$unwind$?Stop@CSourceStream@@QEAAJXZ DD 021e01H
	DD	07006320aH
; Function compile flags: /Odtp /RTCsu
xdata	ENDS
;	COMDAT ?Stop@CSourceStream@@QEAAJXZ
_TEXT	SEGMENT
this$ = 48
?Stop@CSourceStream@@QEAAJXZ PROC			; CSourceStream::Stop, COMDAT
; Line 140
$LN3:
	mov	QWORD PTR [rsp+8], rcx
	push	rdi
	sub	rsp, 32					; 00000020H
	mov	rdi, rsp
	mov	ecx, 8
	mov	eax, -858993460				; ccccccccH
	rep stosd
	mov	rcx, QWORD PTR [rsp+48]
	mov	edx, 3
	mov	rcx, QWORD PTR this$[rsp]
	call	?CallWorker@CAMThread@@QEAAKK@Z		; CAMThread::CallWorker
	add	rsp, 32					; 00000020H
	pop	rdi
	ret	0
?Stop@CSourceStream@@QEAAJXZ ENDP			; CSourceStream::Stop
_TEXT	ENDS
PUBLIC	?GetRequest@CSourceStream@@IEAA?AW4Command@1@XZ	; CSourceStream::GetRequest
EXTRN	?Reply@CAMThread@@QEAAXK@Z:PROC			; CAMThread::Reply
EXTRN	?DbgLogInfo@@YAXKKPEB_WZZ:PROC			; DbgLogInfo
;	COMDAT pdata
; File c:\downloads\wpf mediakit - copy\src\filters\baseclasses\source.cpp
pdata	SEGMENT
$pdata$?ThreadProc@CSourceStream@@MEAAKXZ DD imagerel $LN19
	DD	imagerel $LN19+489
	DD	imagerel $unwind$?ThreadProc@CSourceStream@@MEAAKXZ
pdata	ENDS
;	COMDAT xdata
xdata	SEGMENT
$unwind$?ThreadProc@CSourceStream@@MEAAKXZ DD 021e01H
	DD	07006520aH
; Function compile flags: /Odtp /RTCsu
xdata	ENDS
;	COMDAT ?ThreadProc@CSourceStream@@MEAAKXZ
_TEXT	SEGMENT
hr$ = 32
com$ = 36
cmd$ = 40
tv137 = 44
this$ = 64
?ThreadProc@CSourceStream@@MEAAKXZ PROC			; CSourceStream::ThreadProc, COMDAT
; Line 387
$LN19:
	mov	QWORD PTR [rsp+8], rcx
	push	rdi
	sub	rsp, 48					; 00000030H
	mov	rdi, rsp
	mov	ecx, 12
	mov	eax, -858993460				; ccccccccH
	rep stosd
	mov	rcx, QWORD PTR [rsp+64]
$LN16@ThreadProc:
; Line 393
	mov	rcx, QWORD PTR this$[rsp]
	call	?GetRequest@CSourceStream@@IEAA?AW4Command@1@XZ ; CSourceStream::GetRequest
	mov	DWORD PTR com$[rsp], eax
; Line 394
	cmp	DWORD PTR com$[rsp], 0
	je	SHORT $LN13@ThreadProc
; Line 395
	lea	r8, OFFSET FLAT:$SG82472
	mov	edx, 1
	mov	ecx, 16
	call	?DbgLogInfo@@YAXKKPEB_WZZ		; DbgLogInfo
; Line 396
	mov	edx, -2147418113			; 8000ffffH
	mov	rcx, QWORD PTR this$[rsp]
	call	?Reply@CAMThread@@QEAAXK@Z		; CAMThread::Reply
$LN13@ThreadProc:
; Line 398
	cmp	DWORD PTR com$[rsp], 0
	jne	SHORT $LN16@ThreadProc
; Line 400
	lea	r8, OFFSET FLAT:$SG82475
	mov	edx, 1
	mov	ecx, 2
	call	?DbgLogInfo@@YAXKKPEB_WZZ		; DbgLogInfo
; Line 402
	mov	rax, QWORD PTR this$[rsp]
	mov	rax, QWORD PTR [rax]
	mov	rcx, QWORD PTR this$[rsp]
	call	QWORD PTR [rax+24]
	mov	DWORD PTR hr$[rsp], eax
; Line 403
	cmp	DWORD PTR hr$[rsp], 0
	jge	SHORT $LN12@ThreadProc
; Line 404
	lea	r8, OFFSET FLAT:$SG82478
	mov	edx, 1
	mov	ecx, 16
	call	?DbgLogInfo@@YAXKKPEB_WZZ		; DbgLogInfo
; Line 405
	mov	rax, QWORD PTR this$[rsp]
	mov	rax, QWORD PTR [rax]
	mov	rcx, QWORD PTR this$[rsp]
	call	QWORD PTR [rax+32]
; Line 406
	mov	edx, DWORD PTR hr$[rsp]
	mov	rcx, QWORD PTR this$[rsp]
	call	?Reply@CAMThread@@QEAAXK@Z		; CAMThread::Reply
; Line 407
	mov	eax, 1
	jmp	$LN17@ThreadProc
$LN12@ThreadProc:
; Line 411
	xor	edx, edx
	mov	rcx, QWORD PTR this$[rsp]
	call	?Reply@CAMThread@@QEAAXK@Z		; CAMThread::Reply
$LN11@ThreadProc:
; Line 415
	mov	rcx, QWORD PTR this$[rsp]
	call	?GetRequest@CSourceStream@@IEAA?AW4Command@1@XZ ; CSourceStream::GetRequest
	mov	DWORD PTR cmd$[rsp], eax
; Line 417
	mov	eax, DWORD PTR cmd$[rsp]
	mov	DWORD PTR tv137[rsp], eax
	cmp	DWORD PTR tv137[rsp], 1
	je	SHORT $LN4@ThreadProc
	cmp	DWORD PTR tv137[rsp], 2
	je	SHORT $LN5@ThreadProc
	cmp	DWORD PTR tv137[rsp], 3
	je	SHORT $LN3@ThreadProc
	cmp	DWORD PTR tv137[rsp], 4
	je	SHORT $LN6@ThreadProc
	jmp	SHORT $LN2@ThreadProc
$LN6@ThreadProc:
; Line 420
	xor	edx, edx
	mov	rcx, QWORD PTR this$[rsp]
	call	?Reply@CAMThread@@QEAAXK@Z		; CAMThread::Reply
; Line 421
	jmp	SHORT $LN7@ThreadProc
$LN5@ThreadProc:
; Line 424
	lea	r8, OFFSET FLAT:$SG82489
	mov	edx, 1
	mov	ecx, 16
	call	?DbgLogInfo@@YAXKKPEB_WZZ		; DbgLogInfo
$LN4@ThreadProc:
; Line 428
	xor	edx, edx
	mov	rcx, QWORD PTR this$[rsp]
	call	?Reply@CAMThread@@QEAAXK@Z		; CAMThread::Reply
; Line 429
	mov	rax, QWORD PTR this$[rsp]
	mov	rax, QWORD PTR [rax]
	mov	rcx, QWORD PTR this$[rsp]
	call	QWORD PTR [rax+48]
; Line 430
	jmp	SHORT $LN7@ThreadProc
$LN3@ThreadProc:
; Line 433
	xor	edx, edx
	mov	rcx, QWORD PTR this$[rsp]
	call	?Reply@CAMThread@@QEAAXK@Z		; CAMThread::Reply
; Line 434
	jmp	SHORT $LN7@ThreadProc
$LN2@ThreadProc:
; Line 437
	mov	r9d, DWORD PTR cmd$[rsp]
	lea	r8, OFFSET FLAT:$SG82493
	mov	edx, 1
	mov	ecx, 16
	call	?DbgLogInfo@@YAXKKPEB_WZZ		; DbgLogInfo
; Line 438
	mov	edx, -2147467263			; 80004001H
	mov	rcx, QWORD PTR this$[rsp]
	call	?Reply@CAMThread@@QEAAXK@Z		; CAMThread::Reply
$LN7@ThreadProc:
; Line 441
	cmp	DWORD PTR cmd$[rsp], 4
	jne	$LN11@ThreadProc
; Line 443
	mov	rax, QWORD PTR this$[rsp]
	mov	rax, QWORD PTR [rax]
	mov	rcx, QWORD PTR this$[rsp]
	call	QWORD PTR [rax+32]
	mov	DWORD PTR hr$[rsp], eax
; Line 444
	cmp	DWORD PTR hr$[rsp], 0
	jge	SHORT $LN1@ThreadProc
; Line 445
	lea	r8, OFFSET FLAT:$SG82498
	mov	edx, 1
	mov	ecx, 16
	call	?DbgLogInfo@@YAXKKPEB_WZZ		; DbgLogInfo
; Line 446
	mov	eax, 1
	jmp	SHORT $LN17@ThreadProc
$LN1@ThreadProc:
; Line 449
	lea	r8, OFFSET FLAT:$SG82499
	mov	edx, 1
	mov	ecx, 2
	call	?DbgLogInfo@@YAXKKPEB_WZZ		; DbgLogInfo
; Line 450
	xor	eax, eax
$LN17@ThreadProc:
; Line 451
	add	rsp, 48					; 00000030H
	pop	rdi
	ret	0
?ThreadProc@CSourceStream@@MEAAKXZ ENDP			; CSourceStream::ThreadProc
_TEXT	ENDS
EXTRN	?GetRequest@CAMThread@@QEAAKXZ:PROC		; CAMThread::GetRequest
;	COMDAT pdata
; File c:\downloads\wpf mediakit - copy\src\filters\baseclasses\source.h
pdata	SEGMENT
$pdata$?GetRequest@CSourceStream@@IEAA?AW4Command@1@XZ DD imagerel $LN3
	DD	imagerel $LN3+46
	DD	imagerel $unwind$?GetRequest@CSourceStream@@IEAA?AW4Command@1@XZ
pdata	ENDS
;	COMDAT xdata
xdata	SEGMENT
$unwind$?GetRequest@CSourceStream@@IEAA?AW4Command@1@XZ DD 021e01H
	DD	07006320aH
; Function compile flags: /Odtp /RTCsu
xdata	ENDS
;	COMDAT ?GetRequest@CSourceStream@@IEAA?AW4Command@1@XZ
_TEXT	SEGMENT
this$ = 48
?GetRequest@CSourceStream@@IEAA?AW4Command@1@XZ PROC	; CSourceStream::GetRequest, COMDAT
; Line 143
$LN3:
	mov	QWORD PTR [rsp+8], rcx
	push	rdi
	sub	rsp, 32					; 00000020H
	mov	rdi, rsp
	mov	ecx, 8
	mov	eax, -858993460				; ccccccccH
	rep stosd
	mov	rcx, QWORD PTR [rsp+48]
	mov	rcx, QWORD PTR this$[rsp]
	call	?GetRequest@CAMThread@@QEAAKXZ		; CAMThread::GetRequest
	add	rsp, 32					; 00000020H
	pop	rdi
	ret	0
?GetRequest@CSourceStream@@IEAA?AW4Command@1@XZ ENDP	; CSourceStream::GetRequest
_TEXT	ENDS
PUBLIC	?CheckRequest@CSourceStream@@IEAAHPEAW4Command@1@@Z ; CSourceStream::CheckRequest
EXTRN	?NotifyEvent@CBaseFilter@@QEAAJJ_J0@Z:PROC	; CBaseFilter::NotifyEvent
EXTRN	__imp_Sleep:PROC
;	COMDAT pdata
; File c:\downloads\wpf mediakit - copy\src\filters\baseclasses\source.cpp
pdata	SEGMENT
$pdata$?DoBufferProcessingLoop@CSourceStream@@MEAAJXZ DD imagerel $LN19
	DD	imagerel $LN19+683
	DD	imagerel $unwind$?DoBufferProcessingLoop@CSourceStream@@MEAAJXZ
pdata	ENDS
;	COMDAT xdata
xdata	SEGMENT
$unwind$?DoBufferProcessingLoop@CSourceStream@@MEAAJXZ DD 032401H
	DD	012010dH
	DD	07006H
xdata	ENDS
;	COMDAT CONST
CONST	SEGMENT
?DoBufferProcessingLoop@CSourceStream@@MEAAJXZ$rtcName$0 DB 063H ; CSourceStream::DoBufferProcessingLoop
	DB	06fH
	DB	06dH
	DB	00H
	ORG $+4
?DoBufferProcessingLoop@CSourceStream@@MEAAJXZ$rtcName$1 DB 070H ; CSourceStream::DoBufferProcessingLoop
	DB	053H
	DB	061H
	DB	06dH
	DB	070H
	DB	06cH
	DB	065H
	DB	00H
?DoBufferProcessingLoop@CSourceStream@@MEAAJXZ$rtcVarDesc DD 058H ; CSourceStream::DoBufferProcessingLoop
	DD	08H
	DQ	FLAT:?DoBufferProcessingLoop@CSourceStream@@MEAAJXZ$rtcName$1
	DD	034H
	DD	04H
	DQ	FLAT:?DoBufferProcessingLoop@CSourceStream@@MEAAJXZ$rtcName$0
	ORG $+96
?DoBufferProcessingLoop@CSourceStream@@MEAAJXZ$rtcFrameData DD 02H ; CSourceStream::DoBufferProcessingLoop
	DD	00H
	DQ	FLAT:?DoBufferProcessingLoop@CSourceStream@@MEAAJXZ$rtcVarDesc
; Function compile flags: /Odtp /RTCsu
CONST	ENDS
;	COMDAT ?DoBufferProcessingLoop@CSourceStream@@MEAAJXZ
_TEXT	SEGMENT
com$ = 52
pSample$82511 = 88
hr$82512 = 100
tv217 = 104
tv215 = 112
tv212 = 120
tv210 = 128
this$ = 160
?DoBufferProcessingLoop@CSourceStream@@MEAAJXZ PROC	; CSourceStream::DoBufferProcessingLoop, COMDAT
; Line 459
$LN19:
	mov	QWORD PTR [rsp+8], rcx
	push	rdi
	sub	rsp, 144				; 00000090H
	mov	rdi, rsp
	mov	ecx, 36					; 00000024H
	mov	eax, -858993460				; ccccccccH
	rep stosd
	mov	rcx, QWORD PTR [rsp+160]
; Line 463
	mov	rax, QWORD PTR this$[rsp]
	mov	rax, QWORD PTR [rax]
	mov	rcx, QWORD PTR this$[rsp]
	call	QWORD PTR [rax+40]
$LN15@DoBufferPr:
$LN18@DoBufferPr:
$LN12@DoBufferPr:
; Line 466
	lea	rdx, QWORD PTR com$[rsp]
	mov	rcx, QWORD PTR this$[rsp]
	call	?CheckRequest@CSourceStream@@IEAAHPEAW4Command@1@@Z ; CSourceStream::CheckRequest
	test	eax, eax
	jne	$LN11@DoBufferPr
; Line 470
	mov	rax, QWORD PTR this$[rsp]
	add	rax, 152				; 00000098H
	mov	rcx, QWORD PTR this$[rsp]
	mov	rcx, QWORD PTR [rcx+152]
	mov	QWORD PTR tv217[rsp], rcx
	mov	DWORD PTR [rsp+32], 0
	xor	r9d, r9d
	xor	r8d, r8d
	lea	rdx, QWORD PTR pSample$82511[rsp]
	mov	rcx, rax
	mov	rax, QWORD PTR tv217[rsp]
	call	QWORD PTR [rax+128]
	mov	DWORD PTR hr$82512[rsp], eax
; Line 471
	cmp	DWORD PTR hr$82512[rsp], 0
	jge	SHORT $LN10@DoBufferPr
; Line 472
	mov	ecx, 1
	call	QWORD PTR __imp_Sleep
; Line 473
	jmp	SHORT $LN12@DoBufferPr
$LN10@DoBufferPr:
; Line 479
	mov	rax, QWORD PTR this$[rsp]
	mov	rax, QWORD PTR [rax]
	mov	rdx, QWORD PTR pSample$82511[rsp]
	mov	rcx, QWORD PTR this$[rsp]
	call	QWORD PTR [rax+16]
	mov	DWORD PTR hr$82512[rsp], eax
; Line 481
	cmp	DWORD PTR hr$82512[rsp], 0
	jne	SHORT $LN9@DoBufferPr
; Line 482
	mov	rax, QWORD PTR this$[rsp]
	add	rax, 152				; 00000098H
	mov	rcx, QWORD PTR this$[rsp]
	mov	rcx, QWORD PTR [rcx+152]
	mov	QWORD PTR tv215[rsp], rcx
	mov	rdx, QWORD PTR pSample$82511[rsp]
	mov	rcx, rax
	mov	rax, QWORD PTR tv215[rsp]
	call	QWORD PTR [rax+136]
	mov	DWORD PTR hr$82512[rsp], eax
; Line 483
	mov	rax, QWORD PTR pSample$82511[rsp]
	mov	rax, QWORD PTR [rax]
	mov	rcx, QWORD PTR pSample$82511[rsp]
	call	QWORD PTR [rax+16]
; Line 487
	cmp	DWORD PTR hr$82512[rsp], 0
	je	SHORT $LN8@DoBufferPr
; Line 489
	mov	r9d, DWORD PTR hr$82512[rsp]
	lea	r8, OFFSET FLAT:$SG82519
	mov	edx, 2
	mov	ecx, 2
	call	?DbgLogInfo@@YAXKKPEB_WZZ		; DbgLogInfo
; Line 490
	xor	eax, eax
	jmp	$LN16@DoBufferPr
$LN8@DoBufferPr:
; Line 491
	jmp	$LN7@DoBufferPr
$LN9@DoBufferPr:
; Line 493
	cmp	DWORD PTR hr$82512[rsp], 1
	jne	SHORT $LN6@DoBufferPr
; Line 495
	mov	rax, QWORD PTR pSample$82511[rsp]
	mov	rax, QWORD PTR [rax]
	mov	rcx, QWORD PTR pSample$82511[rsp]
	call	QWORD PTR [rax+16]
; Line 496
	mov	rax, QWORD PTR this$[rsp]
	add	rax, 152				; 00000098H
	mov	rcx, QWORD PTR this$[rsp]
	mov	rcx, QWORD PTR [rcx+152]
	mov	QWORD PTR tv212[rsp], rcx
	mov	rcx, rax
	mov	rax, QWORD PTR tv212[rsp]
	call	QWORD PTR [rax+152]
; Line 497
	xor	eax, eax
	jmp	$LN16@DoBufferPr
; Line 498
	jmp	$LN5@DoBufferPr
$LN6@DoBufferPr:
; Line 500
	mov	rax, QWORD PTR pSample$82511[rsp]
	mov	rax, QWORD PTR [rax]
	mov	rcx, QWORD PTR pSample$82511[rsp]
	call	QWORD PTR [rax+16]
; Line 501
	mov	r9d, DWORD PTR hr$82512[rsp]
	lea	r8, OFFSET FLAT:$SG82526
	mov	edx, 1
	mov	ecx, 16
	call	?DbgLogInfo@@YAXKKPEB_WZZ		; DbgLogInfo
; Line 502
	mov	rax, QWORD PTR this$[rsp]
	add	rax, 152				; 00000098H
	mov	rcx, QWORD PTR this$[rsp]
	mov	rcx, QWORD PTR [rcx+152]
	mov	QWORD PTR tv210[rsp], rcx
	mov	rcx, rax
	mov	rax, QWORD PTR tv210[rsp]
	call	QWORD PTR [rax+152]
; Line 503
	movsxd	rax, DWORD PTR hr$82512[rsp]
	xor	r9d, r9d
	mov	r8, rax
	mov	edx, 3
	mov	rax, QWORD PTR this$[rsp]
	mov	rcx, QWORD PTR [rax+400]
	call	?NotifyEvent@CBaseFilter@@QEAAJJ_J0@Z	; CBaseFilter::NotifyEvent
; Line 504
	mov	eax, DWORD PTR hr$82512[rsp]
	jmp	SHORT $LN16@DoBufferPr
$LN5@DoBufferPr:
$LN7@DoBufferPr:
; Line 508
	jmp	$LN18@DoBufferPr
$LN11@DoBufferPr:
; Line 512
	cmp	DWORD PTR com$[rsp], 2
	je	SHORT $LN3@DoBufferPr
	cmp	DWORD PTR com$[rsp], 1
	jne	SHORT $LN4@DoBufferPr
$LN3@DoBufferPr:
; Line 513
	xor	edx, edx
	mov	rcx, QWORD PTR this$[rsp]
	call	?Reply@CAMThread@@QEAAXK@Z		; CAMThread::Reply
	jmp	SHORT $LN2@DoBufferPr
$LN4@DoBufferPr:
; Line 514
	cmp	DWORD PTR com$[rsp], 3
	je	SHORT $LN1@DoBufferPr
; Line 515
	mov	edx, -2147418113			; 8000ffffH
	mov	rcx, QWORD PTR this$[rsp]
	call	?Reply@CAMThread@@QEAAXK@Z		; CAMThread::Reply
; Line 516
	lea	r8, OFFSET FLAT:$SG82533
	mov	edx, 1
	mov	ecx, 16
	call	?DbgLogInfo@@YAXKKPEB_WZZ		; DbgLogInfo
$LN1@DoBufferPr:
$LN2@DoBufferPr:
; Line 518
	cmp	DWORD PTR com$[rsp], 3
	jne	$LN15@DoBufferPr
; Line 520
	mov	eax, 1
$LN16@DoBufferPr:
; Line 521
	mov	rdi, rax
	mov	rcx, rsp
	lea	rdx, OFFSET FLAT:?DoBufferProcessingLoop@CSourceStream@@MEAAJXZ$rtcFrameData
	call	_RTC_CheckStackVars
	mov	rax, rdi
	add	rsp, 144				; 00000090H
	pop	rdi
	ret	0
?DoBufferProcessingLoop@CSourceStream@@MEAAJXZ ENDP	; CSourceStream::DoBufferProcessingLoop
_TEXT	ENDS
EXTRN	?CheckRequest@CAMThread@@QEAAHPEAK@Z:PROC	; CAMThread::CheckRequest
;	COMDAT pdata
; File c:\downloads\wpf mediakit - copy\src\filters\baseclasses\source.h
pdata	SEGMENT
$pdata$?CheckRequest@CSourceStream@@IEAAHPEAW4Command@1@@Z DD imagerel $LN3
	DD	imagerel $LN3+56
	DD	imagerel $unwind$?CheckRequest@CSourceStream@@IEAAHPEAW4Command@1@@Z
pdata	ENDS
;	COMDAT xdata
xdata	SEGMENT
$unwind$?CheckRequest@CSourceStream@@IEAAHPEAW4Command@1@@Z DD 022301H
	DD	0700b320fH
; Function compile flags: /Odtp /RTCsu
xdata	ENDS
;	COMDAT ?CheckRequest@CSourceStream@@IEAAHPEAW4Command@1@@Z
_TEXT	SEGMENT
this$ = 48
pCom$ = 56
?CheckRequest@CSourceStream@@IEAAHPEAW4Command@1@@Z PROC ; CSourceStream::CheckRequest, COMDAT
; Line 144
$LN3:
	mov	QWORD PTR [rsp+16], rdx
	mov	QWORD PTR [rsp+8], rcx
	push	rdi
	sub	rsp, 32					; 00000020H
	mov	rdi, rsp
	mov	ecx, 8
	mov	eax, -858993460				; ccccccccH
	rep stosd
	mov	rcx, QWORD PTR [rsp+48]
	mov	rdx, QWORD PTR pCom$[rsp]
	mov	rcx, QWORD PTR this$[rsp]
	call	?CheckRequest@CAMThread@@QEAAHPEAK@Z	; CAMThread::CheckRequest
	add	rsp, 32					; 00000020H
	pop	rdi
	ret	0
?CheckRequest@CSourceStream@@IEAAHPEAW4Command@1@@Z ENDP ; CSourceStream::CheckRequest
; Function compile flags: /Odtp /RTCsu
_TEXT	ENDS
;	COMDAT ?Release@CBasePin@@W7EAAKXZ
_TEXT	SEGMENT
?Release@CBasePin@@W7EAAKXZ PROC			; [thunk]:CBasePin::Release`adjustor{8}', COMDAT
	sub	rcx, 8
	jmp	?Release@CBasePin@@UEAAKXZ		; CBasePin::Release
?Release@CBasePin@@W7EAAKXZ ENDP			; [thunk]:CBasePin::Release`adjustor{8}'
; Function compile flags: /Odtp /RTCsu
_TEXT	ENDS
;	COMDAT ?AddRef@CBaseFilter@@W7EAAKXZ
_TEXT	SEGMENT
?AddRef@CBaseFilter@@W7EAAKXZ PROC			; [thunk]:CBaseFilter::AddRef`adjustor{8}', COMDAT
	sub	rcx, 8
	jmp	?AddRef@CBaseFilter@@UEAAKXZ		; CBaseFilter::AddRef
?AddRef@CBaseFilter@@W7EAAKXZ ENDP			; [thunk]:CBaseFilter::AddRef`adjustor{8}'
; Function compile flags: /Odtp /RTCsu
_TEXT	ENDS
;	COMDAT ?AddRef@CBasePin@@W7EAAKXZ
_TEXT	SEGMENT
?AddRef@CBasePin@@W7EAAKXZ PROC				; [thunk]:CBasePin::AddRef`adjustor{8}', COMDAT
	sub	rcx, 8
	jmp	?AddRef@CBasePin@@UEAAKXZ		; CBasePin::AddRef
?AddRef@CBasePin@@W7EAAKXZ ENDP				; [thunk]:CBasePin::AddRef`adjustor{8}'
; Function compile flags: /Odtp /RTCsu
_TEXT	ENDS
;	COMDAT ?QueryInterface@CBaseFilter@@W7EAAJAEBU_GUID@@PEAPEAX@Z
_TEXT	SEGMENT
?QueryInterface@CBaseFilter@@W7EAAJAEBU_GUID@@PEAPEAX@Z PROC ; [thunk]:CBaseFilter::QueryInterface`adjustor{8}', COMDAT
	sub	rcx, 8
	jmp	?QueryInterface@CBaseFilter@@UEAAJAEBU_GUID@@PEAPEAX@Z ; CBaseFilter::QueryInterface
?QueryInterface@CBaseFilter@@W7EAAJAEBU_GUID@@PEAPEAX@Z ENDP ; [thunk]:CBaseFilter::QueryInterface`adjustor{8}'
; Function compile flags: /Odtp /RTCsu
_TEXT	ENDS
;	COMDAT ?QueryInterface@CBasePin@@W7EAAJAEBU_GUID@@PEAPEAX@Z
_TEXT	SEGMENT
?QueryInterface@CBasePin@@W7EAAJAEBU_GUID@@PEAPEAX@Z PROC ; [thunk]:CBasePin::QueryInterface`adjustor{8}', COMDAT
	sub	rcx, 8
	jmp	?QueryInterface@CBasePin@@UEAAJAEBU_GUID@@PEAPEAX@Z ; CBasePin::QueryInterface
?QueryInterface@CBasePin@@W7EAAJAEBU_GUID@@PEAPEAX@Z ENDP ; [thunk]:CBasePin::QueryInterface`adjustor{8}'
; Function compile flags: /Odtp /RTCsu
_TEXT	ENDS
;	COMDAT ??_ECSourceStream@@WJI@EAAPEAXI@Z
_TEXT	SEGMENT
??_ECSourceStream@@WJI@EAAPEAXI@Z PROC			; [thunk]:CSourceStream::`vector deleting destructor', COMDAT
	sub	rcx, 152				; 00000098H
	jmp	??_ECSourceStream@@UEAAPEAXI@Z
??_ECSourceStream@@WJI@EAAPEAXI@Z ENDP			; [thunk]:CSourceStream::`vector deleting destructor'
; Function compile flags: /Odtp /RTCsu
_TEXT	ENDS
;	COMDAT ?Release@CBaseFilter@@W7EAAKXZ
_TEXT	SEGMENT
?Release@CBaseFilter@@W7EAAKXZ PROC			; [thunk]:CBaseFilter::Release`adjustor{8}', COMDAT
	sub	rcx, 8
	jmp	?Release@CBaseFilter@@UEAAKXZ		; CBaseFilter::Release
?Release@CBaseFilter@@W7EAAKXZ ENDP			; [thunk]:CBaseFilter::Release`adjustor{8}'
_TEXT	ENDS
END
