; Listing generated by Microsoft (R) Optimizing Compiler Version 16.00.30319.01 

include listing.inc

INCLUDELIB LIBCMTD
INCLUDELIB OLDNAMES

PUBLIC	IID_IAMFilterGraphCallback
CONST	SEGMENT
$SG82244 DB	'S', 00H, 't', 00H, 'o', 00H, 'p', 00H, 'A', 00H, 't', 00H
	DB	':', 00H, ' ', 00H, 'C', 00H, 'a', 00H, 'n', 00H, 'c', 00H, 'e'
	DB	00H, 'l', 00H, ' ', 00H, 's', 00H, 't', 00H, 'o', 00H, 'p', 00H
	DB	00H, 00H
$SG82246 DB	'g', 00H, 'r', 00H, 'a', 00H, 'p', 00H, 'h', 00H, ' ', 00H
	DB	'w', 00H, 'i', 00H, 'l', 00H, 'l', 00H, ' ', 00H, 'b', 00H, 'e'
	DB	00H, 'g', 00H, 'i', 00H, 'n', 00H, ' ', 00H, 'b', 00H, 'y', 00H
	DB	' ', 00H, 'D', 00H, 'I', 00H, 'S', 00H, 'C', 00H, 'A', 00H, 'R'
	DB	00H, 'D', 00H, 'I', 00H, 'N', 00H, 'G', 00H, 00H, 00H
	ORG $+2
$SG82249 DB	'S', 00H, 't', 00H, 'o', 00H, 'p', 00H, 'A', 00H, 't', 00H
	DB	':', 00H, ' ', 00H, '%', 00H, 'd', 00H, 'm', 00H, 's', 00H, ' '
	DB	00H, 'e', 00H, 'x', 00H, 't', 00H, 'r', 00H, 'a', 00H, '=', 00H
	DB	'%', 00H, 'd', 00H, 00H, 00H
	ORG $+4
$SG82251 DB	'g', 00H, 'r', 00H, 'a', 00H, 'p', 00H, 'h', 00H, ' ', 00H
	DB	'w', 00H, 'i', 00H, 'l', 00H, 'l', 00H, ' ', 00H, 'b', 00H, 'e'
	DB	00H, 'g', 00H, 'i', 00H, 'n', 00H, ' ', 00H, 'b', 00H, 'y', 00H
	DB	' ', 00H, 'F', 00H, 'L', 00H, 'O', 00H, 'W', 00H, 'I', 00H, 'N'
	DB	00H, 'G', 00H, 00H, 00H
$SG82253 DB	'S', 00H, 't', 00H, 'o', 00H, 'p', 00H, 'A', 00H, 't', 00H
	DB	':', 00H, ' ', 00H, 'n', 00H, 'o', 00H, 'w', 00H, 00H, 00H
$SG82263 DB	'S', 00H, 't', 00H, 'a', 00H, 'r', 00H, 't', 00H, 'A', 00H
	DB	't', 00H, ':', 00H, ' ', 00H, 'C', 00H, 'a', 00H, 'n', 00H, 'c'
	DB	00H, 'e', 00H, 'l', 00H, ' ', 00H, 's', 00H, 't', 00H, 'a', 00H
	DB	'r', 00H, 't', 00H, 00H, 00H
	ORG $+4
$SG82265 DB	'g', 00H, 'r', 00H, 'a', 00H, 'p', 00H, 'h', 00H, ' ', 00H
	DB	'w', 00H, 'i', 00H, 'l', 00H, 'l', 00H, ' ', 00H, 'b', 00H, 'e'
	DB	00H, 'g', 00H, 'i', 00H, 'n', 00H, ' ', 00H, 'b', 00H, 'y', 00H
	DB	' ', 00H, 'F', 00H, 'L', 00H, 'O', 00H, 'W', 00H, 'I', 00H, 'N'
	DB	00H, 'G', 00H, 00H, 00H
$SG82268 DB	'S', 00H, 't', 00H, 'a', 00H, 'r', 00H, 't', 00H, 'A', 00H
	DB	't', 00H, ':', 00H, ' ', 00H, '%', 00H, 'd', 00H, 'm', 00H, 's'
	DB	00H, 00H, 00H
	ORG $+4
$SG82270 DB	'g', 00H, 'r', 00H, 'a', 00H, 'p', 00H, 'h', 00H, ' ', 00H
	DB	'w', 00H, 'i', 00H, 'l', 00H, 'l', 00H, ' ', 00H, 'b', 00H, 'e'
	DB	00H, 'g', 00H, 'i', 00H, 'n', 00H, ' ', 00H, 'b', 00H, 'y', 00H
	DB	' ', 00H, 'D', 00H, 'I', 00H, 'S', 00H, 'C', 00H, 'A', 00H, 'R'
	DB	00H, 'D', 00H, 'I', 00H, 'N', 00H, 'G', 00H, 00H, 00H
	ORG $+2
$SG82272 DB	'S', 00H, 't', 00H, 'a', 00H, 'r', 00H, 't', 00H, 'A', 00H
	DB	't', 00H, ':', 00H, ' ', 00H, 'n', 00H, 'o', 00H, 'w', 00H, 00H
	DB	00H
	ORG $+6
$SG82285 DB	'.', 00H, '.', 00H, '\', 00H, 's', 00H, 't', 00H, 'r', 00H
	DB	'm', 00H, 'c', 00H, 't', 00H, 'l', 00H, '.', 00H, 'c', 00H, 'p'
	DB	00H, 'p', 00H, 00H, 00H
	ORG $+2
$SG82286 DB	'"', 00H, 'I', 00H, 'n', 00H, 'v', 00H, 'a', 00H, 'l', 00H
	DB	'i', 00H, 'd', 00H, ' ', 00H, 's', 00H, 't', 00H, 'r', 00H, 'e'
	DB	00H, 'a', 00H, 'm', 00H, ' ', 00H, 's', 00H, 't', 00H, 'a', 00H
	DB	't', 00H, 'e', 00H, '"', 00H, 00H, 00H
	ORG $+2
$SG82294 DB	'.', 00H, '.', 00H, '\', 00H, 's', 00H, 't', 00H, 'r', 00H
	DB	'm', 00H, 'c', 00H, 't', 00H, 'l', 00H, '.', 00H, 'c', 00H, 'p'
	DB	00H, 'p', 00H, 00H, 00H
	ORG $+2
$SG82295 DB	'C', 00H, 'r', 00H, 'i', 00H, 't', 00H, 'C', 00H, 'h', 00H
	DB	'e', 00H, 'c', 00H, 'k', 00H, 'I', 00H, 'n', 00H, '(', 00H, '&'
	DB	00H, 'm', 00H, '_', 00H, 'C', 00H, 'r', 00H, 'i', 00H, 't', 00H
	DB	'S', 00H, 'e', 00H, 'c', 00H, ')', 00H, 00H, 00H
$SG82297 DB	'*', 00H, 's', 00H, 'e', 00H, 'n', 00H, 'd', 00H, 'i', 00H
	DB	'n', 00H, 'g', 00H, ' ', 00H, 'E', 00H, 'C', 00H, '_', 00H, 'S'
	DB	00H, 'T', 00H, 'R', 00H, 'E', 00H, 'A', 00H, 'M', 00H, '_', 00H
	DB	'C', 00H, 'O', 00H, 'N', 00H, 'T', 00H, 'R', 00H, 'O', 00H, 'L'
	DB	00H, '_', 00H, 'S', 00H, 'T', 00H, 'O', 00H, 'P', 00H, 'P', 00H
	DB	'E', 00H, 'D', 00H, ' ', 00H, '(', 00H, '%', 00H, 'd', 00H, ')'
	DB	00H, 00H, 00H
$SG82303 DB	'.', 00H, '.', 00H, '\', 00H, 's', 00H, 't', 00H, 'r', 00H
	DB	'm', 00H, 'c', 00H, 't', 00H, 'l', 00H, '.', 00H, 'c', 00H, 'p'
	DB	00H, 'p', 00H, 00H, 00H
	ORG $+2
$SG82304 DB	'C', 00H, 'r', 00H, 'i', 00H, 't', 00H, 'C', 00H, 'h', 00H
	DB	'e', 00H, 'c', 00H, 'k', 00H, 'I', 00H, 'n', 00H, '(', 00H, '&'
	DB	00H, 'm', 00H, '_', 00H, 'C', 00H, 'r', 00H, 'i', 00H, 't', 00H
	DB	'S', 00H, 'e', 00H, 'c', 00H, ')', 00H, 00H, 00H
$SG82306 DB	'*', 00H, 's', 00H, 'e', 00H, 'n', 00H, 'd', 00H, 'i', 00H
	DB	'n', 00H, 'g', 00H, ' ', 00H, 'E', 00H, 'C', 00H, '_', 00H, 'S'
	DB	00H, 'T', 00H, 'R', 00H, 'E', 00H, 'A', 00H, 'M', 00H, '_', 00H
	DB	'C', 00H, 'O', 00H, 'N', 00H, 'T', 00H, 'R', 00H, 'O', 00H, 'L'
	DB	00H, '_', 00H, 'S', 00H, 'T', 00H, 'A', 00H, 'R', 00H, 'T', 00H
	DB	'E', 00H, 'D', 00H, ' ', 00H, '(', 00H, '%', 00H, 'd', 00H, ')'
	DB	00H, 00H, 00H
$SG82312 DB	'.', 00H, '.', 00H, '\', 00H, 's', 00H, 't', 00H, 'r', 00H
	DB	'm', 00H, 'c', 00H, 't', 00H, 'l', 00H, '.', 00H, 'c', 00H, 'p'
	DB	00H, 'p', 00H, 00H, 00H
	ORG $+2
$SG82313 DB	'C', 00H, 'r', 00H, 'i', 00H, 't', 00H, 'C', 00H, 'h', 00H
	DB	'e', 00H, 'c', 00H, 'k', 00H, 'I', 00H, 'n', 00H, '(', 00H, '&'
	DB	00H, 'm', 00H, '_', 00H, 'C', 00H, 'r', 00H, 'i', 00H, 't', 00H
	DB	'S', 00H, 'e', 00H, 'c', 00H, ')', 00H, 00H, 00H
$SG82318 DB	'.', 00H, '.', 00H, '\', 00H, 's', 00H, 't', 00H, 'r', 00H
	DB	'm', 00H, 'c', 00H, 't', 00H, 'l', 00H, '.', 00H, 'c', 00H, 'p'
	DB	00H, 'p', 00H, 00H, 00H
	ORG $+2
$SG82319 DB	'C', 00H, 'r', 00H, 'i', 00H, 't', 00H, 'C', 00H, 'h', 00H
	DB	'e', 00H, 'c', 00H, 'k', 00H, 'I', 00H, 'n', 00H, '(', 00H, '&'
	DB	00H, 'm', 00H, '_', 00H, 'C', 00H, 'r', 00H, 'i', 00H, 't', 00H
	DB	'S', 00H, 'e', 00H, 'c', 00H, ')', 00H, 00H, 00H
$SG82327 DB	'.', 00H, '.', 00H, '\', 00H, 's', 00H, 't', 00H, 'r', 00H
	DB	'm', 00H, 'c', 00H, 't', 00H, 'l', 00H, '.', 00H, 'c', 00H, 'p'
	DB	00H, 'p', 00H, 00H, 00H
	ORG $+2
$SG82328 DB	'!', 00H, 'm', 00H, '_', 00H, 'b', 00H, 'I', 00H, 's', 00H
	DB	'F', 00H, 'l', 00H, 'u', 00H, 's', 00H, 'h', 00H, 'i', 00H, 'n'
	DB	00H, 'g', 00H, 00H, 00H
	ORG $+2
$SG82331 DB	'.', 00H, '.', 00H, '\', 00H, 's', 00H, 't', 00H, 'r', 00H
	DB	'm', 00H, 'c', 00H, 't', 00H, 'l', 00H, '.', 00H, 'c', 00H, 'p'
	DB	00H, 'p', 00H, 00H, 00H
	ORG $+2
$SG82332 DB	'p', 00H, 'S', 00H, 'a', 00H, 'm', 00H, 'p', 00H, 'l', 00H
	DB	'e', 00H, 'S', 00H, 't', 00H, 'a', 00H, 'r', 00H, 't', 00H, ' '
	DB	00H, '&', 00H, '&', 00H, ' ', 00H, 'p', 00H, 'S', 00H, 'a', 00H
	DB	'm', 00H, 'p', 00H, 'l', 00H, 'e', 00H, 'S', 00H, 't', 00H, 'o'
	DB	00H, 'p', 00H, 00H, 00H
$SG82363 DB	'%', 00H, 'd', 00H, ' ', 00H, 's', 00H, 'e', 00H, 'n', 00H
	DB	'd', 00H, 'i', 00H, 'n', 00H, 'g', 00H, ' ', 00H, 'a', 00H, 'n'
	DB	00H, ' ', 00H, 'E', 00H, 'X', 00H, 'T', 00H, 'R', 00H, 'A', 00H
	DB	' ', 00H, 'f', 00H, 'r', 00H, 'a', 00H, 'm', 00H, 'e', 00H, 00H
	DB	00H
	ORG $+4
$SG82371 DB	'.', 00H, '.', 00H, '\', 00H, 's', 00H, 't', 00H, 'r', 00H
	DB	'm', 00H, 'c', 00H, 't', 00H, 'l', 00H, '.', 00H, 'c', 00H, 'p'
	DB	00H, 'p', 00H, 00H, 00H
	ORG $+2
$SG82372 DB	'(', 00H, '(', 00H, '(', 00H, 'H', 00H, 'R', 00H, 'E', 00H
	DB	'S', 00H, 'U', 00H, 'L', 00H, 'T', 00H, ')', 00H, '(', 00H, 'm'
	DB	00H, '_', 00H, 'p', 00H, 'R', 00H, 'e', 00H, 'f', 00H, 'C', 00H
	DB	'l', 00H, 'o', 00H, 'c', 00H, 'k', 00H, '-', 00H, '>', 00H, 'G'
	DB	00H, 'e', 00H, 't', 00H, 'T', 00H, 'i', 00H, 'm', 00H, 'e', 00H
	DB	'(', 00H, '&', 00H, 'r', 00H, 't', 00H, 'N', 00H, 'o', 00H, 'w'
	DB	00H, ')', 00H, ')', 00H, ')', 00H, ' ', 00H, '>', 00H, '=', 00H
	DB	' ', 00H, '0', 00H, ')', 00H, 00H, 00H
	ORG $+6
$SG82386 DB	'F', 00H, 'i', 00H, 'l', 00H, 't', 00H, 'e', 00H, 'r', 00H
	DB	' ', 00H, 'i', 00H, 's', 00H, ' ', 00H, 'S', 00H, 'T', 00H, 'O'
	DB	00H, 'P', 00H, 'P', 00H, 'E', 00H, 'D', 00H, 00H, 00H
	ORG $+4
$SG82395 DB	'F', 00H, 'i', 00H, 'l', 00H, 't', 00H, 'e', 00H, 'r', 00H
	DB	' ', 00H, 'i', 00H, 's', 00H, ' ', 00H, 'R', 00H, 'U', 00H, 'N'
	DB	00H, 'N', 00H, 'I', 00H, 'N', 00H, 'G', 00H, 00H, 00H
CONST	ENDS
;	COMDAT IID_IAMFilterGraphCallback
CONST	SEGMENT
IID_IAMFilterGraphCallback DD 056a868fdH
	DW	0ad4H
	DW	011ceH
	DB	0b0H
	DB	0a3H
	DB	00H
	DB	020H
	DB	0afH
	DB	0bH
	DB	0a7H
	DB	070H
CONST	ENDS
PUBLIC	??_7CBaseStreamControl@@6B@			; CBaseStreamControl::`vftable'
PUBLIC	??0IAMStreamControl@@QEAA@XZ			; IAMStreamControl::IAMStreamControl
PUBLIC	??0CBaseStreamControl@@QEAA@XZ			; CBaseStreamControl::CBaseStreamControl
PUBLIC	??_R4CBaseStreamControl@@6B@			; CBaseStreamControl::`RTTI Complete Object Locator'
PUBLIC	??_R0?AVCBaseStreamControl@@@8			; CBaseStreamControl `RTTI Type Descriptor'
PUBLIC	??_R3CBaseStreamControl@@8			; CBaseStreamControl::`RTTI Class Hierarchy Descriptor'
PUBLIC	??_R2CBaseStreamControl@@8			; CBaseStreamControl::`RTTI Base Class Array'
PUBLIC	??_R1A@?0A@EA@CBaseStreamControl@@8		; CBaseStreamControl::`RTTI Base Class Descriptor at (0,-1,0,64)'
PUBLIC	??_R1A@?0A@EA@IAMStreamControl@@8		; IAMStreamControl::`RTTI Base Class Descriptor at (0,-1,0,64)'
PUBLIC	??_R0?AUIAMStreamControl@@@8			; IAMStreamControl `RTTI Type Descriptor'
PUBLIC	??_R3IAMStreamControl@@8			; IAMStreamControl::`RTTI Class Hierarchy Descriptor'
PUBLIC	??_R2IAMStreamControl@@8			; IAMStreamControl::`RTTI Base Class Array'
PUBLIC	??_R1A@?0A@EA@IUnknown@@8			; IUnknown::`RTTI Base Class Descriptor at (0,-1,0,64)'
PUBLIC	??_R0?AUIUnknown@@@8				; IUnknown `RTTI Type Descriptor'
PUBLIC	??_R3IUnknown@@8				; IUnknown::`RTTI Class Hierarchy Descriptor'
PUBLIC	??_R2IUnknown@@8				; IUnknown::`RTTI Base Class Array'
PUBLIC	?StartAt@CBaseStreamControl@@UEAAJPEB_JK@Z	; CBaseStreamControl::StartAt
PUBLIC	?StopAt@CBaseStreamControl@@UEAAJPEB_JHK@Z	; CBaseStreamControl::StopAt
PUBLIC	?GetInfo@CBaseStreamControl@@UEAAJPEAUAM_STREAM_INFO@@@Z ; CBaseStreamControl::GetInfo
EXTRN	__CxxFrameHandler3:PROC
EXTRN	??1CCritSec@@QEAA@XZ:PROC			; CCritSec::~CCritSec
EXTRN	??0CAMEvent@@QEAA@H@Z:PROC			; CAMEvent::CAMEvent
EXTRN	??0CCritSec@@QEAA@XZ:PROC			; CCritSec::CCritSec
EXTRN	_RTC_Shutdown:PROC
EXTRN	_RTC_InitBase:PROC
EXTRN	??_7type_info@@6B@:BYTE				; type_info::`vftable'
EXTRN	_purecall:PROC
;	COMDAT pdata
; File c:\downloads\wpf mediakit - copy\src\filters\baseclasses\strmctl.cpp
pdata	SEGMENT
$pdata$??0CBaseStreamControl@@QEAA@XZ DD imagerel $LN5
	DD	imagerel $LN5+250
	DD	imagerel $unwind$??0CBaseStreamControl@@QEAA@XZ
pdata	ENDS
;	COMDAT pdata
pdata	SEGMENT
$pdata$?dtor$0@?0???0CBaseStreamControl@@QEAA@XZ@4HA DD imagerel ?dtor$0@?0???0CBaseStreamControl@@QEAA@XZ@4HA
	DD	imagerel ?dtor$0@?0???0CBaseStreamControl@@QEAA@XZ@4HA+39
	DD	imagerel $unwind$?dtor$0@?0???0CBaseStreamControl@@QEAA@XZ@4HA
pdata	ENDS
;	COMDAT xdata
xdata	SEGMENT
$ip2state$??0CBaseStreamControl@@QEAA@XZ DD imagerel ??0CBaseStreamControl@@QEAA@XZ
	DD	0ffffffffH
	DD	imagerel ??0CBaseStreamControl@@QEAA@XZ+192
	DD	00H
	DD	imagerel ??0CBaseStreamControl@@QEAA@XZ+239
	DD	0ffffffffH
xdata	ENDS
;	COMDAT ??_R2IUnknown@@8
rdata$r	SEGMENT
??_R2IUnknown@@8 DD imagerel ??_R1A@?0A@EA@IUnknown@@8	; IUnknown::`RTTI Base Class Array'
	ORG $+3
rdata$r	ENDS
;	COMDAT ??_R3IUnknown@@8
rdata$r	SEGMENT
??_R3IUnknown@@8 DD 00H					; IUnknown::`RTTI Class Hierarchy Descriptor'
	DD	00H
	DD	01H
	DD	imagerel ??_R2IUnknown@@8
rdata$r	ENDS
;	COMDAT ??_R0?AUIUnknown@@@8
_DATA	SEGMENT
??_R0?AUIUnknown@@@8 DQ FLAT:??_7type_info@@6B@		; IUnknown `RTTI Type Descriptor'
	DQ	0000000000000000H
	DB	'.?AUIUnknown@@', 00H
_DATA	ENDS
;	COMDAT ??_R1A@?0A@EA@IUnknown@@8
rdata$r	SEGMENT
??_R1A@?0A@EA@IUnknown@@8 DD imagerel ??_R0?AUIUnknown@@@8 ; IUnknown::`RTTI Base Class Descriptor at (0,-1,0,64)'
	DD	00H
	DD	00H
	DD	0ffffffffH
	DD	00H
	DD	040H
	DD	imagerel ??_R3IUnknown@@8
rdata$r	ENDS
;	COMDAT ??_R2IAMStreamControl@@8
rdata$r	SEGMENT
??_R2IAMStreamControl@@8 DD imagerel ??_R1A@?0A@EA@IAMStreamControl@@8 ; IAMStreamControl::`RTTI Base Class Array'
	DD	imagerel ??_R1A@?0A@EA@IUnknown@@8
	ORG $+3
rdata$r	ENDS
;	COMDAT ??_R3IAMStreamControl@@8
rdata$r	SEGMENT
??_R3IAMStreamControl@@8 DD 00H				; IAMStreamControl::`RTTI Class Hierarchy Descriptor'
	DD	00H
	DD	02H
	DD	imagerel ??_R2IAMStreamControl@@8
rdata$r	ENDS
;	COMDAT ??_R0?AUIAMStreamControl@@@8
_DATA	SEGMENT
??_R0?AUIAMStreamControl@@@8 DQ FLAT:??_7type_info@@6B@	; IAMStreamControl `RTTI Type Descriptor'
	DQ	0000000000000000H
	DB	'.?AUIAMStreamControl@@', 00H
_DATA	ENDS
;	COMDAT ??_R1A@?0A@EA@IAMStreamControl@@8
rdata$r	SEGMENT
??_R1A@?0A@EA@IAMStreamControl@@8 DD imagerel ??_R0?AUIAMStreamControl@@@8 ; IAMStreamControl::`RTTI Base Class Descriptor at (0,-1,0,64)'
	DD	01H
	DD	00H
	DD	0ffffffffH
	DD	00H
	DD	040H
	DD	imagerel ??_R3IAMStreamControl@@8
rdata$r	ENDS
;	COMDAT ??_R1A@?0A@EA@CBaseStreamControl@@8
rdata$r	SEGMENT
??_R1A@?0A@EA@CBaseStreamControl@@8 DD imagerel ??_R0?AVCBaseStreamControl@@@8 ; CBaseStreamControl::`RTTI Base Class Descriptor at (0,-1,0,64)'
	DD	02H
	DD	00H
	DD	0ffffffffH
	DD	00H
	DD	040H
	DD	imagerel ??_R3CBaseStreamControl@@8
rdata$r	ENDS
;	COMDAT ??_R2CBaseStreamControl@@8
rdata$r	SEGMENT
??_R2CBaseStreamControl@@8 DD imagerel ??_R1A@?0A@EA@CBaseStreamControl@@8 ; CBaseStreamControl::`RTTI Base Class Array'
	DD	imagerel ??_R1A@?0A@EA@IAMStreamControl@@8
	DD	imagerel ??_R1A@?0A@EA@IUnknown@@8
	ORG $+3
rdata$r	ENDS
;	COMDAT ??_R3CBaseStreamControl@@8
rdata$r	SEGMENT
??_R3CBaseStreamControl@@8 DD 00H			; CBaseStreamControl::`RTTI Class Hierarchy Descriptor'
	DD	00H
	DD	03H
	DD	imagerel ??_R2CBaseStreamControl@@8
rdata$r	ENDS
;	COMDAT ??_R0?AVCBaseStreamControl@@@8
_DATA	SEGMENT
??_R0?AVCBaseStreamControl@@@8 DQ FLAT:??_7type_info@@6B@ ; CBaseStreamControl `RTTI Type Descriptor'
	DQ	0000000000000000H
	DB	'.?AVCBaseStreamControl@@', 00H
_DATA	ENDS
;	COMDAT ??_R4CBaseStreamControl@@6B@
rdata$r	SEGMENT
??_R4CBaseStreamControl@@6B@ DD 01H			; CBaseStreamControl::`RTTI Complete Object Locator'
	DD	00H
	DD	00H
	DD	imagerel ??_R0?AVCBaseStreamControl@@@8
	DD	imagerel ??_R3CBaseStreamControl@@8
	DD	imagerel ??_R4CBaseStreamControl@@6B@
rdata$r	ENDS
;	COMDAT xdata
xdata	SEGMENT
$unwind$?dtor$0@?0???0CBaseStreamControl@@QEAA@XZ@4HA DD 031001H
	DD	0700c4210H
	DD	0500bH
xdata	ENDS
;	COMDAT xdata
xdata	SEGMENT
$unwind$??0CBaseStreamControl@@QEAA@XZ DD 022711H
	DD	07006520aH
	DD	imagerel __CxxFrameHandler3
	DD	imagerel $cppxdata$??0CBaseStreamControl@@QEAA@XZ
xdata	ENDS
;	COMDAT CONST
CONST	SEGMENT
$cppxdata$??0CBaseStreamControl@@QEAA@XZ DD 019930522H
	DD	01H
	DD	imagerel $stateUnwindMap$??0CBaseStreamControl@@QEAA@XZ
	DD	00H
	DD	00H
	DD	03H
	DD	imagerel $ip2state$??0CBaseStreamControl@@QEAA@XZ
	DD	020H
	DD	00H
	DD	01H
CONST	ENDS
;	COMDAT xdata
xdata	SEGMENT
$stateUnwindMap$??0CBaseStreamControl@@QEAA@XZ DD 0ffffffffH
	DD	imagerel ?dtor$0@?0???0CBaseStreamControl@@QEAA@XZ@4HA
xdata	ENDS
;	COMDAT ??_7CBaseStreamControl@@6B@
CONST	SEGMENT
??_7CBaseStreamControl@@6B@ DQ FLAT:??_R4CBaseStreamControl@@6B@ ; CBaseStreamControl::`vftable'
	DQ	FLAT:_purecall
	DQ	FLAT:_purecall
	DQ	FLAT:_purecall
	DQ	FLAT:?StartAt@CBaseStreamControl@@UEAAJPEB_JK@Z
	DQ	FLAT:?StopAt@CBaseStreamControl@@UEAAJPEB_JHK@Z
	DQ	FLAT:?GetInfo@CBaseStreamControl@@UEAAJPEAUAM_STREAM_INFO@@@Z
CONST	ENDS
;	COMDAT rtc$TMZ
rtc$TMZ	SEGMENT
_RTC_Shutdown.rtc$TMZ DQ FLAT:_RTC_Shutdown
rtc$TMZ	ENDS
;	COMDAT rtc$IMZ
rtc$IMZ	SEGMENT
_RTC_InitBase.rtc$IMZ DQ FLAT:_RTC_InitBase
; Function compile flags: /Odtp /RTCsu
rtc$IMZ	ENDS
;	COMDAT ??0CBaseStreamControl@@QEAA@XZ
_TEXT	SEGMENT
$T82908 = 32
this$ = 64
??0CBaseStreamControl@@QEAA@XZ PROC			; CBaseStreamControl::CBaseStreamControl, COMDAT
; Line 24
$LN5:
	mov	QWORD PTR [rsp+8], rcx
	push	rdi
	sub	rsp, 48					; 00000030H
	mov	rdi, rsp
	mov	ecx, 12
	mov	eax, -858993460				; ccccccccH
	rep stosd
	mov	rcx, QWORD PTR [rsp+64]
	mov	QWORD PTR $T82908[rsp], -2
	mov	rcx, QWORD PTR this$[rsp]
	call	??0IAMStreamControl@@QEAA@XZ
	mov	rax, QWORD PTR this$[rsp]
	lea	rcx, OFFSET FLAT:??_7CBaseStreamControl@@6B@
	mov	QWORD PTR [rax], rcx
	mov	rax, QWORD PTR this$[rsp]
	mov	DWORD PTR [rax+8], 4096			; 00001000H
	mov	rax, QWORD PTR this$[rsp]
	mov	DWORD PTR [rax+12], 4096		; 00001000H
	mov	rax, QWORD PTR this$[rsp]
	mov	rcx, 9223372036854775807		; 7fffffffffffffffH
	mov	QWORD PTR [rax+16], rcx
	mov	rax, QWORD PTR this$[rsp]
	mov	rcx, 9223372036854775807		; 7fffffffffffffffH
	mov	QWORD PTR [rax+24], rcx
	mov	rax, QWORD PTR this$[rsp]
	mov	DWORD PTR [rax+32], 0
	mov	rax, QWORD PTR this$[rsp]
	mov	DWORD PTR [rax+36], 0
	mov	rax, QWORD PTR this$[rsp]
	mov	DWORD PTR [rax+40], 0
	mov	rax, QWORD PTR this$[rsp]
	mov	DWORD PTR [rax+44], 0
	mov	rax, QWORD PTR this$[rsp]
	add	rax, 56					; 00000038H
	mov	rcx, rax
	call	??0CCritSec@@QEAA@XZ			; CCritSec::CCritSec
	npad	1
	mov	rax, QWORD PTR this$[rsp]
	add	rax, 112				; 00000070H
	xor	edx, edx
	mov	rcx, rax
	call	??0CAMEvent@@QEAA@H@Z			; CAMEvent::CAMEvent
	mov	rax, QWORD PTR this$[rsp]
	mov	QWORD PTR [rax+120], 0
	mov	rax, QWORD PTR this$[rsp]
	mov	DWORD PTR [rax+136], 0
	mov	rax, QWORD PTR this$[rsp]
	add	rsp, 48					; 00000030H
	pop	rdi
	ret	0
??0CBaseStreamControl@@QEAA@XZ ENDP			; CBaseStreamControl::CBaseStreamControl
; Function compile flags: /Odtp /RTCsu
_TEXT	ENDS
;	COMDAT text$x
text$x	SEGMENT
$T82908 = 32
this$ = 64
?dtor$0@?0???0CBaseStreamControl@@QEAA@XZ@4HA PROC	; `CBaseStreamControl::CBaseStreamControl'::`1'::dtor$0
	mov	QWORD PTR [rsp+8], rcx
	mov	QWORD PTR [rsp+16], rdx
	push	rbp
	push	rdi
	sub	rsp, 40					; 00000028H
	mov	rbp, rdx
	mov	rcx, QWORD PTR this$[rbp]
	add	rcx, 56					; 00000038H
	call	??1CCritSec@@QEAA@XZ			; CCritSec::~CCritSec
	add	rsp, 40					; 00000028H
	pop	rdi
	pop	rbp
	ret	0
?dtor$0@?0???0CBaseStreamControl@@QEAA@XZ@4HA ENDP	; `CBaseStreamControl::CBaseStreamControl'::`1'::dtor$0
text$x	ENDS
PUBLIC	??0IUnknown@@QEAA@XZ				; IUnknown::IUnknown
;	COMDAT pdata
pdata	SEGMENT
$pdata$??0IAMStreamControl@@QEAA@XZ DD imagerel $LN3
	DD	imagerel $LN3+51
	DD	imagerel $unwind$??0IAMStreamControl@@QEAA@XZ
pdata	ENDS
;	COMDAT xdata
xdata	SEGMENT
$unwind$??0IAMStreamControl@@QEAA@XZ DD 021e01H
	DD	07006320aH
; Function compile flags: /Odtp /RTCsu
xdata	ENDS
;	COMDAT ??0IAMStreamControl@@QEAA@XZ
_TEXT	SEGMENT
this$ = 48
??0IAMStreamControl@@QEAA@XZ PROC			; IAMStreamControl::IAMStreamControl, COMDAT
$LN3:
	mov	QWORD PTR [rsp+8], rcx
	push	rdi
	sub	rsp, 32					; 00000020H
	mov	rdi, rsp
	mov	ecx, 8
	mov	eax, -858993460				; ccccccccH
	rep stosd
	mov	rcx, QWORD PTR [rsp+48]
	mov	rcx, QWORD PTR this$[rsp]
	call	??0IUnknown@@QEAA@XZ
	mov	rax, QWORD PTR this$[rsp]
	add	rsp, 32					; 00000020H
	pop	rdi
	ret	0
??0IAMStreamControl@@QEAA@XZ ENDP			; IAMStreamControl::IAMStreamControl
_TEXT	ENDS
;	COMDAT pdata
pdata	SEGMENT
$pdata$??0IUnknown@@QEAA@XZ DD imagerel $LN3
	DD	imagerel $LN3+13
	DD	imagerel $unwind$??0IUnknown@@QEAA@XZ
pdata	ENDS
;	COMDAT xdata
xdata	SEGMENT
$unwind$??0IUnknown@@QEAA@XZ DD 010601H
	DD	07006H
; Function compile flags: /Odtp /RTCsu
xdata	ENDS
;	COMDAT ??0IUnknown@@QEAA@XZ
_TEXT	SEGMENT
this$ = 16
??0IUnknown@@QEAA@XZ PROC				; IUnknown::IUnknown, COMDAT
$LN3:
	mov	QWORD PTR [rsp+8], rcx
	push	rdi
	mov	rax, QWORD PTR this$[rsp]
	pop	rdi
	ret	0
??0IUnknown@@QEAA@XZ ENDP				; IUnknown::IUnknown
_TEXT	ENDS
PUBLIC	?SetSyncSource@CBaseStreamControl@@QEAAXPEAUIReferenceClock@@@Z ; CBaseStreamControl::SetSyncSource
PUBLIC	??1CBaseStreamControl@@QEAA@XZ			; CBaseStreamControl::~CBaseStreamControl
EXTRN	??1CAMEvent@@QEAA@XZ:PROC			; CAMEvent::~CAMEvent
;	COMDAT pdata
pdata	SEGMENT
$pdata$??1CBaseStreamControl@@QEAA@XZ DD imagerel $LN5
	DD	imagerel $LN5+108
	DD	imagerel $unwind$??1CBaseStreamControl@@QEAA@XZ
pdata	ENDS
;	COMDAT pdata
pdata	SEGMENT
$pdata$?dtor$0@?0???1CBaseStreamControl@@QEAA@XZ@4HA DD imagerel ?dtor$0@?0???1CBaseStreamControl@@QEAA@XZ@4HA
	DD	imagerel ?dtor$0@?0???1CBaseStreamControl@@QEAA@XZ@4HA+39
	DD	imagerel $unwind$?dtor$0@?0???1CBaseStreamControl@@QEAA@XZ@4HA
pdata	ENDS
;	COMDAT pdata
pdata	SEGMENT
$pdata$?dtor$1@?0???1CBaseStreamControl@@QEAA@XZ@4HA DD imagerel ?dtor$1@?0???1CBaseStreamControl@@QEAA@XZ@4HA
	DD	imagerel ?dtor$1@?0???1CBaseStreamControl@@QEAA@XZ@4HA+39
	DD	imagerel $unwind$?dtor$1@?0???1CBaseStreamControl@@QEAA@XZ@4HA
pdata	ENDS
;	COMDAT xdata
xdata	SEGMENT
$ip2state$??1CBaseStreamControl@@QEAA@XZ DD imagerel ??1CBaseStreamControl@@QEAA@XZ
	DD	0ffffffffH
	DD	imagerel ??1CBaseStreamControl@@QEAA@XZ+54
	DD	01H
	DD	imagerel ??1CBaseStreamControl@@QEAA@XZ+67
	DD	00H
	DD	imagerel ??1CBaseStreamControl@@QEAA@XZ+85
	DD	0ffffffffH
xdata	ENDS
;	COMDAT xdata
xdata	SEGMENT
$unwind$?dtor$1@?0???1CBaseStreamControl@@QEAA@XZ@4HA DD 031001H
	DD	0700c4210H
	DD	0500bH
xdata	ENDS
;	COMDAT xdata
xdata	SEGMENT
$unwind$?dtor$0@?0???1CBaseStreamControl@@QEAA@XZ@4HA DD 031001H
	DD	0700c4210H
	DD	0500bH
xdata	ENDS
;	COMDAT xdata
xdata	SEGMENT
$unwind$??1CBaseStreamControl@@QEAA@XZ DD 022711H
	DD	07006520aH
	DD	imagerel __CxxFrameHandler3
	DD	imagerel $cppxdata$??1CBaseStreamControl@@QEAA@XZ
xdata	ENDS
;	COMDAT CONST
CONST	SEGMENT
$cppxdata$??1CBaseStreamControl@@QEAA@XZ DD 019930522H
	DD	02H
	DD	imagerel $stateUnwindMap$??1CBaseStreamControl@@QEAA@XZ
	DD	00H
	DD	00H
	DD	04H
	DD	imagerel $ip2state$??1CBaseStreamControl@@QEAA@XZ
	DD	020H
	DD	00H
	DD	01H
CONST	ENDS
;	COMDAT xdata
xdata	SEGMENT
$stateUnwindMap$??1CBaseStreamControl@@QEAA@XZ DD 0ffffffffH
	DD	imagerel ?dtor$0@?0???1CBaseStreamControl@@QEAA@XZ@4HA
	DD	00H
	DD	imagerel ?dtor$1@?0???1CBaseStreamControl@@QEAA@XZ@4HA
; Function compile flags: /Odtp /RTCsu
xdata	ENDS
;	COMDAT ??1CBaseStreamControl@@QEAA@XZ
_TEXT	SEGMENT
$T82950 = 32
this$ = 64
??1CBaseStreamControl@@QEAA@XZ PROC			; CBaseStreamControl::~CBaseStreamControl, COMDAT
; Line 27
$LN5:
	mov	QWORD PTR [rsp+8], rcx
	push	rdi
	sub	rsp, 48					; 00000030H
	mov	rdi, rsp
	mov	ecx, 12
	mov	eax, -858993460				; ccccccccH
	rep stosd
	mov	rcx, QWORD PTR [rsp+64]
	mov	QWORD PTR $T82950[rsp], -2
	mov	rax, QWORD PTR this$[rsp]
	lea	rcx, OFFSET FLAT:??_7CBaseStreamControl@@6B@
	mov	QWORD PTR [rax], rcx
; Line 29
	xor	edx, edx
	mov	rcx, QWORD PTR this$[rsp]
	call	?SetSyncSource@CBaseStreamControl@@QEAAXPEAUIReferenceClock@@@Z ; CBaseStreamControl::SetSyncSource
	npad	1
; Line 31
	mov	rax, QWORD PTR this$[rsp]
	add	rax, 112				; 00000070H
	mov	rcx, rax
	call	??1CAMEvent@@QEAA@XZ			; CAMEvent::~CAMEvent
	npad	1
	mov	rax, QWORD PTR this$[rsp]
	add	rax, 56					; 00000038H
	mov	rcx, rax
	call	??1CCritSec@@QEAA@XZ			; CCritSec::~CCritSec
	add	rsp, 48					; 00000030H
	pop	rdi
	ret	0
??1CBaseStreamControl@@QEAA@XZ ENDP			; CBaseStreamControl::~CBaseStreamControl
; Function compile flags: /Odtp /RTCsu
_TEXT	ENDS
;	COMDAT text$x
text$x	SEGMENT
$T82950 = 32
this$ = 64
?dtor$0@?0???1CBaseStreamControl@@QEAA@XZ@4HA PROC	; `CBaseStreamControl::~CBaseStreamControl'::`1'::dtor$0
	mov	QWORD PTR [rsp+8], rcx
	mov	QWORD PTR [rsp+16], rdx
	push	rbp
	push	rdi
	sub	rsp, 40					; 00000028H
	mov	rbp, rdx
	mov	rcx, QWORD PTR this$[rbp]
	add	rcx, 56					; 00000038H
	call	??1CCritSec@@QEAA@XZ			; CCritSec::~CCritSec
	add	rsp, 40					; 00000028H
	pop	rdi
	pop	rbp
	ret	0
?dtor$0@?0???1CBaseStreamControl@@QEAA@XZ@4HA ENDP	; `CBaseStreamControl::~CBaseStreamControl'::`1'::dtor$0
; Function compile flags: /Odtp /RTCsu
$T82950 = 32
this$ = 64
?dtor$1@?0???1CBaseStreamControl@@QEAA@XZ@4HA PROC	; `CBaseStreamControl::~CBaseStreamControl'::`1'::dtor$1
	mov	QWORD PTR [rsp+8], rcx
	mov	QWORD PTR [rsp+16], rdx
	push	rbp
	push	rdi
	sub	rsp, 40					; 00000028H
	mov	rbp, rdx
	mov	rcx, QWORD PTR this$[rbp]
	add	rcx, 112				; 00000070H
	call	??1CAMEvent@@QEAA@XZ			; CAMEvent::~CAMEvent
	add	rsp, 40					; 00000028H
	pop	rdi
	pop	rbp
	ret	0
?dtor$1@?0???1CBaseStreamControl@@QEAA@XZ@4HA ENDP	; `CBaseStreamControl::~CBaseStreamControl'::`1'::dtor$1
text$x	ENDS
PUBLIC	??1CAutoLock@@QEAA@XZ				; CAutoLock::~CAutoLock
PUBLIC	??0CAutoLock@@QEAA@PEAVCCritSec@@@Z		; CAutoLock::CAutoLock
EXTRN	_RTC_CheckStackVars:PROC
;	COMDAT pdata
; File c:\downloads\wpf mediakit - copy\src\filters\baseclasses\strmctl.h
pdata	SEGMENT
$pdata$?SetSyncSource@CBaseStreamControl@@QEAAXPEAUIReferenceClock@@@Z DD imagerel $LN6
	DD	imagerel $LN6+185
	DD	imagerel $unwind$?SetSyncSource@CBaseStreamControl@@QEAAXPEAUIReferenceClock@@@Z
pdata	ENDS
;	COMDAT pdata
pdata	SEGMENT
$pdata$?dtor$0@?0??SetSyncSource@CBaseStreamControl@@QEAAXPEAUIReferenceClock@@@Z@4HA DD imagerel ?dtor$0@?0??SetSyncSource@CBaseStreamControl@@QEAAXPEAUIReferenceClock@@@Z@4HA
	DD	imagerel ?dtor$0@?0??SetSyncSource@CBaseStreamControl@@QEAAXPEAUIReferenceClock@@@Z@4HA+35
	DD	imagerel $unwind$?dtor$0@?0??SetSyncSource@CBaseStreamControl@@QEAAXPEAUIReferenceClock@@@Z@4HA
pdata	ENDS
;	COMDAT xdata
xdata	SEGMENT
$ip2state$?SetSyncSource@CBaseStreamControl@@QEAAXPEAUIReferenceClock@@@Z DD imagerel ?SetSyncSource@CBaseStreamControl@@QEAAXPEAUIReferenceClock@@@Z
	DD	0ffffffffH
	DD	imagerel ?SetSyncSource@CBaseStreamControl@@QEAAXPEAUIReferenceClock@@@Z+67
	DD	00H
	DD	imagerel ?SetSyncSource@CBaseStreamControl@@QEAAXPEAUIReferenceClock@@@Z+154
	DD	0ffffffffH
xdata	ENDS
;	COMDAT xdata
xdata	SEGMENT
$unwind$?dtor$0@?0??SetSyncSource@CBaseStreamControl@@QEAAXPEAUIReferenceClock@@@Z@4HA DD 031001H
	DD	0700c4210H
	DD	0500bH
xdata	ENDS
;	COMDAT xdata
xdata	SEGMENT
$unwind$?SetSyncSource@CBaseStreamControl@@QEAAXPEAUIReferenceClock@@@Z DD 022c11H
	DD	0700b720fH
	DD	imagerel __CxxFrameHandler3
	DD	imagerel $cppxdata$?SetSyncSource@CBaseStreamControl@@QEAAXPEAUIReferenceClock@@@Z
xdata	ENDS
;	COMDAT xdata
xdata	SEGMENT
$stateUnwindMap$?SetSyncSource@CBaseStreamControl@@QEAAXPEAUIReferenceClock@@@Z DD 0ffffffffH
	DD	imagerel ?dtor$0@?0??SetSyncSource@CBaseStreamControl@@QEAAXPEAUIReferenceClock@@@Z@4HA
xdata	ENDS
;	COMDAT CONST
CONST	SEGMENT
?SetSyncSource@CBaseStreamControl@@QEAAXPEAUIReferenceClock@@@Z$rtcName$0 DB 06cH ; CBaseStreamControl::SetSyncSource
	DB	063H
	DB	06bH
	DB	00H
	ORG $+12
?SetSyncSource@CBaseStreamControl@@QEAAXPEAUIReferenceClock@@@Z$rtcVarDesc DD 028H ; CBaseStreamControl::SetSyncSource
	DD	08H
	DQ	FLAT:?SetSyncSource@CBaseStreamControl@@QEAAXPEAUIReferenceClock@@@Z$rtcName$0
	ORG $+48
?SetSyncSource@CBaseStreamControl@@QEAAXPEAUIReferenceClock@@@Z$rtcFrameData DD 01H ; CBaseStreamControl::SetSyncSource
	DD	00H
	DQ	FLAT:?SetSyncSource@CBaseStreamControl@@QEAAXPEAUIReferenceClock@@@Z$rtcVarDesc
$cppxdata$?SetSyncSource@CBaseStreamControl@@QEAAXPEAUIReferenceClock@@@Z DD 019930522H
	DD	01H
	DD	imagerel $stateUnwindMap$?SetSyncSource@CBaseStreamControl@@QEAAXPEAUIReferenceClock@@@Z
	DD	00H
	DD	00H
	DD	03H
	DD	imagerel $ip2state$?SetSyncSource@CBaseStreamControl@@QEAAXPEAUIReferenceClock@@@Z
	DD	038H
	DD	00H
	DD	01H
; Function compile flags: /Odtp /RTCsu
CONST	ENDS
;	COMDAT ?SetSyncSource@CBaseStreamControl@@QEAAXPEAUIReferenceClock@@@Z
_TEXT	SEGMENT
lck$ = 40
$T82977 = 56
this$ = 80
pRefClock$ = 88
?SetSyncSource@CBaseStreamControl@@QEAAXPEAUIReferenceClock@@@Z PROC ; CBaseStreamControl::SetSyncSource, COMDAT
; Line 100
$LN6:
	mov	QWORD PTR [rsp+16], rdx
	mov	QWORD PTR [rsp+8], rcx
	push	rdi
	sub	rsp, 64					; 00000040H
	mov	rdi, rsp
	mov	ecx, 16
	mov	eax, -858993460				; ccccccccH
	rep stosd
	mov	rcx, QWORD PTR [rsp+80]
	mov	QWORD PTR $T82977[rsp], -2
; Line 101
	mov	rax, QWORD PTR this$[rsp]
	add	rax, 56					; 00000038H
	mov	rdx, rax
	lea	rcx, QWORD PTR lck$[rsp]
	call	??0CAutoLock@@QEAA@PEAVCCritSec@@@Z	; CAutoLock::CAutoLock
	npad	1
; Line 102
	mov	rax, QWORD PTR this$[rsp]
	cmp	QWORD PTR [rax+120], 0
	je	SHORT $LN2@SetSyncSou
	mov	rax, QWORD PTR this$[rsp]
	mov	rax, QWORD PTR [rax+120]
	mov	rcx, QWORD PTR this$[rsp]
	mov	rcx, QWORD PTR [rcx+120]
	mov	rax, QWORD PTR [rax]
	call	QWORD PTR [rax+16]
$LN2@SetSyncSou:
; Line 103
	mov	rax, QWORD PTR this$[rsp]
	mov	rcx, QWORD PTR pRefClock$[rsp]
	mov	QWORD PTR [rax+120], rcx
; Line 104
	mov	rax, QWORD PTR this$[rsp]
	cmp	QWORD PTR [rax+120], 0
	je	SHORT $LN1@SetSyncSou
	mov	rax, QWORD PTR this$[rsp]
	mov	rax, QWORD PTR [rax+120]
	mov	rcx, QWORD PTR this$[rsp]
	mov	rcx, QWORD PTR [rcx+120]
	mov	rax, QWORD PTR [rax]
	call	QWORD PTR [rax+8]
	npad	1
$LN1@SetSyncSou:
; Line 105
	lea	rcx, QWORD PTR lck$[rsp]
	call	??1CAutoLock@@QEAA@XZ			; CAutoLock::~CAutoLock
	mov	rcx, rsp
	lea	rdx, OFFSET FLAT:?SetSyncSource@CBaseStreamControl@@QEAAXPEAUIReferenceClock@@@Z$rtcFrameData
	call	_RTC_CheckStackVars
	add	rsp, 64					; 00000040H
	pop	rdi
	ret	0
?SetSyncSource@CBaseStreamControl@@QEAAXPEAUIReferenceClock@@@Z ENDP ; CBaseStreamControl::SetSyncSource
; Function compile flags: /Odtp /RTCsu
_TEXT	ENDS
;	COMDAT text$x
text$x	SEGMENT
lck$ = 40
$T82977 = 56
this$ = 80
pRefClock$ = 88
?dtor$0@?0??SetSyncSource@CBaseStreamControl@@QEAAXPEAUIReferenceClock@@@Z@4HA PROC ; `CBaseStreamControl::SetSyncSource'::`1'::dtor$0
	mov	QWORD PTR [rsp+8], rcx
	mov	QWORD PTR [rsp+16], rdx
	push	rbp
	push	rdi
	sub	rsp, 40					; 00000028H
	mov	rbp, rdx
	lea	rcx, QWORD PTR lck$[rbp]
	call	??1CAutoLock@@QEAA@XZ			; CAutoLock::~CAutoLock
	add	rsp, 40					; 00000028H
	pop	rdi
	pop	rbp
	ret	0
?dtor$0@?0??SetSyncSource@CBaseStreamControl@@QEAAXPEAUIReferenceClock@@@Z@4HA ENDP ; `CBaseStreamControl::SetSyncSource'::`1'::dtor$0
text$x	ENDS
EXTRN	?Lock@CCritSec@@QEAAXXZ:PROC			; CCritSec::Lock
;	COMDAT pdata
; File c:\downloads\wpf mediakit - copy\src\filters\baseclasses\wxutil.h
pdata	SEGMENT
$pdata$??0CAutoLock@@QEAA@PEAVCCritSec@@@Z DD imagerel $LN3
	DD	imagerel $LN3+72
	DD	imagerel $unwind$??0CAutoLock@@QEAA@PEAVCCritSec@@@Z
pdata	ENDS
;	COMDAT xdata
xdata	SEGMENT
$unwind$??0CAutoLock@@QEAA@PEAVCCritSec@@@Z DD 022301H
	DD	0700b320fH
; Function compile flags: /Odtp /RTCsu
xdata	ENDS
;	COMDAT ??0CAutoLock@@QEAA@PEAVCCritSec@@@Z
_TEXT	SEGMENT
this$ = 48
plock$ = 56
??0CAutoLock@@QEAA@PEAVCCritSec@@@Z PROC		; CAutoLock::CAutoLock, COMDAT
; Line 94
$LN3:
	mov	QWORD PTR [rsp+16], rdx
	mov	QWORD PTR [rsp+8], rcx
	push	rdi
	sub	rsp, 32					; 00000020H
	mov	rdi, rsp
	mov	ecx, 8
	mov	eax, -858993460				; ccccccccH
	rep stosd
	mov	rcx, QWORD PTR [rsp+48]
; Line 96
	mov	rax, QWORD PTR this$[rsp]
	mov	rcx, QWORD PTR plock$[rsp]
	mov	QWORD PTR [rax], rcx
; Line 97
	mov	rax, QWORD PTR this$[rsp]
	mov	rcx, QWORD PTR [rax]
	call	?Lock@CCritSec@@QEAAXXZ			; CCritSec::Lock
; Line 98
	mov	rax, QWORD PTR this$[rsp]
	add	rsp, 32					; 00000020H
	pop	rdi
	ret	0
??0CAutoLock@@QEAA@PEAVCCritSec@@@Z ENDP		; CAutoLock::CAutoLock
_TEXT	ENDS
EXTRN	?Unlock@CCritSec@@QEAAXXZ:PROC			; CCritSec::Unlock
;	COMDAT pdata
pdata	SEGMENT
$pdata$??1CAutoLock@@QEAA@XZ DD imagerel $LN3
	DD	imagerel $LN3+49
	DD	imagerel $unwind$??1CAutoLock@@QEAA@XZ
pdata	ENDS
;	COMDAT xdata
xdata	SEGMENT
$unwind$??1CAutoLock@@QEAA@XZ DD 021e01H
	DD	07006320aH
; Function compile flags: /Odtp /RTCsu
xdata	ENDS
;	COMDAT ??1CAutoLock@@QEAA@XZ
_TEXT	SEGMENT
this$ = 48
??1CAutoLock@@QEAA@XZ PROC				; CAutoLock::~CAutoLock, COMDAT
; Line 100
$LN3:
	mov	QWORD PTR [rsp+8], rcx
	push	rdi
	sub	rsp, 32					; 00000020H
	mov	rdi, rsp
	mov	ecx, 8
	mov	eax, -858993460				; ccccccccH
	rep stosd
	mov	rcx, QWORD PTR [rsp+48]
; Line 101
	mov	rax, QWORD PTR this$[rsp]
	mov	rcx, QWORD PTR [rax]
	call	?Unlock@CCritSec@@QEAAXXZ		; CCritSec::Unlock
; Line 102
	add	rsp, 32					; 00000020H
	pop	rdi
	ret	0
??1CAutoLock@@QEAA@XZ ENDP				; CAutoLock::~CAutoLock
_TEXT	ENDS
PUBLIC	?Set@CAMEvent@@QEAAXXZ				; CAMEvent::Set
PUBLIC	?CancelStop@CBaseStreamControl@@AEAAXXZ		; CBaseStreamControl::CancelStop
EXTRN	?DbgLogInfo@@YAXKKPEB_WZZ:PROC			; DbgLogInfo
;	COMDAT pdata
; File c:\downloads\wpf mediakit - copy\src\filters\baseclasses\strmctl.cpp
pdata	SEGMENT
$pdata$?StopAt@CBaseStreamControl@@UEAAJPEB_JHK@Z DD imagerel $LN9
	DD	imagerel $LN9+602
	DD	imagerel $unwind$?StopAt@CBaseStreamControl@@UEAAJPEB_JHK@Z
pdata	ENDS
;	COMDAT pdata
pdata	SEGMENT
$pdata$?dtor$0@?0??StopAt@CBaseStreamControl@@UEAAJPEB_JHK@Z@4HA DD imagerel ?dtor$0@?0??StopAt@CBaseStreamControl@@UEAAJPEB_JHK@Z@4HA
	DD	imagerel ?dtor$0@?0??StopAt@CBaseStreamControl@@UEAAJPEB_JHK@Z@4HA+35
	DD	imagerel $unwind$?dtor$0@?0??StopAt@CBaseStreamControl@@UEAAJPEB_JHK@Z@4HA
pdata	ENDS
;	COMDAT xdata
xdata	SEGMENT
$ip2state$?StopAt@CBaseStreamControl@@UEAAJPEB_JHK@Z DD imagerel ?StopAt@CBaseStreamControl@@UEAAJPEB_JHK@Z
	DD	0ffffffffH
	DD	imagerel ?StopAt@CBaseStreamControl@@UEAAJPEB_JHK@Z+77
	DD	00H
	DD	imagerel ?StopAt@CBaseStreamControl@@UEAAJPEB_JHK@Z+246
	DD	0ffffffffH
	DD	imagerel ?StopAt@CBaseStreamControl@@UEAAJPEB_JHK@Z+265
	DD	00H
	DD	imagerel ?StopAt@CBaseStreamControl@@UEAAJPEB_JHK@Z+561
	DD	0ffffffffH
xdata	ENDS
;	COMDAT xdata
xdata	SEGMENT
$unwind$?dtor$0@?0??StopAt@CBaseStreamControl@@UEAAJPEB_JHK@Z@4HA DD 031001H
	DD	0700c4210H
	DD	0500bH
xdata	ENDS
;	COMDAT xdata
xdata	SEGMENT
$unwind$?StopAt@CBaseStreamControl@@UEAAJPEB_JHK@Z DD 023611H
	DD	07015b219H
	DD	imagerel __CxxFrameHandler3
	DD	imagerel $cppxdata$?StopAt@CBaseStreamControl@@UEAAJPEB_JHK@Z
xdata	ENDS
;	COMDAT xdata
xdata	SEGMENT
$stateUnwindMap$?StopAt@CBaseStreamControl@@UEAAJPEB_JHK@Z DD 0ffffffffH
	DD	imagerel ?dtor$0@?0??StopAt@CBaseStreamControl@@UEAAJPEB_JHK@Z@4HA
xdata	ENDS
;	COMDAT CONST
CONST	SEGMENT
?StopAt@CBaseStreamControl@@UEAAJPEB_JHK@Z$rtcName$0 DB 06cH ; CBaseStreamControl::StopAt
	DB	063H
	DB	06bH
	DB	00H
	ORG $+12
?StopAt@CBaseStreamControl@@UEAAJPEB_JHK@Z$rtcVarDesc DD 038H ; CBaseStreamControl::StopAt
	DD	08H
	DQ	FLAT:?StopAt@CBaseStreamControl@@UEAAJPEB_JHK@Z$rtcName$0
	ORG $+48
?StopAt@CBaseStreamControl@@UEAAJPEB_JHK@Z$rtcFrameData DD 01H ; CBaseStreamControl::StopAt
	DD	00H
	DQ	FLAT:?StopAt@CBaseStreamControl@@UEAAJPEB_JHK@Z$rtcVarDesc
$cppxdata$?StopAt@CBaseStreamControl@@UEAAJPEB_JHK@Z DD 019930522H
	DD	01H
	DD	imagerel $stateUnwindMap$?StopAt@CBaseStreamControl@@UEAAJPEB_JHK@Z
	DD	00H
	DD	00H
	DD	05H
	DD	imagerel $ip2state$?StopAt@CBaseStreamControl@@UEAAJPEB_JHK@Z
	DD	050H
	DD	00H
	DD	01H
; Function compile flags: /Odtp /RTCsu
CONST	ENDS
;	COMDAT ?StopAt@CBaseStreamControl@@UEAAJPEB_JHK@Z
_TEXT	SEGMENT
lck$ = 56
$T83013 = 68
$T83014 = 72
$T83020 = 80
this$ = 112
ptStop$ = 120
bSendExtra$ = 128
dwCookie$ = 136
?StopAt@CBaseStreamControl@@UEAAJPEB_JHK@Z PROC		; CBaseStreamControl::StopAt, COMDAT
; Line 35
$LN9:
	mov	DWORD PTR [rsp+32], r9d
	mov	DWORD PTR [rsp+24], r8d
	mov	QWORD PTR [rsp+16], rdx
	mov	QWORD PTR [rsp+8], rcx
	push	rdi
	sub	rsp, 96					; 00000060H
	mov	rdi, rsp
	mov	ecx, 24
	mov	eax, -858993460				; ccccccccH
	rep stosd
	mov	rcx, QWORD PTR [rsp+112]
	mov	QWORD PTR $T83020[rsp], -2
; Line 36
	mov	rax, QWORD PTR this$[rsp]
	add	rax, 56					; 00000038H
	mov	rdx, rax
	lea	rcx, QWORD PTR lck$[rsp]
	call	??0CAutoLock@@QEAA@PEAVCCritSec@@@Z	; CAutoLock::CAutoLock
	npad	1
; Line 37
	mov	rax, QWORD PTR this$[rsp]
	mov	DWORD PTR [rax+44], 0
; Line 38
	mov	rax, QWORD PTR this$[rsp]
	mov	DWORD PTR [rax+48], 0
; Line 39
	cmp	QWORD PTR ptStop$[rsp], 0
	je	$LN5@StopAt
; Line 41
	mov	rax, QWORD PTR ptStop$[rsp]
	mov	rcx, 9223372036854775807		; 7fffffffffffffffH
	cmp	QWORD PTR [rax], rcx
	jne	$LN4@StopAt
; Line 43
	lea	r8, OFFSET FLAT:$SG82244
	mov	edx, 2
	mov	ecx, 2
	call	?DbgLogInfo@@YAXKKPEB_WZZ		; DbgLogInfo
; Line 44
	mov	rcx, QWORD PTR this$[rsp]
	call	?CancelStop@CBaseStreamControl@@AEAAXXZ	; CBaseStreamControl::CancelStop
; Line 47
	mov	rax, QWORD PTR this$[rsp]
	cmp	DWORD PTR [rax+136], 0
	jne	SHORT $LN3@StopAt
	mov	rax, QWORD PTR this$[rsp]
	mov	rcx, 9223372036854775807		; 7fffffffffffffffH
	cmp	QWORD PTR [rax+16], rcx
	jge	SHORT $LN3@StopAt
; Line 48
	mov	rax, QWORD PTR this$[rsp]
	mov	DWORD PTR [rax+8], 4097			; 00001001H
; Line 49
	lea	r8, OFFSET FLAT:$SG82246
	mov	edx, 2
	mov	ecx, 2
	call	?DbgLogInfo@@YAXKKPEB_WZZ		; DbgLogInfo
$LN3@StopAt:
; Line 51
	mov	DWORD PTR $T83013[rsp], 0
	lea	rcx, QWORD PTR lck$[rsp]
	call	??1CAutoLock@@QEAA@XZ			; CAutoLock::~CAutoLock
	mov	eax, DWORD PTR $T83013[rsp]
	jmp	$LN6@StopAt
$LN4@StopAt:
; Line 54
	mov	rax, QWORD PTR ptStop$[rsp]
	mov	rax, QWORD PTR [rax]
	cdq
	mov	ecx, 10000				; 00002710H
	idiv	rcx
	mov	ecx, DWORD PTR bSendExtra$[rsp]
	mov	DWORD PTR [rsp+32], ecx
	mov	r9d, eax
	lea	r8, OFFSET FLAT:$SG82249
	mov	edx, 2
	mov	ecx, 2
	call	?DbgLogInfo@@YAXKKPEB_WZZ		; DbgLogInfo
; Line 57
	mov	rax, QWORD PTR this$[rsp]
	cmp	DWORD PTR [rax+136], 0
	jne	SHORT $LN2@StopAt
	mov	rax, QWORD PTR this$[rsp]
	mov	rcx, QWORD PTR ptStop$[rsp]
	mov	rcx, QWORD PTR [rcx]
	cmp	QWORD PTR [rax+16], rcx
	jle	SHORT $LN2@StopAt
; Line 58
	mov	rax, QWORD PTR this$[rsp]
	mov	DWORD PTR [rax+8], 4096			; 00001000H
; Line 59
	lea	r8, OFFSET FLAT:$SG82251
	mov	edx, 2
	mov	ecx, 2
	call	?DbgLogInfo@@YAXKKPEB_WZZ		; DbgLogInfo
$LN2@StopAt:
; Line 61
	mov	rax, QWORD PTR this$[rsp]
	mov	ecx, DWORD PTR bSendExtra$[rsp]
	mov	DWORD PTR [rax+44], ecx
; Line 62
	mov	rax, QWORD PTR this$[rsp]
	mov	rcx, QWORD PTR ptStop$[rsp]
	mov	rcx, QWORD PTR [rcx]
	mov	QWORD PTR [rax+24], rcx
; Line 63
	mov	rax, QWORD PTR this$[rsp]
	mov	ecx, DWORD PTR dwCookie$[rsp]
	mov	DWORD PTR [rax+36], ecx
; Line 64
	mov	rax, QWORD PTR this$[rsp]
	mov	DWORD PTR [rax+12], 4097		; 00001001H
; Line 66
	jmp	SHORT $LN1@StopAt
$LN5@StopAt:
; Line 68
	lea	r8, OFFSET FLAT:$SG82253
	mov	edx, 2
	mov	ecx, 2
	call	?DbgLogInfo@@YAXKKPEB_WZZ		; DbgLogInfo
; Line 70
	mov	rax, QWORD PTR this$[rsp]
	mov	DWORD PTR [rax+44], 0
; Line 71
	mov	rax, QWORD PTR this$[rsp]
	mov	rcx, 9223372036854775807		; 7fffffffffffffffH
	mov	QWORD PTR [rax+24], rcx
; Line 72
	mov	rax, QWORD PTR this$[rsp]
	mov	DWORD PTR [rax+36], 0
; Line 73
	mov	rax, QWORD PTR this$[rsp]
	mov	DWORD PTR [rax+8], 4097			; 00001001H
; Line 74
	mov	rax, QWORD PTR this$[rsp]
	mov	DWORD PTR [rax+12], 4096		; 00001000H
$LN1@StopAt:
; Line 77
	mov	rax, QWORD PTR this$[rsp]
	add	rax, 112				; 00000070H
	mov	rcx, rax
	call	?Set@CAMEvent@@QEAAXXZ			; CAMEvent::Set
; Line 78
	mov	DWORD PTR $T83014[rsp], 0
	lea	rcx, QWORD PTR lck$[rsp]
	call	??1CAutoLock@@QEAA@XZ			; CAutoLock::~CAutoLock
	mov	eax, DWORD PTR $T83014[rsp]
$LN6@StopAt:
; Line 79
	mov	rdi, rax
	mov	rcx, rsp
	lea	rdx, OFFSET FLAT:?StopAt@CBaseStreamControl@@UEAAJPEB_JHK@Z$rtcFrameData
	call	_RTC_CheckStackVars
	mov	rax, rdi
	add	rsp, 96					; 00000060H
	pop	rdi
	ret	0
?StopAt@CBaseStreamControl@@UEAAJPEB_JHK@Z ENDP		; CBaseStreamControl::StopAt
; Function compile flags: /Odtp /RTCsu
_TEXT	ENDS
;	COMDAT text$x
text$x	SEGMENT
lck$ = 56
$T83013 = 68
$T83014 = 72
$T83020 = 80
this$ = 112
ptStop$ = 120
bSendExtra$ = 128
dwCookie$ = 136
?dtor$0@?0??StopAt@CBaseStreamControl@@UEAAJPEB_JHK@Z@4HA PROC ; `CBaseStreamControl::StopAt'::`1'::dtor$0
	mov	QWORD PTR [rsp+8], rcx
	mov	QWORD PTR [rsp+16], rdx
	push	rbp
	push	rdi
	sub	rsp, 40					; 00000028H
	mov	rbp, rdx
	lea	rcx, QWORD PTR lck$[rbp]
	call	??1CAutoLock@@QEAA@XZ			; CAutoLock::~CAutoLock
	add	rsp, 40					; 00000028H
	pop	rdi
	pop	rbp
	ret	0
?dtor$0@?0??StopAt@CBaseStreamControl@@UEAAJPEB_JHK@Z@4HA ENDP ; `CBaseStreamControl::StopAt'::`1'::dtor$0
text$x	ENDS
PUBLIC	??_C@_1CG@LOEFFHJE@?$AAS?$AAe?$AAt?$AAE?$AAv?$AAe?$AAn?$AAt?$AA?$CI?$AAm?$AA_?$AAh?$AAE?$AAv?$AAe?$AAn?$AAt?$AA?$CJ?$AA?$AA@ ; `string'
PUBLIC	??_C@_1IE@FEPELDBE@?$AAC?$AA?3?$AA?2?$AAD?$AAo?$AAw?$AAn?$AAl?$AAo?$AAa?$AAd?$AAs?$AA?2?$AAW?$AAP?$AAF?$AA?5?$AAM?$AAe?$AAd?$AAi?$AAa?$AAK?$AAi?$AAt?$AA?5?$AA?9?$AA?5?$AAC?$AAo?$AAp?$AAy@ ; `string'
EXTRN	?DbgAssert@@YAXPEB_W0H@Z:PROC			; DbgAssert
EXTRN	__imp_SetEvent:PROC
;	COMDAT pdata
; File c:\downloads\wpf mediakit - copy\src\filters\baseclasses\wxutil.h
pdata	SEGMENT
$pdata$?Set@CAMEvent@@QEAAXXZ DD imagerel $LN4
	DD	imagerel $LN4+79
	DD	imagerel $unwind$?Set@CAMEvent@@QEAAXXZ
pdata	ENDS
;	COMDAT xdata
xdata	SEGMENT
$unwind$?Set@CAMEvent@@QEAAXXZ DD 021e01H
	DD	07006320aH
xdata	ENDS
;	COMDAT ??_C@_1CG@LOEFFHJE@?$AAS?$AAe?$AAt?$AAE?$AAv?$AAe?$AAn?$AAt?$AA?$CI?$AAm?$AA_?$AAh?$AAE?$AAv?$AAe?$AAn?$AAt?$AA?$CJ?$AA?$AA@
CONST	SEGMENT
??_C@_1CG@LOEFFHJE@?$AAS?$AAe?$AAt?$AAE?$AAv?$AAe?$AAn?$AAt?$AA?$CI?$AAm?$AA_?$AAh?$AAE?$AAv?$AAe?$AAn?$AAt?$AA?$CJ?$AA?$AA@ DB 'S'
	DB	00H, 'e', 00H, 't', 00H, 'E', 00H, 'v', 00H, 'e', 00H, 'n', 00H
	DB	't', 00H, '(', 00H, 'm', 00H, '_', 00H, 'h', 00H, 'E', 00H, 'v'
	DB	00H, 'e', 00H, 'n', 00H, 't', 00H, ')', 00H, 00H, 00H ; `string'
CONST	ENDS
;	COMDAT ??_C@_1IE@FEPELDBE@?$AAC?$AA?3?$AA?2?$AAD?$AAo?$AAw?$AAn?$AAl?$AAo?$AAa?$AAd?$AAs?$AA?2?$AAW?$AAP?$AAF?$AA?5?$AAM?$AAe?$AAd?$AAi?$AAa?$AAK?$AAi?$AAt?$AA?5?$AA?9?$AA?5?$AAC?$AAo?$AAp?$AAy@
CONST	SEGMENT
??_C@_1IE@FEPELDBE@?$AAC?$AA?3?$AA?2?$AAD?$AAo?$AAw?$AAn?$AAl?$AAo?$AAa?$AAd?$AAs?$AA?2?$AAW?$AAP?$AAF?$AA?5?$AAM?$AAe?$AAd?$AAi?$AAa?$AAK?$AAi?$AAt?$AA?5?$AA?9?$AA?5?$AAC?$AAo?$AAp?$AAy@ DB 'C'
	DB	00H, ':', 00H, '\', 00H, 'D', 00H, 'o', 00H, 'w', 00H, 'n', 00H
	DB	'l', 00H, 'o', 00H, 'a', 00H, 'd', 00H, 's', 00H, '\', 00H, 'W'
	DB	00H, 'P', 00H, 'F', 00H, ' ', 00H, 'M', 00H, 'e', 00H, 'd', 00H
	DB	'i', 00H, 'a', 00H, 'K', 00H, 'i', 00H, 't', 00H, ' ', 00H, '-'
	DB	00H, ' ', 00H, 'C', 00H, 'o', 00H, 'p', 00H, 'y', 00H, '\', 00H
	DB	's', 00H, 'r', 00H, 'c', 00H, '\', 00H, 'f', 00H, 'i', 00H, 'l'
	DB	00H, 't', 00H, 'e', 00H, 'r', 00H, 's', 00H, '\', 00H, 'B', 00H
	DB	'a', 00H, 's', 00H, 'e', 00H, 'C', 00H, 'l', 00H, 'a', 00H, 's'
	DB	00H, 's', 00H, 'e', 00H, 's', 00H, '\', 00H, 'w', 00H, 'x', 00H
	DB	'u', 00H, 't', 00H, 'i', 00H, 'l', 00H, '.', 00H, 'h', 00H, 00H
	DB	00H						; `string'
; Function compile flags: /Odtp /RTCsu
CONST	ENDS
;	COMDAT ?Set@CAMEvent@@QEAAXXZ
_TEXT	SEGMENT
this$ = 48
?Set@CAMEvent@@QEAAXXZ PROC				; CAMEvent::Set, COMDAT
; Line 125
$LN4:
	mov	QWORD PTR [rsp+8], rcx
	push	rdi
	sub	rsp, 32					; 00000020H
	mov	rdi, rsp
	mov	ecx, 8
	mov	eax, -858993460				; ccccccccH
	rep stosd
	mov	rcx, QWORD PTR [rsp+48]
	mov	rax, QWORD PTR this$[rsp]
	mov	rcx, QWORD PTR [rax]
	call	QWORD PTR __imp_SetEvent
	test	eax, eax
	jne	SHORT $LN1@Set
	mov	r8d, 125				; 0000007dH
	lea	rdx, OFFSET FLAT:??_C@_1IE@FEPELDBE@?$AAC?$AA?3?$AA?2?$AAD?$AAo?$AAw?$AAn?$AAl?$AAo?$AAa?$AAd?$AAs?$AA?2?$AAW?$AAP?$AAF?$AA?5?$AAM?$AAe?$AAd?$AAi?$AAa?$AAK?$AAi?$AAt?$AA?5?$AA?9?$AA?5?$AAC?$AAo?$AAp?$AAy@
	lea	rcx, OFFSET FLAT:??_C@_1CG@LOEFFHJE@?$AAS?$AAe?$AAt?$AAE?$AAv?$AAe?$AAn?$AAt?$AA?$CI?$AAm?$AA_?$AAh?$AAE?$AAv?$AAe?$AAn?$AAt?$AA?$CJ?$AA?$AA@
	call	?DbgAssert@@YAXPEB_W0H@Z		; DbgAssert
$LN1@Set:
	add	rsp, 32					; 00000020H
	pop	rdi
	ret	0
?Set@CAMEvent@@QEAAXXZ ENDP				; CAMEvent::Set
_TEXT	ENDS
PUBLIC	?CancelStart@CBaseStreamControl@@AEAAXXZ	; CBaseStreamControl::CancelStart
;	COMDAT pdata
; File c:\downloads\wpf mediakit - copy\src\filters\baseclasses\strmctl.cpp
pdata	SEGMENT
$pdata$?StartAt@CBaseStreamControl@@UEAAJPEB_JK@Z DD imagerel $LN9
	DD	imagerel $LN9+508
	DD	imagerel $unwind$?StartAt@CBaseStreamControl@@UEAAJPEB_JK@Z
pdata	ENDS
;	COMDAT pdata
pdata	SEGMENT
$pdata$?dtor$0@?0??StartAt@CBaseStreamControl@@UEAAJPEB_JK@Z@4HA DD imagerel ?dtor$0@?0??StartAt@CBaseStreamControl@@UEAAJPEB_JK@Z@4HA
	DD	imagerel ?dtor$0@?0??StartAt@CBaseStreamControl@@UEAAJPEB_JK@Z@4HA+35
	DD	imagerel $unwind$?dtor$0@?0??StartAt@CBaseStreamControl@@UEAAJPEB_JK@Z@4HA
pdata	ENDS
;	COMDAT xdata
xdata	SEGMENT
$ip2state$?StartAt@CBaseStreamControl@@UEAAJPEB_JK@Z DD imagerel ?StartAt@CBaseStreamControl@@UEAAJPEB_JK@Z
	DD	0ffffffffH
	DD	imagerel ?StartAt@CBaseStreamControl@@UEAAJPEB_JK@Z+72
	DD	00H
	DD	imagerel ?StartAt@CBaseStreamControl@@UEAAJPEB_JK@Z+217
	DD	0ffffffffH
	DD	imagerel ?StartAt@CBaseStreamControl@@UEAAJPEB_JK@Z+236
	DD	00H
	DD	imagerel ?StartAt@CBaseStreamControl@@UEAAJPEB_JK@Z+467
	DD	0ffffffffH
xdata	ENDS
;	COMDAT xdata
xdata	SEGMENT
$unwind$?dtor$0@?0??StartAt@CBaseStreamControl@@UEAAJPEB_JK@Z@4HA DD 031001H
	DD	0700c4210H
	DD	0500bH
xdata	ENDS
;	COMDAT xdata
xdata	SEGMENT
$unwind$?StartAt@CBaseStreamControl@@UEAAJPEB_JK@Z DD 023111H
	DD	070109214H
	DD	imagerel __CxxFrameHandler3
	DD	imagerel $cppxdata$?StartAt@CBaseStreamControl@@UEAAJPEB_JK@Z
xdata	ENDS
;	COMDAT xdata
xdata	SEGMENT
$stateUnwindMap$?StartAt@CBaseStreamControl@@UEAAJPEB_JK@Z DD 0ffffffffH
	DD	imagerel ?dtor$0@?0??StartAt@CBaseStreamControl@@UEAAJPEB_JK@Z@4HA
xdata	ENDS
;	COMDAT CONST
CONST	SEGMENT
?StartAt@CBaseStreamControl@@UEAAJPEB_JK@Z$rtcName$0 DB 06cH ; CBaseStreamControl::StartAt
	DB	063H
	DB	06bH
	DB	00H
	ORG $+12
?StartAt@CBaseStreamControl@@UEAAJPEB_JK@Z$rtcVarDesc DD 028H ; CBaseStreamControl::StartAt
	DD	08H
	DQ	FLAT:?StartAt@CBaseStreamControl@@UEAAJPEB_JK@Z$rtcName$0
	ORG $+48
?StartAt@CBaseStreamControl@@UEAAJPEB_JK@Z$rtcFrameData DD 01H ; CBaseStreamControl::StartAt
	DD	00H
	DQ	FLAT:?StartAt@CBaseStreamControl@@UEAAJPEB_JK@Z$rtcVarDesc
$cppxdata$?StartAt@CBaseStreamControl@@UEAAJPEB_JK@Z DD 019930522H
	DD	01H
	DD	imagerel $stateUnwindMap$?StartAt@CBaseStreamControl@@UEAAJPEB_JK@Z
	DD	00H
	DD	00H
	DD	05H
	DD	imagerel $ip2state$?StartAt@CBaseStreamControl@@UEAAJPEB_JK@Z
	DD	040H
	DD	00H
	DD	01H
; Function compile flags: /Odtp /RTCsu
CONST	ENDS
;	COMDAT ?StartAt@CBaseStreamControl@@UEAAJPEB_JK@Z
_TEXT	SEGMENT
lck$ = 40
$T83048 = 52
$T83049 = 56
$T83055 = 64
this$ = 96
ptStart$ = 104
dwCookie$ = 112
?StartAt@CBaseStreamControl@@UEAAJPEB_JK@Z PROC		; CBaseStreamControl::StartAt, COMDAT
; Line 83
$LN9:
	mov	DWORD PTR [rsp+24], r8d
	mov	QWORD PTR [rsp+16], rdx
	mov	QWORD PTR [rsp+8], rcx
	push	rdi
	sub	rsp, 80					; 00000050H
	mov	rdi, rsp
	mov	ecx, 20
	mov	eax, -858993460				; ccccccccH
	rep stosd
	mov	rcx, QWORD PTR [rsp+96]
	mov	QWORD PTR $T83055[rsp], -2
; Line 84
	mov	rax, QWORD PTR this$[rsp]
	add	rax, 56					; 00000038H
	mov	rdx, rax
	lea	rcx, QWORD PTR lck$[rsp]
	call	??0CAutoLock@@QEAA@PEAVCCritSec@@@Z	; CAutoLock::CAutoLock
	npad	1
; Line 85
	cmp	QWORD PTR ptStart$[rsp], 0
	je	$LN5@StartAt
; Line 87
	mov	rax, QWORD PTR ptStart$[rsp]
	mov	rcx, 9223372036854775807		; 7fffffffffffffffH
	cmp	QWORD PTR [rax], rcx
	jne	$LN4@StartAt
; Line 89
	lea	r8, OFFSET FLAT:$SG82263
	mov	edx, 2
	mov	ecx, 2
	call	?DbgLogInfo@@YAXKKPEB_WZZ		; DbgLogInfo
; Line 90
	mov	rcx, QWORD PTR this$[rsp]
	call	?CancelStart@CBaseStreamControl@@AEAAXXZ ; CBaseStreamControl::CancelStart
; Line 93
	mov	rax, QWORD PTR this$[rsp]
	cmp	DWORD PTR [rax+136], 0
	jne	SHORT $LN3@StartAt
	mov	rax, QWORD PTR this$[rsp]
	mov	rcx, 9223372036854775807		; 7fffffffffffffffH
	cmp	QWORD PTR [rax+24], rcx
	jge	SHORT $LN3@StartAt
; Line 94
	lea	r8, OFFSET FLAT:$SG82265
	mov	edx, 2
	mov	ecx, 2
	call	?DbgLogInfo@@YAXKKPEB_WZZ		; DbgLogInfo
; Line 95
	mov	rax, QWORD PTR this$[rsp]
	mov	DWORD PTR [rax+8], 4096			; 00001000H
$LN3@StartAt:
; Line 97
	mov	DWORD PTR $T83048[rsp], 0
	lea	rcx, QWORD PTR lck$[rsp]
	call	??1CAutoLock@@QEAA@XZ			; CAutoLock::~CAutoLock
	mov	eax, DWORD PTR $T83048[rsp]
	jmp	$LN6@StartAt
$LN4@StartAt:
; Line 99
	mov	rax, QWORD PTR ptStart$[rsp]
	mov	rax, QWORD PTR [rax]
	cdq
	mov	ecx, 10000				; 00002710H
	idiv	rcx
	mov	r9d, eax
	lea	r8, OFFSET FLAT:$SG82268
	mov	edx, 2
	mov	ecx, 2
	call	?DbgLogInfo@@YAXKKPEB_WZZ		; DbgLogInfo
; Line 102
	mov	rax, QWORD PTR this$[rsp]
	cmp	DWORD PTR [rax+136], 0
	jne	SHORT $LN2@StartAt
	mov	rax, QWORD PTR this$[rsp]
	mov	rcx, QWORD PTR ptStart$[rsp]
	mov	rcx, QWORD PTR [rcx]
	cmp	QWORD PTR [rax+24], rcx
	jl	SHORT $LN2@StartAt
; Line 103
	lea	r8, OFFSET FLAT:$SG82270
	mov	edx, 2
	mov	ecx, 2
	call	?DbgLogInfo@@YAXKKPEB_WZZ		; DbgLogInfo
; Line 104
	mov	rax, QWORD PTR this$[rsp]
	mov	DWORD PTR [rax+8], 4097			; 00001001H
$LN2@StartAt:
; Line 106
	mov	rax, QWORD PTR this$[rsp]
	mov	rcx, QWORD PTR ptStart$[rsp]
	mov	rcx, QWORD PTR [rcx]
	mov	QWORD PTR [rax+16], rcx
; Line 107
	mov	rax, QWORD PTR this$[rsp]
	mov	ecx, DWORD PTR dwCookie$[rsp]
	mov	DWORD PTR [rax+32], ecx
; Line 110
	jmp	SHORT $LN1@StartAt
$LN5@StartAt:
; Line 112
	lea	r8, OFFSET FLAT:$SG82272
	mov	edx, 2
	mov	ecx, 2
	call	?DbgLogInfo@@YAXKKPEB_WZZ		; DbgLogInfo
; Line 113
	mov	rax, QWORD PTR this$[rsp]
	mov	rcx, 9223372036854775807		; 7fffffffffffffffH
	mov	QWORD PTR [rax+16], rcx
; Line 114
	mov	rax, QWORD PTR this$[rsp]
	mov	DWORD PTR [rax+32], 0
; Line 115
	mov	rax, QWORD PTR this$[rsp]
	mov	DWORD PTR [rax+8], 4096			; 00001000H
$LN1@StartAt:
; Line 118
	mov	rax, QWORD PTR this$[rsp]
	add	rax, 112				; 00000070H
	mov	rcx, rax
	call	?Set@CAMEvent@@QEAAXXZ			; CAMEvent::Set
; Line 119
	mov	DWORD PTR $T83049[rsp], 0
	lea	rcx, QWORD PTR lck$[rsp]
	call	??1CAutoLock@@QEAA@XZ			; CAutoLock::~CAutoLock
	mov	eax, DWORD PTR $T83049[rsp]
$LN6@StartAt:
; Line 120
	mov	rdi, rax
	mov	rcx, rsp
	lea	rdx, OFFSET FLAT:?StartAt@CBaseStreamControl@@UEAAJPEB_JK@Z$rtcFrameData
	call	_RTC_CheckStackVars
	mov	rax, rdi
	add	rsp, 80					; 00000050H
	pop	rdi
	ret	0
?StartAt@CBaseStreamControl@@UEAAJPEB_JK@Z ENDP		; CBaseStreamControl::StartAt
; Function compile flags: /Odtp /RTCsu
_TEXT	ENDS
;	COMDAT text$x
text$x	SEGMENT
lck$ = 40
$T83048 = 52
$T83049 = 56
$T83055 = 64
this$ = 96
ptStart$ = 104
dwCookie$ = 112
?dtor$0@?0??StartAt@CBaseStreamControl@@UEAAJPEB_JK@Z@4HA PROC ; `CBaseStreamControl::StartAt'::`1'::dtor$0
	mov	QWORD PTR [rsp+8], rcx
	mov	QWORD PTR [rsp+16], rdx
	push	rbp
	push	rdi
	sub	rsp, 40					; 00000028H
	mov	rbp, rdx
	lea	rcx, QWORD PTR lck$[rbp]
	call	??1CAutoLock@@QEAA@XZ			; CAutoLock::~CAutoLock
	add	rsp, 40					; 00000028H
	pop	rdi
	pop	rbp
	ret	0
?dtor$0@?0??StartAt@CBaseStreamControl@@UEAAJPEB_JK@Z@4HA ENDP ; `CBaseStreamControl::StartAt'::`1'::dtor$0
text$x	ENDS
EXTRN	?DbgBreakPoint@@YAXPEB_W0H@Z:PROC		; DbgBreakPoint
;	COMDAT pdata
pdata	SEGMENT
$pdata$?GetInfo@CBaseStreamControl@@UEAAJPEAUAM_STREAM_INFO@@@Z DD imagerel $LN15
	DD	imagerel $LN15+370
	DD	imagerel $unwind$?GetInfo@CBaseStreamControl@@UEAAJPEAUAM_STREAM_INFO@@@Z
pdata	ENDS
;	COMDAT xdata
xdata	SEGMENT
$unwind$?GetInfo@CBaseStreamControl@@UEAAJPEAUAM_STREAM_INFO@@@Z DD 022301H
	DD	0700b520fH
; Function compile flags: /Odtp /RTCsu
xdata	ENDS
;	COMDAT ?GetInfo@CBaseStreamControl@@UEAAJPEAUAM_STREAM_INFO@@@Z
_TEXT	SEGMENT
tv76 = 32
tv80 = 36
tv86 = 40
tv90 = 44
this$ = 64
pInfo$ = 72
?GetInfo@CBaseStreamControl@@UEAAJPEAUAM_STREAM_INFO@@@Z PROC ; CBaseStreamControl::GetInfo, COMDAT
; Line 124
$LN15:
	mov	QWORD PTR [rsp+16], rdx
	mov	QWORD PTR [rsp+8], rcx
	push	rdi
	sub	rsp, 48					; 00000030H
	mov	rdi, rsp
	mov	ecx, 12
	mov	eax, -858993460				; ccccccccH
	rep stosd
	mov	rcx, QWORD PTR [rsp+64]
; Line 125
	cmp	QWORD PTR pInfo$[rsp], 0
	jne	SHORT $LN6@GetInfo
; Line 126
	mov	eax, -2147467261			; ffffffff80004003H
	jmp	$LN7@GetInfo
$LN6@GetInfo:
; Line 128
	mov	rax, QWORD PTR pInfo$[rsp]
	mov	rcx, QWORD PTR this$[rsp]
	mov	rcx, QWORD PTR [rcx+16]
	mov	QWORD PTR [rax], rcx
; Line 129
	mov	rax, QWORD PTR pInfo$[rsp]
	mov	rcx, QWORD PTR this$[rsp]
	mov	rcx, QWORD PTR [rcx+24]
	mov	QWORD PTR [rax+8], rcx
; Line 130
	mov	rax, QWORD PTR pInfo$[rsp]
	mov	rcx, QWORD PTR this$[rsp]
	mov	ecx, DWORD PTR [rcx+32]
	mov	DWORD PTR [rax+16], ecx
; Line 131
	mov	rax, QWORD PTR pInfo$[rsp]
	mov	rcx, QWORD PTR this$[rsp]
	mov	ecx, DWORD PTR [rcx+36]
	mov	DWORD PTR [rax+20], ecx
; Line 132
	mov	rax, QWORD PTR this$[rsp]
	mov	eax, DWORD PTR [rax+44]
	test	eax, eax
	je	SHORT $LN9@GetInfo
	mov	DWORD PTR tv76[rsp], 16
	jmp	SHORT $LN10@GetInfo
$LN9@GetInfo:
	mov	DWORD PTR tv76[rsp], 0
$LN10@GetInfo:
	mov	rax, QWORD PTR pInfo$[rsp]
	mov	ecx, DWORD PTR tv76[rsp]
	mov	DWORD PTR [rax+24], ecx
; Line 133
	mov	rax, QWORD PTR this$[rsp]
	mov	rcx, 9223372036854775807		; 7fffffffffffffffH
	cmp	QWORD PTR [rax+16], rcx
	jne	SHORT $LN11@GetInfo
	mov	DWORD PTR tv80[rsp], 0
	jmp	SHORT $LN12@GetInfo
$LN11@GetInfo:
	mov	DWORD PTR tv80[rsp], 1
$LN12@GetInfo:
	mov	rax, QWORD PTR pInfo$[rsp]
	mov	ecx, DWORD PTR tv80[rsp]
	mov	eax, DWORD PTR [rax+24]
	or	eax, ecx
	mov	rcx, QWORD PTR pInfo$[rsp]
	mov	DWORD PTR [rcx+24], eax
; Line 134
	mov	rax, QWORD PTR this$[rsp]
	mov	rcx, 9223372036854775807		; 7fffffffffffffffH
	cmp	QWORD PTR [rax+24], rcx
	jne	SHORT $LN13@GetInfo
	mov	DWORD PTR tv86[rsp], 0
	jmp	SHORT $LN14@GetInfo
$LN13@GetInfo:
	mov	DWORD PTR tv86[rsp], 2
$LN14@GetInfo:
	mov	rax, QWORD PTR pInfo$[rsp]
	mov	ecx, DWORD PTR tv86[rsp]
	mov	eax, DWORD PTR [rax+24]
	or	eax, ecx
	mov	rcx, QWORD PTR pInfo$[rsp]
	mov	DWORD PTR [rcx+24], eax
; Line 135
	mov	rax, QWORD PTR this$[rsp]
	mov	eax, DWORD PTR [rax+8]
	mov	DWORD PTR tv90[rsp], eax
	cmp	DWORD PTR tv90[rsp], 4096		; 00001000H
	je	SHORT $LN2@GetInfo
	cmp	DWORD PTR tv90[rsp], 4097		; 00001001H
	je	SHORT $LN1@GetInfo
; Line 137
	mov	r8d, 137				; 00000089H
	lea	rdx, OFFSET FLAT:$SG82285
	lea	rcx, OFFSET FLAT:$SG82286
	call	?DbgBreakPoint@@YAXPEB_W0H@Z		; DbgBreakPoint
$LN2@GetInfo:
; Line 139
	jmp	SHORT $LN4@GetInfo
$LN1@GetInfo:
; Line 141
	mov	rax, QWORD PTR pInfo$[rsp]
	mov	eax, DWORD PTR [rax+24]
	or	eax, 4
	mov	rcx, QWORD PTR pInfo$[rsp]
	mov	DWORD PTR [rcx+24], eax
$LN4@GetInfo:
; Line 144
	xor	eax, eax
$LN7@GetInfo:
; Line 145
	add	rsp, 48					; 00000030H
	pop	rdi
	ret	0
?GetInfo@CBaseStreamControl@@UEAAJPEAUAM_STREAM_INFO@@@Z ENDP ; CBaseStreamControl::GetInfo
_TEXT	ENDS
PUBLIC	?ExecuteStop@CBaseStreamControl@@AEAAXXZ	; CBaseStreamControl::ExecuteStop
EXTRN	?CritCheckIn@@YAHPEAVCCritSec@@@Z:PROC		; CritCheckIn
;	COMDAT pdata
pdata	SEGMENT
$pdata$?ExecuteStop@CBaseStreamControl@@AEAAXXZ DD imagerel $LN5
	DD	imagerel $LN5+239
	DD	imagerel $unwind$?ExecuteStop@CBaseStreamControl@@AEAAXXZ
pdata	ENDS
;	COMDAT xdata
xdata	SEGMENT
$unwind$?ExecuteStop@CBaseStreamControl@@AEAAXXZ DD 021e01H
	DD	07006520aH
; Function compile flags: /Odtp /RTCsu
xdata	ENDS
;	COMDAT ?ExecuteStop@CBaseStreamControl@@AEAAXXZ
_TEXT	SEGMENT
tv86 = 32
tv95 = 40
this$ = 64
?ExecuteStop@CBaseStreamControl@@AEAAXXZ PROC		; CBaseStreamControl::ExecuteStop, COMDAT
; Line 149
$LN5:
	mov	QWORD PTR [rsp+8], rcx
	push	rdi
	sub	rsp, 48					; 00000030H
	mov	rdi, rsp
	mov	ecx, 12
	mov	eax, -858993460				; ccccccccH
	rep stosd
	mov	rcx, QWORD PTR [rsp+64]
; Line 150
	mov	rax, QWORD PTR this$[rsp]
	add	rax, 56					; 00000038H
	mov	rcx, rax
	call	?CritCheckIn@@YAHPEAVCCritSec@@@Z	; CritCheckIn
	test	eax, eax
	jne	SHORT $LN2@ExecuteSto
	mov	r8d, 150				; 00000096H
	lea	rdx, OFFSET FLAT:$SG82294
	lea	rcx, OFFSET FLAT:$SG82295
	call	?DbgAssert@@YAXPEB_W0H@Z		; DbgAssert
$LN2@ExecuteSto:
; Line 151
	mov	rax, QWORD PTR this$[rsp]
	mov	rcx, QWORD PTR this$[rsp]
	mov	ecx, DWORD PTR [rcx+12]
	mov	DWORD PTR [rax+8], ecx
; Line 152
	mov	rax, QWORD PTR this$[rsp]
	cmp	DWORD PTR [rax+36], 0
	je	SHORT $LN1@ExecuteSto
	mov	rax, QWORD PTR this$[rsp]
	cmp	QWORD PTR [rax+128], 0
	je	SHORT $LN1@ExecuteSto
; Line 154
	mov	rax, QWORD PTR this$[rsp]
	mov	r9d, DWORD PTR [rax+36]
	lea	r8, OFFSET FLAT:$SG82297
	mov	edx, 2
	mov	ecx, 2
	call	?DbgLogInfo@@YAXKKPEB_WZZ		; DbgLogInfo
; Line 155
	mov	rax, QWORD PTR this$[rsp]
	mov	eax, DWORD PTR [rax+36]
	mov	rcx, QWORD PTR this$[rsp]
	mov	rcx, QWORD PTR [rcx+128]
	mov	rdx, QWORD PTR this$[rsp]
	mov	rdx, QWORD PTR [rdx+128]
	mov	QWORD PTR tv86[rsp], rdx
	mov	rcx, QWORD PTR [rcx]
	mov	QWORD PTR tv95[rsp], rcx
	mov	r9d, eax
	mov	r8, QWORD PTR this$[rsp]
	mov	edx, 26
	mov	rax, QWORD PTR tv86[rsp]
	mov	rcx, rax
	mov	rax, QWORD PTR tv95[rsp]
	call	QWORD PTR [rax+24]
$LN1@ExecuteSto:
; Line 157
	mov	rcx, QWORD PTR this$[rsp]
	call	?CancelStop@CBaseStreamControl@@AEAAXXZ	; CBaseStreamControl::CancelStop
; Line 158
	add	rsp, 48					; 00000030H
	pop	rdi
	ret	0
?ExecuteStop@CBaseStreamControl@@AEAAXXZ ENDP		; CBaseStreamControl::ExecuteStop
_TEXT	ENDS
PUBLIC	?ExecuteStart@CBaseStreamControl@@AEAAXXZ	; CBaseStreamControl::ExecuteStart
;	COMDAT pdata
pdata	SEGMENT
$pdata$?ExecuteStart@CBaseStreamControl@@AEAAXXZ DD imagerel $LN5
	DD	imagerel $LN5+220
	DD	imagerel $unwind$?ExecuteStart@CBaseStreamControl@@AEAAXXZ
pdata	ENDS
;	COMDAT xdata
xdata	SEGMENT
$unwind$?ExecuteStart@CBaseStreamControl@@AEAAXXZ DD 021e01H
	DD	07006520aH
; Function compile flags: /Odtp /RTCsu
xdata	ENDS
;	COMDAT ?ExecuteStart@CBaseStreamControl@@AEAAXXZ
_TEXT	SEGMENT
tv83 = 32
tv92 = 40
this$ = 64
?ExecuteStart@CBaseStreamControl@@AEAAXXZ PROC		; CBaseStreamControl::ExecuteStart, COMDAT
; Line 161
$LN5:
	mov	QWORD PTR [rsp+8], rcx
	push	rdi
	sub	rsp, 48					; 00000030H
	mov	rdi, rsp
	mov	ecx, 12
	mov	eax, -858993460				; ccccccccH
	rep stosd
	mov	rcx, QWORD PTR [rsp+64]
; Line 162
	mov	rax, QWORD PTR this$[rsp]
	add	rax, 56					; 00000038H
	mov	rcx, rax
	call	?CritCheckIn@@YAHPEAVCCritSec@@@Z	; CritCheckIn
	test	eax, eax
	jne	SHORT $LN2@ExecuteSta
	mov	r8d, 162				; 000000a2H
	lea	rdx, OFFSET FLAT:$SG82303
	lea	rcx, OFFSET FLAT:$SG82304
	call	?DbgAssert@@YAXPEB_W0H@Z		; DbgAssert
$LN2@ExecuteSta:
; Line 163
	mov	rax, QWORD PTR this$[rsp]
	mov	DWORD PTR [rax+8], 4096			; 00001000H
; Line 164
	mov	rax, QWORD PTR this$[rsp]
	cmp	DWORD PTR [rax+32], 0
	je	SHORT $LN1@ExecuteSta
; Line 166
	mov	rax, QWORD PTR this$[rsp]
	mov	r9d, DWORD PTR [rax+32]
	lea	r8, OFFSET FLAT:$SG82306
	mov	edx, 2
	mov	ecx, 2
	call	?DbgLogInfo@@YAXKKPEB_WZZ		; DbgLogInfo
; Line 167
	mov	rax, QWORD PTR this$[rsp]
	mov	eax, DWORD PTR [rax+32]
	mov	rcx, QWORD PTR this$[rsp]
	mov	rcx, QWORD PTR [rcx+128]
	mov	rdx, QWORD PTR this$[rsp]
	mov	rdx, QWORD PTR [rdx+128]
	mov	QWORD PTR tv83[rsp], rdx
	mov	rcx, QWORD PTR [rcx]
	mov	QWORD PTR tv92[rsp], rcx
	mov	r9d, eax
	mov	r8, QWORD PTR this$[rsp]
	mov	edx, 27
	mov	rax, QWORD PTR tv83[rsp]
	mov	rcx, rax
	mov	rax, QWORD PTR tv92[rsp]
	call	QWORD PTR [rax+24]
$LN1@ExecuteSta:
; Line 169
	mov	rcx, QWORD PTR this$[rsp]
	call	?CancelStart@CBaseStreamControl@@AEAAXXZ ; CBaseStreamControl::CancelStart
; Line 170
	add	rsp, 48					; 00000030H
	pop	rdi
	ret	0
?ExecuteStart@CBaseStreamControl@@AEAAXXZ ENDP		; CBaseStreamControl::ExecuteStart
_TEXT	ENDS
;	COMDAT pdata
pdata	SEGMENT
$pdata$?CancelStop@CBaseStreamControl@@AEAAXXZ DD imagerel $LN4
	DD	imagerel $LN4+125
	DD	imagerel $unwind$?CancelStop@CBaseStreamControl@@AEAAXXZ
pdata	ENDS
;	COMDAT xdata
xdata	SEGMENT
$unwind$?CancelStop@CBaseStreamControl@@AEAAXXZ DD 021e01H
	DD	07006320aH
; Function compile flags: /Odtp /RTCsu
xdata	ENDS
;	COMDAT ?CancelStop@CBaseStreamControl@@AEAAXXZ
_TEXT	SEGMENT
this$ = 48
?CancelStop@CBaseStreamControl@@AEAAXXZ PROC		; CBaseStreamControl::CancelStop, COMDAT
; Line 173
$LN4:
	mov	QWORD PTR [rsp+8], rcx
	push	rdi
	sub	rsp, 32					; 00000020H
	mov	rdi, rsp
	mov	ecx, 8
	mov	eax, -858993460				; ccccccccH
	rep stosd
	mov	rcx, QWORD PTR [rsp+48]
; Line 174
	mov	rax, QWORD PTR this$[rsp]
	add	rax, 56					; 00000038H
	mov	rcx, rax
	call	?CritCheckIn@@YAHPEAVCCritSec@@@Z	; CritCheckIn
	test	eax, eax
	jne	SHORT $LN1@CancelStop
	mov	r8d, 174				; 000000aeH
	lea	rdx, OFFSET FLAT:$SG82312
	lea	rcx, OFFSET FLAT:$SG82313
	call	?DbgAssert@@YAXPEB_W0H@Z		; DbgAssert
$LN1@CancelStop:
; Line 175
	mov	rax, QWORD PTR this$[rsp]
	mov	rcx, 9223372036854775807		; 7fffffffffffffffH
	mov	QWORD PTR [rax+24], rcx
; Line 176
	mov	rax, QWORD PTR this$[rsp]
	mov	DWORD PTR [rax+36], 0
; Line 177
	mov	rax, QWORD PTR this$[rsp]
	mov	DWORD PTR [rax+12], 4096		; 00001000H
; Line 178
	add	rsp, 32					; 00000020H
	pop	rdi
	ret	0
?CancelStop@CBaseStreamControl@@AEAAXXZ ENDP		; CBaseStreamControl::CancelStop
_TEXT	ENDS
;	COMDAT pdata
pdata	SEGMENT
$pdata$?CancelStart@CBaseStreamControl@@AEAAXXZ DD imagerel $LN4
	DD	imagerel $LN4+113
	DD	imagerel $unwind$?CancelStart@CBaseStreamControl@@AEAAXXZ
pdata	ENDS
;	COMDAT xdata
xdata	SEGMENT
$unwind$?CancelStart@CBaseStreamControl@@AEAAXXZ DD 021e01H
	DD	07006320aH
; Function compile flags: /Odtp /RTCsu
xdata	ENDS
;	COMDAT ?CancelStart@CBaseStreamControl@@AEAAXXZ
_TEXT	SEGMENT
this$ = 48
?CancelStart@CBaseStreamControl@@AEAAXXZ PROC		; CBaseStreamControl::CancelStart, COMDAT
; Line 181
$LN4:
	mov	QWORD PTR [rsp+8], rcx
	push	rdi
	sub	rsp, 32					; 00000020H
	mov	rdi, rsp
	mov	ecx, 8
	mov	eax, -858993460				; ccccccccH
	rep stosd
	mov	rcx, QWORD PTR [rsp+48]
; Line 182
	mov	rax, QWORD PTR this$[rsp]
	add	rax, 56					; 00000038H
	mov	rcx, rax
	call	?CritCheckIn@@YAHPEAVCCritSec@@@Z	; CritCheckIn
	test	eax, eax
	jne	SHORT $LN1@CancelStar
	mov	r8d, 182				; 000000b6H
	lea	rdx, OFFSET FLAT:$SG82318
	lea	rcx, OFFSET FLAT:$SG82319
	call	?DbgAssert@@YAXPEB_W0H@Z		; DbgAssert
$LN1@CancelStar:
; Line 183
	mov	rax, QWORD PTR this$[rsp]
	mov	rcx, 9223372036854775807		; 7fffffffffffffffH
	mov	QWORD PTR [rax+16], rcx
; Line 184
	mov	rax, QWORD PTR this$[rsp]
	mov	DWORD PTR [rax+32], 0
; Line 185
	add	rsp, 32					; 00000020H
	pop	rdi
	ret	0
?CancelStart@CBaseStreamControl@@AEAAXXZ ENDP		; CBaseStreamControl::CancelStart
_TEXT	ENDS
PUBLIC	?CheckSampleTimes@CBaseStreamControl@@AEAA?AW4StreamControlState@1@PEB_J0@Z ; CBaseStreamControl::CheckSampleTimes
;	COMDAT pdata
pdata	SEGMENT
$pdata$?CheckSampleTimes@CBaseStreamControl@@AEAA?AW4StreamControlState@1@PEB_J0@Z DD imagerel $LN13
	DD	imagerel $LN13+506
	DD	imagerel $unwind$?CheckSampleTimes@CBaseStreamControl@@AEAA?AW4StreamControlState@1@PEB_J0@Z
pdata	ENDS
;	COMDAT pdata
pdata	SEGMENT
$pdata$?dtor$0@?0??CheckSampleTimes@CBaseStreamControl@@AEAA?AW4StreamControlState@1@PEB_J0@Z@4HA DD imagerel ?dtor$0@?0??CheckSampleTimes@CBaseStreamControl@@AEAA?AW4StreamControlState@1@PEB_J0@Z@4HA
	DD	imagerel ?dtor$0@?0??CheckSampleTimes@CBaseStreamControl@@AEAA?AW4StreamControlState@1@PEB_J0@Z@4HA+35
	DD	imagerel $unwind$?dtor$0@?0??CheckSampleTimes@CBaseStreamControl@@AEAA?AW4StreamControlState@1@PEB_J0@Z@4HA
pdata	ENDS
;	COMDAT xdata
xdata	SEGMENT
$ip2state$?CheckSampleTimes@CBaseStreamControl@@AEAA?AW4StreamControlState@1@PEB_J0@Z DD imagerel ?CheckSampleTimes@CBaseStreamControl@@AEAA?AW4StreamControlState@1@PEB_J0@Z
	DD	0ffffffffH
	DD	imagerel ?CheckSampleTimes@CBaseStreamControl@@AEAA?AW4StreamControlState@1@PEB_J0@Z+72
	DD	00H
	DD	imagerel ?CheckSampleTimes@CBaseStreamControl@@AEAA?AW4StreamControlState@1@PEB_J0@Z+200
	DD	0ffffffffH
	DD	imagerel ?CheckSampleTimes@CBaseStreamControl@@AEAA?AW4StreamControlState@1@PEB_J0@Z+219
	DD	00H
	DD	imagerel ?CheckSampleTimes@CBaseStreamControl@@AEAA?AW4StreamControlState@1@PEB_J0@Z+271
	DD	0ffffffffH
	DD	imagerel ?CheckSampleTimes@CBaseStreamControl@@AEAA?AW4StreamControlState@1@PEB_J0@Z+290
	DD	00H
	DD	imagerel ?CheckSampleTimes@CBaseStreamControl@@AEAA?AW4StreamControlState@1@PEB_J0@Z+331
	DD	0ffffffffH
	DD	imagerel ?CheckSampleTimes@CBaseStreamControl@@AEAA?AW4StreamControlState@1@PEB_J0@Z+350
	DD	00H
	DD	imagerel ?CheckSampleTimes@CBaseStreamControl@@AEAA?AW4StreamControlState@1@PEB_J0@Z+402
	DD	0ffffffffH
	DD	imagerel ?CheckSampleTimes@CBaseStreamControl@@AEAA?AW4StreamControlState@1@PEB_J0@Z+420
	DD	00H
	DD	imagerel ?CheckSampleTimes@CBaseStreamControl@@AEAA?AW4StreamControlState@1@PEB_J0@Z+452
	DD	0ffffffffH
xdata	ENDS
;	COMDAT xdata
xdata	SEGMENT
$unwind$?dtor$0@?0??CheckSampleTimes@CBaseStreamControl@@AEAA?AW4StreamControlState@1@PEB_J0@Z@4HA DD 031001H
	DD	0700c4210H
	DD	0500bH
xdata	ENDS
;	COMDAT xdata
xdata	SEGMENT
$unwind$?CheckSampleTimes@CBaseStreamControl@@AEAA?AW4StreamControlState@1@PEB_J0@Z DD 023111H
	DD	070109214H
	DD	imagerel __CxxFrameHandler3
	DD	imagerel $cppxdata$?CheckSampleTimes@CBaseStreamControl@@AEAA?AW4StreamControlState@1@PEB_J0@Z
xdata	ENDS
;	COMDAT xdata
xdata	SEGMENT
$stateUnwindMap$?CheckSampleTimes@CBaseStreamControl@@AEAA?AW4StreamControlState@1@PEB_J0@Z DD 0ffffffffH
	DD	imagerel ?dtor$0@?0??CheckSampleTimes@CBaseStreamControl@@AEAA?AW4StreamControlState@1@PEB_J0@Z@4HA
xdata	ENDS
;	COMDAT CONST
CONST	SEGMENT
?CheckSampleTimes@CBaseStreamControl@@AEAA?AW4StreamControlState@1@PEB_J0@Z$rtcName$0 DB 06cH ; CBaseStreamControl::CheckSampleTimes
	DB	063H
	DB	06bH
	DB	00H
	ORG $+12
?CheckSampleTimes@CBaseStreamControl@@AEAA?AW4StreamControlState@1@PEB_J0@Z$rtcVarDesc DD 028H ; CBaseStreamControl::CheckSampleTimes
	DD	08H
	DQ	FLAT:?CheckSampleTimes@CBaseStreamControl@@AEAA?AW4StreamControlState@1@PEB_J0@Z$rtcName$0
	ORG $+48
?CheckSampleTimes@CBaseStreamControl@@AEAA?AW4StreamControlState@1@PEB_J0@Z$rtcFrameData DD 01H ; CBaseStreamControl::CheckSampleTimes
	DD	00H
	DQ	FLAT:?CheckSampleTimes@CBaseStreamControl@@AEAA?AW4StreamControlState@1@PEB_J0@Z$rtcVarDesc
$cppxdata$?CheckSampleTimes@CBaseStreamControl@@AEAA?AW4StreamControlState@1@PEB_J0@Z DD 019930522H
	DD	01H
	DD	imagerel $stateUnwindMap$?CheckSampleTimes@CBaseStreamControl@@AEAA?AW4StreamControlState@1@PEB_J0@Z
	DD	00H
	DD	00H
	DD	0bH
	DD	imagerel $ip2state$?CheckSampleTimes@CBaseStreamControl@@AEAA?AW4StreamControlState@1@PEB_J0@Z
	DD	048H
	DD	00H
	DD	01H
; Function compile flags: /Odtp /RTCsu
CONST	ENDS
;	COMDAT ?CheckSampleTimes@CBaseStreamControl@@AEAA?AW4StreamControlState@1@PEB_J0@Z
_TEXT	SEGMENT
lck$ = 40
$T83117 = 52
$T83118 = 56
$T83119 = 60
$T83120 = 64
$T83121 = 68
$T83127 = 72
this$ = 96
pSampleStart$ = 104
pSampleStop$ = 112
?CheckSampleTimes@CBaseStreamControl@@AEAA?AW4StreamControlState@1@PEB_J0@Z PROC ; CBaseStreamControl::CheckSampleTimes, COMDAT
; Line 235
$LN13:
	mov	QWORD PTR [rsp+24], r8
	mov	QWORD PTR [rsp+16], rdx
	mov	QWORD PTR [rsp+8], rcx
	push	rdi
	sub	rsp, 80					; 00000050H
	mov	rdi, rsp
	mov	ecx, 20
	mov	eax, -858993460				; ccccccccH
	rep stosd
	mov	rcx, QWORD PTR [rsp+96]
	mov	QWORD PTR $T83127[rsp], -2
; Line 236
	mov	rax, QWORD PTR this$[rsp]
	add	rax, 56					; 00000038H
	mov	rdx, rax
	lea	rcx, QWORD PTR lck$[rsp]
	call	??0CAutoLock@@QEAA@PEAVCCritSec@@@Z	; CAutoLock::CAutoLock
	npad	1
; Line 238
	mov	rax, QWORD PTR this$[rsp]
	mov	eax, DWORD PTR [rax+40]
	test	eax, eax
	je	SHORT $LN9@CheckSampl
	mov	r8d, 238				; 000000eeH
	lea	rdx, OFFSET FLAT:$SG82327
	lea	rcx, OFFSET FLAT:$SG82328
	call	?DbgAssert@@YAXPEB_W0H@Z		; DbgAssert
$LN9@CheckSampl:
; Line 239
	cmp	QWORD PTR pSampleStart$[rsp], 0
	je	SHORT $LN7@CheckSampl
	cmp	QWORD PTR pSampleStop$[rsp], 0
	jne	SHORT $LN8@CheckSampl
$LN7@CheckSampl:
	mov	r8d, 239				; 000000efH
	lea	rdx, OFFSET FLAT:$SG82331
	lea	rcx, OFFSET FLAT:$SG82332
	call	?DbgAssert@@YAXPEB_W0H@Z		; DbgAssert
$LN8@CheckSampl:
; Line 244
	mov	rax, QWORD PTR this$[rsp]
	mov	rcx, QWORD PTR pSampleStart$[rsp]
	mov	rcx, QWORD PTR [rcx]
	cmp	QWORD PTR [rax+24], rcx
	jl	SHORT $LN6@CheckSampl
; Line 246
	mov	rax, QWORD PTR this$[rsp]
	mov	rcx, QWORD PTR pSampleStop$[rsp]
	mov	rcx, QWORD PTR [rcx]
	cmp	QWORD PTR [rax+16], rcx
	jl	SHORT $LN5@CheckSampl
; Line 247
	mov	rax, QWORD PTR this$[rsp]
	mov	eax, DWORD PTR [rax+8]
	mov	DWORD PTR $T83117[rsp], eax
	lea	rcx, QWORD PTR lck$[rsp]
	call	??1CAutoLock@@QEAA@XZ			; CAutoLock::~CAutoLock
	mov	eax, DWORD PTR $T83117[rsp]
	jmp	$LN10@CheckSampl
$LN5@CheckSampl:
; Line 248
	mov	rax, QWORD PTR this$[rsp]
	mov	rcx, QWORD PTR this$[rsp]
	mov	rcx, QWORD PTR [rcx+16]
	cmp	QWORD PTR [rax+24], rcx
	jge	SHORT $LN4@CheckSampl
; Line 249
	mov	rcx, QWORD PTR this$[rsp]
	call	?ExecuteStop@CBaseStreamControl@@AEAAXXZ ; CBaseStreamControl::ExecuteStop
$LN4@CheckSampl:
; Line 250
	mov	rcx, QWORD PTR this$[rsp]
	call	?ExecuteStart@CBaseStreamControl@@AEAAXXZ ; CBaseStreamControl::ExecuteStart
; Line 251
	mov	rax, QWORD PTR this$[rsp]
	mov	eax, DWORD PTR [rax+8]
	mov	DWORD PTR $T83118[rsp], eax
	lea	rcx, QWORD PTR lck$[rsp]
	call	??1CAutoLock@@QEAA@XZ			; CAutoLock::~CAutoLock
	mov	eax, DWORD PTR $T83118[rsp]
	jmp	$LN10@CheckSampl
$LN6@CheckSampl:
; Line 254
	mov	rax, QWORD PTR this$[rsp]
	mov	rcx, QWORD PTR pSampleStop$[rsp]
	mov	rcx, QWORD PTR [rcx]
	cmp	QWORD PTR [rax+16], rcx
	jl	SHORT $LN3@CheckSampl
; Line 256
	mov	rcx, QWORD PTR this$[rsp]
	call	?ExecuteStop@CBaseStreamControl@@AEAAXXZ ; CBaseStreamControl::ExecuteStop
; Line 257
	mov	rax, QWORD PTR this$[rsp]
	mov	eax, DWORD PTR [rax+8]
	mov	DWORD PTR $T83119[rsp], eax
	lea	rcx, QWORD PTR lck$[rsp]
	call	??1CAutoLock@@QEAA@XZ			; CAutoLock::~CAutoLock
	mov	eax, DWORD PTR $T83119[rsp]
	jmp	$LN10@CheckSampl
$LN3@CheckSampl:
; Line 260
	mov	rax, QWORD PTR this$[rsp]
	mov	rcx, QWORD PTR this$[rsp]
	mov	rcx, QWORD PTR [rcx+24]
	cmp	QWORD PTR [rax+16], rcx
	jg	SHORT $LN2@CheckSampl
; Line 262
	mov	rcx, QWORD PTR this$[rsp]
	call	?ExecuteStart@CBaseStreamControl@@AEAAXXZ ; CBaseStreamControl::ExecuteStart
; Line 263
	mov	rcx, QWORD PTR this$[rsp]
	call	?ExecuteStop@CBaseStreamControl@@AEAAXXZ ; CBaseStreamControl::ExecuteStop
; Line 264
	mov	rax, QWORD PTR this$[rsp]
	mov	eax, DWORD PTR [rax+8]
	mov	DWORD PTR $T83120[rsp], eax
	lea	rcx, QWORD PTR lck$[rsp]
	call	??1CAutoLock@@QEAA@XZ			; CAutoLock::~CAutoLock
	mov	eax, DWORD PTR $T83120[rsp]
	jmp	SHORT $LN10@CheckSampl
; Line 266
	jmp	SHORT $LN1@CheckSampl
$LN2@CheckSampl:
; Line 268
	mov	rcx, QWORD PTR this$[rsp]
	call	?ExecuteStop@CBaseStreamControl@@AEAAXXZ ; CBaseStreamControl::ExecuteStop
; Line 269
	mov	rcx, QWORD PTR this$[rsp]
	call	?ExecuteStart@CBaseStreamControl@@AEAAXXZ ; CBaseStreamControl::ExecuteStart
; Line 270
	mov	rax, QWORD PTR this$[rsp]
	mov	eax, DWORD PTR [rax+8]
	mov	DWORD PTR $T83121[rsp], eax
	lea	rcx, QWORD PTR lck$[rsp]
	call	??1CAutoLock@@QEAA@XZ			; CAutoLock::~CAutoLock
	mov	eax, DWORD PTR $T83121[rsp]
	jmp	SHORT $LN10@CheckSampl
$LN1@CheckSampl:
; Line 272
	lea	rcx, QWORD PTR lck$[rsp]
	call	??1CAutoLock@@QEAA@XZ			; CAutoLock::~CAutoLock
	npad	1
$LN10@CheckSampl:
	mov	rdi, rax
	mov	rcx, rsp
	lea	rdx, OFFSET FLAT:?CheckSampleTimes@CBaseStreamControl@@AEAA?AW4StreamControlState@1@PEB_J0@Z$rtcFrameData
	call	_RTC_CheckStackVars
	mov	rax, rdi
	add	rsp, 80					; 00000050H
	pop	rdi
	ret	0
?CheckSampleTimes@CBaseStreamControl@@AEAA?AW4StreamControlState@1@PEB_J0@Z ENDP ; CBaseStreamControl::CheckSampleTimes
; Function compile flags: /Odtp /RTCsu
_TEXT	ENDS
;	COMDAT text$x
text$x	SEGMENT
lck$ = 40
$T83117 = 52
$T83118 = 56
$T83119 = 60
$T83120 = 64
$T83121 = 68
$T83127 = 72
this$ = 96
pSampleStart$ = 104
pSampleStop$ = 112
?dtor$0@?0??CheckSampleTimes@CBaseStreamControl@@AEAA?AW4StreamControlState@1@PEB_J0@Z@4HA PROC ; `CBaseStreamControl::CheckSampleTimes'::`1'::dtor$0
	mov	QWORD PTR [rsp+8], rcx
	mov	QWORD PTR [rsp+16], rdx
	push	rbp
	push	rdi
	sub	rsp, 40					; 00000028H
	mov	rbp, rdx
	lea	rcx, QWORD PTR lck$[rbp]
	call	??1CAutoLock@@QEAA@XZ			; CAutoLock::~CAutoLock
	add	rsp, 40					; 00000028H
	pop	rdi
	pop	rbp
	ret	0
?dtor$0@?0??CheckSampleTimes@CBaseStreamControl@@AEAA?AW4StreamControlState@1@PEB_J0@Z@4HA ENDP ; `CBaseStreamControl::CheckSampleTimes'::`1'::dtor$0
text$x	ENDS
PUBLIC	?GetStreamEventHandle@CBaseStreamControl@@AEBAPEAXXZ ; CBaseStreamControl::GetStreamEventHandle
PUBLIC	?CheckStreamState@CBaseStreamControl@@QEAA?AW4StreamControlState@1@PEAUIMediaSample@@@Z ; CBaseStreamControl::CheckStreamState
EXTRN	__imp_WaitForSingleObject:PROC
;	COMDAT pdata
pdata	SEGMENT
$pdata$?CheckStreamState@CBaseStreamControl@@QEAA?AW4StreamControlState@1@PEAUIMediaSample@@@Z DD imagerel $LN20
	DD	imagerel $LN20+623
	DD	imagerel $unwind$?CheckStreamState@CBaseStreamControl@@QEAA?AW4StreamControlState@1@PEAUIMediaSample@@@Z
pdata	ENDS
;	COMDAT xdata
xdata	SEGMENT
$unwind$?CheckStreamState@CBaseStreamControl@@QEAA?AW4StreamControlState@1@PEAUIMediaSample@@@Z DD 022901H
	DD	0700bf212H
xdata	ENDS
;	COMDAT CONST
CONST	SEGMENT
?CheckStreamState@CBaseStreamControl@@QEAA?AW4StreamControlState@1@PEAUIMediaSample@@@Z$rtcName$0 DB 072H ; CBaseStreamControl::CheckStreamState
	DB	074H
	DB	042H
	DB	075H
	DB	066H
	DB	066H
	DB	065H
	DB	072H
	DB	053H
	DB	074H
	DB	061H
	DB	072H
	DB	074H
	DB	00H
	ORG $+2
?CheckStreamState@CBaseStreamControl@@QEAA?AW4StreamControlState@1@PEAUIMediaSample@@@Z$rtcName$1 DB 072H ; CBaseStreamControl::CheckStreamState
	DB	074H
	DB	042H
	DB	075H
	DB	066H
	DB	066H
	DB	065H
	DB	072H
	DB	053H
	DB	074H
	DB	06fH
	DB	070H
	DB	00H
	ORG $+3
?CheckStreamState@CBaseStreamControl@@QEAA?AW4StreamControlState@1@PEAUIMediaSample@@@Z$rtcName$2 DB 072H ; CBaseStreamControl::CheckStreamState
	DB	074H
	DB	04eH
	DB	06fH
	DB	077H
	DB	00H
	ORG $+2
?CheckStreamState@CBaseStreamControl@@QEAA?AW4StreamControlState@1@PEAUIMediaSample@@@Z$rtcFrameData DD 03H ; CBaseStreamControl::CheckStreamState
	DD	00H
	DQ	FLAT:?CheckStreamState@CBaseStreamControl@@QEAA?AW4StreamControlState@1@PEAUIMediaSample@@@Z$rtcVarDesc
	ORG $+8
?CheckStreamState@CBaseStreamControl@@QEAA?AW4StreamControlState@1@PEAUIMediaSample@@@Z$rtcVarDesc DD 068H ; CBaseStreamControl::CheckStreamState
	DD	08H
	DQ	FLAT:?CheckStreamState@CBaseStreamControl@@QEAA?AW4StreamControlState@1@PEAUIMediaSample@@@Z$rtcName$2
	DD	048H
	DD	08H
	DQ	FLAT:?CheckStreamState@CBaseStreamControl@@QEAA?AW4StreamControlState@1@PEAUIMediaSample@@@Z$rtcName$1
	DD	028H
	DD	08H
	DQ	FLAT:?CheckStreamState@CBaseStreamControl@@QEAA?AW4StreamControlState@1@PEAUIMediaSample@@@Z$rtcName$0
; Function compile flags: /Odtp /RTCsu
CONST	ENDS
;	COMDAT ?CheckStreamState@CBaseStreamControl@@QEAA?AW4StreamControlState@1@PEAUIMediaSample@@@Z
_TEXT	SEGMENT
rtBufferStart$ = 40
rtBufferStop$ = 72
bNoBufferTimes$ = 84
state$ = 88
lWait$ = 92
rtNow$82368 = 104
tv72 = 116
this$ = 144
pSample$ = 152
?CheckStreamState@CBaseStreamControl@@QEAA?AW4StreamControlState@1@PEAUIMediaSample@@@Z PROC ; CBaseStreamControl::CheckStreamState, COMDAT
; Line 276
$LN20:
	mov	QWORD PTR [rsp+16], rdx
	mov	QWORD PTR [rsp+8], rcx
	push	rdi
	sub	rsp, 128				; 00000080H
	mov	rdi, rsp
	mov	ecx, 32					; 00000020H
	mov	eax, -858993460				; ccccccccH
	rep stosd
	mov	rcx, QWORD PTR [rsp+144]
; Line 281
	cmp	QWORD PTR pSample$[rsp], 0
	je	SHORT $LN18@CheckStrea
	mov	rax, QWORD PTR pSample$[rsp]
	mov	rax, QWORD PTR [rax]
	lea	r8, QWORD PTR rtBufferStop$[rsp]
	lea	rdx, QWORD PTR rtBufferStart$[rsp]
	mov	rcx, QWORD PTR pSample$[rsp]
	call	QWORD PTR [rax+40]
	test	eax, eax
	jl	SHORT $LN18@CheckStrea
	mov	DWORD PTR tv72[rsp], 0
	jmp	SHORT $LN19@CheckStrea
$LN18@CheckStrea:
	mov	DWORD PTR tv72[rsp], 1
$LN19@CheckStrea:
	mov	eax, DWORD PTR tv72[rsp]
	mov	DWORD PTR bNoBufferTimes$[rsp], eax
$LN15@CheckStrea:
; Line 289
	mov	rax, QWORD PTR this$[rsp]
	mov	eax, DWORD PTR [rax+40]
	test	eax, eax
	jne	SHORT $LN11@CheckStrea
	mov	rax, QWORD PTR this$[rsp]
	cmp	DWORD PTR [rax+136], 0
	jne	SHORT $LN12@CheckStrea
$LN11@CheckStrea:
; Line 290
	mov	eax, 4097				; 00001001H
	jmp	$LN16@CheckStrea
$LN12@CheckStrea:
; Line 292
	cmp	DWORD PTR bNoBufferTimes$[rsp], 0
	je	SHORT $LN10@CheckStrea
; Line 294
	mov	rax, QWORD PTR this$[rsp]
	mov	eax, DWORD PTR [rax+8]
	mov	DWORD PTR state$[rsp], eax
; Line 295
	jmp	$LN13@CheckStrea
; Line 296
	jmp	$LN9@CheckStrea
$LN10@CheckStrea:
; Line 297
	lea	r8, QWORD PTR rtBufferStop$[rsp]
	lea	rdx, QWORD PTR rtBufferStart$[rsp]
	mov	rcx, QWORD PTR this$[rsp]
	call	?CheckSampleTimes@CBaseStreamControl@@AEAA?AW4StreamControlState@1@PEB_J0@Z ; CBaseStreamControl::CheckSampleTimes
	mov	DWORD PTR state$[rsp], eax
; Line 298
	cmp	DWORD PTR state$[rsp], 4096		; 00001000H
	jne	SHORT $LN8@CheckStrea
; Line 299
	jmp	$LN13@CheckStrea
$LN8@CheckStrea:
; Line 306
	mov	rax, QWORD PTR this$[rsp]
	mov	eax, DWORD PTR [rax+44]
	test	eax, eax
	je	SHORT $LN7@CheckStrea
	mov	rax, QWORD PTR this$[rsp]
	mov	eax, DWORD PTR [rax+48]
	test	eax, eax
	jne	SHORT $LN7@CheckStrea
	mov	rax, QWORD PTR this$[rsp]
	mov	rcx, 9223372036854775807		; 7fffffffffffffffH
	cmp	QWORD PTR [rax+24], rcx
	jne	SHORT $LN7@CheckStrea
	mov	rax, QWORD PTR this$[rsp]
	cmp	DWORD PTR [rax+136], 0
	je	SHORT $LN7@CheckStrea
; Line 307
	mov	rax, QWORD PTR this$[rsp]
	mov	DWORD PTR [rax+48], 1
; Line 309
	mov	rax, QWORD PTR this$[rsp]
	mov	r9d, DWORD PTR [rax+36]
	lea	r8, OFFSET FLAT:$SG82363
	mov	edx, 2
	mov	ecx, 2
	call	?DbgLogInfo@@YAXKKPEB_WZZ		; DbgLogInfo
; Line 310
	mov	DWORD PTR state$[rsp], 4096		; 00001000H
; Line 311
	jmp	$LN13@CheckStrea
$LN7@CheckStrea:
$LN9@CheckStrea:
; Line 318
	mov	rax, QWORD PTR this$[rsp]
	cmp	QWORD PTR [rax+120], 0
	jne	SHORT $LN6@CheckStrea
; Line 319
	jmp	$LN13@CheckStrea
	jmp	$LN5@CheckStrea
$LN6@CheckStrea:
; Line 325
	mov	rax, QWORD PTR this$[rsp]
	cmp	DWORD PTR [rax+136], 1
	jne	SHORT $LN4@CheckStrea
; Line 326
	mov	DWORD PTR lWait$[rsp], -1
; Line 328
	jmp	$LN3@CheckStrea
$LN4@CheckStrea:
; Line 332
	mov	rax, QWORD PTR this$[rsp]
	mov	rax, QWORD PTR [rax+120]
	mov	rcx, QWORD PTR this$[rsp]
	mov	rcx, QWORD PTR [rcx+120]
	mov	rax, QWORD PTR [rax]
	lea	rdx, QWORD PTR rtNow$82368[rsp]
	call	QWORD PTR [rax+24]
	test	eax, eax
	jge	SHORT $LN2@CheckStrea
	mov	r8d, 332				; 0000014cH
	lea	rdx, OFFSET FLAT:$SG82371
	lea	rcx, OFFSET FLAT:$SG82372
	call	?DbgAssert@@YAXPEB_W0H@Z		; DbgAssert
$LN2@CheckStrea:
; Line 333
	mov	rax, QWORD PTR this$[rsp]
	mov	rax, QWORD PTR [rax+144]
	mov	rcx, QWORD PTR rtNow$82368[rsp]
	sub	rcx, rax
	mov	rax, rcx
	mov	QWORD PTR rtNow$82368[rsp], rax
; Line 334
	mov	rax, QWORD PTR rtNow$82368[rsp]
	mov	rcx, QWORD PTR rtBufferStart$[rsp]
	sub	rcx, rax
	mov	rax, rcx
	cdq
	mov	ecx, 10000				; 00002710H
	idiv	rcx
	mov	DWORD PTR lWait$[rsp], eax
; Line 335
	cmp	DWORD PTR lWait$[rsp], 10
	jge	SHORT $LN1@CheckStrea
	jmp	SHORT $LN13@CheckStrea
$LN1@CheckStrea:
$LN3@CheckStrea:
$LN5@CheckStrea:
; Line 338
	mov	rcx, QWORD PTR this$[rsp]
	call	?GetStreamEventHandle@CBaseStreamControl@@AEBAPEAXXZ ; CBaseStreamControl::GetStreamEventHandle
	mov	edx, DWORD PTR lWait$[rsp]
	mov	rcx, rax
	call	QWORD PTR __imp_WaitForSingleObject
	cmp	eax, 258				; 00000102H
	jne	$LN15@CheckStrea
$LN13@CheckStrea:
; Line 340
	mov	eax, DWORD PTR state$[rsp]
$LN16@CheckStrea:
; Line 341
	mov	rdi, rax
	mov	rcx, rsp
	lea	rdx, OFFSET FLAT:?CheckStreamState@CBaseStreamControl@@QEAA?AW4StreamControlState@1@PEAUIMediaSample@@@Z$rtcFrameData
	call	_RTC_CheckStackVars
	mov	rax, rdi
	add	rsp, 128				; 00000080H
	pop	rdi
	ret	0
?CheckStreamState@CBaseStreamControl@@QEAA?AW4StreamControlState@1@PEAUIMediaSample@@@Z ENDP ; CBaseStreamControl::CheckStreamState
_TEXT	ENDS
PUBLIC	??BCAMEvent@@QEBAPEAXXZ				; CAMEvent::operator void * __ptr64
;	COMDAT pdata
; File c:\downloads\wpf mediakit - copy\src\filters\baseclasses\strmctl.h
pdata	SEGMENT
$pdata$?GetStreamEventHandle@CBaseStreamControl@@AEBAPEAXXZ DD imagerel $LN3
	DD	imagerel $LN3+53
	DD	imagerel $unwind$?GetStreamEventHandle@CBaseStreamControl@@AEBAPEAXXZ
pdata	ENDS
;	COMDAT xdata
xdata	SEGMENT
$unwind$?GetStreamEventHandle@CBaseStreamControl@@AEBAPEAXXZ DD 021e01H
	DD	07006320aH
; Function compile flags: /Odtp /RTCsu
xdata	ENDS
;	COMDAT ?GetStreamEventHandle@CBaseStreamControl@@AEBAPEAXXZ
_TEXT	SEGMENT
this$ = 48
?GetStreamEventHandle@CBaseStreamControl@@AEBAPEAXXZ PROC ; CBaseStreamControl::GetStreamEventHandle, COMDAT
; Line 152
$LN3:
	mov	QWORD PTR [rsp+8], rcx
	push	rdi
	sub	rsp, 32					; 00000020H
	mov	rdi, rsp
	mov	ecx, 8
	mov	eax, -858993460				; ccccccccH
	rep stosd
	mov	rcx, QWORD PTR [rsp+48]
	mov	rax, QWORD PTR this$[rsp]
	add	rax, 112				; 00000070H
	mov	rcx, rax
	call	??BCAMEvent@@QEBAPEAXXZ			; CAMEvent::operator void * __ptr64
	add	rsp, 32					; 00000020H
	pop	rdi
	ret	0
?GetStreamEventHandle@CBaseStreamControl@@AEBAPEAXXZ ENDP ; CBaseStreamControl::GetStreamEventHandle
_TEXT	ENDS
;	COMDAT pdata
; File c:\downloads\wpf mediakit - copy\src\filters\baseclasses\wxutil.h
pdata	SEGMENT
$pdata$??BCAMEvent@@QEBAPEAXXZ DD imagerel $LN3
	DD	imagerel $LN3+16
	DD	imagerel $unwind$??BCAMEvent@@QEBAPEAXXZ
pdata	ENDS
;	COMDAT xdata
xdata	SEGMENT
$unwind$??BCAMEvent@@QEBAPEAXXZ DD 010601H
	DD	07006H
; Function compile flags: /Odtp /RTCsu
xdata	ENDS
;	COMDAT ??BCAMEvent@@QEBAPEAXXZ
_TEXT	SEGMENT
this$ = 16
??BCAMEvent@@QEBAPEAXXZ PROC				; CAMEvent::operator void * __ptr64, COMDAT
; Line 123
$LN3:
	mov	QWORD PTR [rsp+8], rcx
	push	rdi
	mov	rax, QWORD PTR this$[rsp]
	mov	rax, QWORD PTR [rax]
	pop	rdi
	ret	0
??BCAMEvent@@QEBAPEAXXZ ENDP				; CAMEvent::operator void * __ptr64
_TEXT	ENDS
PUBLIC	?NotifyFilterState@CBaseStreamControl@@QEAAXW4_FilterState@@_J@Z ; CBaseStreamControl::NotifyFilterState
;	COMDAT pdata
; File c:\downloads\wpf mediakit - copy\src\filters\baseclasses\strmctl.cpp
pdata	SEGMENT
$pdata$?NotifyFilterState@CBaseStreamControl@@QEAAXW4_FilterState@@_J@Z DD imagerel $LN17
	DD	imagerel $LN17+503
	DD	imagerel $unwind$?NotifyFilterState@CBaseStreamControl@@QEAAXW4_FilterState@@_J@Z
pdata	ENDS
;	COMDAT pdata
pdata	SEGMENT
$pdata$?dtor$0@?0??NotifyFilterState@CBaseStreamControl@@QEAAXW4_FilterState@@_J@Z@4HA DD imagerel ?dtor$0@?0??NotifyFilterState@CBaseStreamControl@@QEAAXW4_FilterState@@_J@Z@4HA
	DD	imagerel ?dtor$0@?0??NotifyFilterState@CBaseStreamControl@@QEAAXW4_FilterState@@_J@Z@4HA+35
	DD	imagerel $unwind$?dtor$0@?0??NotifyFilterState@CBaseStreamControl@@QEAAXW4_FilterState@@_J@Z@4HA
pdata	ENDS
;	COMDAT xdata
xdata	SEGMENT
$ip2state$?NotifyFilterState@CBaseStreamControl@@QEAAXW4_FilterState@@_J@Z DD imagerel ?NotifyFilterState@CBaseStreamControl@@QEAAXW4_FilterState@@_J@Z
	DD	0ffffffffH
	DD	imagerel ?NotifyFilterState@CBaseStreamControl@@QEAAXW4_FilterState@@_J@Z+71
	DD	00H
	DD	imagerel ?NotifyFilterState@CBaseStreamControl@@QEAAXW4_FilterState@@_J@Z+88
	DD	0ffffffffH
	DD	imagerel ?NotifyFilterState@CBaseStreamControl@@QEAAXW4_FilterState@@_J@Z+103
	DD	00H
	DD	imagerel ?NotifyFilterState@CBaseStreamControl@@QEAAXW4_FilterState@@_J@Z+472
	DD	0ffffffffH
xdata	ENDS
;	COMDAT xdata
xdata	SEGMENT
$unwind$?dtor$0@?0??NotifyFilterState@CBaseStreamControl@@QEAAXW4_FilterState@@_J@Z@4HA DD 031001H
	DD	0700c4210H
	DD	0500bH
xdata	ENDS
;	COMDAT xdata
xdata	SEGMENT
$unwind$?NotifyFilterState@CBaseStreamControl@@QEAAXW4_FilterState@@_J@Z DD 023011H
	DD	0700f9213H
	DD	imagerel __CxxFrameHandler3
	DD	imagerel $cppxdata$?NotifyFilterState@CBaseStreamControl@@QEAAXW4_FilterState@@_J@Z
xdata	ENDS
;	COMDAT xdata
xdata	SEGMENT
$stateUnwindMap$?NotifyFilterState@CBaseStreamControl@@QEAAXW4_FilterState@@_J@Z DD 0ffffffffH
	DD	imagerel ?dtor$0@?0??NotifyFilterState@CBaseStreamControl@@QEAAXW4_FilterState@@_J@Z@4HA
xdata	ENDS
;	COMDAT CONST
CONST	SEGMENT
?NotifyFilterState@CBaseStreamControl@@QEAAXW4_FilterState@@_J@Z$rtcName$0 DB 06cH ; CBaseStreamControl::NotifyFilterState
	DB	063H
	DB	06bH
	DB	00H
	ORG $+12
?NotifyFilterState@CBaseStreamControl@@QEAAXW4_FilterState@@_J@Z$rtcVarDesc DD 028H ; CBaseStreamControl::NotifyFilterState
	DD	08H
	DQ	FLAT:?NotifyFilterState@CBaseStreamControl@@QEAAXW4_FilterState@@_J@Z$rtcName$0
	ORG $+48
?NotifyFilterState@CBaseStreamControl@@QEAAXW4_FilterState@@_J@Z$rtcFrameData DD 01H ; CBaseStreamControl::NotifyFilterState
	DD	00H
	DQ	FLAT:?NotifyFilterState@CBaseStreamControl@@QEAAXW4_FilterState@@_J@Z$rtcVarDesc
$cppxdata$?NotifyFilterState@CBaseStreamControl@@QEAAXW4_FilterState@@_J@Z DD 019930522H
	DD	01H
	DD	imagerel $stateUnwindMap$?NotifyFilterState@CBaseStreamControl@@QEAAXW4_FilterState@@_J@Z
	DD	00H
	DD	00H
	DD	05H
	DD	imagerel $ip2state$?NotifyFilterState@CBaseStreamControl@@QEAAXW4_FilterState@@_J@Z
	DD	038H
	DD	00H
	DD	01H
; Function compile flags: /Odtp /RTCsu
CONST	ENDS
;	COMDAT ?NotifyFilterState@CBaseStreamControl@@QEAAXW4_FilterState@@_J@Z
_TEXT	SEGMENT
lck$ = 40
$T83182 = 56
tv71 = 64
this$ = 96
new_state$ = 104
tStart$ = 112
?NotifyFilterState@CBaseStreamControl@@QEAAXW4_FilterState@@_J@Z PROC ; CBaseStreamControl::NotifyFilterState, COMDAT
; Line 345
$LN17:
	mov	QWORD PTR [rsp+24], r8
	mov	DWORD PTR [rsp+16], edx
	mov	QWORD PTR [rsp+8], rcx
	push	rdi
	sub	rsp, 80					; 00000050H
	mov	rdi, rsp
	mov	ecx, 20
	mov	eax, -858993460				; ccccccccH
	rep stosd
	mov	rcx, QWORD PTR [rsp+96]
	mov	QWORD PTR $T83182[rsp], -2
; Line 346
	mov	rax, QWORD PTR this$[rsp]
	add	rax, 56					; 00000038H
	mov	rdx, rax
	lea	rcx, QWORD PTR lck$[rsp]
	call	??0CAutoLock@@QEAA@PEAVCCritSec@@@Z	; CAutoLock::CAutoLock
	npad	1
; Line 349
	mov	rax, QWORD PTR this$[rsp]
	mov	ecx, DWORD PTR new_state$[rsp]
	cmp	DWORD PTR [rax+136], ecx
	jne	SHORT $LN13@NotifyFilt
; Line 350
	lea	rcx, QWORD PTR lck$[rsp]
	call	??1CAutoLock@@QEAA@XZ			; CAutoLock::~CAutoLock
	jmp	$LN14@NotifyFilt
$LN13@NotifyFilt:
; Line 352
	mov	eax, DWORD PTR new_state$[rsp]
	mov	DWORD PTR tv71[rsp], eax
	cmp	DWORD PTR tv71[rsp], 0
	je	SHORT $LN10@NotifyFilt
	cmp	DWORD PTR tv71[rsp], 2
	je	$LN2@NotifyFilt
	jmp	$LN1@NotifyFilt
$LN10@NotifyFilt:
; Line 356
	lea	r8, OFFSET FLAT:$SG82386
	mov	edx, 2
	mov	ecx, 2
	call	?DbgLogInfo@@YAXKKPEB_WZZ		; DbgLogInfo
; Line 362
	mov	rax, QWORD PTR this$[rsp]
	mov	rcx, 9223372036854775807		; 7fffffffffffffffH
	cmp	QWORD PTR [rax+16], rcx
	je	SHORT $LN9@NotifyFilt
	mov	rax, QWORD PTR this$[rsp]
	mov	rcx, 9223372036854775807		; 7fffffffffffffffH
	cmp	QWORD PTR [rax+24], rcx
	jne	SHORT $LN9@NotifyFilt
; Line 363
	mov	rcx, QWORD PTR this$[rsp]
	call	?ExecuteStart@CBaseStreamControl@@AEAAXXZ ; CBaseStreamControl::ExecuteStart
	jmp	$LN8@NotifyFilt
$LN9@NotifyFilt:
; Line 364
	mov	rax, QWORD PTR this$[rsp]
	mov	rcx, 9223372036854775807		; 7fffffffffffffffH
	cmp	QWORD PTR [rax+24], rcx
	je	SHORT $LN7@NotifyFilt
	mov	rax, QWORD PTR this$[rsp]
	mov	rcx, 9223372036854775807		; 7fffffffffffffffH
	cmp	QWORD PTR [rax+16], rcx
	jne	SHORT $LN7@NotifyFilt
; Line 365
	mov	rcx, QWORD PTR this$[rsp]
	call	?ExecuteStop@CBaseStreamControl@@AEAAXXZ ; CBaseStreamControl::ExecuteStop
	jmp	SHORT $LN8@NotifyFilt
$LN7@NotifyFilt:
; Line 366
	mov	rax, QWORD PTR this$[rsp]
	mov	rcx, 9223372036854775807		; 7fffffffffffffffH
	cmp	QWORD PTR [rax+24], rcx
	je	SHORT $LN8@NotifyFilt
	mov	rax, QWORD PTR this$[rsp]
	mov	rcx, 9223372036854775807		; 7fffffffffffffffH
	cmp	QWORD PTR [rax+16], rcx
	je	SHORT $LN8@NotifyFilt
; Line 367
	mov	rax, QWORD PTR this$[rsp]
	mov	rcx, QWORD PTR this$[rsp]
	mov	rcx, QWORD PTR [rcx+24]
	cmp	QWORD PTR [rax+16], rcx
	jg	SHORT $LN4@NotifyFilt
; Line 368
	mov	rcx, QWORD PTR this$[rsp]
	call	?ExecuteStart@CBaseStreamControl@@AEAAXXZ ; CBaseStreamControl::ExecuteStart
; Line 369
	mov	rcx, QWORD PTR this$[rsp]
	call	?ExecuteStop@CBaseStreamControl@@AEAAXXZ ; CBaseStreamControl::ExecuteStop
; Line 370
	jmp	SHORT $LN8@NotifyFilt
$LN4@NotifyFilt:
; Line 371
	mov	rcx, QWORD PTR this$[rsp]
	call	?ExecuteStop@CBaseStreamControl@@AEAAXXZ ; CBaseStreamControl::ExecuteStop
; Line 372
	mov	rcx, QWORD PTR this$[rsp]
	call	?ExecuteStart@CBaseStreamControl@@AEAAXXZ ; CBaseStreamControl::ExecuteStart
$LN8@NotifyFilt:
; Line 377
	mov	rax, QWORD PTR this$[rsp]
	mov	DWORD PTR [rax+8], 4096			; 00001000H
; Line 378
	mov	rax, QWORD PTR this$[rsp]
	mov	ecx, DWORD PTR new_state$[rsp]
	mov	DWORD PTR [rax+136], ecx
; Line 379
	jmp	SHORT $LN11@NotifyFilt
$LN2@NotifyFilt:
; Line 383
	lea	r8, OFFSET FLAT:$SG82395
	mov	edx, 2
	mov	ecx, 2
	call	?DbgLogInfo@@YAXKKPEB_WZZ		; DbgLogInfo
; Line 385
	mov	rax, QWORD PTR this$[rsp]
	mov	rcx, QWORD PTR tStart$[rsp]
	mov	QWORD PTR [rax+144], rcx
$LN1@NotifyFilt:
; Line 389
	mov	rax, QWORD PTR this$[rsp]
	mov	ecx, DWORD PTR new_state$[rsp]
	mov	DWORD PTR [rax+136], ecx
$LN11@NotifyFilt:
; Line 392
	mov	rax, QWORD PTR this$[rsp]
	add	rax, 112				; 00000070H
	mov	rcx, rax
	call	?Set@CAMEvent@@QEAAXXZ			; CAMEvent::Set
	npad	1
; Line 393
	lea	rcx, QWORD PTR lck$[rsp]
	call	??1CAutoLock@@QEAA@XZ			; CAutoLock::~CAutoLock
$LN14@NotifyFilt:
	mov	rcx, rsp
	lea	rdx, OFFSET FLAT:?NotifyFilterState@CBaseStreamControl@@QEAAXW4_FilterState@@_J@Z$rtcFrameData
	call	_RTC_CheckStackVars
	add	rsp, 80					; 00000050H
	pop	rdi
	ret	0
?NotifyFilterState@CBaseStreamControl@@QEAAXW4_FilterState@@_J@Z ENDP ; CBaseStreamControl::NotifyFilterState
; Function compile flags: /Odtp /RTCsu
_TEXT	ENDS
;	COMDAT text$x
text$x	SEGMENT
lck$ = 40
$T83182 = 56
tv71 = 64
this$ = 96
new_state$ = 104
tStart$ = 112
?dtor$0@?0??NotifyFilterState@CBaseStreamControl@@QEAAXW4_FilterState@@_J@Z@4HA PROC ; `CBaseStreamControl::NotifyFilterState'::`1'::dtor$0
	mov	QWORD PTR [rsp+8], rcx
	mov	QWORD PTR [rsp+16], rdx
	push	rbp
	push	rdi
	sub	rsp, 40					; 00000028H
	mov	rbp, rdx
	lea	rcx, QWORD PTR lck$[rbp]
	call	??1CAutoLock@@QEAA@XZ			; CAutoLock::~CAutoLock
	add	rsp, 40					; 00000028H
	pop	rdi
	pop	rbp
	ret	0
?dtor$0@?0??NotifyFilterState@CBaseStreamControl@@QEAAXW4_FilterState@@_J@Z@4HA ENDP ; `CBaseStreamControl::NotifyFilterState'::`1'::dtor$0
text$x	ENDS
PUBLIC	?Flushing@CBaseStreamControl@@QEAAXH@Z		; CBaseStreamControl::Flushing
;	COMDAT pdata
pdata	SEGMENT
$pdata$?Flushing@CBaseStreamControl@@QEAAXH@Z DD imagerel $LN4
	DD	imagerel $LN4+127
	DD	imagerel $unwind$?Flushing@CBaseStreamControl@@QEAAXH@Z
pdata	ENDS
;	COMDAT pdata
pdata	SEGMENT
$pdata$?dtor$0@?0??Flushing@CBaseStreamControl@@QEAAXH@Z@4HA DD imagerel ?dtor$0@?0??Flushing@CBaseStreamControl@@QEAAXH@Z@4HA
	DD	imagerel ?dtor$0@?0??Flushing@CBaseStreamControl@@QEAAXH@Z@4HA+35
	DD	imagerel $unwind$?dtor$0@?0??Flushing@CBaseStreamControl@@QEAAXH@Z@4HA
pdata	ENDS
;	COMDAT xdata
xdata	SEGMENT
$ip2state$?Flushing@CBaseStreamControl@@QEAAXH@Z DD imagerel ?Flushing@CBaseStreamControl@@QEAAXH@Z
	DD	0ffffffffH
	DD	imagerel ?Flushing@CBaseStreamControl@@QEAAXH@Z+66
	DD	00H
	DD	imagerel ?Flushing@CBaseStreamControl@@QEAAXH@Z+96
	DD	0ffffffffH
xdata	ENDS
;	COMDAT xdata
xdata	SEGMENT
$unwind$?dtor$0@?0??Flushing@CBaseStreamControl@@QEAAXH@Z@4HA DD 031001H
	DD	0700c4210H
	DD	0500bH
xdata	ENDS
;	COMDAT xdata
xdata	SEGMENT
$unwind$?Flushing@CBaseStreamControl@@QEAAXH@Z DD 022b11H
	DD	0700a720eH
	DD	imagerel __CxxFrameHandler3
	DD	imagerel $cppxdata$?Flushing@CBaseStreamControl@@QEAAXH@Z
xdata	ENDS
;	COMDAT xdata
xdata	SEGMENT
$stateUnwindMap$?Flushing@CBaseStreamControl@@QEAAXH@Z DD 0ffffffffH
	DD	imagerel ?dtor$0@?0??Flushing@CBaseStreamControl@@QEAAXH@Z@4HA
xdata	ENDS
;	COMDAT CONST
CONST	SEGMENT
?Flushing@CBaseStreamControl@@QEAAXH@Z$rtcName$0 DB 06cH ; CBaseStreamControl::Flushing
	DB	063H
	DB	06bH
	DB	00H
	ORG $+12
?Flushing@CBaseStreamControl@@QEAAXH@Z$rtcVarDesc DD 028H ; CBaseStreamControl::Flushing
	DD	08H
	DQ	FLAT:?Flushing@CBaseStreamControl@@QEAAXH@Z$rtcName$0
	ORG $+48
?Flushing@CBaseStreamControl@@QEAAXH@Z$rtcFrameData DD 01H ; CBaseStreamControl::Flushing
	DD	00H
	DQ	FLAT:?Flushing@CBaseStreamControl@@QEAAXH@Z$rtcVarDesc
$cppxdata$?Flushing@CBaseStreamControl@@QEAAXH@Z DD 019930522H
	DD	01H
	DD	imagerel $stateUnwindMap$?Flushing@CBaseStreamControl@@QEAAXH@Z
	DD	00H
	DD	00H
	DD	03H
	DD	imagerel $ip2state$?Flushing@CBaseStreamControl@@QEAAXH@Z
	DD	038H
	DD	00H
	DD	01H
; Function compile flags: /Odtp /RTCsu
CONST	ENDS
;	COMDAT ?Flushing@CBaseStreamControl@@QEAAXH@Z
_TEXT	SEGMENT
lck$ = 40
$T83208 = 56
this$ = 80
bInProgress$ = 88
?Flushing@CBaseStreamControl@@QEAAXH@Z PROC		; CBaseStreamControl::Flushing, COMDAT
; Line 397
$LN4:
	mov	DWORD PTR [rsp+16], edx
	mov	QWORD PTR [rsp+8], rcx
	push	rdi
	sub	rsp, 64					; 00000040H
	mov	rdi, rsp
	mov	ecx, 16
	mov	eax, -858993460				; ccccccccH
	rep stosd
	mov	rcx, QWORD PTR [rsp+80]
	mov	QWORD PTR $T83208[rsp], -2
; Line 398
	mov	rax, QWORD PTR this$[rsp]
	add	rax, 56					; 00000038H
	mov	rdx, rax
	lea	rcx, QWORD PTR lck$[rsp]
	call	??0CAutoLock@@QEAA@PEAVCCritSec@@@Z	; CAutoLock::CAutoLock
	npad	1
; Line 399
	mov	rax, QWORD PTR this$[rsp]
	mov	ecx, DWORD PTR bInProgress$[rsp]
	mov	DWORD PTR [rax+40], ecx
; Line 400
	mov	rax, QWORD PTR this$[rsp]
	add	rax, 112				; 00000070H
	mov	rcx, rax
	call	?Set@CAMEvent@@QEAAXXZ			; CAMEvent::Set
	npad	1
; Line 401
	lea	rcx, QWORD PTR lck$[rsp]
	call	??1CAutoLock@@QEAA@XZ			; CAutoLock::~CAutoLock
	mov	rcx, rsp
	lea	rdx, OFFSET FLAT:?Flushing@CBaseStreamControl@@QEAAXH@Z$rtcFrameData
	call	_RTC_CheckStackVars
	add	rsp, 64					; 00000040H
	pop	rdi
	ret	0
?Flushing@CBaseStreamControl@@QEAAXH@Z ENDP		; CBaseStreamControl::Flushing
; Function compile flags: /Odtp /RTCsu
_TEXT	ENDS
;	COMDAT text$x
text$x	SEGMENT
lck$ = 40
$T83208 = 56
this$ = 80
bInProgress$ = 88
?dtor$0@?0??Flushing@CBaseStreamControl@@QEAAXH@Z@4HA PROC ; `CBaseStreamControl::Flushing'::`1'::dtor$0
	mov	QWORD PTR [rsp+8], rcx
	mov	QWORD PTR [rsp+16], rdx
	push	rbp
	push	rdi
	sub	rsp, 40					; 00000028H
	mov	rbp, rdx
	lea	rcx, QWORD PTR lck$[rbp]
	call	??1CAutoLock@@QEAA@XZ			; CAutoLock::~CAutoLock
	add	rsp, 40					; 00000028H
	pop	rdi
	pop	rbp
	ret	0
?dtor$0@?0??Flushing@CBaseStreamControl@@QEAAXH@Z@4HA ENDP ; `CBaseStreamControl::Flushing'::`1'::dtor$0
text$x	ENDS
END
