; Listing generated by Microsoft (R) Optimizing Compiler Version 16.00.30319.01 

include listing.inc

INCLUDELIB LIBCMTD
INCLUDELIB OLDNAMES

PUBLIC	IID_IAMFilterGraphCallback
CONST	SEGMENT
$SG82235 DB	'S', 00H, 'y', 00H, 's', 00H, 't', 00H, 'e', 00H, 'm', 00H
	DB	' ', 00H, 'r', 00H, 'e', 00H, 'f', 00H, 'e', 00H, 'r', 00H, 'e'
	DB	00H, 'n', 00H, 'c', 00H, 'e', 00H, ' ', 00H, 'c', 00H, 'l', 00H
	DB	'o', 00H, 'c', 00H, 'k', 00H, 00H, 00H
	ORG $+2
$SG82272 DB	'.', 00H, '.', 00H, '\', 00H, 's', 00H, 'y', 00H, 's', 00H
	DB	'c', 00H, 'l', 00H, 'o', 00H, 'c', 00H, 'k', 00H, '.', 00H, 'c'
	DB	00H, 'p', 00H, 'p', 00H, 00H, 00H
$SG82273 DB	'"', 00H, 'I', 00H, 'n', 00H, 'v', 00H, 'a', 00H, 'l', 00H
	DB	'i', 00H, 'd', 00H, ' ', 00H, 'r', 00H, 'e', 00H, 'a', 00H, 'd'
	DB	00H, ' ', 00H, 'p', 00H, 'o', 00H, 'i', 00H, 'n', 00H, 't', 00H
	DB	'e', 00H, 'r', 00H, '"', 00H, 00H, 00H
	ORG $+2
$SG82277 DB	'.', 00H, '.', 00H, '\', 00H, 's', 00H, 'y', 00H, 's', 00H
	DB	'c', 00H, 'l', 00H, 'o', 00H, 'c', 00H, 'k', 00H, '.', 00H, 'c'
	DB	00H, 'p', 00H, 'p', 00H, 00H, 00H
$SG82278 DB	'"', 00H, 'I', 00H, 'n', 00H, 'v', 00H, 'a', 00H, 'l', 00H
	DB	'i', 00H, 'd', 00H, ' ', 00H, 'w', 00H, 'r', 00H, 'i', 00H, 't'
	DB	00H, 'e', 00H, ' ', 00H, 'p', 00H, 'o', 00H, 'i', 00H, 'n', 00H
	DB	't', 00H, 'e', 00H, 'r', 00H, '"', 00H, 00H, 00H
CONST	ENDS
;	COMDAT IID_IAMFilterGraphCallback
CONST	SEGMENT
IID_IAMFilterGraphCallback DD 056a868fdH
	DW	0ad4H
	DW	011ceH
	DB	0b0H
	DB	0a3H
	DB	00H
	DB	020H
	DB	0afH
	DB	0bH
	DB	0a7H
	DB	070H
CONST	ENDS
PUBLIC	??0CSystemClock@@QEAA@PEA_WPEAUIUnknown@@PEAJ@Z	; CSystemClock::CSystemClock
PUBLIC	?CreateInstance@CSystemClock@@SAPEAVCUnknown@@PEAUIUnknown@@PEAJ@Z ; CSystemClock::CreateInstance
EXTRN	__CxxFrameHandler3:PROC
EXTRN	??3@YAXPEAX@Z:PROC				; operator delete
EXTRN	??2@YAPEAX_K@Z:PROC				; operator new
EXTRN	_RTC_Shutdown:PROC
EXTRN	_RTC_InitBase:PROC
;	COMDAT pdata
; File c:\downloads\wpf mediakit - copy\src\filters\baseclasses\sysclock.cpp
pdata	SEGMENT
$pdata$?CreateInstance@CSystemClock@@SAPEAVCUnknown@@PEAUIUnknown@@PEAJ@Z DD imagerel $LN6
	DD	imagerel $LN6+131
	DD	imagerel $unwind$?CreateInstance@CSystemClock@@SAPEAVCUnknown@@PEAUIUnknown@@PEAJ@Z
pdata	ENDS
;	COMDAT pdata
pdata	SEGMENT
$pdata$?dtor$0@?0??CreateInstance@CSystemClock@@SAPEAVCUnknown@@PEAUIUnknown@@PEAJ@Z@4HA DD imagerel ?dtor$0@?0??CreateInstance@CSystemClock@@SAPEAVCUnknown@@PEAUIUnknown@@PEAJ@Z@4HA
	DD	imagerel ?dtor$0@?0??CreateInstance@CSystemClock@@SAPEAVCUnknown@@PEAUIUnknown@@PEAJ@Z@4HA+35
	DD	imagerel $unwind$?dtor$0@?0??CreateInstance@CSystemClock@@SAPEAVCUnknown@@PEAUIUnknown@@PEAJ@Z@4HA
pdata	ENDS
;	COMDAT xdata
xdata	SEGMENT
$ip2state$?CreateInstance@CSystemClock@@SAPEAVCUnknown@@PEAUIUnknown@@PEAJ@Z DD imagerel ?CreateInstance@CSystemClock@@SAPEAVCUnknown@@PEAUIUnknown@@PEAJ@Z
	DD	0ffffffffH
	DD	imagerel ?CreateInstance@CSystemClock@@SAPEAVCUnknown@@PEAUIUnknown@@PEAJ@Z+59
	DD	00H
	DD	imagerel ?CreateInstance@CSystemClock@@SAPEAVCUnknown@@PEAUIUnknown@@PEAJ@Z+120
	DD	0ffffffffH
xdata	ENDS
;	COMDAT xdata
xdata	SEGMENT
$unwind$?dtor$0@?0??CreateInstance@CSystemClock@@SAPEAVCUnknown@@PEAUIUnknown@@PEAJ@Z@4HA DD 031001H
	DD	0700c4210H
	DD	0500bH
xdata	ENDS
;	COMDAT xdata
xdata	SEGMENT
$unwind$?CreateInstance@CSystemClock@@SAPEAVCUnknown@@PEAUIUnknown@@PEAJ@Z DD 022c11H
	DD	0700b720fH
	DD	imagerel __CxxFrameHandler3
	DD	imagerel $cppxdata$?CreateInstance@CSystemClock@@SAPEAVCUnknown@@PEAUIUnknown@@PEAJ@Z
xdata	ENDS
;	COMDAT CONST
CONST	SEGMENT
$cppxdata$?CreateInstance@CSystemClock@@SAPEAVCUnknown@@PEAUIUnknown@@PEAJ@Z DD 019930522H
	DD	01H
	DD	imagerel $stateUnwindMap$?CreateInstance@CSystemClock@@SAPEAVCUnknown@@PEAUIUnknown@@PEAJ@Z
	DD	00H
	DD	00H
	DD	03H
	DD	imagerel $ip2state$?CreateInstance@CSystemClock@@SAPEAVCUnknown@@PEAUIUnknown@@PEAJ@Z
	DD	030H
	DD	00H
	DD	01H
CONST	ENDS
;	COMDAT xdata
xdata	SEGMENT
$stateUnwindMap$?CreateInstance@CSystemClock@@SAPEAVCUnknown@@PEAUIUnknown@@PEAJ@Z DD 0ffffffffH
	DD	imagerel ?dtor$0@?0??CreateInstance@CSystemClock@@SAPEAVCUnknown@@PEAUIUnknown@@PEAJ@Z@4HA
xdata	ENDS
;	COMDAT rtc$TMZ
rtc$TMZ	SEGMENT
_RTC_Shutdown.rtc$TMZ DQ FLAT:_RTC_Shutdown
rtc$TMZ	ENDS
;	COMDAT rtc$IMZ
rtc$IMZ	SEGMENT
_RTC_InitBase.rtc$IMZ DQ FLAT:_RTC_InitBase
; Function compile flags: /Odtp /RTCsu
rtc$IMZ	ENDS
;	COMDAT ?CreateInstance@CSystemClock@@SAPEAVCUnknown@@PEAUIUnknown@@PEAJ@Z
_TEXT	SEGMENT
$T82848 = 32
$T82849 = 40
$T82865 = 48
tv77 = 56
pUnk$ = 80
phr$ = 88
?CreateInstance@CSystemClock@@SAPEAVCUnknown@@PEAUIUnknown@@PEAJ@Z PROC ; CSystemClock::CreateInstance, COMDAT
; Line 31
$LN6:
	mov	QWORD PTR [rsp+16], rdx
	mov	QWORD PTR [rsp+8], rcx
	push	rdi
	sub	rsp, 64					; 00000040H
	mov	rdi, rsp
	mov	ecx, 16
	mov	eax, -858993460				; ccccccccH
	rep stosd
	mov	rcx, QWORD PTR [rsp+80]
	mov	QWORD PTR $T82865[rsp], -2
; Line 32
	mov	ecx, 168				; 000000a8H
	call	??2@YAPEAX_K@Z				; operator new
	mov	QWORD PTR $T82849[rsp], rax
	cmp	QWORD PTR $T82849[rsp], 0
	je	SHORT $LN3@CreateInst
	mov	r9, QWORD PTR phr$[rsp]
	mov	r8, QWORD PTR pUnk$[rsp]
	lea	rdx, OFFSET FLAT:$SG82235
	mov	rcx, QWORD PTR $T82849[rsp]
	call	??0CSystemClock@@QEAA@PEA_WPEAUIUnknown@@PEAJ@Z ; CSystemClock::CSystemClock
	mov	QWORD PTR tv77[rsp], rax
	jmp	SHORT $LN4@CreateInst
$LN3@CreateInst:
	mov	QWORD PTR tv77[rsp], 0
$LN4@CreateInst:
	mov	rax, QWORD PTR tv77[rsp]
	mov	QWORD PTR $T82848[rsp], rax
	mov	rax, QWORD PTR $T82848[rsp]
; Line 33
	add	rsp, 64					; 00000040H
	pop	rdi
	ret	0
?CreateInstance@CSystemClock@@SAPEAVCUnknown@@PEAUIUnknown@@PEAJ@Z ENDP ; CSystemClock::CreateInstance
; Function compile flags: /Odtp /RTCsu
_TEXT	ENDS
;	COMDAT text$x
text$x	SEGMENT
$T82848 = 32
$T82849 = 40
$T82865 = 48
tv77 = 56
pUnk$ = 80
phr$ = 88
?dtor$0@?0??CreateInstance@CSystemClock@@SAPEAVCUnknown@@PEAUIUnknown@@PEAJ@Z@4HA PROC ; `CSystemClock::CreateInstance'::`1'::dtor$0
	mov	QWORD PTR [rsp+8], rcx
	mov	QWORD PTR [rsp+16], rdx
	push	rbp
	push	rdi
	sub	rsp, 40					; 00000028H
	mov	rbp, rdx
	mov	rcx, QWORD PTR $T82849[rbp]
	call	??3@YAXPEAX@Z				; operator delete
	add	rsp, 40					; 00000028H
	pop	rdi
	pop	rbp
	ret	0
?dtor$0@?0??CreateInstance@CSystemClock@@SAPEAVCUnknown@@PEAUIUnknown@@PEAJ@Z@4HA ENDP ; `CSystemClock::CreateInstance'::`1'::dtor$0
text$x	ENDS
PUBLIC	??_7CSystemClock@@6BIPersist@@@			; CSystemClock::`vftable'
PUBLIC	??_7CSystemClock@@6BIAMClockAdjust@@@		; CSystemClock::`vftable'
PUBLIC	??_7CSystemClock@@6BIReferenceClock@@@		; CSystemClock::`vftable'
PUBLIC	??_7CSystemClock@@6BCUnknown@@@			; CSystemClock::`vftable'
PUBLIC	??0IPersist@@QEAA@XZ				; IPersist::IPersist
PUBLIC	??0IAMClockAdjust@@QEAA@XZ			; IAMClockAdjust::IAMClockAdjust
PUBLIC	??_R4CSystemClock@@6BCUnknown@@@		; CSystemClock::`RTTI Complete Object Locator'
PUBLIC	??_R0?AVCSystemClock@@@8			; CSystemClock `RTTI Type Descriptor'
PUBLIC	??_R3CSystemClock@@8				; CSystemClock::`RTTI Class Hierarchy Descriptor'
PUBLIC	??_R2CSystemClock@@8				; CSystemClock::`RTTI Base Class Array'
PUBLIC	??_R1A@?0A@EA@CSystemClock@@8			; CSystemClock::`RTTI Base Class Descriptor at (0,-1,0,64)'
PUBLIC	??_R1A@?0A@EA@CBaseReferenceClock@@8		; CBaseReferenceClock::`RTTI Base Class Descriptor at (0,-1,0,64)'
PUBLIC	??_R0?AVCBaseReferenceClock@@@8			; CBaseReferenceClock `RTTI Type Descriptor'
PUBLIC	??_R3CBaseReferenceClock@@8			; CBaseReferenceClock::`RTTI Class Hierarchy Descriptor'
PUBLIC	??_R2CBaseReferenceClock@@8			; CBaseReferenceClock::`RTTI Base Class Array'
PUBLIC	??_R1A@?0A@EA@CUnknown@@8			; CUnknown::`RTTI Base Class Descriptor at (0,-1,0,64)'
PUBLIC	??_R0?AVCUnknown@@@8				; CUnknown `RTTI Type Descriptor'
PUBLIC	??_R3CUnknown@@8				; CUnknown::`RTTI Class Hierarchy Descriptor'
PUBLIC	??_R2CUnknown@@8				; CUnknown::`RTTI Base Class Array'
PUBLIC	??_R1A@?0A@EA@INonDelegatingUnknown@@8		; INonDelegatingUnknown::`RTTI Base Class Descriptor at (0,-1,0,64)'
PUBLIC	??_R0?AUINonDelegatingUnknown@@@8		; INonDelegatingUnknown `RTTI Type Descriptor'
PUBLIC	??_R3INonDelegatingUnknown@@8			; INonDelegatingUnknown::`RTTI Class Hierarchy Descriptor'
PUBLIC	??_R2INonDelegatingUnknown@@8			; INonDelegatingUnknown::`RTTI Base Class Array'
PUBLIC	??_R17?0A@EA@CBaseObject@@8			; CBaseObject::`RTTI Base Class Descriptor at (8,-1,0,64)'
PUBLIC	??_R0?AVCBaseObject@@@8				; CBaseObject `RTTI Type Descriptor'
PUBLIC	??_R3CBaseObject@@8				; CBaseObject::`RTTI Class Hierarchy Descriptor'
PUBLIC	??_R2CBaseObject@@8				; CBaseObject::`RTTI Base Class Array'
PUBLIC	??_R1A@?0A@EA@CBaseObject@@8			; CBaseObject::`RTTI Base Class Descriptor at (0,-1,0,64)'
PUBLIC	??_R1CA@?0A@EA@IReferenceClock@@8		; IReferenceClock::`RTTI Base Class Descriptor at (32,-1,0,64)'
PUBLIC	??_R0?AUIReferenceClock@@@8			; IReferenceClock `RTTI Type Descriptor'
PUBLIC	??_R3IReferenceClock@@8				; IReferenceClock::`RTTI Class Hierarchy Descriptor'
PUBLIC	??_R2IReferenceClock@@8				; IReferenceClock::`RTTI Base Class Array'
PUBLIC	??_R1A@?0A@EA@IReferenceClock@@8		; IReferenceClock::`RTTI Base Class Descriptor at (0,-1,0,64)'
PUBLIC	??_R1A@?0A@EA@IUnknown@@8			; IUnknown::`RTTI Base Class Descriptor at (0,-1,0,64)'
PUBLIC	??_R0?AUIUnknown@@@8				; IUnknown `RTTI Type Descriptor'
PUBLIC	??_R3IUnknown@@8				; IUnknown::`RTTI Class Hierarchy Descriptor'
PUBLIC	??_R2IUnknown@@8				; IUnknown::`RTTI Base Class Array'
PUBLIC	??_R1CA@?0A@EA@IUnknown@@8			; IUnknown::`RTTI Base Class Descriptor at (32,-1,0,64)'
PUBLIC	??_R1CI@?0A@EA@CCritSec@@8			; CCritSec::`RTTI Base Class Descriptor at (40,-1,0,64)'
PUBLIC	??_R0?AVCCritSec@@@8				; CCritSec `RTTI Type Descriptor'
PUBLIC	??_R3CCritSec@@8				; CCritSec::`RTTI Class Hierarchy Descriptor'
PUBLIC	??_R2CCritSec@@8				; CCritSec::`RTTI Base Class Array'
PUBLIC	??_R1A@?0A@EA@CCritSec@@8			; CCritSec::`RTTI Base Class Descriptor at (0,-1,0,64)'
PUBLIC	??_R1CA@?0A@EC@IUnknown@@8			; IUnknown::`RTTI Base Class Descriptor at (32,-1,0,66)'
PUBLIC	??_R1JI@?0A@EA@IAMClockAdjust@@8		; IAMClockAdjust::`RTTI Base Class Descriptor at (152,-1,0,64)'
PUBLIC	??_R0?AUIAMClockAdjust@@@8			; IAMClockAdjust `RTTI Type Descriptor'
PUBLIC	??_R3IAMClockAdjust@@8				; IAMClockAdjust::`RTTI Class Hierarchy Descriptor'
PUBLIC	??_R2IAMClockAdjust@@8				; IAMClockAdjust::`RTTI Base Class Array'
PUBLIC	??_R1A@?0A@EA@IAMClockAdjust@@8			; IAMClockAdjust::`RTTI Base Class Descriptor at (0,-1,0,64)'
PUBLIC	??_R1JI@?0A@EC@IUnknown@@8			; IUnknown::`RTTI Base Class Descriptor at (152,-1,0,66)'
PUBLIC	??_R1KA@?0A@EA@IPersist@@8			; IPersist::`RTTI Base Class Descriptor at (160,-1,0,64)'
PUBLIC	??_R0?AUIPersist@@@8				; IPersist `RTTI Type Descriptor'
PUBLIC	??_R3IPersist@@8				; IPersist::`RTTI Class Hierarchy Descriptor'
PUBLIC	??_R2IPersist@@8				; IPersist::`RTTI Base Class Array'
PUBLIC	??_R1A@?0A@EA@IPersist@@8			; IPersist::`RTTI Base Class Descriptor at (0,-1,0,64)'
PUBLIC	??_R1KA@?0A@EC@IUnknown@@8			; IUnknown::`RTTI Base Class Descriptor at (160,-1,0,66)'
PUBLIC	?NonDelegatingQueryInterface@CSystemClock@@UEAAJAEBU_GUID@@PEAPEAX@Z ; CSystemClock::NonDelegatingQueryInterface
PUBLIC	??_R4CSystemClock@@6BIReferenceClock@@@		; CSystemClock::`RTTI Complete Object Locator'
PUBLIC	?QueryInterface@CSystemClock@@UEAAJAEBU_GUID@@PEAPEAX@Z ; CSystemClock::QueryInterface
PUBLIC	?AddRef@CSystemClock@@UEAAKXZ			; CSystemClock::AddRef
PUBLIC	?Release@CSystemClock@@UEAAKXZ			; CSystemClock::Release
PUBLIC	??_R4CSystemClock@@6BIAMClockAdjust@@@		; CSystemClock::`RTTI Complete Object Locator'
PUBLIC	?QueryInterface@CSystemClock@@WHI@EAAJAEBU_GUID@@PEAPEAX@Z ; [thunk]:CSystemClock::QueryInterface`adjustor{120}'
PUBLIC	?AddRef@CSystemClock@@WHI@EAAKXZ		; [thunk]:CSystemClock::AddRef`adjustor{120}'
PUBLIC	?Release@CSystemClock@@WHI@EAAKXZ		; [thunk]:CSystemClock::Release`adjustor{120}'
PUBLIC	?SetClockDelta@CSystemClock@@UEAAJ_J@Z		; CSystemClock::SetClockDelta
PUBLIC	??_R4CSystemClock@@6BIPersist@@@		; CSystemClock::`RTTI Complete Object Locator'
PUBLIC	?QueryInterface@CSystemClock@@WIA@EAAJAEBU_GUID@@PEAPEAX@Z ; [thunk]:CSystemClock::QueryInterface`adjustor{128}'
PUBLIC	?AddRef@CSystemClock@@WIA@EAAKXZ		; [thunk]:CSystemClock::AddRef`adjustor{128}'
PUBLIC	?Release@CSystemClock@@WIA@EAAKXZ		; [thunk]:CSystemClock::Release`adjustor{128}'
PUBLIC	?GetClassID@CSystemClock@@UEAAJPEAU_GUID@@@Z	; CSystemClock::GetClassID
EXTRN	??0CBaseReferenceClock@@QEAA@PEA_WPEAUIUnknown@@PEAJPEAVCAMSchedule@@@Z:PROC ; CBaseReferenceClock::CBaseReferenceClock
EXTRN	??_7type_info@@6B@:BYTE				; type_info::`vftable'
EXTRN	?NonDelegatingAddRef@CUnknown@@UEAAKXZ:PROC	; CUnknown::NonDelegatingAddRef
EXTRN	?NonDelegatingRelease@CUnknown@@UEAAKXZ:PROC	; CUnknown::NonDelegatingRelease
EXTRN	??_ECSystemClock@@UEAAPEAXI@Z:PROC		; CSystemClock::`vector deleting destructor'
EXTRN	?GetPrivateTime@CBaseReferenceClock@@UEAA_JXZ:PROC ; CBaseReferenceClock::GetPrivateTime
EXTRN	?GetTime@CBaseReferenceClock@@UEAAJPEA_J@Z:PROC	; CBaseReferenceClock::GetTime
EXTRN	?AdviseTime@CBaseReferenceClock@@UEAAJ_J0_KPEA_K@Z:PROC ; CBaseReferenceClock::AdviseTime
EXTRN	?AdvisePeriodic@CBaseReferenceClock@@UEAAJ_J0_KPEA_K@Z:PROC ; CBaseReferenceClock::AdvisePeriodic
EXTRN	?Unadvise@CBaseReferenceClock@@UEAAJ_K@Z:PROC	; CBaseReferenceClock::Unadvise
;	COMDAT pdata
pdata	SEGMENT
$pdata$??0CSystemClock@@QEAA@PEA_WPEAUIUnknown@@PEAJ@Z DD imagerel $LN4
	DD	imagerel $LN4+197
	DD	imagerel $unwind$??0CSystemClock@@QEAA@PEA_WPEAUIUnknown@@PEAJ@Z
pdata	ENDS
;	COMDAT ??_R4CSystemClock@@6BIPersist@@@
rdata$r	SEGMENT
??_R4CSystemClock@@6BIPersist@@@ DD 01H			; CSystemClock::`RTTI Complete Object Locator'
	DD	0a0H
	DD	00H
	DD	imagerel ??_R0?AVCSystemClock@@@8
	DD	imagerel ??_R3CSystemClock@@8
	DD	imagerel ??_R4CSystemClock@@6BIPersist@@@
rdata$r	ENDS
;	COMDAT ??_R4CSystemClock@@6BIAMClockAdjust@@@
rdata$r	SEGMENT
??_R4CSystemClock@@6BIAMClockAdjust@@@ DD 01H		; CSystemClock::`RTTI Complete Object Locator'
	DD	098H
	DD	00H
	DD	imagerel ??_R0?AVCSystemClock@@@8
	DD	imagerel ??_R3CSystemClock@@8
	DD	imagerel ??_R4CSystemClock@@6BIAMClockAdjust@@@
rdata$r	ENDS
;	COMDAT ??_R4CSystemClock@@6BIReferenceClock@@@
rdata$r	SEGMENT
??_R4CSystemClock@@6BIReferenceClock@@@ DD 01H		; CSystemClock::`RTTI Complete Object Locator'
	DD	020H
	DD	00H
	DD	imagerel ??_R0?AVCSystemClock@@@8
	DD	imagerel ??_R3CSystemClock@@8
	DD	imagerel ??_R4CSystemClock@@6BIReferenceClock@@@
rdata$r	ENDS
;	COMDAT ??_R1KA@?0A@EC@IUnknown@@8
rdata$r	SEGMENT
??_R1KA@?0A@EC@IUnknown@@8 DD imagerel ??_R0?AUIUnknown@@@8 ; IUnknown::`RTTI Base Class Descriptor at (160,-1,0,66)'
	DD	00H
	DD	0a0H
	DD	0ffffffffH
	DD	00H
	DD	042H
	DD	imagerel ??_R3IUnknown@@8
rdata$r	ENDS
;	COMDAT ??_R1A@?0A@EA@IPersist@@8
rdata$r	SEGMENT
??_R1A@?0A@EA@IPersist@@8 DD imagerel ??_R0?AUIPersist@@@8 ; IPersist::`RTTI Base Class Descriptor at (0,-1,0,64)'
	DD	01H
	DD	00H
	DD	0ffffffffH
	DD	00H
	DD	040H
	DD	imagerel ??_R3IPersist@@8
rdata$r	ENDS
;	COMDAT ??_R2IPersist@@8
rdata$r	SEGMENT
??_R2IPersist@@8 DD imagerel ??_R1A@?0A@EA@IPersist@@8	; IPersist::`RTTI Base Class Array'
	DD	imagerel ??_R1A@?0A@EA@IUnknown@@8
	ORG $+3
rdata$r	ENDS
;	COMDAT ??_R3IPersist@@8
rdata$r	SEGMENT
??_R3IPersist@@8 DD 00H					; IPersist::`RTTI Class Hierarchy Descriptor'
	DD	00H
	DD	02H
	DD	imagerel ??_R2IPersist@@8
rdata$r	ENDS
;	COMDAT ??_R0?AUIPersist@@@8
_DATA	SEGMENT
??_R0?AUIPersist@@@8 DQ FLAT:??_7type_info@@6B@		; IPersist `RTTI Type Descriptor'
	DQ	0000000000000000H
	DB	'.?AUIPersist@@', 00H
_DATA	ENDS
;	COMDAT ??_R1KA@?0A@EA@IPersist@@8
rdata$r	SEGMENT
??_R1KA@?0A@EA@IPersist@@8 DD imagerel ??_R0?AUIPersist@@@8 ; IPersist::`RTTI Base Class Descriptor at (160,-1,0,64)'
	DD	01H
	DD	0a0H
	DD	0ffffffffH
	DD	00H
	DD	040H
	DD	imagerel ??_R3IPersist@@8
rdata$r	ENDS
;	COMDAT ??_R1JI@?0A@EC@IUnknown@@8
rdata$r	SEGMENT
??_R1JI@?0A@EC@IUnknown@@8 DD imagerel ??_R0?AUIUnknown@@@8 ; IUnknown::`RTTI Base Class Descriptor at (152,-1,0,66)'
	DD	00H
	DD	098H
	DD	0ffffffffH
	DD	00H
	DD	042H
	DD	imagerel ??_R3IUnknown@@8
rdata$r	ENDS
;	COMDAT ??_R1A@?0A@EA@IAMClockAdjust@@8
rdata$r	SEGMENT
??_R1A@?0A@EA@IAMClockAdjust@@8 DD imagerel ??_R0?AUIAMClockAdjust@@@8 ; IAMClockAdjust::`RTTI Base Class Descriptor at (0,-1,0,64)'
	DD	01H
	DD	00H
	DD	0ffffffffH
	DD	00H
	DD	040H
	DD	imagerel ??_R3IAMClockAdjust@@8
rdata$r	ENDS
;	COMDAT ??_R2IAMClockAdjust@@8
rdata$r	SEGMENT
??_R2IAMClockAdjust@@8 DD imagerel ??_R1A@?0A@EA@IAMClockAdjust@@8 ; IAMClockAdjust::`RTTI Base Class Array'
	DD	imagerel ??_R1A@?0A@EA@IUnknown@@8
	ORG $+3
rdata$r	ENDS
;	COMDAT ??_R3IAMClockAdjust@@8
rdata$r	SEGMENT
??_R3IAMClockAdjust@@8 DD 00H				; IAMClockAdjust::`RTTI Class Hierarchy Descriptor'
	DD	00H
	DD	02H
	DD	imagerel ??_R2IAMClockAdjust@@8
rdata$r	ENDS
;	COMDAT ??_R0?AUIAMClockAdjust@@@8
_DATA	SEGMENT
??_R0?AUIAMClockAdjust@@@8 DQ FLAT:??_7type_info@@6B@	; IAMClockAdjust `RTTI Type Descriptor'
	DQ	0000000000000000H
	DB	'.?AUIAMClockAdjust@@', 00H
_DATA	ENDS
;	COMDAT ??_R1JI@?0A@EA@IAMClockAdjust@@8
rdata$r	SEGMENT
??_R1JI@?0A@EA@IAMClockAdjust@@8 DD imagerel ??_R0?AUIAMClockAdjust@@@8 ; IAMClockAdjust::`RTTI Base Class Descriptor at (152,-1,0,64)'
	DD	01H
	DD	098H
	DD	0ffffffffH
	DD	00H
	DD	040H
	DD	imagerel ??_R3IAMClockAdjust@@8
rdata$r	ENDS
;	COMDAT ??_R1CA@?0A@EC@IUnknown@@8
rdata$r	SEGMENT
??_R1CA@?0A@EC@IUnknown@@8 DD imagerel ??_R0?AUIUnknown@@@8 ; IUnknown::`RTTI Base Class Descriptor at (32,-1,0,66)'
	DD	00H
	DD	020H
	DD	0ffffffffH
	DD	00H
	DD	042H
	DD	imagerel ??_R3IUnknown@@8
rdata$r	ENDS
;	COMDAT ??_R1A@?0A@EA@CCritSec@@8
rdata$r	SEGMENT
??_R1A@?0A@EA@CCritSec@@8 DD imagerel ??_R0?AVCCritSec@@@8 ; CCritSec::`RTTI Base Class Descriptor at (0,-1,0,64)'
	DD	00H
	DD	00H
	DD	0ffffffffH
	DD	00H
	DD	040H
	DD	imagerel ??_R3CCritSec@@8
rdata$r	ENDS
;	COMDAT ??_R2CCritSec@@8
rdata$r	SEGMENT
??_R2CCritSec@@8 DD imagerel ??_R1A@?0A@EA@CCritSec@@8	; CCritSec::`RTTI Base Class Array'
	ORG $+3
rdata$r	ENDS
;	COMDAT ??_R3CCritSec@@8
rdata$r	SEGMENT
??_R3CCritSec@@8 DD 00H					; CCritSec::`RTTI Class Hierarchy Descriptor'
	DD	00H
	DD	01H
	DD	imagerel ??_R2CCritSec@@8
rdata$r	ENDS
;	COMDAT ??_R0?AVCCritSec@@@8
_DATA	SEGMENT
??_R0?AVCCritSec@@@8 DQ FLAT:??_7type_info@@6B@		; CCritSec `RTTI Type Descriptor'
	DQ	0000000000000000H
	DB	'.?AVCCritSec@@', 00H
_DATA	ENDS
;	COMDAT ??_R1CI@?0A@EA@CCritSec@@8
rdata$r	SEGMENT
??_R1CI@?0A@EA@CCritSec@@8 DD imagerel ??_R0?AVCCritSec@@@8 ; CCritSec::`RTTI Base Class Descriptor at (40,-1,0,64)'
	DD	00H
	DD	028H
	DD	0ffffffffH
	DD	00H
	DD	040H
	DD	imagerel ??_R3CCritSec@@8
rdata$r	ENDS
;	COMDAT ??_R1CA@?0A@EA@IUnknown@@8
rdata$r	SEGMENT
??_R1CA@?0A@EA@IUnknown@@8 DD imagerel ??_R0?AUIUnknown@@@8 ; IUnknown::`RTTI Base Class Descriptor at (32,-1,0,64)'
	DD	00H
	DD	020H
	DD	0ffffffffH
	DD	00H
	DD	040H
	DD	imagerel ??_R3IUnknown@@8
rdata$r	ENDS
;	COMDAT ??_R2IUnknown@@8
rdata$r	SEGMENT
??_R2IUnknown@@8 DD imagerel ??_R1A@?0A@EA@IUnknown@@8	; IUnknown::`RTTI Base Class Array'
	ORG $+3
rdata$r	ENDS
;	COMDAT ??_R3IUnknown@@8
rdata$r	SEGMENT
??_R3IUnknown@@8 DD 00H					; IUnknown::`RTTI Class Hierarchy Descriptor'
	DD	00H
	DD	01H
	DD	imagerel ??_R2IUnknown@@8
rdata$r	ENDS
;	COMDAT ??_R0?AUIUnknown@@@8
_DATA	SEGMENT
??_R0?AUIUnknown@@@8 DQ FLAT:??_7type_info@@6B@		; IUnknown `RTTI Type Descriptor'
	DQ	0000000000000000H
	DB	'.?AUIUnknown@@', 00H
_DATA	ENDS
;	COMDAT ??_R1A@?0A@EA@IUnknown@@8
rdata$r	SEGMENT
??_R1A@?0A@EA@IUnknown@@8 DD imagerel ??_R0?AUIUnknown@@@8 ; IUnknown::`RTTI Base Class Descriptor at (0,-1,0,64)'
	DD	00H
	DD	00H
	DD	0ffffffffH
	DD	00H
	DD	040H
	DD	imagerel ??_R3IUnknown@@8
rdata$r	ENDS
;	COMDAT ??_R1A@?0A@EA@IReferenceClock@@8
rdata$r	SEGMENT
??_R1A@?0A@EA@IReferenceClock@@8 DD imagerel ??_R0?AUIReferenceClock@@@8 ; IReferenceClock::`RTTI Base Class Descriptor at (0,-1,0,64)'
	DD	01H
	DD	00H
	DD	0ffffffffH
	DD	00H
	DD	040H
	DD	imagerel ??_R3IReferenceClock@@8
rdata$r	ENDS
;	COMDAT ??_R2IReferenceClock@@8
rdata$r	SEGMENT
??_R2IReferenceClock@@8 DD imagerel ??_R1A@?0A@EA@IReferenceClock@@8 ; IReferenceClock::`RTTI Base Class Array'
	DD	imagerel ??_R1A@?0A@EA@IUnknown@@8
	ORG $+3
rdata$r	ENDS
;	COMDAT ??_R3IReferenceClock@@8
rdata$r	SEGMENT
??_R3IReferenceClock@@8 DD 00H				; IReferenceClock::`RTTI Class Hierarchy Descriptor'
	DD	00H
	DD	02H
	DD	imagerel ??_R2IReferenceClock@@8
rdata$r	ENDS
;	COMDAT ??_R0?AUIReferenceClock@@@8
_DATA	SEGMENT
??_R0?AUIReferenceClock@@@8 DQ FLAT:??_7type_info@@6B@	; IReferenceClock `RTTI Type Descriptor'
	DQ	0000000000000000H
	DB	'.?AUIReferenceClock@@', 00H
_DATA	ENDS
;	COMDAT ??_R1CA@?0A@EA@IReferenceClock@@8
rdata$r	SEGMENT
??_R1CA@?0A@EA@IReferenceClock@@8 DD imagerel ??_R0?AUIReferenceClock@@@8 ; IReferenceClock::`RTTI Base Class Descriptor at (32,-1,0,64)'
	DD	01H
	DD	020H
	DD	0ffffffffH
	DD	00H
	DD	040H
	DD	imagerel ??_R3IReferenceClock@@8
rdata$r	ENDS
;	COMDAT ??_R1A@?0A@EA@CBaseObject@@8
rdata$r	SEGMENT
??_R1A@?0A@EA@CBaseObject@@8 DD imagerel ??_R0?AVCBaseObject@@@8 ; CBaseObject::`RTTI Base Class Descriptor at (0,-1,0,64)'
	DD	00H
	DD	00H
	DD	0ffffffffH
	DD	00H
	DD	040H
	DD	imagerel ??_R3CBaseObject@@8
rdata$r	ENDS
;	COMDAT ??_R2CBaseObject@@8
rdata$r	SEGMENT
??_R2CBaseObject@@8 DD imagerel ??_R1A@?0A@EA@CBaseObject@@8 ; CBaseObject::`RTTI Base Class Array'
	ORG $+3
rdata$r	ENDS
;	COMDAT ??_R3CBaseObject@@8
rdata$r	SEGMENT
??_R3CBaseObject@@8 DD 00H				; CBaseObject::`RTTI Class Hierarchy Descriptor'
	DD	00H
	DD	01H
	DD	imagerel ??_R2CBaseObject@@8
rdata$r	ENDS
;	COMDAT ??_R0?AVCBaseObject@@@8
_DATA	SEGMENT
??_R0?AVCBaseObject@@@8 DQ FLAT:??_7type_info@@6B@	; CBaseObject `RTTI Type Descriptor'
	DQ	0000000000000000H
	DB	'.?AVCBaseObject@@', 00H
_DATA	ENDS
;	COMDAT ??_R17?0A@EA@CBaseObject@@8
rdata$r	SEGMENT
??_R17?0A@EA@CBaseObject@@8 DD imagerel ??_R0?AVCBaseObject@@@8 ; CBaseObject::`RTTI Base Class Descriptor at (8,-1,0,64)'
	DD	00H
	DD	08H
	DD	0ffffffffH
	DD	00H
	DD	040H
	DD	imagerel ??_R3CBaseObject@@8
rdata$r	ENDS
;	COMDAT ??_R2INonDelegatingUnknown@@8
rdata$r	SEGMENT
??_R2INonDelegatingUnknown@@8 DD imagerel ??_R1A@?0A@EA@INonDelegatingUnknown@@8 ; INonDelegatingUnknown::`RTTI Base Class Array'
	ORG $+3
rdata$r	ENDS
;	COMDAT ??_R3INonDelegatingUnknown@@8
rdata$r	SEGMENT
??_R3INonDelegatingUnknown@@8 DD 00H			; INonDelegatingUnknown::`RTTI Class Hierarchy Descriptor'
	DD	00H
	DD	01H
	DD	imagerel ??_R2INonDelegatingUnknown@@8
rdata$r	ENDS
;	COMDAT ??_R0?AUINonDelegatingUnknown@@@8
_DATA	SEGMENT
??_R0?AUINonDelegatingUnknown@@@8 DQ FLAT:??_7type_info@@6B@ ; INonDelegatingUnknown `RTTI Type Descriptor'
	DQ	0000000000000000H
	DB	'.?AUINonDelegatingUnknown@@', 00H
_DATA	ENDS
;	COMDAT ??_R1A@?0A@EA@INonDelegatingUnknown@@8
rdata$r	SEGMENT
??_R1A@?0A@EA@INonDelegatingUnknown@@8 DD imagerel ??_R0?AUINonDelegatingUnknown@@@8 ; INonDelegatingUnknown::`RTTI Base Class Descriptor at (0,-1,0,64)'
	DD	00H
	DD	00H
	DD	0ffffffffH
	DD	00H
	DD	040H
	DD	imagerel ??_R3INonDelegatingUnknown@@8
rdata$r	ENDS
;	COMDAT ??_R2CUnknown@@8
rdata$r	SEGMENT
??_R2CUnknown@@8 DD imagerel ??_R1A@?0A@EA@CUnknown@@8	; CUnknown::`RTTI Base Class Array'
	DD	imagerel ??_R1A@?0A@EA@INonDelegatingUnknown@@8
	DD	imagerel ??_R17?0A@EA@CBaseObject@@8
	ORG $+3
rdata$r	ENDS
;	COMDAT ??_R3CUnknown@@8
rdata$r	SEGMENT
??_R3CUnknown@@8 DD 00H					; CUnknown::`RTTI Class Hierarchy Descriptor'
	DD	01H
	DD	03H
	DD	imagerel ??_R2CUnknown@@8
rdata$r	ENDS
;	COMDAT ??_R0?AVCUnknown@@@8
_DATA	SEGMENT
??_R0?AVCUnknown@@@8 DQ FLAT:??_7type_info@@6B@		; CUnknown `RTTI Type Descriptor'
	DQ	0000000000000000H
	DB	'.?AVCUnknown@@', 00H
_DATA	ENDS
;	COMDAT ??_R1A@?0A@EA@CUnknown@@8
rdata$r	SEGMENT
??_R1A@?0A@EA@CUnknown@@8 DD imagerel ??_R0?AVCUnknown@@@8 ; CUnknown::`RTTI Base Class Descriptor at (0,-1,0,64)'
	DD	02H
	DD	00H
	DD	0ffffffffH
	DD	00H
	DD	040H
	DD	imagerel ??_R3CUnknown@@8
rdata$r	ENDS
;	COMDAT ??_R2CBaseReferenceClock@@8
rdata$r	SEGMENT
??_R2CBaseReferenceClock@@8 DD imagerel ??_R1A@?0A@EA@CBaseReferenceClock@@8 ; CBaseReferenceClock::`RTTI Base Class Array'
	DD	imagerel ??_R1A@?0A@EA@CUnknown@@8
	DD	imagerel ??_R1A@?0A@EA@INonDelegatingUnknown@@8
	DD	imagerel ??_R17?0A@EA@CBaseObject@@8
	DD	imagerel ??_R1CA@?0A@EA@IReferenceClock@@8
	DD	imagerel ??_R1CA@?0A@EA@IUnknown@@8
	DD	imagerel ??_R1CI@?0A@EA@CCritSec@@8
	ORG $+3
rdata$r	ENDS
;	COMDAT ??_R3CBaseReferenceClock@@8
rdata$r	SEGMENT
??_R3CBaseReferenceClock@@8 DD 00H			; CBaseReferenceClock::`RTTI Class Hierarchy Descriptor'
	DD	01H
	DD	07H
	DD	imagerel ??_R2CBaseReferenceClock@@8
rdata$r	ENDS
;	COMDAT ??_R0?AVCBaseReferenceClock@@@8
_DATA	SEGMENT
??_R0?AVCBaseReferenceClock@@@8 DQ FLAT:??_7type_info@@6B@ ; CBaseReferenceClock `RTTI Type Descriptor'
	DQ	0000000000000000H
	DB	'.?AVCBaseReferenceClock@@', 00H
_DATA	ENDS
;	COMDAT ??_R1A@?0A@EA@CBaseReferenceClock@@8
rdata$r	SEGMENT
??_R1A@?0A@EA@CBaseReferenceClock@@8 DD imagerel ??_R0?AVCBaseReferenceClock@@@8 ; CBaseReferenceClock::`RTTI Base Class Descriptor at (0,-1,0,64)'
	DD	06H
	DD	00H
	DD	0ffffffffH
	DD	00H
	DD	040H
	DD	imagerel ??_R3CBaseReferenceClock@@8
rdata$r	ENDS
;	COMDAT ??_R1A@?0A@EA@CSystemClock@@8
rdata$r	SEGMENT
??_R1A@?0A@EA@CSystemClock@@8 DD imagerel ??_R0?AVCSystemClock@@@8 ; CSystemClock::`RTTI Base Class Descriptor at (0,-1,0,64)'
	DD	0bH
	DD	00H
	DD	0ffffffffH
	DD	00H
	DD	040H
	DD	imagerel ??_R3CSystemClock@@8
rdata$r	ENDS
;	COMDAT ??_R2CSystemClock@@8
rdata$r	SEGMENT
??_R2CSystemClock@@8 DD imagerel ??_R1A@?0A@EA@CSystemClock@@8 ; CSystemClock::`RTTI Base Class Array'
	DD	imagerel ??_R1A@?0A@EA@CBaseReferenceClock@@8
	DD	imagerel ??_R1A@?0A@EA@CUnknown@@8
	DD	imagerel ??_R1A@?0A@EA@INonDelegatingUnknown@@8
	DD	imagerel ??_R17?0A@EA@CBaseObject@@8
	DD	imagerel ??_R1CA@?0A@EA@IReferenceClock@@8
	DD	imagerel ??_R1CA@?0A@EC@IUnknown@@8
	DD	imagerel ??_R1CI@?0A@EA@CCritSec@@8
	DD	imagerel ??_R1JI@?0A@EA@IAMClockAdjust@@8
	DD	imagerel ??_R1JI@?0A@EC@IUnknown@@8
	DD	imagerel ??_R1KA@?0A@EA@IPersist@@8
	DD	imagerel ??_R1KA@?0A@EC@IUnknown@@8
	ORG $+3
rdata$r	ENDS
;	COMDAT ??_R3CSystemClock@@8
rdata$r	SEGMENT
??_R3CSystemClock@@8 DD 00H				; CSystemClock::`RTTI Class Hierarchy Descriptor'
	DD	05H
	DD	0cH
	DD	imagerel ??_R2CSystemClock@@8
rdata$r	ENDS
;	COMDAT ??_R0?AVCSystemClock@@@8
_DATA	SEGMENT
??_R0?AVCSystemClock@@@8 DQ FLAT:??_7type_info@@6B@	; CSystemClock `RTTI Type Descriptor'
	DQ	0000000000000000H
	DB	'.?AVCSystemClock@@', 00H
_DATA	ENDS
;	COMDAT ??_R4CSystemClock@@6BCUnknown@@@
rdata$r	SEGMENT
??_R4CSystemClock@@6BCUnknown@@@ DD 01H			; CSystemClock::`RTTI Complete Object Locator'
	DD	00H
	DD	00H
	DD	imagerel ??_R0?AVCSystemClock@@@8
	DD	imagerel ??_R3CSystemClock@@8
	DD	imagerel ??_R4CSystemClock@@6BCUnknown@@@
rdata$r	ENDS
;	COMDAT xdata
xdata	SEGMENT
$unwind$??0CSystemClock@@QEAA@PEA_WPEAUIUnknown@@PEAJ@Z DD 022d01H
	DD	070155219H
xdata	ENDS
;	COMDAT ??_7CSystemClock@@6BIPersist@@@
CONST	SEGMENT
??_7CSystemClock@@6BIPersist@@@ DQ FLAT:??_R4CSystemClock@@6BIPersist@@@ ; CSystemClock::`vftable'
	DQ	FLAT:?QueryInterface@CSystemClock@@WIA@EAAJAEBU_GUID@@PEAPEAX@Z
	DQ	FLAT:?AddRef@CSystemClock@@WIA@EAAKXZ
	DQ	FLAT:?Release@CSystemClock@@WIA@EAAKXZ
	DQ	FLAT:?GetClassID@CSystemClock@@UEAAJPEAU_GUID@@@Z
CONST	ENDS
;	COMDAT ??_7CSystemClock@@6BIAMClockAdjust@@@
CONST	SEGMENT
??_7CSystemClock@@6BIAMClockAdjust@@@ DQ FLAT:??_R4CSystemClock@@6BIAMClockAdjust@@@ ; CSystemClock::`vftable'
	DQ	FLAT:?QueryInterface@CSystemClock@@WHI@EAAJAEBU_GUID@@PEAPEAX@Z
	DQ	FLAT:?AddRef@CSystemClock@@WHI@EAAKXZ
	DQ	FLAT:?Release@CSystemClock@@WHI@EAAKXZ
	DQ	FLAT:?SetClockDelta@CSystemClock@@UEAAJ_J@Z
CONST	ENDS
;	COMDAT ??_7CSystemClock@@6BIReferenceClock@@@
CONST	SEGMENT
??_7CSystemClock@@6BIReferenceClock@@@ DQ FLAT:??_R4CSystemClock@@6BIReferenceClock@@@ ; CSystemClock::`vftable'
	DQ	FLAT:?QueryInterface@CSystemClock@@UEAAJAEBU_GUID@@PEAPEAX@Z
	DQ	FLAT:?AddRef@CSystemClock@@UEAAKXZ
	DQ	FLAT:?Release@CSystemClock@@UEAAKXZ
	DQ	FLAT:?GetTime@CBaseReferenceClock@@UEAAJPEA_J@Z
	DQ	FLAT:?AdviseTime@CBaseReferenceClock@@UEAAJ_J0_KPEA_K@Z
	DQ	FLAT:?AdvisePeriodic@CBaseReferenceClock@@UEAAJ_J0_KPEA_K@Z
	DQ	FLAT:?Unadvise@CBaseReferenceClock@@UEAAJ_K@Z
CONST	ENDS
;	COMDAT ??_7CSystemClock@@6BCUnknown@@@
CONST	SEGMENT
??_7CSystemClock@@6BCUnknown@@@ DQ FLAT:??_R4CSystemClock@@6BCUnknown@@@ ; CSystemClock::`vftable'
	DQ	FLAT:?NonDelegatingQueryInterface@CSystemClock@@UEAAJAEBU_GUID@@PEAPEAX@Z
	DQ	FLAT:?NonDelegatingAddRef@CUnknown@@UEAAKXZ
	DQ	FLAT:?NonDelegatingRelease@CUnknown@@UEAAKXZ
	DQ	FLAT:??_ECSystemClock@@UEAAPEAXI@Z
	DQ	FLAT:?GetPrivateTime@CBaseReferenceClock@@UEAA_JXZ
; Function compile flags: /Odtp /RTCsu
CONST	ENDS
;	COMDAT ??0CSystemClock@@QEAA@PEA_WPEAUIUnknown@@PEAJ@Z
_TEXT	SEGMENT
this$ = 64
pName$ = 72
pUnk$ = 80
phr$ = 88
??0CSystemClock@@QEAA@PEA_WPEAUIUnknown@@PEAJ@Z PROC	; CSystemClock::CSystemClock, COMDAT
; Line 38
$LN4:
	mov	QWORD PTR [rsp+32], r9
	mov	QWORD PTR [rsp+24], r8
	mov	QWORD PTR [rsp+16], rdx
	mov	QWORD PTR [rsp+8], rcx
	push	rdi
	sub	rsp, 48					; 00000030H
	mov	rdi, rsp
	mov	ecx, 12
	mov	eax, -858993460				; ccccccccH
	rep stosd
	mov	rcx, QWORD PTR [rsp+64]
	mov	QWORD PTR [rsp+32], 0
	mov	r9, QWORD PTR phr$[rsp]
	mov	r8, QWORD PTR pUnk$[rsp]
	mov	rdx, QWORD PTR pName$[rsp]
	mov	rcx, QWORD PTR this$[rsp]
	call	??0CBaseReferenceClock@@QEAA@PEA_WPEAUIUnknown@@PEAJPEAVCAMSchedule@@@Z ; CBaseReferenceClock::CBaseReferenceClock
	mov	rax, QWORD PTR this$[rsp]
	add	rax, 152				; 00000098H
	mov	rcx, rax
	call	??0IAMClockAdjust@@QEAA@XZ
	mov	rax, QWORD PTR this$[rsp]
	add	rax, 160				; 000000a0H
	mov	rcx, rax
	call	??0IPersist@@QEAA@XZ
	mov	rax, QWORD PTR this$[rsp]
	lea	rcx, OFFSET FLAT:??_7CSystemClock@@6BCUnknown@@@
	mov	QWORD PTR [rax], rcx
	mov	rax, QWORD PTR this$[rsp]
	lea	rcx, OFFSET FLAT:??_7CSystemClock@@6BIReferenceClock@@@
	mov	QWORD PTR [rax+32], rcx
	mov	rax, QWORD PTR this$[rsp]
	lea	rcx, OFFSET FLAT:??_7CSystemClock@@6BIAMClockAdjust@@@
	mov	QWORD PTR [rax+152], rcx
	mov	rax, QWORD PTR this$[rsp]
	lea	rcx, OFFSET FLAT:??_7CSystemClock@@6BIPersist@@@
	mov	QWORD PTR [rax+160], rcx
; Line 39
	mov	rax, QWORD PTR this$[rsp]
	add	rsp, 48					; 00000030H
	pop	rdi
	ret	0
??0CSystemClock@@QEAA@PEA_WPEAUIUnknown@@PEAJ@Z ENDP	; CSystemClock::CSystemClock
_TEXT	ENDS
PUBLIC	?GetOwner@CUnknown@@QEBAPEAUIUnknown@@XZ	; CUnknown::GetOwner
;	COMDAT pdata
; File c:\downloads\wpf mediakit - copy\src\filters\baseclasses\sysclock.h
pdata	SEGMENT
$pdata$?QueryInterface@CSystemClock@@UEAAJAEBU_GUID@@PEAPEAX@Z DD imagerel $LN3
	DD	imagerel $LN3+93
	DD	imagerel $unwind$?QueryInterface@CSystemClock@@UEAAJAEBU_GUID@@PEAPEAX@Z
pdata	ENDS
;	COMDAT xdata
xdata	SEGMENT
$unwind$?QueryInterface@CSystemClock@@UEAAJAEBU_GUID@@PEAPEAX@Z DD 022801H
	DD	070105214H
; Function compile flags: /Odtp /RTCsu
xdata	ENDS
;	COMDAT ?QueryInterface@CSystemClock@@UEAAJAEBU_GUID@@PEAPEAX@Z
_TEXT	SEGMENT
tv72 = 32
this$ = 64
riid$ = 72
ppv$ = 80
?QueryInterface@CSystemClock@@UEAAJAEBU_GUID@@PEAPEAX@Z PROC ; CSystemClock::QueryInterface, COMDAT
; Line 27
$LN3:
	mov	QWORD PTR [rsp+24], r8
	mov	QWORD PTR [rsp+16], rdx
	mov	QWORD PTR [rsp+8], rcx
	push	rdi
	sub	rsp, 48					; 00000030H
	mov	rdi, rsp
	mov	ecx, 12
	mov	eax, -858993460				; ccccccccH
	rep stosd
	mov	rcx, QWORD PTR [rsp+64]
	mov	rax, QWORD PTR this$[rsp]
	sub	rax, 32					; 00000020H
	mov	rcx, rax
	call	?GetOwner@CUnknown@@QEBAPEAUIUnknown@@XZ ; CUnknown::GetOwner
	mov	QWORD PTR tv72[rsp], rax
	mov	rax, QWORD PTR tv72[rsp]
	mov	rax, QWORD PTR [rax]
	mov	r8, QWORD PTR ppv$[rsp]
	mov	rdx, QWORD PTR riid$[rsp]
	mov	rcx, QWORD PTR tv72[rsp]
	call	QWORD PTR [rax]
	add	rsp, 48					; 00000030H
	pop	rdi
	ret	0
?QueryInterface@CSystemClock@@UEAAJAEBU_GUID@@PEAPEAX@Z ENDP ; CSystemClock::QueryInterface
_TEXT	ENDS
;	COMDAT pdata
; File c:\downloads\wpf mediakit - copy\src\filters\baseclasses\combase.h
pdata	SEGMENT
$pdata$?GetOwner@CUnknown@@QEBAPEAUIUnknown@@XZ DD imagerel $LN3
	DD	imagerel $LN3+17
	DD	imagerel $unwind$?GetOwner@CUnknown@@QEBAPEAUIUnknown@@XZ
pdata	ENDS
;	COMDAT xdata
xdata	SEGMENT
$unwind$?GetOwner@CUnknown@@QEBAPEAUIUnknown@@XZ DD 010601H
	DD	07006H
; Function compile flags: /Odtp /RTCsu
xdata	ENDS
;	COMDAT ?GetOwner@CUnknown@@QEBAPEAUIUnknown@@XZ
_TEXT	SEGMENT
this$ = 16
?GetOwner@CUnknown@@QEBAPEAUIUnknown@@XZ PROC		; CUnknown::GetOwner, COMDAT
; Line 224
$LN3:
	mov	QWORD PTR [rsp+8], rcx
	push	rdi
; Line 225
	mov	rax, QWORD PTR this$[rsp]
	mov	rax, QWORD PTR [rax+16]
; Line 226
	pop	rdi
	ret	0
?GetOwner@CUnknown@@QEBAPEAUIUnknown@@XZ ENDP		; CUnknown::GetOwner
_TEXT	ENDS
;	COMDAT pdata
; File c:\downloads\wpf mediakit - copy\src\filters\baseclasses\sysclock.h
pdata	SEGMENT
$pdata$?AddRef@CSystemClock@@UEAAKXZ DD imagerel $LN3
	DD	imagerel $LN3+74
	DD	imagerel $unwind$?AddRef@CSystemClock@@UEAAKXZ
pdata	ENDS
;	COMDAT xdata
xdata	SEGMENT
$unwind$?AddRef@CSystemClock@@UEAAKXZ DD 021e01H
	DD	07006520aH
; Function compile flags: /Odtp /RTCsu
xdata	ENDS
;	COMDAT ?AddRef@CSystemClock@@UEAAKXZ
_TEXT	SEGMENT
tv72 = 32
this$ = 64
?AddRef@CSystemClock@@UEAAKXZ PROC			; CSystemClock::AddRef, COMDAT
; Line 27
$LN3:
	mov	QWORD PTR [rsp+8], rcx
	push	rdi
	sub	rsp, 48					; 00000030H
	mov	rdi, rsp
	mov	ecx, 12
	mov	eax, -858993460				; ccccccccH
	rep stosd
	mov	rcx, QWORD PTR [rsp+64]
	mov	rax, QWORD PTR this$[rsp]
	sub	rax, 32					; 00000020H
	mov	rcx, rax
	call	?GetOwner@CUnknown@@QEBAPEAUIUnknown@@XZ ; CUnknown::GetOwner
	mov	QWORD PTR tv72[rsp], rax
	mov	rax, QWORD PTR tv72[rsp]
	mov	rax, QWORD PTR [rax]
	mov	rcx, QWORD PTR tv72[rsp]
	call	QWORD PTR [rax+8]
	add	rsp, 48					; 00000030H
	pop	rdi
	ret	0
?AddRef@CSystemClock@@UEAAKXZ ENDP			; CSystemClock::AddRef
_TEXT	ENDS
;	COMDAT pdata
pdata	SEGMENT
$pdata$?Release@CSystemClock@@UEAAKXZ DD imagerel $LN3
	DD	imagerel $LN3+74
	DD	imagerel $unwind$?Release@CSystemClock@@UEAAKXZ
pdata	ENDS
;	COMDAT xdata
xdata	SEGMENT
$unwind$?Release@CSystemClock@@UEAAKXZ DD 021e01H
	DD	07006520aH
; Function compile flags: /Odtp /RTCsu
xdata	ENDS
;	COMDAT ?Release@CSystemClock@@UEAAKXZ
_TEXT	SEGMENT
tv72 = 32
this$ = 64
?Release@CSystemClock@@UEAAKXZ PROC			; CSystemClock::Release, COMDAT
; Line 27
$LN3:
	mov	QWORD PTR [rsp+8], rcx
	push	rdi
	sub	rsp, 48					; 00000030H
	mov	rdi, rsp
	mov	ecx, 12
	mov	eax, -858993460				; ccccccccH
	rep stosd
	mov	rcx, QWORD PTR [rsp+64]
	mov	rax, QWORD PTR this$[rsp]
	sub	rax, 32					; 00000020H
	mov	rcx, rax
	call	?GetOwner@CUnknown@@QEBAPEAUIUnknown@@XZ ; CUnknown::GetOwner
	mov	QWORD PTR tv72[rsp], rax
	mov	rax, QWORD PTR tv72[rsp]
	mov	rax, QWORD PTR [rax]
	mov	rcx, QWORD PTR tv72[rsp]
	call	QWORD PTR [rax+16]
	add	rsp, 48					; 00000030H
	pop	rdi
	ret	0
?Release@CSystemClock@@UEAAKXZ ENDP			; CSystemClock::Release
_TEXT	ENDS
PUBLIC	??1CSystemClock@@UEAA@XZ			; CSystemClock::~CSystemClock
;	COMDAT pdata
pdata	SEGMENT
$pdata$??_GCSystemClock@@UEAAPEAXI@Z DD imagerel $LN4
	DD	imagerel $LN4+76
	DD	imagerel $unwind$??_GCSystemClock@@UEAAPEAXI@Z
pdata	ENDS
;	COMDAT xdata
xdata	SEGMENT
$unwind$??_GCSystemClock@@UEAAPEAXI@Z DD 022201H
	DD	0700a320eH
; Function compile flags: /Odtp /RTCsu
xdata	ENDS
;	COMDAT ??_GCSystemClock@@UEAAPEAXI@Z
_TEXT	SEGMENT
this$ = 48
__flags$ = 56
??_GCSystemClock@@UEAAPEAXI@Z PROC			; CSystemClock::`scalar deleting destructor', COMDAT
$LN4:
	mov	DWORD PTR [rsp+16], edx
	mov	QWORD PTR [rsp+8], rcx
	push	rdi
	sub	rsp, 32					; 00000020H
	mov	rdi, rsp
	mov	ecx, 8
	mov	eax, -858993460				; ccccccccH
	rep stosd
	mov	rcx, QWORD PTR [rsp+48]
	mov	rcx, QWORD PTR this$[rsp]
	call	??1CSystemClock@@UEAA@XZ
	mov	eax, DWORD PTR __flags$[rsp]
	and	eax, 1
	test	eax, eax
	je	SHORT $LN1@scalar
	mov	rcx, QWORD PTR this$[rsp]
	call	??3@YAXPEAX@Z				; operator delete
$LN1@scalar:
	mov	rax, QWORD PTR this$[rsp]
	add	rsp, 32					; 00000020H
	pop	rdi
	ret	0
??_GCSystemClock@@UEAAPEAXI@Z ENDP			; CSystemClock::`scalar deleting destructor'
_TEXT	ENDS
PUBLIC	??0IUnknown@@QEAA@XZ				; IUnknown::IUnknown
;	COMDAT pdata
pdata	SEGMENT
$pdata$??0IAMClockAdjust@@QEAA@XZ DD imagerel $LN3
	DD	imagerel $LN3+51
	DD	imagerel $unwind$??0IAMClockAdjust@@QEAA@XZ
pdata	ENDS
;	COMDAT xdata
xdata	SEGMENT
$unwind$??0IAMClockAdjust@@QEAA@XZ DD 021e01H
	DD	07006320aH
; Function compile flags: /Odtp /RTCsu
xdata	ENDS
;	COMDAT ??0IAMClockAdjust@@QEAA@XZ
_TEXT	SEGMENT
this$ = 48
??0IAMClockAdjust@@QEAA@XZ PROC				; IAMClockAdjust::IAMClockAdjust, COMDAT
$LN3:
	mov	QWORD PTR [rsp+8], rcx
	push	rdi
	sub	rsp, 32					; 00000020H
	mov	rdi, rsp
	mov	ecx, 8
	mov	eax, -858993460				; ccccccccH
	rep stosd
	mov	rcx, QWORD PTR [rsp+48]
	mov	rcx, QWORD PTR this$[rsp]
	call	??0IUnknown@@QEAA@XZ
	mov	rax, QWORD PTR this$[rsp]
	add	rsp, 32					; 00000020H
	pop	rdi
	ret	0
??0IAMClockAdjust@@QEAA@XZ ENDP				; IAMClockAdjust::IAMClockAdjust
_TEXT	ENDS
;	COMDAT pdata
pdata	SEGMENT
$pdata$??0IUnknown@@QEAA@XZ DD imagerel $LN3
	DD	imagerel $LN3+13
	DD	imagerel $unwind$??0IUnknown@@QEAA@XZ
pdata	ENDS
;	COMDAT xdata
xdata	SEGMENT
$unwind$??0IUnknown@@QEAA@XZ DD 010601H
	DD	07006H
; Function compile flags: /Odtp /RTCsu
xdata	ENDS
;	COMDAT ??0IUnknown@@QEAA@XZ
_TEXT	SEGMENT
this$ = 16
??0IUnknown@@QEAA@XZ PROC				; IUnknown::IUnknown, COMDAT
$LN3:
	mov	QWORD PTR [rsp+8], rcx
	push	rdi
	mov	rax, QWORD PTR this$[rsp]
	pop	rdi
	ret	0
??0IUnknown@@QEAA@XZ ENDP				; IUnknown::IUnknown
_TEXT	ENDS
;	COMDAT pdata
pdata	SEGMENT
$pdata$??0IPersist@@QEAA@XZ DD imagerel $LN3
	DD	imagerel $LN3+51
	DD	imagerel $unwind$??0IPersist@@QEAA@XZ
pdata	ENDS
;	COMDAT xdata
xdata	SEGMENT
$unwind$??0IPersist@@QEAA@XZ DD 021e01H
	DD	07006320aH
; Function compile flags: /Odtp /RTCsu
xdata	ENDS
;	COMDAT ??0IPersist@@QEAA@XZ
_TEXT	SEGMENT
this$ = 48
??0IPersist@@QEAA@XZ PROC				; IPersist::IPersist, COMDAT
$LN3:
	mov	QWORD PTR [rsp+8], rcx
	push	rdi
	sub	rsp, 32					; 00000020H
	mov	rdi, rsp
	mov	ecx, 8
	mov	eax, -858993460				; ccccccccH
	rep stosd
	mov	rcx, QWORD PTR [rsp+48]
	mov	rcx, QWORD PTR this$[rsp]
	call	??0IUnknown@@QEAA@XZ
	mov	rax, QWORD PTR this$[rsp]
	add	rsp, 32					; 00000020H
	pop	rdi
	ret	0
??0IPersist@@QEAA@XZ ENDP				; IPersist::IPersist
_TEXT	ENDS
EXTRN	??1CBaseReferenceClock@@MEAA@XZ:PROC		; CBaseReferenceClock::~CBaseReferenceClock
;	COMDAT pdata
pdata	SEGMENT
$pdata$??1CSystemClock@@UEAA@XZ DD imagerel $LN4
	DD	imagerel $LN4+46
	DD	imagerel $unwind$??1CSystemClock@@UEAA@XZ
pdata	ENDS
;	COMDAT xdata
xdata	SEGMENT
$unwind$??1CSystemClock@@UEAA@XZ DD 021e01H
	DD	07006320aH
; Function compile flags: /Odtp /RTCsu
xdata	ENDS
;	COMDAT ??1CSystemClock@@UEAA@XZ
_TEXT	SEGMENT
this$ = 48
??1CSystemClock@@UEAA@XZ PROC				; CSystemClock::~CSystemClock, COMDAT
$LN4:
	mov	QWORD PTR [rsp+8], rcx
	push	rdi
	sub	rsp, 32					; 00000020H
	mov	rdi, rsp
	mov	ecx, 8
	mov	eax, -858993460				; ccccccccH
	rep stosd
	mov	rcx, QWORD PTR [rsp+48]
	mov	rcx, QWORD PTR this$[rsp]
	call	??1CBaseReferenceClock@@MEAA@XZ		; CBaseReferenceClock::~CBaseReferenceClock
	add	rsp, 32					; 00000020H
	pop	rdi
	ret	0
??1CSystemClock@@UEAA@XZ ENDP				; CSystemClock::~CSystemClock
_TEXT	ENDS
PUBLIC	==
EXTRN	?NonDelegatingQueryInterface@CBaseReferenceClock@@UEAAJAEBU_GUID@@PEAPEAX@Z:PROC ; CBaseReferenceClock::NonDelegatingQueryInterface
EXTRN	IID_IAMClockAdjust:BYTE
EXTRN	GetInterface:PROC
EXTRN	IID_IPersist:BYTE
;	COMDAT pdata
; File c:\downloads\wpf mediakit - copy\src\filters\baseclasses\sysclock.cpp
pdata	SEGMENT
$pdata$?NonDelegatingQueryInterface@CSystemClock@@UEAAJAEBU_GUID@@PEAPEAX@Z DD imagerel $LN11
	DD	imagerel $LN11+216
	DD	imagerel $unwind$?NonDelegatingQueryInterface@CSystemClock@@UEAAJAEBU_GUID@@PEAPEAX@Z
pdata	ENDS
;	COMDAT xdata
xdata	SEGMENT
$unwind$?NonDelegatingQueryInterface@CSystemClock@@UEAAJAEBU_GUID@@PEAPEAX@Z DD 022801H
	DD	070105214H
; Function compile flags: /Odtp /RTCsu
xdata	ENDS
;	COMDAT ?NonDelegatingQueryInterface@CSystemClock@@UEAAJAEBU_GUID@@PEAPEAX@Z
_TEXT	SEGMENT
tv77 = 32
tv94 = 40
this$ = 64
riid$ = 72
ppv$ = 80
?NonDelegatingQueryInterface@CSystemClock@@UEAAJAEBU_GUID@@PEAPEAX@Z PROC ; CSystemClock::NonDelegatingQueryInterface, COMDAT
; Line 44
$LN11:
	mov	QWORD PTR [rsp+24], r8
	mov	QWORD PTR [rsp+16], rdx
	mov	QWORD PTR [rsp+8], rcx
	push	rdi
	sub	rsp, 48					; 00000030H
	mov	rdi, rsp
	mov	ecx, 12
	mov	eax, -858993460				; ccccccccH
	rep stosd
	mov	rcx, QWORD PTR [rsp+64]
; Line 45
	lea	rdx, OFFSET FLAT:IID_IPersist
	mov	rcx, QWORD PTR riid$[rsp]
	call	==
	test	eax, eax
	je	SHORT $LN4@NonDelegat
; Line 47
	cmp	QWORD PTR this$[rsp], 0
	je	SHORT $LN7@NonDelegat
	mov	rax, QWORD PTR this$[rsp]
	add	rax, 160				; 000000a0H
	mov	QWORD PTR tv77[rsp], rax
	jmp	SHORT $LN8@NonDelegat
$LN7@NonDelegat:
	mov	QWORD PTR tv77[rsp], 0
$LN8@NonDelegat:
	mov	rdx, QWORD PTR ppv$[rsp]
	mov	rcx, QWORD PTR tv77[rsp]
	call	GetInterface
	jmp	SHORT $LN5@NonDelegat
	jmp	SHORT $LN3@NonDelegat
$LN4@NonDelegat:
; Line 49
	lea	rdx, OFFSET FLAT:IID_IAMClockAdjust
	mov	rcx, QWORD PTR riid$[rsp]
	call	==
	test	eax, eax
	je	SHORT $LN2@NonDelegat
; Line 51
	cmp	QWORD PTR this$[rsp], 0
	je	SHORT $LN9@NonDelegat
	mov	rax, QWORD PTR this$[rsp]
	add	rax, 152				; 00000098H
	mov	QWORD PTR tv94[rsp], rax
	jmp	SHORT $LN10@NonDelegat
$LN9@NonDelegat:
	mov	QWORD PTR tv94[rsp], 0
$LN10@NonDelegat:
	mov	rdx, QWORD PTR ppv$[rsp]
	mov	rcx, QWORD PTR tv94[rsp]
	call	GetInterface
	jmp	SHORT $LN5@NonDelegat
; Line 53
	jmp	SHORT $LN1@NonDelegat
$LN2@NonDelegat:
; Line 55
	mov	r8, QWORD PTR ppv$[rsp]
	mov	rdx, QWORD PTR riid$[rsp]
	mov	rcx, QWORD PTR this$[rsp]
	call	?NonDelegatingQueryInterface@CBaseReferenceClock@@UEAAJAEBU_GUID@@PEAPEAX@Z ; CBaseReferenceClock::NonDelegatingQueryInterface
$LN1@NonDelegat:
$LN3@NonDelegat:
$LN5@NonDelegat:
; Line 57
	add	rsp, 48					; 00000030H
	pop	rdi
	ret	0
?NonDelegatingQueryInterface@CSystemClock@@UEAAJAEBU_GUID@@PEAPEAX@Z ENDP ; CSystemClock::NonDelegatingQueryInterface
_TEXT	ENDS
PUBLIC	IsEqualGUID
;	COMDAT pdata
; File c:\program files (x86)\microsoft sdks\windows\v7.0a\include\guiddef.h
pdata	SEGMENT
$pdata$== DD	imagerel $LN3
	DD	imagerel $LN3+56
	DD	imagerel $unwind$==
pdata	ENDS
;	COMDAT xdata
xdata	SEGMENT
$unwind$== DD	022301H
	DD	0700b320fH
; Function compile flags: /Odtp /RTCsu
xdata	ENDS
;	COMDAT ==
_TEXT	SEGMENT
guidOne$ = 48
guidOther$ = 56
==	PROC						; COMDAT
; Line 193
$LN3:
	mov	QWORD PTR [rsp+16], rdx
	mov	QWORD PTR [rsp+8], rcx
	push	rdi
	sub	rsp, 32					; 00000020H
	mov	rdi, rsp
	mov	ecx, 8
	mov	eax, -858993460				; ccccccccH
	rep stosd
	mov	rcx, QWORD PTR [rsp+48]
; Line 194
	mov	rdx, QWORD PTR guidOther$[rsp]
	mov	rcx, QWORD PTR guidOne$[rsp]
	call	IsEqualGUID
; Line 195
	add	rsp, 32					; 00000020H
	pop	rdi
	ret	0
==	ENDP
_TEXT	ENDS
EXTRN	memcmp:PROC
;	COMDAT pdata
pdata	SEGMENT
$pdata$IsEqualGUID DD imagerel $LN5
	DD	imagerel $LN5+88
	DD	imagerel $unwind$IsEqualGUID
pdata	ENDS
;	COMDAT xdata
xdata	SEGMENT
$unwind$IsEqualGUID DD 022301H
	DD	0700b520fH
; Function compile flags: /Odtp /RTCsu
xdata	ENDS
;	COMDAT IsEqualGUID
_TEXT	SEGMENT
tv69 = 32
rguid1$ = 64
rguid2$ = 72
IsEqualGUID PROC					; COMDAT
; Line 160
$LN5:
	mov	QWORD PTR [rsp+16], rdx
	mov	QWORD PTR [rsp+8], rcx
	push	rdi
	sub	rsp, 48					; 00000030H
	mov	rdi, rsp
	mov	ecx, 12
	mov	eax, -858993460				; ccccccccH
	rep stosd
	mov	rcx, QWORD PTR [rsp+64]
; Line 161
	mov	r8d, 16
	mov	rdx, QWORD PTR rguid2$[rsp]
	mov	rcx, QWORD PTR rguid1$[rsp]
	call	memcmp
	test	eax, eax
	jne	SHORT $LN3@IsEqualGUI
	mov	DWORD PTR tv69[rsp], 1
	jmp	SHORT $LN4@IsEqualGUI
$LN3@IsEqualGUI:
	mov	DWORD PTR tv69[rsp], 0
$LN4@IsEqualGUI:
	mov	eax, DWORD PTR tv69[rsp]
; Line 162
	add	rsp, 48					; 00000030H
	pop	rdi
	ret	0
IsEqualGUID ENDP
_TEXT	ENDS
EXTRN	CLSID_SystemClock:BYTE
EXTRN	__imp_IsBadWritePtr:PROC
EXTRN	?DbgBreakPoint@@YAXPEB_W0H@Z:PROC		; DbgBreakPoint
EXTRN	__imp_IsBadReadPtr:PROC
;	COMDAT pdata
; File c:\downloads\wpf mediakit - copy\src\filters\baseclasses\sysclock.cpp
pdata	SEGMENT
$pdata$?GetClassID@CSystemClock@@UEAAJPEAU_GUID@@@Z DD imagerel $LN6
	DD	imagerel $LN6+174
	DD	imagerel $unwind$?GetClassID@CSystemClock@@UEAAJPEAU_GUID@@@Z
pdata	ENDS
;	COMDAT xdata
xdata	SEGMENT
$unwind$?GetClassID@CSystemClock@@UEAAJPEAU_GUID@@@Z DD 032401H
	DD	0700c4210H
	DD	0600bH
; Function compile flags: /Odtp /RTCsu
xdata	ENDS
;	COMDAT ?GetClassID@CSystemClock@@UEAAJPEAU_GUID@@@Z
_TEXT	SEGMENT
this$ = 64
pClsID$ = 72
?GetClassID@CSystemClock@@UEAAJPEAU_GUID@@@Z PROC	; CSystemClock::GetClassID, COMDAT
; Line 62
$LN6:
	mov	QWORD PTR [rsp+16], rdx
	mov	QWORD PTR [rsp+8], rcx
	push	rsi
	push	rdi
	sub	rsp, 40					; 00000028H
	mov	rdi, rsp
	mov	ecx, 10
	mov	eax, -858993460				; ccccccccH
	rep stosd
	mov	rcx, QWORD PTR [rsp+64]
; Line 63
	cmp	QWORD PTR pClsID$[rsp], 0
	jne	SHORT $LN3@GetClassID
	mov	eax, -2147467261			; ffffffff80004003H
	jmp	SHORT $LN4@GetClassID
$LN3@GetClassID:
; Line 64
	mov	edx, 16
	mov	rcx, QWORD PTR pClsID$[rsp]
	call	QWORD PTR __imp_IsBadReadPtr
	cmp	eax, 1
	jne	SHORT $LN2@GetClassID
	mov	r8d, 64					; 00000040H
	lea	rdx, OFFSET FLAT:$SG82272
	lea	rcx, OFFSET FLAT:$SG82273
	call	?DbgBreakPoint@@YAXPEB_W0H@Z		; DbgBreakPoint
$LN2@GetClassID:
	mov	edx, 16
	mov	rcx, QWORD PTR pClsID$[rsp]
	call	QWORD PTR __imp_IsBadWritePtr
	cmp	eax, 1
	jne	SHORT $LN1@GetClassID
	mov	r8d, 64					; 00000040H
	lea	rdx, OFFSET FLAT:$SG82277
	lea	rcx, OFFSET FLAT:$SG82278
	call	?DbgBreakPoint@@YAXPEB_W0H@Z		; DbgBreakPoint
$LN1@GetClassID:
; Line 65
	lea	rax, OFFSET FLAT:CLSID_SystemClock
	mov	rdi, QWORD PTR pClsID$[rsp]
	mov	rsi, rax
	mov	ecx, 16
	rep movsb
; Line 66
	xor	eax, eax
$LN4@GetClassID:
; Line 67
	add	rsp, 40					; 00000028H
	pop	rdi
	pop	rsi
	ret	0
?GetClassID@CSystemClock@@UEAAJPEAU_GUID@@@Z ENDP	; CSystemClock::GetClassID
_TEXT	ENDS
EXTRN	?SetTimeDelta@CBaseReferenceClock@@QEAAJAEB_J@Z:PROC ; CBaseReferenceClock::SetTimeDelta
;	COMDAT pdata
pdata	SEGMENT
$pdata$?SetClockDelta@CSystemClock@@UEAAJ_J@Z DD imagerel $LN3
	DD	imagerel $LN3+65
	DD	imagerel $unwind$?SetClockDelta@CSystemClock@@UEAAJ_J@Z
pdata	ENDS
;	COMDAT xdata
xdata	SEGMENT
$unwind$?SetClockDelta@CSystemClock@@UEAAJ_J@Z DD 022301H
	DD	0700b320fH
; Function compile flags: /Odtp /RTCsu
xdata	ENDS
;	COMDAT ?SetClockDelta@CSystemClock@@UEAAJ_J@Z
_TEXT	SEGMENT
this$ = 48
rtDelta$ = 56
?SetClockDelta@CSystemClock@@UEAAJ_J@Z PROC		; CSystemClock::SetClockDelta, COMDAT
; Line 72
$LN3:
	mov	QWORD PTR [rsp+16], rdx
	mov	QWORD PTR [rsp+8], rcx
	push	rdi
	sub	rsp, 32					; 00000020H
	mov	rdi, rsp
	mov	ecx, 8
	mov	eax, -858993460				; ccccccccH
	rep stosd
	mov	rcx, QWORD PTR [rsp+48]
; Line 73
	mov	rax, QWORD PTR this$[rsp]
	sub	rax, 152				; 00000098H
	lea	rdx, QWORD PTR rtDelta$[rsp]
	mov	rcx, rax
	call	?SetTimeDelta@CBaseReferenceClock@@QEAAJAEB_J@Z ; CBaseReferenceClock::SetTimeDelta
; Line 74
	add	rsp, 32					; 00000020H
	pop	rdi
	ret	0
?SetClockDelta@CSystemClock@@UEAAJ_J@Z ENDP		; CSystemClock::SetClockDelta
; Function compile flags: /Odtp /RTCsu
_TEXT	ENDS
;	COMDAT ?QueryInterface@CSystemClock@@WHI@EAAJAEBU_GUID@@PEAPEAX@Z
_TEXT	SEGMENT
?QueryInterface@CSystemClock@@WHI@EAAJAEBU_GUID@@PEAPEAX@Z PROC ; [thunk]:CSystemClock::QueryInterface`adjustor{120}', COMDAT
	sub	rcx, 120				; 00000078H
	jmp	?QueryInterface@CSystemClock@@UEAAJAEBU_GUID@@PEAPEAX@Z ; CSystemClock::QueryInterface
?QueryInterface@CSystemClock@@WHI@EAAJAEBU_GUID@@PEAPEAX@Z ENDP ; [thunk]:CSystemClock::QueryInterface`adjustor{120}'
; Function compile flags: /Odtp /RTCsu
_TEXT	ENDS
;	COMDAT ?AddRef@CSystemClock@@WIA@EAAKXZ
_TEXT	SEGMENT
?AddRef@CSystemClock@@WIA@EAAKXZ PROC			; [thunk]:CSystemClock::AddRef`adjustor{128}', COMDAT
	sub	rcx, 128				; 00000080H
	jmp	?AddRef@CSystemClock@@UEAAKXZ		; CSystemClock::AddRef
?AddRef@CSystemClock@@WIA@EAAKXZ ENDP			; [thunk]:CSystemClock::AddRef`adjustor{128}'
; Function compile flags: /Odtp /RTCsu
_TEXT	ENDS
;	COMDAT ?QueryInterface@CSystemClock@@WIA@EAAJAEBU_GUID@@PEAPEAX@Z
_TEXT	SEGMENT
?QueryInterface@CSystemClock@@WIA@EAAJAEBU_GUID@@PEAPEAX@Z PROC ; [thunk]:CSystemClock::QueryInterface`adjustor{128}', COMDAT
	sub	rcx, 128				; 00000080H
	jmp	?QueryInterface@CSystemClock@@UEAAJAEBU_GUID@@PEAPEAX@Z ; CSystemClock::QueryInterface
?QueryInterface@CSystemClock@@WIA@EAAJAEBU_GUID@@PEAPEAX@Z ENDP ; [thunk]:CSystemClock::QueryInterface`adjustor{128}'
; Function compile flags: /Odtp /RTCsu
_TEXT	ENDS
;	COMDAT ?Release@CSystemClock@@WHI@EAAKXZ
_TEXT	SEGMENT
?Release@CSystemClock@@WHI@EAAKXZ PROC			; [thunk]:CSystemClock::Release`adjustor{120}', COMDAT
	sub	rcx, 120				; 00000078H
	jmp	?Release@CSystemClock@@UEAAKXZ		; CSystemClock::Release
?Release@CSystemClock@@WHI@EAAKXZ ENDP			; [thunk]:CSystemClock::Release`adjustor{120}'
; Function compile flags: /Odtp /RTCsu
_TEXT	ENDS
;	COMDAT ?Release@CSystemClock@@WIA@EAAKXZ
_TEXT	SEGMENT
?Release@CSystemClock@@WIA@EAAKXZ PROC			; [thunk]:CSystemClock::Release`adjustor{128}', COMDAT
	sub	rcx, 128				; 00000080H
	jmp	?Release@CSystemClock@@UEAAKXZ		; CSystemClock::Release
?Release@CSystemClock@@WIA@EAAKXZ ENDP			; [thunk]:CSystemClock::Release`adjustor{128}'
; Function compile flags: /Odtp /RTCsu
_TEXT	ENDS
;	COMDAT ?AddRef@CSystemClock@@WHI@EAAKXZ
_TEXT	SEGMENT
?AddRef@CSystemClock@@WHI@EAAKXZ PROC			; [thunk]:CSystemClock::AddRef`adjustor{120}', COMDAT
	sub	rcx, 120				; 00000078H
	jmp	?AddRef@CSystemClock@@UEAAKXZ		; CSystemClock::AddRef
?AddRef@CSystemClock@@WHI@EAAKXZ ENDP			; [thunk]:CSystemClock::AddRef`adjustor{120}'
_TEXT	ENDS
END
