; Listing generated by Microsoft (R) Optimizing Compiler Version 16.00.30319.01 

include listing.inc

INCLUDELIB LIBCMTD
INCLUDELIB OLDNAMES

PUBLIC	IID_IAMFilterGraphCallback
CONST	SEGMENT
$SG82255 DB	'.', 00H, '.', 00H, '\', 00H, 't', 00H, 'r', 00H, 'a', 00H
	DB	'n', 00H, 's', 00H, 'f', 00H, 'r', 00H, 'm', 00H, '.', 00H, 'c'
	DB	00H, 'p', 00H, 'p', 00H, 00H, 00H
$SG82256 DB	'"', 00H, 'C', 00H, 'T', 00H, 'r', 00H, 'a', 00H, 'n', 00H
	DB	's', 00H, 'f', 00H, 'o', 00H, 'r', 00H, 'm', 00H, 'F', 00H, 'i'
	DB	00H, 'l', 00H, 't', 00H, 'e', 00H, 'r', 00H, ':', 00H, ':', 00H
	DB	'T', 00H, 'r', 00H, 'a', 00H, 'n', 00H, 's', 00H, 'f', 00H, 'o'
	DB	00H, 'r', 00H, 'm', 00H, '(', 00H, ')', 00H, ' ', 00H, 's', 00H
	DB	'h', 00H, 'o', 00H, 'u', 00H, 'l', 00H, 'd', 00H, ' ', 00H, 'n'
	DB	00H, 'e', 00H, 'v', 00H, 'e', 00H, 'r', 00H, ' ', 00H, 'b', 00H
	DB	'e', 00H, ' ', 00H, 'c', 00H, 'a', 00H, 'l', 00H, 'l', 00H, 'e'
	DB	00H, 'd', 00H, '"', 00H, 00H, 00H
	ORG $+2
$SG82272 DB	'X', 00H, 'F', 00H, 'o', 00H, 'r', 00H, 'm', 00H, ' ', 00H
	DB	'I', 00H, 'n', 00H, 00H, 00H
	ORG $+6
$SG82273 DB	'T', 00H, 'r', 00H, 'a', 00H, 'n', 00H, 's', 00H, 'f', 00H
	DB	'o', 00H, 'r', 00H, 'm', 00H, ' ', 00H, 'i', 00H, 'n', 00H, 'p'
	DB	00H, 'u', 00H, 't', 00H, ' ', 00H, 'p', 00H, 'i', 00H, 'n', 00H
	DB	00H, 00H
$SG82276 DB	'.', 00H, '.', 00H, '\', 00H, 't', 00H, 'r', 00H, 'a', 00H
	DB	'n', 00H, 's', 00H, 'f', 00H, 'r', 00H, 'm', 00H, '.', 00H, 'c'
	DB	00H, 'p', 00H, 'p', 00H, 00H, 00H
$SG82277 DB	'S', 00H, 'U', 00H, 'C', 00H, 'C', 00H, 'E', 00H, 'E', 00H
	DB	'D', 00H, 'E', 00H, 'D', 00H, '(', 00H, 'h', 00H, 'r', 00H, ')'
	DB	00H, 00H, 00H
	ORG $+4
$SG82284 DB	'X', 00H, 'F', 00H, 'o', 00H, 'r', 00H, 'm', 00H, ' ', 00H
	DB	'O', 00H, 'u', 00H, 't', 00H, 00H, 00H
	ORG $+4
$SG82285 DB	'T', 00H, 'r', 00H, 'a', 00H, 'n', 00H, 's', 00H, 'f', 00H
	DB	'o', 00H, 'r', 00H, 'm', 00H, ' ', 00H, 'o', 00H, 'u', 00H, 't'
	DB	00H, 'p', 00H, 'u', 00H, 't', 00H, ' ', 00H, 'p', 00H, 'i', 00H
	DB	'n', 00H, 00H, 00H
	ORG $+6
$SG82288 DB	'.', 00H, '.', 00H, '\', 00H, 't', 00H, 'r', 00H, 'a', 00H
	DB	'n', 00H, 's', 00H, 'f', 00H, 'r', 00H, 'm', 00H, '.', 00H, 'c'
	DB	00H, 'p', 00H, 'p', 00H, 00H, 00H
$SG82289 DB	'S', 00H, 'U', 00H, 'C', 00H, 'C', 00H, 'E', 00H, 'E', 00H
	DB	'D', 00H, 'E', 00H, 'D', 00H, '(', 00H, 'h', 00H, 'r', 00H, ')'
	DB	00H, 00H, 00H
	ORG $+4
$SG82307 DB	'.', 00H, '.', 00H, '\', 00H, 't', 00H, 'r', 00H, 'a', 00H
	DB	'n', 00H, 's', 00H, 'f', 00H, 'r', 00H, 'm', 00H, '.', 00H, 'c'
	DB	00H, 'p', 00H, 'p', 00H, 00H, 00H
$SG82308 DB	'"', 00H, 'I', 00H, 'n', 00H, 'v', 00H, 'a', 00H, 'l', 00H
	DB	'i', 00H, 'd', 00H, ' ', 00H, 'r', 00H, 'e', 00H, 'a', 00H, 'd'
	DB	00H, ' ', 00H, 'p', 00H, 'o', 00H, 'i', 00H, 'n', 00H, 't', 00H
	DB	'e', 00H, 'r', 00H, '"', 00H, 00H, 00H
	ORG $+2
$SG82312 DB	'.', 00H, '.', 00H, '\', 00H, 't', 00H, 'r', 00H, 'a', 00H
	DB	'n', 00H, 's', 00H, 'f', 00H, 'r', 00H, 'm', 00H, '.', 00H, 'c'
	DB	00H, 'p', 00H, 'p', 00H, 00H, 00H
$SG82313 DB	'"', 00H, 'I', 00H, 'n', 00H, 'v', 00H, 'a', 00H, 'l', 00H
	DB	'i', 00H, 'd', 00H, ' ', 00H, 'w', 00H, 'r', 00H, 'i', 00H, 't'
	DB	00H, 'e', 00H, ' ', 00H, 'p', 00H, 'o', 00H, 'i', 00H, 'n', 00H
	DB	't', 00H, 'e', 00H, 'r', 00H, '"', 00H, 00H, 00H
$SG82315 DB	'I', 00H, 'n', 00H, 00H, 00H
	ORG $+2
$SG82318 DB	'O', 00H, 'u', 00H, 't', 00H, 00H, 00H
$SG82360 DB	'.', 00H, '.', 00H, '\', 00H, 't', 00H, 'r', 00H, 'a', 00H
	DB	'n', 00H, 's', 00H, 'f', 00H, 'r', 00H, 'm', 00H, '.', 00H, 'c'
	DB	00H, 'p', 00H, 'p', 00H, 00H, 00H
$SG82367 DB	'p', 00H, 'O', 00H, 'u', 00H, 't', 00H, 'S', 00H, 'a', 00H
	DB	'm', 00H, 'p', 00H, 'l', 00H, 'e', 00H, 00H, 00H
	ORG $+2
$SG82361 DB	'm', 00H, '_', 00H, 'p', 00H, 'O', 00H, 'u', 00H, 't', 00H
	DB	'p', 00H, 'u', 00H, 't', 00H, '-', 00H, '>', 00H, 'm', 00H, '_'
	DB	00H, 'p', 00H, 'A', 00H, 'l', 00H, 'l', 00H, 'o', 00H, 'c', 00H
	DB	'a', 00H, 't', 00H, 'o', 00H, 'r', 00H, ' ', 00H, '!', 00H, '='
	DB	00H, ' ', 00H, 'N', 00H, 'U', 00H, 'L', 00H, 'L', 00H, 00H, 00H
$SG82366 DB	'.', 00H, '.', 00H, '\', 00H, 't', 00H, 'r', 00H, 'a', 00H
	DB	'n', 00H, 's', 00H, 'f', 00H, 'r', 00H, 'm', 00H, '.', 00H, 'c'
	DB	00H, 'p', 00H, 'p', 00H, 00H, 00H
$SG82379 DB	'.', 00H, '.', 00H, '\', 00H, 't', 00H, 'r', 00H, 'a', 00H
	DB	'n', 00H, 's', 00H, 'f', 00H, 'r', 00H, 'm', 00H, '.', 00H, 'c'
	DB	00H, 'p', 00H, 'p', 00H, 00H, 00H
$SG82380 DB	'(', 00H, '(', 00H, '(', 00H, 'H', 00H, 'R', 00H, 'E', 00H
	DB	'S', 00H, 'U', 00H, 'L', 00H, 'T', 00H, ')', 00H, '(', 00H, 'p'
	DB	00H, 'O', 00H, 'u', 00H, 't', 00H, 'S', 00H, 'a', 00H, 'm', 00H
	DB	'p', 00H, 'l', 00H, 'e', 00H, '2', 00H, '-', 00H, '>', 00H, 'G'
	DB	00H, 'e', 00H, 't', 00H, 'P', 00H, 'r', 00H, 'o', 00H, 'p', 00H
	DB	'e', 00H, 'r', 00H, 't', 00H, 'i', 00H, 'e', 00H, 's', 00H, '('
	DB	00H, ' ', 00H, '(', 00H, '(', 00H, 'L', 00H, 'O', 00H, 'N', 00H
	DB	'G', 00H, ')', 00H, '(', 00H, 'L', 00H, 'O', 00H, 'N', 00H, 'G'
	DB	00H, '_', 00H, 'P', 00H, 'T', 00H, 'R', 00H, ')', 00H, '&', 00H
	DB	'(', 00H, '(', 00H, '(', 00H, 'A', 00H, 'M', 00H, '_', 00H, 'S'
	DB	00H, 'A', 00H, 'M', 00H, 'P', 00H, 'L', 00H, 'E', 00H, '2', 00H
	DB	'_', 00H, 'P', 00H, 'R', 00H, 'O', 00H, 'P', 00H, 'E', 00H, 'R'
	DB	00H, 'T', 00H, 'I', 00H, 'E', 00H, 'S', 00H, ' ', 00H, '*', 00H
	DB	')', 00H, '0', 00H, ')', 00H, '-', 00H, '>', 00H, 't', 00H, 'S'
	DB	00H, 't', 00H, 'a', 00H, 'r', 00H, 't', 00H, ')', 00H, ')', 00H
	DB	',', 00H, ' ', 00H, '(', 00H, 'P', 00H, 'B', 00H, 'Y', 00H, 'T'
	DB	00H, 'E', 00H, ')', 00H, '&', 00H, 'O', 00H, 'u', 00H, 't', 00H
	DB	'P', 00H, 'r', 00H, 'o', 00H, 'p', 00H, 's', 00H, ')', 00H, ')'
	DB	00H, ')', 00H, ' ', 00H, '>', 00H, '=', 00H, ' ', 00H, '0', 00H
	DB	')', 00H, 00H, 00H
	ORG $+6
$SG82405 DB	'.', 00H, '.', 00H, '\', 00H, 't', 00H, 'r', 00H, 'a', 00H
	DB	'n', 00H, 's', 00H, 'f', 00H, 'r', 00H, 'm', 00H, '.', 00H, 'c'
	DB	00H, 'p', 00H, 'p', 00H, 00H, 00H
$SG82406 DB	'p', 00H, 'S', 00H, 'a', 00H, 'm', 00H, 'p', 00H, 'l', 00H
	DB	'e', 00H, 00H, 00H
$SG82409 DB	'.', 00H, '.', 00H, '\', 00H, 't', 00H, 'r', 00H, 'a', 00H
	DB	'n', 00H, 's', 00H, 'f', 00H, 'r', 00H, 'm', 00H, '.', 00H, 'c'
	DB	00H, 'p', 00H, 'p', 00H, 00H, 00H
$SG82410 DB	'm', 00H, '_', 00H, 'p', 00H, 'O', 00H, 'u', 00H, 't', 00H
	DB	'p', 00H, 'u', 00H, 't', 00H, ' ', 00H, '!', 00H, '=', 00H, ' '
	DB	00H, 'N', 00H, 'U', 00H, 'L', 00H, 'L', 00H, 00H, 00H
	ORG $+4
$SG82417 DB	'E', 00H, 'r', 00H, 'r', 00H, 'o', 00H, 'r', 00H, ' ', 00H
	DB	'f', 00H, 'r', 00H, 'o', 00H, 'm', 00H, ' ', 00H, 't', 00H, 'r'
	DB	00H, 'a', 00H, 'n', 00H, 's', 00H, 'f', 00H, 'o', 00H, 'r', 00H
	DB	'm', 00H, 00H, 00H
	ORG $+6
$SG82446 DB	'.', 00H, '.', 00H, '\', 00H, 't', 00H, 'r', 00H, 'a', 00H
	DB	'n', 00H, 's', 00H, 'f', 00H, 'r', 00H, 'm', 00H, '.', 00H, 'c'
	DB	00H, 'p', 00H, 'p', 00H, 00H, 00H
$SG82447 DB	'm', 00H, '_', 00H, 'p', 00H, 'O', 00H, 'u', 00H, 't', 00H
	DB	'p', 00H, 'u', 00H, 't', 00H, ' ', 00H, '!', 00H, '=', 00H, ' '
	DB	00H, 'N', 00H, 'U', 00H, 'L', 00H, 'L', 00H, 00H, 00H
	ORG $+4
$SG82455 DB	'.', 00H, '.', 00H, '\', 00H, 't', 00H, 'r', 00H, 'a', 00H
	DB	'n', 00H, 's', 00H, 'f', 00H, 'r', 00H, 'm', 00H, '.', 00H, 'c'
	DB	00H, 'p', 00H, 'p', 00H, 00H, 00H
$SG82456 DB	'm', 00H, '_', 00H, 'p', 00H, 'I', 00H, 'n', 00H, 'p', 00H
	DB	'u', 00H, 't', 00H, ' ', 00H, '=', 00H, '=', 00H, ' ', 00H, 'N'
	DB	00H, 'U', 00H, 'L', 00H, 'L', 00H, ' ', 00H, '|', 00H, '|', 00H
	DB	' ', 00H, 'm', 00H, '_', 00H, 'p', 00H, 'O', 00H, 'u', 00H, 't'
	DB	00H, 'p', 00H, 'u', 00H, 't', 00H, ' ', 00H, '!', 00H, '=', 00H
	DB	' ', 00H, 'N', 00H, 'U', 00H, 'L', 00H, 'L', 00H, 00H, 00H
	ORG $+4
$SG82461 DB	'.', 00H, '.', 00H, '\', 00H, 't', 00H, 'r', 00H, 'a', 00H
	DB	'n', 00H, 's', 00H, 'f', 00H, 'r', 00H, 'm', 00H, '.', 00H, 'c'
	DB	00H, 'p', 00H, 'p', 00H, 00H, 00H
$SG82462 DB	'm', 00H, '_', 00H, 'p', 00H, 'I', 00H, 'n', 00H, 'p', 00H
	DB	'u', 00H, 't', 00H, 00H, 00H
	ORG $+6
$SG82464 DB	'.', 00H, '.', 00H, '\', 00H, 't', 00H, 'r', 00H, 'a', 00H
	DB	'n', 00H, 's', 00H, 'f', 00H, 'r', 00H, 'm', 00H, '.', 00H, 'c'
	DB	00H, 'p', 00H, 'p', 00H, 00H, 00H
$SG82465 DB	'm', 00H, '_', 00H, 'p', 00H, 'O', 00H, 'u', 00H, 't', 00H
	DB	'p', 00H, 'u', 00H, 't', 00H, 00H, 00H
	ORG $+4
$SG82501 DB	'.', 00H, '.', 00H, '\', 00H, 't', 00H, 'r', 00H, 'a', 00H
	DB	'n', 00H, 's', 00H, 'f', 00H, 'r', 00H, 'm', 00H, '.', 00H, 'c'
	DB	00H, 'p', 00H, 'p', 00H, 00H, 00H
$SG82502 DB	'm', 00H, '_', 00H, 'p', 00H, 'T', 00H, 'r', 00H, 'a', 00H
	DB	'n', 00H, 's', 00H, 'f', 00H, 'o', 00H, 'r', 00H, 'm', 00H, 'F'
	DB	00H, 'i', 00H, 'l', 00H, 't', 00H, 'e', 00H, 'r', 00H, '-', 00H
	DB	'>', 00H, 'm', 00H, '_', 00H, 'p', 00H, 'O', 00H, 'u', 00H, 't'
	DB	00H, 'p', 00H, 'u', 00H, 't', 00H, ' ', 00H, '!', 00H, '=', 00H
	DB	' ', 00H, 'N', 00H, 'U', 00H, 'L', 00H, 'L', 00H, 00H, 00H
	ORG $+4
$SG82507 DB	'.', 00H, '.', 00H, '\', 00H, 't', 00H, 'r', 00H, 'a', 00H
	DB	'n', 00H, 's', 00H, 'f', 00H, 'r', 00H, 'm', 00H, '.', 00H, 'c'
	DB	00H, 'p', 00H, 'p', 00H, 00H, 00H
$SG82508 DB	'I', 00H, 's', 00H, 'C', 00H, 'o', 00H, 'n', 00H, 'n', 00H
	DB	'e', 00H, 'c', 00H, 't', 00H, 'e', 00H, 'd', 00H, '(', 00H, ')'
	DB	00H, 00H, 00H
	ORG $+4
$SG82523 DB	'C', 00H, 'T', 00H, 'r', 00H, 'a', 00H, 'n', 00H, 's', 00H
	DB	'f', 00H, 'o', 00H, 'r', 00H, 'm', 00H, 'I', 00H, 'n', 00H, 'p'
	DB	00H, 'u', 00H, 't', 00H, 'P', 00H, 'i', 00H, 'n', 00H, ':', 00H
	DB	':', 00H, 'C', 00H, 'T', 00H, 'r', 00H, 'a', 00H, 'n', 00H, 's'
	DB	00H, 'f', 00H, 'o', 00H, 'r', 00H, 'm', 00H, 'I', 00H, 'n', 00H
	DB	'p', 00H, 'u', 00H, 't', 00H, 'P', 00H, 'i', 00H, 'n', 00H, 00H
	DB	00H
	ORG $+2
$SG82537 DB	'C', 00H, 'T', 00H, 'r', 00H, 'a', 00H, 'n', 00H, 's', 00H
	DB	'f', 00H, 'o', 00H, 'r', 00H, 'm', 00H, 'I', 00H, 'n', 00H, 'p'
	DB	00H, 'u', 00H, 't', 00H, 'P', 00H, 'i', 00H, 'n', 00H, ':', 00H
	DB	':', 00H, 'C', 00H, 'T', 00H, 'r', 00H, 'a', 00H, 'n', 00H, 's'
	DB	00H, 'f', 00H, 'o', 00H, 'r', 00H, 'm', 00H, 'I', 00H, 'n', 00H
	DB	'p', 00H, 'u', 00H, 't', 00H, 'P', 00H, 'i', 00H, 'n', 00H, 00H
	DB	00H
	ORG $+2
$SG82549 DB	'.', 00H, '.', 00H, '\', 00H, 't', 00H, 'r', 00H, 'a', 00H
	DB	'n', 00H, 's', 00H, 'f', 00H, 'r', 00H, 'm', 00H, '.', 00H, 'c'
	DB	00H, 'p', 00H, 'p', 00H, 00H, 00H
$SG82550 DB	'I', 00H, 's', 00H, 'S', 00H, 't', 00H, 'o', 00H, 'p', 00H
	DB	'p', 00H, 'e', 00H, 'd', 00H, '(', 00H, ')', 00H, 00H, 00H
$SG82576 DB	'.', 00H, '.', 00H, '\', 00H, 't', 00H, 'r', 00H, 'a', 00H
	DB	'n', 00H, 's', 00H, 'f', 00H, 'r', 00H, 'm', 00H, '.', 00H, 'c'
	DB	00H, 'p', 00H, 'p', 00H, 00H, 00H
$SG82711 DB	'I', 00H, 's', 00H, 'S', 00H, 't', 00H, 'o', 00H, 'p', 00H
	DB	'p', 00H, 'e', 00H, 'd', 00H, '(', 00H, ')', 00H, 00H, 00H
$SG82577 DB	'S', 00H, 'U', 00H, 'C', 00H, 'C', 00H, 'E', 00H, 'E', 00H
	DB	'D', 00H, 'E', 00H, 'D', 00H, '(', 00H, 'm', 00H, '_', 00H, 'p'
	DB	00H, 'T', 00H, 'r', 00H, 'a', 00H, 'n', 00H, 's', 00H, 'f', 00H
	DB	'o', 00H, 'r', 00H, 'm', 00H, 'F', 00H, 'i', 00H, 'l', 00H, 't'
	DB	00H, 'e', 00H, 'r', 00H, '-', 00H, '>', 00H, 'C', 00H, 'h', 00H
	DB	'e', 00H, 'c', 00H, 'k', 00H, 'I', 00H, 'n', 00H, 'p', 00H, 'u'
	DB	00H, 't', 00H, 'T', 00H, 'y', 00H, 'p', 00H, 'e', 00H, '(', 00H
	DB	'm', 00H, 't', 00H, 'I', 00H, 'n', 00H, ')', 00H, ')', 00H, 00H
	DB	00H
$SG82593 DB	'.', 00H, '.', 00H, '\', 00H, 't', 00H, 'r', 00H, 'a', 00H
	DB	'n', 00H, 's', 00H, 'f', 00H, 'r', 00H, 'm', 00H, '.', 00H, 'c'
	DB	00H, 'p', 00H, 'p', 00H, 00H, 00H
	ORG $+8
$SG82594 DB	'm', 00H, '_', 00H, 'p', 00H, 'T', 00H, 'r', 00H, 'a', 00H
	DB	'n', 00H, 's', 00H, 'f', 00H, 'o', 00H, 'r', 00H, 'm', 00H, 'F'
	DB	00H, 'i', 00H, 'l', 00H, 't', 00H, 'e', 00H, 'r', 00H, '-', 00H
	DB	'>', 00H, 'm', 00H, '_', 00H, 'p', 00H, 'O', 00H, 'u', 00H, 't'
	DB	00H, 'p', 00H, 'u', 00H, 't', 00H, ' ', 00H, '!', 00H, '=', 00H
	DB	' ', 00H, 'N', 00H, 'U', 00H, 'L', 00H, 'L', 00H, 00H, 00H
	ORG $+4
$SG82610 DB	'.', 00H, '.', 00H, '\', 00H, 't', 00H, 'r', 00H, 'a', 00H
	DB	'n', 00H, 's', 00H, 'f', 00H, 'r', 00H, 'm', 00H, '.', 00H, 'c'
	DB	00H, 'p', 00H, 'p', 00H, 00H, 00H
$SG82611 DB	'm', 00H, '_', 00H, 'p', 00H, 'T', 00H, 'r', 00H, 'a', 00H
	DB	'n', 00H, 's', 00H, 'f', 00H, 'o', 00H, 'r', 00H, 'm', 00H, 'F'
	DB	00H, 'i', 00H, 'l', 00H, 't', 00H, 'e', 00H, 'r', 00H, '-', 00H
	DB	'>', 00H, 'm', 00H, '_', 00H, 'p', 00H, 'O', 00H, 'u', 00H, 't'
	DB	00H, 'p', 00H, 'u', 00H, 't', 00H, ' ', 00H, '!', 00H, '=', 00H
	DB	' ', 00H, 'N', 00H, 'U', 00H, 'L', 00H, 'L', 00H, 00H, 00H
	ORG $+4
$SG82628 DB	'.', 00H, '.', 00H, '\', 00H, 't', 00H, 'r', 00H, 'a', 00H
	DB	'n', 00H, 's', 00H, 'f', 00H, 'r', 00H, 'm', 00H, '.', 00H, 'c'
	DB	00H, 'p', 00H, 'p', 00H, 00H, 00H
$SG82629 DB	'p', 00H, 'S', 00H, 'a', 00H, 'm', 00H, 'p', 00H, 'l', 00H
	DB	'e', 00H, 00H, 00H
$SG82646 DB	'C', 00H, 'T', 00H, 'r', 00H, 'a', 00H, 'n', 00H, 's', 00H
	DB	'f', 00H, 'o', 00H, 'r', 00H, 'm', 00H, 'O', 00H, 'u', 00H, 't'
	DB	00H, 'p', 00H, 'u', 00H, 't', 00H, 'P', 00H, 'i', 00H, 'n', 00H
	DB	':', 00H, ':', 00H, 'C', 00H, 'T', 00H, 'r', 00H, 'a', 00H, 'n'
	DB	00H, 's', 00H, 'f', 00H, 'o', 00H, 'r', 00H, 'm', 00H, 'O', 00H
	DB	'u', 00H, 't', 00H, 'p', 00H, 'u', 00H, 't', 00H, 'P', 00H, 'i'
	DB	00H, 'n', 00H, 00H, 00H
	ORG $+14
$SG82660 DB	'C', 00H, 'T', 00H, 'r', 00H, 'a', 00H, 'n', 00H, 's', 00H
	DB	'f', 00H, 'o', 00H, 'r', 00H, 'm', 00H, 'O', 00H, 'u', 00H, 't'
	DB	00H, 'p', 00H, 'u', 00H, 't', 00H, 'P', 00H, 'i', 00H, 'n', 00H
	DB	':', 00H, ':', 00H, 'C', 00H, 'T', 00H, 'r', 00H, 'a', 00H, 'n'
	DB	00H, 's', 00H, 'f', 00H, 'o', 00H, 'r', 00H, 'm', 00H, 'O', 00H
	DB	'u', 00H, 't', 00H, 'p', 00H, 'u', 00H, 't', 00H, 'P', 00H, 'i'
	DB	00H, 'n', 00H, 00H, 00H
	ORG $+14
$SG82664 DB	'C', 00H, 'T', 00H, 'r', 00H, 'a', 00H, 'n', 00H, 's', 00H
	DB	'f', 00H, 'o', 00H, 'r', 00H, 'm', 00H, 'O', 00H, 'u', 00H, 't'
	DB	00H, 'p', 00H, 'u', 00H, 't', 00H, 'P', 00H, 'i', 00H, 'n', 00H
	DB	':', 00H, ':', 00H, '~', 00H, 'C', 00H, 'T', 00H, 'r', 00H, 'a'
	DB	00H, 'n', 00H, 's', 00H, 'f', 00H, 'o', 00H, 'r', 00H, 'm', 00H
	DB	'O', 00H, 'u', 00H, 't', 00H, 'p', 00H, 'u', 00H, 't', 00H, 'P'
	DB	00H, 'i', 00H, 'n', 00H, 00H, 00H
	ORG $+4
$SG82676 DB	'.', 00H, '.', 00H, '\', 00H, 't', 00H, 'r', 00H, 'a', 00H
	DB	'n', 00H, 's', 00H, 'f', 00H, 'r', 00H, 'm', 00H, '.', 00H, 'c'
	DB	00H, 'p', 00H, 'p', 00H, 00H, 00H
$SG82677 DB	'"', 00H, 'I', 00H, 'n', 00H, 'v', 00H, 'a', 00H, 'l', 00H
	DB	'i', 00H, 'd', 00H, ' ', 00H, 'r', 00H, 'e', 00H, 'a', 00H, 'd'
	DB	00H, ' ', 00H, 'p', 00H, 'o', 00H, 'i', 00H, 'n', 00H, 't', 00H
	DB	'e', 00H, 'r', 00H, '"', 00H, 00H, 00H
	ORG $+2
$SG82681 DB	'.', 00H, '.', 00H, '\', 00H, 't', 00H, 'r', 00H, 'a', 00H
	DB	'n', 00H, 's', 00H, 'f', 00H, 'r', 00H, 'm', 00H, '.', 00H, 'c'
	DB	00H, 'p', 00H, 'p', 00H, 00H, 00H
$SG82682 DB	'"', 00H, 'I', 00H, 'n', 00H, 'v', 00H, 'a', 00H, 'l', 00H
	DB	'i', 00H, 'd', 00H, ' ', 00H, 'w', 00H, 'r', 00H, 'i', 00H, 't'
	DB	00H, 'e', 00H, ' ', 00H, 'p', 00H, 'o', 00H, 'i', 00H, 'n', 00H
	DB	't', 00H, 'e', 00H, 'r', 00H, '"', 00H, 00H, 00H
$SG82686 DB	'.', 00H, '.', 00H, '\', 00H, 't', 00H, 'r', 00H, 'a', 00H
	DB	'n', 00H, 's', 00H, 'f', 00H, 'r', 00H, 'm', 00H, '.', 00H, 'c'
	DB	00H, 'p', 00H, 'p', 00H, 00H, 00H
	ORG $+8
$SG82687 DB	'm', 00H, '_', 00H, 'p', 00H, 'T', 00H, 'r', 00H, 'a', 00H
	DB	'n', 00H, 's', 00H, 'f', 00H, 'o', 00H, 'r', 00H, 'm', 00H, 'F'
	DB	00H, 'i', 00H, 'l', 00H, 't', 00H, 'e', 00H, 'r', 00H, '-', 00H
	DB	'>', 00H, 'm', 00H, '_', 00H, 'p', 00H, 'I', 00H, 'n', 00H, 'p'
	DB	00H, 'u', 00H, 't', 00H, ' ', 00H, '!', 00H, '=', 00H, ' ', 00H
	DB	'N', 00H, 'U', 00H, 'L', 00H, 'L', 00H, 00H, 00H
	ORG $+6
$SG82699 DB	'.', 00H, '.', 00H, '\', 00H, 't', 00H, 'r', 00H, 'a', 00H
	DB	'n', 00H, 's', 00H, 'f', 00H, 'r', 00H, 'm', 00H, '.', 00H, 'c'
	DB	00H, 'p', 00H, 'p', 00H, 00H, 00H
$SG82700 DB	'm', 00H, '_', 00H, 'p', 00H, 'T', 00H, 'r', 00H, 'a', 00H
	DB	'n', 00H, 's', 00H, 'f', 00H, 'o', 00H, 'r', 00H, 'm', 00H, 'F'
	DB	00H, 'i', 00H, 'l', 00H, 't', 00H, 'e', 00H, 'r', 00H, '-', 00H
	DB	'>', 00H, 'm', 00H, '_', 00H, 'p', 00H, 'I', 00H, 'n', 00H, 'p'
	DB	00H, 'u', 00H, 't', 00H, ' ', 00H, '!', 00H, '=', 00H, ' ', 00H
	DB	'N', 00H, 'U', 00H, 'L', 00H, 'L', 00H, 00H, 00H
	ORG $+6
$SG82710 DB	'.', 00H, '.', 00H, '\', 00H, 't', 00H, 'r', 00H, 'a', 00H
	DB	'n', 00H, 's', 00H, 'f', 00H, 'r', 00H, 'm', 00H, '.', 00H, 'c'
	DB	00H, 'p', 00H, 'p', 00H, 00H, 00H
$SG82724 DB	'.', 00H, '.', 00H, '\', 00H, 't', 00H, 'r', 00H, 'a', 00H
	DB	'n', 00H, 's', 00H, 'f', 00H, 'r', 00H, 'm', 00H, '.', 00H, 'c'
	DB	00H, 'p', 00H, 'p', 00H, 00H, 00H
$SG82725 DB	'm', 00H, '_', 00H, 'p', 00H, 'T', 00H, 'r', 00H, 'a', 00H
	DB	'n', 00H, 's', 00H, 'f', 00H, 'o', 00H, 'r', 00H, 'm', 00H, 'F'
	DB	00H, 'i', 00H, 'l', 00H, 't', 00H, 'e', 00H, 'r', 00H, '-', 00H
	DB	'>', 00H, 'm', 00H, '_', 00H, 'p', 00H, 'I', 00H, 'n', 00H, 'p'
	DB	00H, 'u', 00H, 't', 00H, ' ', 00H, '!', 00H, '=', 00H, ' ', 00H
	DB	'N', 00H, 'U', 00H, 'L', 00H, 'L', 00H, 00H, 00H
	ORG $+6
$SG82734 DB	'.', 00H, '.', 00H, '\', 00H, 't', 00H, 'r', 00H, 'a', 00H
	DB	'n', 00H, 's', 00H, 'f', 00H, 'r', 00H, 'm', 00H, '.', 00H, 'c'
	DB	00H, 'p', 00H, 'p', 00H, 00H, 00H
$SG82735 DB	'm', 00H, '_', 00H, 'p', 00H, 'T', 00H, 'r', 00H, 'a', 00H
	DB	'n', 00H, 's', 00H, 'f', 00H, 'o', 00H, 'r', 00H, 'm', 00H, 'F'
	DB	00H, 'i', 00H, 'l', 00H, 't', 00H, 'e', 00H, 'r', 00H, '-', 00H
	DB	'>', 00H, 'm', 00H, '_', 00H, 'p', 00H, 'I', 00H, 'n', 00H, 'p'
	DB	00H, 'u', 00H, 't', 00H, ' ', 00H, '!', 00H, '=', 00H, ' ', 00H
	DB	'N', 00H, 'U', 00H, 'L', 00H, 'L', 00H, 00H, 00H
	ORG $+6
$SG82737 DB	'.', 00H, '.', 00H, '\', 00H, 't', 00H, 'r', 00H, 'a', 00H
	DB	'n', 00H, 's', 00H, 'f', 00H, 'r', 00H, 'm', 00H, '.', 00H, 'c'
	DB	00H, 'p', 00H, 'p', 00H, 00H, 00H
$SG82738 DB	'm', 00H, '_', 00H, 'p', 00H, 'T', 00H, 'r', 00H, 'a', 00H
	DB	'n', 00H, 's', 00H, 'f', 00H, 'o', 00H, 'r', 00H, 'm', 00H, 'F'
	DB	00H, 'i', 00H, 'l', 00H, 't', 00H, 'e', 00H, 'r', 00H, '-', 00H
	DB	'>', 00H, 'm', 00H, '_', 00H, 'p', 00H, 'I', 00H, 'n', 00H, 'p'
	DB	00H, 'u', 00H, 't', 00H, '-', 00H, '>', 00H, 'C', 00H, 'u', 00H
	DB	'r', 00H, 'r', 00H, 'e', 00H, 'n', 00H, 't', 00H, 'M', 00H, 'e'
	DB	00H, 'd', 00H, 'i', 00H, 'a', 00H, 'T', 00H, 'y', 00H, 'p', 00H
	DB	'e', 00H, '(', 00H, ')', 00H, '.', 00H, 'I', 00H, 's', 00H, 'V'
	DB	00H, 'a', 00H, 'l', 00H, 'i', 00H, 'd', 00H, '(', 00H, ')', 00H
	DB	00H, 00H
	ORG $+10
$SG82743 DB	'*', 00H, '*', 00H, '*', 00H, ' ', 00H, 'T', 00H, 'h', 00H
	DB	'i', 00H, 's', 00H, ' ', 00H, 'f', 00H, 'i', 00H, 'l', 00H, 't'
	DB	00H, 'e', 00H, 'r', 00H, ' ', 00H, 'i', 00H, 's', 00H, ' ', 00H
	DB	'a', 00H, 'c', 00H, 'c', 00H, 'e', 00H, 'p', 00H, 't', 00H, 'i'
	DB	00H, 'n', 00H, 'g', 00H, ' ', 00H, 'a', 00H, 'n', 00H, ' ', 00H
	DB	'o', 00H, 'u', 00H, 't', 00H, 'p', 00H, 'u', 00H, 't', 00H, ' '
	DB	00H, 'm', 00H, 'e', 00H, 'd', 00H, 'i', 00H, 'a', 00H, ' ', 00H
	DB	't', 00H, 'y', 00H, 'p', 00H, 'e', 00H, 00H, 00H
	ORG $+12
$SG82744 DB	' ', 00H, ' ', 00H, ' ', 00H, ' ', 00H, 't', 00H, 'h', 00H
	DB	'a', 00H, 't', 00H, ' ', 00H, 'i', 00H, 't', 00H, ' ', 00H, 'c'
	DB	00H, 'a', 00H, 'n', 00H, '''', 00H, 't', 00H, ' ', 00H, 'c', 00H
	DB	'u', 00H, 'r', 00H, 'r', 00H, 'e', 00H, 'n', 00H, 't', 00H, 'l'
	DB	00H, 'y', 00H, ' ', 00H, 't', 00H, 'r', 00H, 'a', 00H, 'n', 00H
	DB	's', 00H, 'f', 00H, 'o', 00H, 'r', 00H, 'm', 00H, ' ', 00H, 't'
	DB	00H, 'o', 00H, '.', 00H, ' ', 00H, ' ', 00H, 'I', 00H, ' ', 00H
	DB	'h', 00H, 'o', 00H, 'p', 00H, 'e', 00H, 00H, 00H
	ORG $+12
$SG82745 DB	' ', 00H, ' ', 00H, ' ', 00H, ' ', 00H, 'i', 00H, 't', 00H
	DB	'''', 00H, 's', 00H, ' ', 00H, 's', 00H, 'm', 00H, 'a', 00H, 'r'
	DB	00H, 't', 00H, ' ', 00H, 'e', 00H, 'n', 00H, 'o', 00H, 'u', 00H
	DB	'g', 00H, 'h', 00H, ' ', 00H, 't', 00H, 'o', 00H, ' ', 00H, 'r'
	DB	00H, 'e', 00H, 'c', 00H, 'o', 00H, 'n', 00H, 'n', 00H, 'e', 00H
	DB	'c', 00H, 't', 00H, ' ', 00H, 'i', 00H, 't', 00H, 's', 00H, ' '
	DB	00H, 'i', 00H, 'n', 00H, 'p', 00H, 'u', 00H, 't', 00H, '.', 00H
	DB	00H, 00H
	ORG $+4
$SG82757 DB	'.', 00H, '.', 00H, '\', 00H, 't', 00H, 'r', 00H, 'a', 00H
	DB	'n', 00H, 's', 00H, 'f', 00H, 'r', 00H, 'm', 00H, '.', 00H, 'c'
	DB	00H, 'p', 00H, 'p', 00H, 00H, 00H
$SG82758 DB	'm', 00H, '_', 00H, 'p', 00H, 'T', 00H, 'r', 00H, 'a', 00H
	DB	'n', 00H, 's', 00H, 'f', 00H, 'o', 00H, 'r', 00H, 'm', 00H, 'F'
	DB	00H, 'i', 00H, 'l', 00H, 't', 00H, 'e', 00H, 'r', 00H, '-', 00H
	DB	'>', 00H, 'm', 00H, '_', 00H, 'p', 00H, 'I', 00H, 'n', 00H, 'p'
	DB	00H, 'u', 00H, 't', 00H, ' ', 00H, '!', 00H, '=', 00H, ' ', 00H
	DB	'N', 00H, 'U', 00H, 'L', 00H, 'L', 00H, 00H, 00H
	ORG $+6
$SG82770 DB	'.', 00H, '.', 00H, '\', 00H, 't', 00H, 'r', 00H, 'a', 00H
	DB	'n', 00H, 's', 00H, 'f', 00H, 'r', 00H, 'm', 00H, '.', 00H, 'c'
	DB	00H, 'p', 00H, 'p', 00H, 00H, 00H
$SG82771 DB	'"', 00H, 'I', 00H, 'n', 00H, 'v', 00H, 'a', 00H, 'l', 00H
	DB	'i', 00H, 'd', 00H, ' ', 00H, 'r', 00H, 'e', 00H, 'a', 00H, 'd'
	DB	00H, ' ', 00H, 'p', 00H, 'o', 00H, 'i', 00H, 'n', 00H, 't', 00H
	DB	'e', 00H, 'r', 00H, '"', 00H, 00H, 00H
	ORG $+2
$SG82776 DB	'.', 00H, '.', 00H, '\', 00H, 't', 00H, 'r', 00H, 'a', 00H
	DB	'n', 00H, 's', 00H, 'f', 00H, 'r', 00H, 'm', 00H, '.', 00H, 'c'
	DB	00H, 'p', 00H, 'p', 00H, 00H, 00H
$SG82777 DB	'm', 00H, '_', 00H, 'p', 00H, 'T', 00H, 'r', 00H, 'a', 00H
	DB	'n', 00H, 's', 00H, 'f', 00H, 'o', 00H, 'r', 00H, 'm', 00H, 'F'
	DB	00H, 'i', 00H, 'l', 00H, 't', 00H, 'e', 00H, 'r', 00H, '-', 00H
	DB	'>', 00H, 'm', 00H, '_', 00H, 'p', 00H, 'I', 00H, 'n', 00H, 'p'
	DB	00H, 'u', 00H, 't', 00H, ' ', 00H, '!', 00H, '=', 00H, ' ', 00H
	DB	'N', 00H, 'U', 00H, 'L', 00H, 'L', 00H, 00H, 00H
CONST	ENDS
;	COMDAT IID_IAMFilterGraphCallback
CONST	SEGMENT
IID_IAMFilterGraphCallback DD 056a868fdH
	DW	0ad4H
	DW	011ceH
	DB	0b0H
	DB	0a3H
	DB	00H
	DB	020H
	DB	0afH
	DB	0bH
	DB	0a7H
	DB	070H
CONST	ENDS
PUBLIC	??0CTransformFilter@@QEAA@PEA_WPEAUIUnknown@@AEBU_GUID@@@Z ; CTransformFilter::CTransformFilter
EXTRN	__CxxFrameHandler3:PROC
EXTRN	??1CCritSec@@QEAA@XZ:PROC			; CCritSec::~CCritSec
EXTRN	??1CBaseFilter@@UEAA@XZ:PROC			; CBaseFilter::~CBaseFilter
EXTRN	??0CCritSec@@QEAA@XZ:PROC			; CCritSec::CCritSec
EXTRN	??0CBaseFilter@@QEAA@PEB_WPEAUIUnknown@@PEAVCCritSec@@AEBU_GUID@@@Z:PROC ; CBaseFilter::CBaseFilter
EXTRN	_RTC_Shutdown:PROC
EXTRN	_RTC_InitBase:PROC
;	COMDAT pdata
; File c:\downloads\wpf mediakit - copy\src\filters\baseclasses\transfrm.cpp
pdata	SEGMENT
$pdata$??0CTransformFilter@@QEAA@PEA_WPEAUIUnknown@@AEBU_GUID@@@Z DD imagerel $LN6
	DD	imagerel $LN6+226
	DD	imagerel $unwind$??0CTransformFilter@@QEAA@PEA_WPEAUIUnknown@@AEBU_GUID@@@Z
pdata	ENDS
;	COMDAT pdata
pdata	SEGMENT
$pdata$?dtor$0@?0???0CTransformFilter@@QEAA@PEA_WPEAUIUnknown@@AEBU_GUID@@@Z@4HA DD imagerel ?dtor$0@?0???0CTransformFilter@@QEAA@PEA_WPEAUIUnknown@@AEBU_GUID@@@Z@4HA
	DD	imagerel ?dtor$0@?0???0CTransformFilter@@QEAA@PEA_WPEAUIUnknown@@AEBU_GUID@@@Z@4HA+35
	DD	imagerel $unwind$?dtor$0@?0???0CTransformFilter@@QEAA@PEA_WPEAUIUnknown@@AEBU_GUID@@@Z@4HA
pdata	ENDS
;	COMDAT pdata
pdata	SEGMENT
$pdata$?dtor$1@?0???0CTransformFilter@@QEAA@PEA_WPEAUIUnknown@@AEBU_GUID@@@Z@4HA DD imagerel ?dtor$1@?0???0CTransformFilter@@QEAA@PEA_WPEAUIUnknown@@AEBU_GUID@@@Z@4HA
	DD	imagerel ?dtor$1@?0???0CTransformFilter@@QEAA@PEA_WPEAUIUnknown@@AEBU_GUID@@@Z@4HA+42
	DD	imagerel $unwind$?dtor$1@?0???0CTransformFilter@@QEAA@PEA_WPEAUIUnknown@@AEBU_GUID@@@Z@4HA
pdata	ENDS
;	COMDAT xdata
xdata	SEGMENT
$ip2state$??0CTransformFilter@@QEAA@PEA_WPEAUIUnknown@@AEBU_GUID@@@Z DD imagerel ??0CTransformFilter@@QEAA@PEA_WPEAUIUnknown@@AEBU_GUID@@@Z
	DD	0ffffffffH
	DD	imagerel ??0CTransformFilter@@QEAA@PEA_WPEAUIUnknown@@AEBU_GUID@@@Z+99
	DD	00H
	DD	imagerel ??0CTransformFilter@@QEAA@PEA_WPEAUIUnknown@@AEBU_GUID@@@Z+164
	DD	01H
	DD	imagerel ??0CTransformFilter@@QEAA@PEA_WPEAUIUnknown@@AEBU_GUID@@@Z+215
	DD	0ffffffffH
xdata	ENDS
;	COMDAT xdata
xdata	SEGMENT
$unwind$?dtor$1@?0???0CTransformFilter@@QEAA@PEA_WPEAUIUnknown@@AEBU_GUID@@@Z@4HA DD 031001H
	DD	0700c4210H
	DD	0500bH
xdata	ENDS
;	COMDAT xdata
xdata	SEGMENT
$unwind$?dtor$0@?0???0CTransformFilter@@QEAA@PEA_WPEAUIUnknown@@AEBU_GUID@@@Z@4HA DD 031001H
	DD	0700c4210H
	DD	0500bH
xdata	ENDS
;	COMDAT xdata
xdata	SEGMENT
$unwind$??0CTransformFilter@@QEAA@PEA_WPEAUIUnknown@@AEBU_GUID@@@Z DD 023611H
	DD	070157219H
	DD	imagerel __CxxFrameHandler3
	DD	imagerel $cppxdata$??0CTransformFilter@@QEAA@PEA_WPEAUIUnknown@@AEBU_GUID@@@Z
xdata	ENDS
;	COMDAT CONST
CONST	SEGMENT
$cppxdata$??0CTransformFilter@@QEAA@PEA_WPEAUIUnknown@@AEBU_GUID@@@Z DD 019930522H
	DD	02H
	DD	imagerel $stateUnwindMap$??0CTransformFilter@@QEAA@PEA_WPEAUIUnknown@@AEBU_GUID@@@Z
	DD	00H
	DD	00H
	DD	04H
	DD	imagerel $ip2state$??0CTransformFilter@@QEAA@PEA_WPEAUIUnknown@@AEBU_GUID@@@Z
	DD	030H
	DD	00H
	DD	01H
CONST	ENDS
;	COMDAT xdata
xdata	SEGMENT
$stateUnwindMap$??0CTransformFilter@@QEAA@PEA_WPEAUIUnknown@@AEBU_GUID@@@Z DD 0ffffffffH
	DD	imagerel ?dtor$0@?0???0CTransformFilter@@QEAA@PEA_WPEAUIUnknown@@AEBU_GUID@@@Z@4HA
	DD	00H
	DD	imagerel ?dtor$1@?0???0CTransformFilter@@QEAA@PEA_WPEAUIUnknown@@AEBU_GUID@@@Z@4HA
xdata	ENDS
;	COMDAT rtc$TMZ
rtc$TMZ	SEGMENT
_RTC_Shutdown.rtc$TMZ DQ FLAT:_RTC_Shutdown
rtc$TMZ	ENDS
;	COMDAT rtc$IMZ
rtc$IMZ	SEGMENT
_RTC_InitBase.rtc$IMZ DQ FLAT:_RTC_InitBase
; Function compile flags: /Odtp /RTCsu
rtc$IMZ	ENDS
;	COMDAT ??0CTransformFilter@@QEAA@PEA_WPEAUIUnknown@@AEBU_GUID@@@Z
_TEXT	SEGMENT
$T83632 = 48
this$ = 80
pName$ = 88
pUnk$ = 96
clsid$ = 104
??0CTransformFilter@@QEAA@PEA_WPEAUIUnknown@@AEBU_GUID@@@Z PROC ; CTransformFilter::CTransformFilter, COMDAT
; Line 28
$LN6:
	mov	QWORD PTR [rsp+32], r9
	mov	QWORD PTR [rsp+24], r8
	mov	QWORD PTR [rsp+16], rdx
	mov	QWORD PTR [rsp+8], rcx
	push	rdi
	sub	rsp, 64					; 00000040H
	mov	rdi, rsp
	mov	ecx, 16
	mov	eax, -858993460				; ccccccccH
	rep stosd
	mov	rcx, QWORD PTR [rsp+80]
	mov	QWORD PTR $T83632[rsp], -2
	mov	rax, QWORD PTR this$[rsp]
	add	rax, 144				; 00000090H
	mov	rcx, QWORD PTR clsid$[rsp]
	mov	QWORD PTR [rsp+32], rcx
	mov	r9, rax
	mov	r8, QWORD PTR pUnk$[rsp]
	mov	rdx, QWORD PTR pName$[rsp]
	mov	rcx, QWORD PTR this$[rsp]
	call	??0CBaseFilter@@QEAA@PEB_WPEAUIUnknown@@PEAVCCritSec@@AEBU_GUID@@@Z ; CBaseFilter::CBaseFilter
	npad	1
	mov	rax, QWORD PTR this$[rsp]
	mov	DWORD PTR [rax+128], 0
	mov	rax, QWORD PTR this$[rsp]
	mov	DWORD PTR [rax+132], 0
	mov	rax, QWORD PTR this$[rsp]
	mov	DWORD PTR [rax+136], 0
	mov	rax, QWORD PTR this$[rsp]
	add	rax, 144				; 00000090H
	mov	rcx, rax
	call	??0CCritSec@@QEAA@XZ			; CCritSec::CCritSec
	npad	1
	mov	rax, QWORD PTR this$[rsp]
	add	rax, 200				; 000000c8H
	mov	rcx, rax
	call	??0CCritSec@@QEAA@XZ			; CCritSec::CCritSec
	mov	rax, QWORD PTR this$[rsp]
	mov	QWORD PTR [rax+256], 0
	mov	rax, QWORD PTR this$[rsp]
	mov	QWORD PTR [rax+264], 0
; Line 32
	mov	rax, QWORD PTR this$[rsp]
	add	rsp, 64					; 00000040H
	pop	rdi
	ret	0
??0CTransformFilter@@QEAA@PEA_WPEAUIUnknown@@AEBU_GUID@@@Z ENDP ; CTransformFilter::CTransformFilter
; Function compile flags: /Odtp /RTCsu
_TEXT	ENDS
;	COMDAT text$x
text$x	SEGMENT
$T83632 = 48
this$ = 80
pName$ = 88
pUnk$ = 96
clsid$ = 104
?dtor$0@?0???0CTransformFilter@@QEAA@PEA_WPEAUIUnknown@@AEBU_GUID@@@Z@4HA PROC ; `CTransformFilter::CTransformFilter'::`1'::dtor$0
	mov	QWORD PTR [rsp+8], rcx
	mov	QWORD PTR [rsp+16], rdx
	push	rbp
	push	rdi
	sub	rsp, 40					; 00000028H
	mov	rbp, rdx
	mov	rcx, QWORD PTR this$[rbp]
	call	??1CBaseFilter@@UEAA@XZ			; CBaseFilter::~CBaseFilter
	add	rsp, 40					; 00000028H
	pop	rdi
	pop	rbp
	ret	0
?dtor$0@?0???0CTransformFilter@@QEAA@PEA_WPEAUIUnknown@@AEBU_GUID@@@Z@4HA ENDP ; `CTransformFilter::CTransformFilter'::`1'::dtor$0
; Function compile flags: /Odtp /RTCsu
$T83632 = 48
this$ = 80
pName$ = 88
pUnk$ = 96
clsid$ = 104
?dtor$1@?0???0CTransformFilter@@QEAA@PEA_WPEAUIUnknown@@AEBU_GUID@@@Z@4HA PROC ; `CTransformFilter::CTransformFilter'::`1'::dtor$1
	mov	QWORD PTR [rsp+8], rcx
	mov	QWORD PTR [rsp+16], rdx
	push	rbp
	push	rdi
	sub	rsp, 40					; 00000028H
	mov	rbp, rdx
	mov	rcx, QWORD PTR this$[rbp]
	add	rcx, 144				; 00000090H
	call	??1CCritSec@@QEAA@XZ			; CCritSec::~CCritSec
	add	rsp, 40					; 00000028H
	pop	rdi
	pop	rbp
	ret	0
?dtor$1@?0???0CTransformFilter@@QEAA@PEA_WPEAUIUnknown@@AEBU_GUID@@@Z@4HA ENDP ; `CTransformFilter::CTransformFilter'::`1'::dtor$1
text$x	ENDS
PUBLIC	??0CTransformFilter@@QEAA@PEADPEAUIUnknown@@AEBU_GUID@@@Z ; CTransformFilter::CTransformFilter
EXTRN	??0CBaseFilter@@QEAA@PEBDPEAUIUnknown@@PEAVCCritSec@@AEBU_GUID@@@Z:PROC ; CBaseFilter::CBaseFilter
;	COMDAT pdata
pdata	SEGMENT
$pdata$??0CTransformFilter@@QEAA@PEADPEAUIUnknown@@AEBU_GUID@@@Z DD imagerel $LN6
	DD	imagerel $LN6+226
	DD	imagerel $unwind$??0CTransformFilter@@QEAA@PEADPEAUIUnknown@@AEBU_GUID@@@Z
pdata	ENDS
;	COMDAT pdata
pdata	SEGMENT
$pdata$?dtor$0@?0???0CTransformFilter@@QEAA@PEADPEAUIUnknown@@AEBU_GUID@@@Z@4HA DD imagerel ?dtor$0@?0???0CTransformFilter@@QEAA@PEADPEAUIUnknown@@AEBU_GUID@@@Z@4HA
	DD	imagerel ?dtor$0@?0???0CTransformFilter@@QEAA@PEADPEAUIUnknown@@AEBU_GUID@@@Z@4HA+35
	DD	imagerel $unwind$?dtor$0@?0???0CTransformFilter@@QEAA@PEADPEAUIUnknown@@AEBU_GUID@@@Z@4HA
pdata	ENDS
;	COMDAT pdata
pdata	SEGMENT
$pdata$?dtor$1@?0???0CTransformFilter@@QEAA@PEADPEAUIUnknown@@AEBU_GUID@@@Z@4HA DD imagerel ?dtor$1@?0???0CTransformFilter@@QEAA@PEADPEAUIUnknown@@AEBU_GUID@@@Z@4HA
	DD	imagerel ?dtor$1@?0???0CTransformFilter@@QEAA@PEADPEAUIUnknown@@AEBU_GUID@@@Z@4HA+42
	DD	imagerel $unwind$?dtor$1@?0???0CTransformFilter@@QEAA@PEADPEAUIUnknown@@AEBU_GUID@@@Z@4HA
pdata	ENDS
;	COMDAT xdata
xdata	SEGMENT
$ip2state$??0CTransformFilter@@QEAA@PEADPEAUIUnknown@@AEBU_GUID@@@Z DD imagerel ??0CTransformFilter@@QEAA@PEADPEAUIUnknown@@AEBU_GUID@@@Z
	DD	0ffffffffH
	DD	imagerel ??0CTransformFilter@@QEAA@PEADPEAUIUnknown@@AEBU_GUID@@@Z+99
	DD	00H
	DD	imagerel ??0CTransformFilter@@QEAA@PEADPEAUIUnknown@@AEBU_GUID@@@Z+164
	DD	01H
	DD	imagerel ??0CTransformFilter@@QEAA@PEADPEAUIUnknown@@AEBU_GUID@@@Z+215
	DD	0ffffffffH
xdata	ENDS
;	COMDAT xdata
xdata	SEGMENT
$unwind$?dtor$1@?0???0CTransformFilter@@QEAA@PEADPEAUIUnknown@@AEBU_GUID@@@Z@4HA DD 031001H
	DD	0700c4210H
	DD	0500bH
xdata	ENDS
;	COMDAT xdata
xdata	SEGMENT
$unwind$?dtor$0@?0???0CTransformFilter@@QEAA@PEADPEAUIUnknown@@AEBU_GUID@@@Z@4HA DD 031001H
	DD	0700c4210H
	DD	0500bH
xdata	ENDS
;	COMDAT xdata
xdata	SEGMENT
$unwind$??0CTransformFilter@@QEAA@PEADPEAUIUnknown@@AEBU_GUID@@@Z DD 023611H
	DD	070157219H
	DD	imagerel __CxxFrameHandler3
	DD	imagerel $cppxdata$??0CTransformFilter@@QEAA@PEADPEAUIUnknown@@AEBU_GUID@@@Z
xdata	ENDS
;	COMDAT CONST
CONST	SEGMENT
$cppxdata$??0CTransformFilter@@QEAA@PEADPEAUIUnknown@@AEBU_GUID@@@Z DD 019930522H
	DD	02H
	DD	imagerel $stateUnwindMap$??0CTransformFilter@@QEAA@PEADPEAUIUnknown@@AEBU_GUID@@@Z
	DD	00H
	DD	00H
	DD	04H
	DD	imagerel $ip2state$??0CTransformFilter@@QEAA@PEADPEAUIUnknown@@AEBU_GUID@@@Z
	DD	030H
	DD	00H
	DD	01H
CONST	ENDS
;	COMDAT xdata
xdata	SEGMENT
$stateUnwindMap$??0CTransformFilter@@QEAA@PEADPEAUIUnknown@@AEBU_GUID@@@Z DD 0ffffffffH
	DD	imagerel ?dtor$0@?0???0CTransformFilter@@QEAA@PEADPEAUIUnknown@@AEBU_GUID@@@Z@4HA
	DD	00H
	DD	imagerel ?dtor$1@?0???0CTransformFilter@@QEAA@PEADPEAUIUnknown@@AEBU_GUID@@@Z@4HA
; Function compile flags: /Odtp /RTCsu
xdata	ENDS
;	COMDAT ??0CTransformFilter@@QEAA@PEADPEAUIUnknown@@AEBU_GUID@@@Z
_TEXT	SEGMENT
$T83666 = 48
this$ = 80
pName$ = 88
pUnk$ = 96
clsid$ = 104
??0CTransformFilter@@QEAA@PEADPEAUIUnknown@@AEBU_GUID@@@Z PROC ; CTransformFilter::CTransformFilter, COMDAT
; Line 44
$LN6:
	mov	QWORD PTR [rsp+32], r9
	mov	QWORD PTR [rsp+24], r8
	mov	QWORD PTR [rsp+16], rdx
	mov	QWORD PTR [rsp+8], rcx
	push	rdi
	sub	rsp, 64					; 00000040H
	mov	rdi, rsp
	mov	ecx, 16
	mov	eax, -858993460				; ccccccccH
	rep stosd
	mov	rcx, QWORD PTR [rsp+80]
	mov	QWORD PTR $T83666[rsp], -2
	mov	rax, QWORD PTR this$[rsp]
	add	rax, 144				; 00000090H
	mov	rcx, QWORD PTR clsid$[rsp]
	mov	QWORD PTR [rsp+32], rcx
	mov	r9, rax
	mov	r8, QWORD PTR pUnk$[rsp]
	mov	rdx, QWORD PTR pName$[rsp]
	mov	rcx, QWORD PTR this$[rsp]
	call	??0CBaseFilter@@QEAA@PEBDPEAUIUnknown@@PEAVCCritSec@@AEBU_GUID@@@Z ; CBaseFilter::CBaseFilter
	npad	1
	mov	rax, QWORD PTR this$[rsp]
	mov	DWORD PTR [rax+128], 0
	mov	rax, QWORD PTR this$[rsp]
	mov	DWORD PTR [rax+132], 0
	mov	rax, QWORD PTR this$[rsp]
	mov	DWORD PTR [rax+136], 0
	mov	rax, QWORD PTR this$[rsp]
	add	rax, 144				; 00000090H
	mov	rcx, rax
	call	??0CCritSec@@QEAA@XZ			; CCritSec::CCritSec
	npad	1
	mov	rax, QWORD PTR this$[rsp]
	add	rax, 200				; 000000c8H
	mov	rcx, rax
	call	??0CCritSec@@QEAA@XZ			; CCritSec::CCritSec
	mov	rax, QWORD PTR this$[rsp]
	mov	QWORD PTR [rax+256], 0
	mov	rax, QWORD PTR this$[rsp]
	mov	QWORD PTR [rax+264], 0
; Line 48
	mov	rax, QWORD PTR this$[rsp]
	add	rsp, 64					; 00000040H
	pop	rdi
	ret	0
??0CTransformFilter@@QEAA@PEADPEAUIUnknown@@AEBU_GUID@@@Z ENDP ; CTransformFilter::CTransformFilter
; Function compile flags: /Odtp /RTCsu
_TEXT	ENDS
;	COMDAT text$x
text$x	SEGMENT
$T83666 = 48
this$ = 80
pName$ = 88
pUnk$ = 96
clsid$ = 104
?dtor$0@?0???0CTransformFilter@@QEAA@PEADPEAUIUnknown@@AEBU_GUID@@@Z@4HA PROC ; `CTransformFilter::CTransformFilter'::`1'::dtor$0
	mov	QWORD PTR [rsp+8], rcx
	mov	QWORD PTR [rsp+16], rdx
	push	rbp
	push	rdi
	sub	rsp, 40					; 00000028H
	mov	rbp, rdx
	mov	rcx, QWORD PTR this$[rbp]
	call	??1CBaseFilter@@UEAA@XZ			; CBaseFilter::~CBaseFilter
	add	rsp, 40					; 00000028H
	pop	rdi
	pop	rbp
	ret	0
?dtor$0@?0???0CTransformFilter@@QEAA@PEADPEAUIUnknown@@AEBU_GUID@@@Z@4HA ENDP ; `CTransformFilter::CTransformFilter'::`1'::dtor$0
; Function compile flags: /Odtp /RTCsu
$T83666 = 48
this$ = 80
pName$ = 88
pUnk$ = 96
clsid$ = 104
?dtor$1@?0???0CTransformFilter@@QEAA@PEADPEAUIUnknown@@AEBU_GUID@@@Z@4HA PROC ; `CTransformFilter::CTransformFilter'::`1'::dtor$1
	mov	QWORD PTR [rsp+8], rcx
	mov	QWORD PTR [rsp+16], rdx
	push	rbp
	push	rdi
	sub	rsp, 40					; 00000028H
	mov	rbp, rdx
	mov	rcx, QWORD PTR this$[rbp]
	add	rcx, 144				; 00000090H
	call	??1CCritSec@@QEAA@XZ			; CCritSec::~CCritSec
	add	rsp, 40					; 00000028H
	pop	rdi
	pop	rbp
	ret	0
?dtor$1@?0???0CTransformFilter@@QEAA@PEADPEAUIUnknown@@AEBU_GUID@@@Z@4HA ENDP ; `CTransformFilter::CTransformFilter'::`1'::dtor$1
text$x	ENDS
PUBLIC	??1CTransformFilter@@UEAA@XZ			; CTransformFilter::~CTransformFilter
;	COMDAT pdata
pdata	SEGMENT
$pdata$??1CTransformFilter@@UEAA@XZ DD imagerel $LN10
	DD	imagerel $LN10+239
	DD	imagerel $unwind$??1CTransformFilter@@UEAA@XZ
pdata	ENDS
;	COMDAT pdata
pdata	SEGMENT
$pdata$?dtor$0@?0???1CTransformFilter@@UEAA@XZ@4HA DD imagerel ?dtor$0@?0???1CTransformFilter@@UEAA@XZ@4HA
	DD	imagerel ?dtor$0@?0???1CTransformFilter@@UEAA@XZ@4HA+35
	DD	imagerel $unwind$?dtor$0@?0???1CTransformFilter@@UEAA@XZ@4HA
pdata	ENDS
;	COMDAT pdata
pdata	SEGMENT
$pdata$?dtor$1@?0???1CTransformFilter@@UEAA@XZ@4HA DD imagerel ?dtor$1@?0???1CTransformFilter@@UEAA@XZ@4HA
	DD	imagerel ?dtor$1@?0???1CTransformFilter@@UEAA@XZ@4HA+42
	DD	imagerel $unwind$?dtor$1@?0???1CTransformFilter@@UEAA@XZ@4HA
pdata	ENDS
;	COMDAT pdata
pdata	SEGMENT
$pdata$?dtor$2@?0???1CTransformFilter@@UEAA@XZ@4HA DD imagerel ?dtor$2@?0???1CTransformFilter@@UEAA@XZ@4HA
	DD	imagerel ?dtor$2@?0???1CTransformFilter@@UEAA@XZ@4HA+42
	DD	imagerel $unwind$?dtor$2@?0???1CTransformFilter@@UEAA@XZ@4HA
pdata	ENDS
;	COMDAT xdata
xdata	SEGMENT
$ip2state$??1CTransformFilter@@UEAA@XZ DD imagerel ??1CTransformFilter@@UEAA@XZ
	DD	0ffffffffH
	DD	imagerel ??1CTransformFilter@@UEAA@XZ+39
	DD	02H
	DD	imagerel ??1CTransformFilter@@UEAA@XZ+183
	DD	01H
	DD	imagerel ??1CTransformFilter@@UEAA@XZ+203
	DD	00H
	DD	imagerel ??1CTransformFilter@@UEAA@XZ+223
	DD	0ffffffffH
xdata	ENDS
;	COMDAT xdata
xdata	SEGMENT
$unwind$?dtor$2@?0???1CTransformFilter@@UEAA@XZ@4HA DD 031001H
	DD	0700c4210H
	DD	0500bH
xdata	ENDS
;	COMDAT xdata
xdata	SEGMENT
$unwind$?dtor$1@?0???1CTransformFilter@@UEAA@XZ@4HA DD 031001H
	DD	0700c4210H
	DD	0500bH
xdata	ENDS
;	COMDAT xdata
xdata	SEGMENT
$unwind$?dtor$0@?0???1CTransformFilter@@UEAA@XZ@4HA DD 031001H
	DD	0700c4210H
	DD	0500bH
xdata	ENDS
;	COMDAT xdata
xdata	SEGMENT
$unwind$??1CTransformFilter@@UEAA@XZ DD 022711H
	DD	07006b20aH
	DD	imagerel __CxxFrameHandler3
	DD	imagerel $cppxdata$??1CTransformFilter@@UEAA@XZ
xdata	ENDS
;	COMDAT CONST
CONST	SEGMENT
$cppxdata$??1CTransformFilter@@UEAA@XZ DD 019930522H
	DD	03H
	DD	imagerel $stateUnwindMap$??1CTransformFilter@@UEAA@XZ
	DD	00H
	DD	00H
	DD	05H
	DD	imagerel $ip2state$??1CTransformFilter@@UEAA@XZ
	DD	040H
	DD	00H
	DD	01H
CONST	ENDS
;	COMDAT xdata
xdata	SEGMENT
$stateUnwindMap$??1CTransformFilter@@UEAA@XZ DD 0ffffffffH
	DD	imagerel ?dtor$0@?0???1CTransformFilter@@UEAA@XZ@4HA
	DD	00H
	DD	imagerel ?dtor$1@?0???1CTransformFilter@@UEAA@XZ@4HA
	DD	01H
	DD	imagerel ?dtor$2@?0???1CTransformFilter@@UEAA@XZ@4HA
; Function compile flags: /Odtp /RTCsu
xdata	ENDS
;	COMDAT ??1CTransformFilter@@UEAA@XZ
_TEXT	SEGMENT
$T83688 = 32
$T83689 = 40
$T83692 = 48
$T83693 = 56
$T83705 = 64
tv84 = 72
tv128 = 80
this$ = 112
??1CTransformFilter@@UEAA@XZ PROC			; CTransformFilter::~CTransformFilter, COMDAT
; Line 54
$LN10:
	mov	QWORD PTR [rsp+8], rcx
	push	rdi
	sub	rsp, 96					; 00000060H
	mov	rdi, rsp
	mov	ecx, 24
	mov	eax, -858993460				; ccccccccH
	rep stosd
	mov	rcx, QWORD PTR [rsp+112]
	mov	QWORD PTR $T83705[rsp], -2
; Line 57
	mov	rax, QWORD PTR this$[rsp]
	mov	rax, QWORD PTR [rax+256]
	mov	QWORD PTR $T83689[rsp], rax
	mov	rax, QWORD PTR $T83689[rsp]
	mov	QWORD PTR $T83688[rsp], rax
	cmp	QWORD PTR $T83688[rsp], 0
	je	SHORT $LN3@CTransform
	mov	rax, QWORD PTR $T83688[rsp]
	mov	rax, QWORD PTR [rax]
	mov	edx, 1
	mov	rcx, QWORD PTR $T83688[rsp]
	call	QWORD PTR [rax+24]
	mov	QWORD PTR tv84[rsp], rax
	jmp	SHORT $LN4@CTransform
$LN3@CTransform:
	mov	QWORD PTR tv84[rsp], 0
$LN4@CTransform:
; Line 58
	mov	rax, QWORD PTR this$[rsp]
	mov	rax, QWORD PTR [rax+264]
	mov	QWORD PTR $T83693[rsp], rax
	mov	rax, QWORD PTR $T83693[rsp]
	mov	QWORD PTR $T83692[rsp], rax
	cmp	QWORD PTR $T83692[rsp], 0
	je	SHORT $LN5@CTransform
	mov	rax, QWORD PTR $T83692[rsp]
	mov	rax, QWORD PTR [rax]
	mov	edx, 1
	mov	rcx, QWORD PTR $T83692[rsp]
	call	QWORD PTR [rax+24]
	mov	QWORD PTR tv128[rsp], rax
	jmp	SHORT $LN6@CTransform
$LN5@CTransform:
	mov	QWORD PTR tv128[rsp], 0
$LN6@CTransform:
; Line 59
	mov	rax, QWORD PTR this$[rsp]
	add	rax, 200				; 000000c8H
	mov	rcx, rax
	call	??1CCritSec@@QEAA@XZ			; CCritSec::~CCritSec
	npad	1
	mov	rax, QWORD PTR this$[rsp]
	add	rax, 144				; 00000090H
	mov	rcx, rax
	call	??1CCritSec@@QEAA@XZ			; CCritSec::~CCritSec
	npad	1
	mov	rcx, QWORD PTR this$[rsp]
	call	??1CBaseFilter@@UEAA@XZ			; CBaseFilter::~CBaseFilter
	add	rsp, 96					; 00000060H
	pop	rdi
	ret	0
??1CTransformFilter@@UEAA@XZ ENDP			; CTransformFilter::~CTransformFilter
; Function compile flags: /Odtp /RTCsu
_TEXT	ENDS
;	COMDAT text$x
text$x	SEGMENT
$T83688 = 32
$T83689 = 40
$T83692 = 48
$T83693 = 56
$T83705 = 64
tv84 = 72
tv128 = 80
this$ = 112
?dtor$0@?0???1CTransformFilter@@UEAA@XZ@4HA PROC	; `CTransformFilter::~CTransformFilter'::`1'::dtor$0
	mov	QWORD PTR [rsp+8], rcx
	mov	QWORD PTR [rsp+16], rdx
	push	rbp
	push	rdi
	sub	rsp, 40					; 00000028H
	mov	rbp, rdx
	mov	rcx, QWORD PTR this$[rbp]
	call	??1CBaseFilter@@UEAA@XZ			; CBaseFilter::~CBaseFilter
	add	rsp, 40					; 00000028H
	pop	rdi
	pop	rbp
	ret	0
?dtor$0@?0???1CTransformFilter@@UEAA@XZ@4HA ENDP	; `CTransformFilter::~CTransformFilter'::`1'::dtor$0
; Function compile flags: /Odtp /RTCsu
$T83688 = 32
$T83689 = 40
$T83692 = 48
$T83693 = 56
$T83705 = 64
tv84 = 72
tv128 = 80
this$ = 112
?dtor$1@?0???1CTransformFilter@@UEAA@XZ@4HA PROC	; `CTransformFilter::~CTransformFilter'::`1'::dtor$1
	mov	QWORD PTR [rsp+8], rcx
	mov	QWORD PTR [rsp+16], rdx
	push	rbp
	push	rdi
	sub	rsp, 40					; 00000028H
	mov	rbp, rdx
	mov	rcx, QWORD PTR this$[rbp]
	add	rcx, 144				; 00000090H
	call	??1CCritSec@@QEAA@XZ			; CCritSec::~CCritSec
	add	rsp, 40					; 00000028H
	pop	rdi
	pop	rbp
	ret	0
?dtor$1@?0???1CTransformFilter@@UEAA@XZ@4HA ENDP	; `CTransformFilter::~CTransformFilter'::`1'::dtor$1
; Function compile flags: /Odtp /RTCsu
$T83688 = 32
$T83689 = 40
$T83692 = 48
$T83693 = 56
$T83705 = 64
tv84 = 72
tv128 = 80
this$ = 112
?dtor$2@?0???1CTransformFilter@@UEAA@XZ@4HA PROC	; `CTransformFilter::~CTransformFilter'::`1'::dtor$2
	mov	QWORD PTR [rsp+8], rcx
	mov	QWORD PTR [rsp+16], rdx
	push	rbp
	push	rdi
	sub	rsp, 40					; 00000028H
	mov	rbp, rdx
	mov	rcx, QWORD PTR this$[rbp]
	add	rcx, 200				; 000000c8H
	call	??1CCritSec@@QEAA@XZ			; CCritSec::~CCritSec
	add	rsp, 40					; 00000028H
	pop	rdi
	pop	rbp
	ret	0
?dtor$2@?0???1CTransformFilter@@UEAA@XZ@4HA ENDP	; `CTransformFilter::~CTransformFilter'::`1'::dtor$2
text$x	ENDS
PUBLIC	?Transform@CTransformFilter@@UEAAJPEAUIMediaSample@@0@Z ; CTransformFilter::Transform
EXTRN	?DbgBreakPoint@@YAXPEB_W0H@Z:PROC		; DbgBreakPoint
;	COMDAT pdata
pdata	SEGMENT
$pdata$?Transform@CTransformFilter@@UEAAJPEAUIMediaSample@@0@Z DD imagerel $LN3
	DD	imagerel $LN3+76
	DD	imagerel $unwind$?Transform@CTransformFilter@@UEAAJPEAUIMediaSample@@0@Z
pdata	ENDS
;	COMDAT xdata
xdata	SEGMENT
$unwind$?Transform@CTransformFilter@@UEAAJPEAUIMediaSample@@0@Z DD 022801H
	DD	070103214H
; Function compile flags: /Odtp /RTCsu
xdata	ENDS
;	COMDAT ?Transform@CTransformFilter@@UEAAJPEAUIMediaSample@@0@Z
_TEXT	SEGMENT
this$ = 48
pIn$ = 56
pOut$ = 64
?Transform@CTransformFilter@@UEAAJPEAUIMediaSample@@0@Z PROC ; CTransformFilter::Transform, COMDAT
; Line 64
$LN3:
	mov	QWORD PTR [rsp+24], r8
	mov	QWORD PTR [rsp+16], rdx
	mov	QWORD PTR [rsp+8], rcx
	push	rdi
	sub	rsp, 32					; 00000020H
	mov	rdi, rsp
	mov	ecx, 8
	mov	eax, -858993460				; ccccccccH
	rep stosd
	mov	rcx, QWORD PTR [rsp+48]
; Line 67
	mov	r8d, 67					; 00000043H
	lea	rdx, OFFSET FLAT:$SG82255
	lea	rcx, OFFSET FLAT:$SG82256
	call	?DbgBreakPoint@@YAXPEB_W0H@Z		; DbgBreakPoint
; Line 68
	mov	eax, -2147418113			; ffffffff8000ffffH
; Line 69
	add	rsp, 32					; 00000020H
	pop	rdi
	ret	0
?Transform@CTransformFilter@@UEAAJPEAUIMediaSample@@0@Z ENDP ; CTransformFilter::Transform
_TEXT	ENDS
PUBLIC	?GetPinCount@CTransformFilter@@UEAAHXZ		; CTransformFilter::GetPinCount
;	COMDAT pdata
pdata	SEGMENT
$pdata$?GetPinCount@CTransformFilter@@UEAAHXZ DD imagerel $LN3
	DD	imagerel $LN3+13
	DD	imagerel $unwind$?GetPinCount@CTransformFilter@@UEAAHXZ
pdata	ENDS
;	COMDAT xdata
xdata	SEGMENT
$unwind$?GetPinCount@CTransformFilter@@UEAAHXZ DD 010601H
	DD	07006H
; Function compile flags: /Odtp /RTCsu
xdata	ENDS
;	COMDAT ?GetPinCount@CTransformFilter@@UEAAHXZ
_TEXT	SEGMENT
this$ = 16
?GetPinCount@CTransformFilter@@UEAAHXZ PROC		; CTransformFilter::GetPinCount, COMDAT
; Line 75
$LN3:
	mov	QWORD PTR [rsp+8], rcx
	push	rdi
; Line 76
	mov	eax, 2
; Line 77
	pop	rdi
	ret	0
?GetPinCount@CTransformFilter@@UEAAHXZ ENDP		; CTransformFilter::GetPinCount
_TEXT	ENDS
PUBLIC	??0CTransformOutputPin@@QEAA@PEA_WPEAVCTransformFilter@@PEAJPEB_W@Z ; CTransformOutputPin::CTransformOutputPin
PUBLIC	??0CTransformInputPin@@QEAA@PEA_WPEAVCTransformFilter@@PEAJPEB_W@Z ; CTransformInputPin::CTransformInputPin
PUBLIC	?GetPin@CTransformFilter@@UEAAPEAVCBasePin@@H@Z	; CTransformFilter::GetPin
EXTRN	??3@YAXPEAX@Z:PROC				; operator delete
EXTRN	?DbgAssert@@YAXPEB_W0H@Z:PROC			; DbgAssert
EXTRN	??2@YAPEAX_K@Z:PROC				; operator new
EXTRN	_RTC_CheckStackVars:PROC
;	COMDAT pdata
pdata	SEGMENT
$pdata$?GetPin@CTransformFilter@@UEAAPEAVCBasePin@@H@Z DD imagerel $LN20
	DD	imagerel $LN20+616
	DD	imagerel $unwind$?GetPin@CTransformFilter@@UEAAPEAVCBasePin@@H@Z
pdata	ENDS
;	COMDAT pdata
pdata	SEGMENT
$pdata$?dtor$0@?0??GetPin@CTransformFilter@@UEAAPEAVCBasePin@@H@Z@4HA DD imagerel ?dtor$0@?0??GetPin@CTransformFilter@@UEAAPEAVCBasePin@@H@Z@4HA
	DD	imagerel ?dtor$0@?0??GetPin@CTransformFilter@@UEAAPEAVCBasePin@@H@Z@4HA+35
	DD	imagerel $unwind$?dtor$0@?0??GetPin@CTransformFilter@@UEAAPEAVCBasePin@@H@Z@4HA
pdata	ENDS
;	COMDAT pdata
pdata	SEGMENT
$pdata$?dtor$1@?0??GetPin@CTransformFilter@@UEAAPEAVCBasePin@@H@Z@4HA DD imagerel ?dtor$1@?0??GetPin@CTransformFilter@@UEAAPEAVCBasePin@@H@Z@4HA
	DD	imagerel ?dtor$1@?0??GetPin@CTransformFilter@@UEAAPEAVCBasePin@@H@Z@4HA+35
	DD	imagerel $unwind$?dtor$1@?0??GetPin@CTransformFilter@@UEAAPEAVCBasePin@@H@Z@4HA
pdata	ENDS
;	COMDAT xdata
xdata	SEGMENT
$ip2state$?GetPin@CTransformFilter@@UEAAPEAVCBasePin@@H@Z DD imagerel ?GetPin@CTransformFilter@@UEAAPEAVCBasePin@@H@Z
	DD	0ffffffffH
	DD	imagerel ?GetPin@CTransformFilter@@UEAAPEAVCBasePin@@H@Z+94
	DD	00H
	DD	imagerel ?GetPin@CTransformFilter@@UEAAPEAVCBasePin@@H@Z+179
	DD	0ffffffffH
	DD	imagerel ?GetPin@CTransformFilter@@UEAAPEAVCBasePin@@H@Z+271
	DD	01H
	DD	imagerel ?GetPin@CTransformFilter@@UEAAPEAVCBasePin@@H@Z+356
	DD	0ffffffffH
xdata	ENDS
;	COMDAT xdata
xdata	SEGMENT
$unwind$?dtor$1@?0??GetPin@CTransformFilter@@UEAAPEAVCBasePin@@H@Z@4HA DD 031001H
	DD	0700c4210H
	DD	0500bH
xdata	ENDS
;	COMDAT xdata
xdata	SEGMENT
$unwind$?dtor$0@?0??GetPin@CTransformFilter@@UEAAPEAVCBasePin@@H@Z@4HA DD 031001H
	DD	0700c4210H
	DD	0500bH
xdata	ENDS
;	COMDAT xdata
xdata	SEGMENT
$unwind$?GetPin@CTransformFilter@@UEAAPEAVCBasePin@@H@Z DD 033111H
	DD	0140111H
	DD	0700aH
	DD	imagerel __CxxFrameHandler3
	DD	imagerel $cppxdata$?GetPin@CTransformFilter@@UEAAPEAVCBasePin@@H@Z
xdata	ENDS
;	COMDAT xdata
xdata	SEGMENT
$stateUnwindMap$?GetPin@CTransformFilter@@UEAAPEAVCBasePin@@H@Z DD 0ffffffffH
	DD	imagerel ?dtor$0@?0??GetPin@CTransformFilter@@UEAAPEAVCBasePin@@H@Z@4HA
	DD	0ffffffffH
	DD	imagerel ?dtor$1@?0??GetPin@CTransformFilter@@UEAAPEAVCBasePin@@H@Z@4HA
xdata	ENDS
;	COMDAT CONST
CONST	SEGMENT
?GetPin@CTransformFilter@@UEAAPEAVCBasePin@@H@Z$rtcName$0 DB 068H ; CTransformFilter::GetPin
	DB	072H
	DB	00H
	ORG $+13
?GetPin@CTransformFilter@@UEAAPEAVCBasePin@@H@Z$rtcVarDesc DD 034H ; CTransformFilter::GetPin
	DD	04H
	DQ	FLAT:?GetPin@CTransformFilter@@UEAAPEAVCBasePin@@H@Z$rtcName$0
	ORG $+48
?GetPin@CTransformFilter@@UEAAPEAVCBasePin@@H@Z$rtcFrameData DD 01H ; CTransformFilter::GetPin
	DD	00H
	DQ	FLAT:?GetPin@CTransformFilter@@UEAAPEAVCBasePin@@H@Z$rtcVarDesc
$cppxdata$?GetPin@CTransformFilter@@UEAAPEAVCBasePin@@H@Z DD 019930522H
	DD	02H
	DD	imagerel $stateUnwindMap$?GetPin@CTransformFilter@@UEAAPEAVCBasePin@@H@Z
	DD	00H
	DD	00H
	DD	05H
	DD	imagerel $ip2state$?GetPin@CTransformFilter@@UEAAPEAVCBasePin@@H@Z
	DD	078H
	DD	00H
	DD	01H
; Function compile flags: /Odtp /RTCsu
CONST	ENDS
;	COMDAT ?GetPin@CTransformFilter@@UEAAPEAVCBasePin@@H@Z
_TEXT	SEGMENT
hr$ = 52
$T83745 = 72
$T83746 = 80
$T83749 = 88
$T83750 = 96
$T83753 = 104
$T83754 = 112
$T83764 = 120
tv78 = 128
tv128 = 136
tv145 = 144
this$ = 176
n$ = 184
?GetPin@CTransformFilter@@UEAAPEAVCBasePin@@H@Z PROC	; CTransformFilter::GetPin, COMDAT
; Line 91
$LN20:
	mov	DWORD PTR [rsp+16], edx
	mov	QWORD PTR [rsp+8], rcx
	push	rdi
	sub	rsp, 160				; 000000a0H
	mov	rdi, rsp
	mov	ecx, 40					; 00000028H
	mov	eax, -858993460				; ccccccccH
	rep stosd
	mov	rcx, QWORD PTR [rsp+176]
	mov	QWORD PTR $T83764[rsp], -2
; Line 92
	mov	DWORD PTR hr$[rsp], 0
; Line 96
	mov	rax, QWORD PTR this$[rsp]
	cmp	QWORD PTR [rax+256], 0
	jne	$LN9@GetPin
; Line 101
	mov	ecx, 328				; 00000148H
	call	??2@YAPEAX_K@Z				; operator new
	mov	QWORD PTR $T83746[rsp], rax
	cmp	QWORD PTR $T83746[rsp], 0
	je	SHORT $LN12@GetPin
	lea	rax, OFFSET FLAT:$SG82272
	mov	QWORD PTR [rsp+32], rax
	lea	r9, QWORD PTR hr$[rsp]
	mov	r8, QWORD PTR this$[rsp]
	lea	rdx, OFFSET FLAT:$SG82273
	mov	rcx, QWORD PTR $T83746[rsp]
	call	??0CTransformInputPin@@QEAA@PEA_WPEAVCTransformFilter@@PEAJPEB_W@Z ; CTransformInputPin::CTransformInputPin
	mov	QWORD PTR tv78[rsp], rax
	jmp	SHORT $LN13@GetPin
$LN12@GetPin:
	mov	QWORD PTR tv78[rsp], 0
$LN13@GetPin:
	mov	rax, QWORD PTR tv78[rsp]
	mov	QWORD PTR $T83745[rsp], rax
	mov	rax, QWORD PTR this$[rsp]
	mov	rcx, QWORD PTR $T83745[rsp]
	mov	QWORD PTR [rax+256], rcx
; Line 105
	cmp	DWORD PTR hr$[rsp], 0
	jge	SHORT $LN8@GetPin
	mov	r8d, 105				; 00000069H
	lea	rdx, OFFSET FLAT:$SG82276
	lea	rcx, OFFSET FLAT:$SG82277
	call	?DbgAssert@@YAXPEB_W0H@Z		; DbgAssert
$LN8@GetPin:
; Line 106
	mov	rax, QWORD PTR this$[rsp]
	cmp	QWORD PTR [rax+256], 0
	jne	SHORT $LN7@GetPin
; Line 107
	xor	eax, eax
	jmp	$LN10@GetPin
$LN7@GetPin:
; Line 113
	mov	ecx, 264				; 00000108H
	call	??2@YAPEAX_K@Z				; operator new
	mov	QWORD PTR $T83750[rsp], rax
	cmp	QWORD PTR $T83750[rsp], 0
	je	SHORT $LN14@GetPin
	lea	rax, OFFSET FLAT:$SG82284
	mov	QWORD PTR [rsp+32], rax
	lea	r9, QWORD PTR hr$[rsp]
	mov	r8, QWORD PTR this$[rsp]
	lea	rdx, OFFSET FLAT:$SG82285
	mov	rcx, QWORD PTR $T83750[rsp]
	call	??0CTransformOutputPin@@QEAA@PEA_WPEAVCTransformFilter@@PEAJPEB_W@Z ; CTransformOutputPin::CTransformOutputPin
	mov	QWORD PTR tv128[rsp], rax
	jmp	SHORT $LN15@GetPin
$LN14@GetPin:
	mov	QWORD PTR tv128[rsp], 0
$LN15@GetPin:
	mov	rax, QWORD PTR tv128[rsp]
	mov	QWORD PTR $T83749[rsp], rax
	mov	rax, QWORD PTR this$[rsp]
	mov	rcx, QWORD PTR $T83749[rsp]
	mov	QWORD PTR [rax+264], rcx
; Line 117
	cmp	DWORD PTR hr$[rsp], 0
	jge	SHORT $LN6@GetPin
	mov	r8d, 117				; 00000075H
	lea	rdx, OFFSET FLAT:$SG82288
	lea	rcx, OFFSET FLAT:$SG82289
	call	?DbgAssert@@YAXPEB_W0H@Z		; DbgAssert
$LN6@GetPin:
; Line 118
	mov	rax, QWORD PTR this$[rsp]
	cmp	QWORD PTR [rax+264], 0
	jne	SHORT $LN9@GetPin
; Line 119
	mov	rax, QWORD PTR this$[rsp]
	mov	rax, QWORD PTR [rax+256]
	mov	QWORD PTR $T83754[rsp], rax
	mov	rax, QWORD PTR $T83754[rsp]
	mov	QWORD PTR $T83753[rsp], rax
	cmp	QWORD PTR $T83753[rsp], 0
	je	SHORT $LN16@GetPin
	mov	rax, QWORD PTR $T83753[rsp]
	mov	rax, QWORD PTR [rax]
	mov	edx, 1
	mov	rcx, QWORD PTR $T83753[rsp]
	call	QWORD PTR [rax+24]
	mov	QWORD PTR tv145[rsp], rax
	jmp	SHORT $LN17@GetPin
$LN16@GetPin:
	mov	QWORD PTR tv145[rsp], 0
$LN17@GetPin:
; Line 120
	mov	rax, QWORD PTR this$[rsp]
	mov	QWORD PTR [rax+256], 0
$LN9@GetPin:
; Line 126
	cmp	DWORD PTR n$[rsp], 0
	jne	SHORT $LN4@GetPin
; Line 127
	mov	rax, QWORD PTR this$[rsp]
	mov	rax, QWORD PTR [rax+256]
	jmp	SHORT $LN10@GetPin
; Line 128
	jmp	SHORT $LN10@GetPin
$LN4@GetPin:
; Line 129
	cmp	DWORD PTR n$[rsp], 1
	jne	SHORT $LN2@GetPin
; Line 130
	mov	rax, QWORD PTR this$[rsp]
	mov	rax, QWORD PTR [rax+264]
	jmp	SHORT $LN10@GetPin
; Line 131
	jmp	SHORT $LN10@GetPin
$LN2@GetPin:
; Line 132
	xor	eax, eax
$LN10@GetPin:
; Line 134
	mov	rdi, rax
	mov	rcx, rsp
	lea	rdx, OFFSET FLAT:?GetPin@CTransformFilter@@UEAAPEAVCBasePin@@H@Z$rtcFrameData
	call	_RTC_CheckStackVars
	mov	rax, rdi
	add	rsp, 160				; 000000a0H
	pop	rdi
	ret	0
?GetPin@CTransformFilter@@UEAAPEAVCBasePin@@H@Z ENDP	; CTransformFilter::GetPin
; Function compile flags: /Odtp /RTCsu
_TEXT	ENDS
;	COMDAT text$x
text$x	SEGMENT
hr$ = 52
$T83745 = 72
$T83746 = 80
$T83749 = 88
$T83750 = 96
$T83753 = 104
$T83754 = 112
$T83764 = 120
tv78 = 128
tv128 = 136
tv145 = 144
this$ = 176
n$ = 184
?dtor$0@?0??GetPin@CTransformFilter@@UEAAPEAVCBasePin@@H@Z@4HA PROC ; `CTransformFilter::GetPin'::`1'::dtor$0
	mov	QWORD PTR [rsp+8], rcx
	mov	QWORD PTR [rsp+16], rdx
	push	rbp
	push	rdi
	sub	rsp, 40					; 00000028H
	mov	rbp, rdx
	mov	rcx, QWORD PTR $T83746[rbp]
	call	??3@YAXPEAX@Z				; operator delete
	add	rsp, 40					; 00000028H
	pop	rdi
	pop	rbp
	ret	0
?dtor$0@?0??GetPin@CTransformFilter@@UEAAPEAVCBasePin@@H@Z@4HA ENDP ; `CTransformFilter::GetPin'::`1'::dtor$0
; Function compile flags: /Odtp /RTCsu
hr$ = 52
$T83745 = 72
$T83746 = 80
$T83749 = 88
$T83750 = 96
$T83753 = 104
$T83754 = 112
$T83764 = 120
tv78 = 128
tv128 = 136
tv145 = 144
this$ = 176
n$ = 184
?dtor$1@?0??GetPin@CTransformFilter@@UEAAPEAVCBasePin@@H@Z@4HA PROC ; `CTransformFilter::GetPin'::`1'::dtor$1
	mov	QWORD PTR [rsp+8], rcx
	mov	QWORD PTR [rsp+16], rdx
	push	rbp
	push	rdi
	sub	rsp, 40					; 00000028H
	mov	rbp, rdx
	mov	rcx, QWORD PTR $T83750[rbp]
	call	??3@YAXPEAX@Z				; operator delete
	add	rsp, 40					; 00000028H
	pop	rdi
	pop	rbp
	ret	0
?dtor$1@?0??GetPin@CTransformFilter@@UEAAPEAVCBasePin@@H@Z@4HA ENDP ; `CTransformFilter::GetPin'::`1'::dtor$1
text$x	ENDS
PUBLIC	?FindPin@CTransformFilter@@UEAAJPEB_WPEAPEAUIPin@@@Z ; CTransformFilter::FindPin
EXTRN	__imp_lstrcmpW:PROC
EXTRN	__imp_IsBadWritePtr:PROC
EXTRN	__imp_IsBadReadPtr:PROC
;	COMDAT pdata
pdata	SEGMENT
$pdata$?FindPin@CTransformFilter@@UEAAJPEB_WPEAPEAUIPin@@@Z DD imagerel $LN16
	DD	imagerel $LN16+485
	DD	imagerel $unwind$?FindPin@CTransformFilter@@UEAAJPEB_WPEAPEAUIPin@@@Z
pdata	ENDS
;	COMDAT xdata
xdata	SEGMENT
$unwind$?FindPin@CTransformFilter@@UEAAJPEB_WPEAPEAUIPin@@@Z DD 022801H
	DD	07010b214H
; Function compile flags: /Odtp /RTCsu
xdata	ENDS
;	COMDAT ?FindPin@CTransformFilter@@UEAAJPEB_WPEAPEAUIPin@@@Z
_TEXT	SEGMENT
hr$ = 32
tv167 = 40
tv131 = 48
tv130 = 56
tv166 = 64
tv153 = 72
tv152 = 80
this$ = 112
Id$ = 120
ppPin$ = 128
?FindPin@CTransformFilter@@UEAAJPEB_WPEAPEAUIPin@@@Z PROC ; CTransformFilter::FindPin, COMDAT
; Line 144
$LN16:
	mov	QWORD PTR [rsp+24], r8
	mov	QWORD PTR [rsp+16], rdx
	mov	QWORD PTR [rsp+8], rcx
	push	rdi
	sub	rsp, 96					; 00000060H
	mov	rdi, rsp
	mov	ecx, 24
	mov	eax, -858993460				; ccccccccH
	rep stosd
	mov	rcx, QWORD PTR [rsp+112]
; Line 145
	cmp	QWORD PTR ppPin$[rsp], 0
	jne	SHORT $LN9@FindPin
	mov	eax, -2147467261			; ffffffff80004003H
	jmp	$LN10@FindPin
$LN9@FindPin:
; Line 146
	mov	edx, 8
	mov	rcx, QWORD PTR ppPin$[rsp]
	call	QWORD PTR __imp_IsBadReadPtr
	cmp	eax, 1
	jne	SHORT $LN8@FindPin
	mov	r8d, 146				; 00000092H
	lea	rdx, OFFSET FLAT:$SG82307
	lea	rcx, OFFSET FLAT:$SG82308
	call	?DbgBreakPoint@@YAXPEB_W0H@Z		; DbgBreakPoint
$LN8@FindPin:
	mov	edx, 8
	mov	rcx, QWORD PTR ppPin$[rsp]
	call	QWORD PTR __imp_IsBadWritePtr
	cmp	eax, 1
	jne	SHORT $LN7@FindPin
	mov	r8d, 146				; 00000092H
	lea	rdx, OFFSET FLAT:$SG82312
	lea	rcx, OFFSET FLAT:$SG82313
	call	?DbgBreakPoint@@YAXPEB_W0H@Z		; DbgBreakPoint
$LN7@FindPin:
; Line 148
	lea	rdx, OFFSET FLAT:$SG82315
	mov	rcx, QWORD PTR Id$[rsp]
	call	QWORD PTR __imp_lstrcmpW
	test	eax, eax
	jne	SHORT $LN6@FindPin
; Line 149
	mov	rax, QWORD PTR this$[rsp]
	sub	rax, 32					; 00000020H
	mov	rcx, QWORD PTR this$[rsp]
	mov	rcx, QWORD PTR [rcx-32]
	mov	QWORD PTR tv167[rsp], rcx
	xor	edx, edx
	mov	rcx, rax
	mov	rax, QWORD PTR tv167[rsp]
	call	QWORD PTR [rax+56]
	mov	QWORD PTR tv131[rsp], rax
	cmp	QWORD PTR tv131[rsp], 0
	je	SHORT $LN12@FindPin
	mov	rax, QWORD PTR tv131[rsp]
	add	rax, 32					; 00000020H
	mov	QWORD PTR tv130[rsp], rax
	jmp	SHORT $LN13@FindPin
$LN12@FindPin:
	mov	QWORD PTR tv130[rsp], 0
$LN13@FindPin:
	mov	rax, QWORD PTR ppPin$[rsp]
	mov	rcx, QWORD PTR tv130[rsp]
	mov	QWORD PTR [rax], rcx
	jmp	$LN5@FindPin
$LN6@FindPin:
; Line 150
	lea	rdx, OFFSET FLAT:$SG82318
	mov	rcx, QWORD PTR Id$[rsp]
	call	QWORD PTR __imp_lstrcmpW
	test	eax, eax
	jne	SHORT $LN4@FindPin
; Line 151
	mov	rax, QWORD PTR this$[rsp]
	sub	rax, 32					; 00000020H
	mov	rcx, QWORD PTR this$[rsp]
	mov	rcx, QWORD PTR [rcx-32]
	mov	QWORD PTR tv166[rsp], rcx
	mov	edx, 1
	mov	rcx, rax
	mov	rax, QWORD PTR tv166[rsp]
	call	QWORD PTR [rax+56]
	mov	QWORD PTR tv153[rsp], rax
	cmp	QWORD PTR tv153[rsp], 0
	je	SHORT $LN14@FindPin
	mov	rax, QWORD PTR tv153[rsp]
	add	rax, 32					; 00000020H
	mov	QWORD PTR tv152[rsp], rax
	jmp	SHORT $LN15@FindPin
$LN14@FindPin:
	mov	QWORD PTR tv152[rsp], 0
$LN15@FindPin:
	mov	rax, QWORD PTR ppPin$[rsp]
	mov	rcx, QWORD PTR tv152[rsp]
	mov	QWORD PTR [rax], rcx
; Line 152
	jmp	SHORT $LN3@FindPin
$LN4@FindPin:
; Line 153
	mov	rax, QWORD PTR ppPin$[rsp]
	mov	QWORD PTR [rax], 0
; Line 154
	mov	eax, -2147220970			; ffffffff80040216H
	jmp	SHORT $LN10@FindPin
$LN3@FindPin:
$LN5@FindPin:
; Line 157
	mov	DWORD PTR hr$[rsp], 0
; Line 159
	mov	rax, QWORD PTR ppPin$[rsp]
	cmp	QWORD PTR [rax], 0
	je	SHORT $LN2@FindPin
; Line 160
	mov	rax, QWORD PTR ppPin$[rsp]
	mov	rax, QWORD PTR [rax]
	mov	rcx, QWORD PTR ppPin$[rsp]
	mov	rcx, QWORD PTR [rcx]
	mov	rax, QWORD PTR [rax]
	call	QWORD PTR [rax+8]
; Line 161
	jmp	SHORT $LN1@FindPin
$LN2@FindPin:
; Line 162
	mov	DWORD PTR hr$[rsp], -2147024882		; ffffffff8007000eH
$LN1@FindPin:
; Line 164
	mov	eax, DWORD PTR hr$[rsp]
$LN10@FindPin:
; Line 165
	add	rsp, 96					; 00000060H
	pop	rdi
	ret	0
?FindPin@CTransformFilter@@UEAAJPEB_WPEAPEAUIPin@@@Z ENDP ; CTransformFilter::FindPin
_TEXT	ENDS
PUBLIC	?StartStreaming@CTransformFilter@@UEAAJXZ	; CTransformFilter::StartStreaming
;	COMDAT pdata
pdata	SEGMENT
$pdata$?StartStreaming@CTransformFilter@@UEAAJXZ DD imagerel $LN3
	DD	imagerel $LN3+10
	DD	imagerel $unwind$?StartStreaming@CTransformFilter@@UEAAJXZ
pdata	ENDS
;	COMDAT xdata
xdata	SEGMENT
$unwind$?StartStreaming@CTransformFilter@@UEAAJXZ DD 010601H
	DD	07006H
; Function compile flags: /Odtp /RTCsu
xdata	ENDS
;	COMDAT ?StartStreaming@CTransformFilter@@UEAAJXZ
_TEXT	SEGMENT
this$ = 16
?StartStreaming@CTransformFilter@@UEAAJXZ PROC		; CTransformFilter::StartStreaming, COMDAT
; Line 173
$LN3:
	mov	QWORD PTR [rsp+8], rcx
	push	rdi
; Line 174
	xor	eax, eax
; Line 175
	pop	rdi
	ret	0
?StartStreaming@CTransformFilter@@UEAAJXZ ENDP		; CTransformFilter::StartStreaming
_TEXT	ENDS
PUBLIC	?StopStreaming@CTransformFilter@@UEAAJXZ	; CTransformFilter::StopStreaming
;	COMDAT pdata
pdata	SEGMENT
$pdata$?StopStreaming@CTransformFilter@@UEAAJXZ DD imagerel $LN3
	DD	imagerel $LN3+10
	DD	imagerel $unwind$?StopStreaming@CTransformFilter@@UEAAJXZ
pdata	ENDS
;	COMDAT xdata
xdata	SEGMENT
$unwind$?StopStreaming@CTransformFilter@@UEAAJXZ DD 010601H
	DD	07006H
; Function compile flags: /Odtp /RTCsu
xdata	ENDS
;	COMDAT ?StopStreaming@CTransformFilter@@UEAAJXZ
_TEXT	SEGMENT
this$ = 16
?StopStreaming@CTransformFilter@@UEAAJXZ PROC		; CTransformFilter::StopStreaming, COMDAT
; Line 180
$LN3:
	mov	QWORD PTR [rsp+8], rcx
	push	rdi
; Line 181
	xor	eax, eax
; Line 182
	pop	rdi
	ret	0
?StopStreaming@CTransformFilter@@UEAAJXZ ENDP		; CTransformFilter::StopStreaming
_TEXT	ENDS
PUBLIC	?CheckConnect@CTransformFilter@@UEAAJW4_PinDirection@@PEAUIPin@@@Z ; CTransformFilter::CheckConnect
;	COMDAT pdata
pdata	SEGMENT
$pdata$?CheckConnect@CTransformFilter@@UEAAJW4_PinDirection@@PEAUIPin@@@Z DD imagerel $LN3
	DD	imagerel $LN3+19
	DD	imagerel $unwind$?CheckConnect@CTransformFilter@@UEAAJW4_PinDirection@@PEAUIPin@@@Z
pdata	ENDS
;	COMDAT xdata
xdata	SEGMENT
$unwind$?CheckConnect@CTransformFilter@@UEAAJW4_PinDirection@@PEAUIPin@@@Z DD 010f01H
	DD	0700fH
; Function compile flags: /Odtp /RTCsu
xdata	ENDS
;	COMDAT ?CheckConnect@CTransformFilter@@UEAAJW4_PinDirection@@PEAUIPin@@@Z
_TEXT	SEGMENT
this$ = 16
dir$ = 24
pPin$ = 32
?CheckConnect@CTransformFilter@@UEAAJW4_PinDirection@@PEAUIPin@@@Z PROC ; CTransformFilter::CheckConnect, COMDAT
; Line 189
$LN3:
	mov	QWORD PTR [rsp+24], r8
	mov	DWORD PTR [rsp+16], edx
	mov	QWORD PTR [rsp+8], rcx
	push	rdi
; Line 192
	xor	eax, eax
; Line 193
	pop	rdi
	ret	0
?CheckConnect@CTransformFilter@@UEAAJW4_PinDirection@@PEAUIPin@@@Z ENDP ; CTransformFilter::CheckConnect
_TEXT	ENDS
PUBLIC	?BreakConnect@CTransformFilter@@UEAAJW4_PinDirection@@@Z ; CTransformFilter::BreakConnect
;	COMDAT pdata
pdata	SEGMENT
$pdata$?BreakConnect@CTransformFilter@@UEAAJW4_PinDirection@@@Z DD imagerel $LN3
	DD	imagerel $LN3+14
	DD	imagerel $unwind$?BreakConnect@CTransformFilter@@UEAAJW4_PinDirection@@@Z
pdata	ENDS
;	COMDAT xdata
xdata	SEGMENT
$unwind$?BreakConnect@CTransformFilter@@UEAAJW4_PinDirection@@@Z DD 010a01H
	DD	0700aH
; Function compile flags: /Odtp /RTCsu
xdata	ENDS
;	COMDAT ?BreakConnect@CTransformFilter@@UEAAJW4_PinDirection@@@Z
_TEXT	SEGMENT
this$ = 16
dir$ = 24
?BreakConnect@CTransformFilter@@UEAAJW4_PinDirection@@@Z PROC ; CTransformFilter::BreakConnect, COMDAT
; Line 200
$LN3:
	mov	DWORD PTR [rsp+16], edx
	mov	QWORD PTR [rsp+8], rcx
	push	rdi
; Line 202
	xor	eax, eax
; Line 203
	pop	rdi
	ret	0
?BreakConnect@CTransformFilter@@UEAAJW4_PinDirection@@@Z ENDP ; CTransformFilter::BreakConnect
_TEXT	ENDS
PUBLIC	?CompleteConnect@CTransformFilter@@UEAAJW4_PinDirection@@PEAUIPin@@@Z ; CTransformFilter::CompleteConnect
;	COMDAT pdata
pdata	SEGMENT
$pdata$?CompleteConnect@CTransformFilter@@UEAAJW4_PinDirection@@PEAUIPin@@@Z DD imagerel $LN3
	DD	imagerel $LN3+19
	DD	imagerel $unwind$?CompleteConnect@CTransformFilter@@UEAAJW4_PinDirection@@PEAUIPin@@@Z
pdata	ENDS
;	COMDAT xdata
xdata	SEGMENT
$unwind$?CompleteConnect@CTransformFilter@@UEAAJW4_PinDirection@@PEAUIPin@@@Z DD 010f01H
	DD	0700fH
; Function compile flags: /Odtp /RTCsu
xdata	ENDS
;	COMDAT ?CompleteConnect@CTransformFilter@@UEAAJW4_PinDirection@@PEAUIPin@@@Z
_TEXT	SEGMENT
this$ = 16
direction$ = 24
pReceivePin$ = 32
?CompleteConnect@CTransformFilter@@UEAAJW4_PinDirection@@PEAUIPin@@@Z PROC ; CTransformFilter::CompleteConnect, COMDAT
; Line 210
$LN3:
	mov	QWORD PTR [rsp+24], r8
	mov	DWORD PTR [rsp+16], edx
	mov	QWORD PTR [rsp+8], rcx
	push	rdi
; Line 213
	xor	eax, eax
; Line 214
	pop	rdi
	ret	0
?CompleteConnect@CTransformFilter@@UEAAJW4_PinDirection@@PEAUIPin@@@Z ENDP ; CTransformFilter::CompleteConnect
_TEXT	ENDS
PUBLIC	?SetMediaType@CTransformFilter@@UEAAJW4_PinDirection@@PEBVCMediaType@@@Z ; CTransformFilter::SetMediaType
;	COMDAT pdata
pdata	SEGMENT
$pdata$?SetMediaType@CTransformFilter@@UEAAJW4_PinDirection@@PEBVCMediaType@@@Z DD imagerel $LN3
	DD	imagerel $LN3+19
	DD	imagerel $unwind$?SetMediaType@CTransformFilter@@UEAAJW4_PinDirection@@PEBVCMediaType@@@Z
pdata	ENDS
;	COMDAT xdata
xdata	SEGMENT
$unwind$?SetMediaType@CTransformFilter@@UEAAJW4_PinDirection@@PEBVCMediaType@@@Z DD 010f01H
	DD	0700fH
; Function compile flags: /Odtp /RTCsu
xdata	ENDS
;	COMDAT ?SetMediaType@CTransformFilter@@UEAAJW4_PinDirection@@PEBVCMediaType@@@Z
_TEXT	SEGMENT
this$ = 16
direction$ = 24
pmt$ = 32
?SetMediaType@CTransformFilter@@UEAAJW4_PinDirection@@PEBVCMediaType@@@Z PROC ; CTransformFilter::SetMediaType, COMDAT
; Line 221
$LN3:
	mov	QWORD PTR [rsp+24], r8
	mov	DWORD PTR [rsp+16], edx
	mov	QWORD PTR [rsp+8], rcx
	push	rdi
; Line 224
	xor	eax, eax
; Line 225
	pop	rdi
	ret	0
?SetMediaType@CTransformFilter@@UEAAJW4_PinDirection@@PEBVCMediaType@@@Z ENDP ; CTransformFilter::SetMediaType
_TEXT	ENDS
PUBLIC	?SampleProps@CBaseInputPin@@QEAAPEAUtagAM_SAMPLE2_PROPERTIES@@XZ ; CBaseInputPin::SampleProps
PUBLIC	?InitializeOutputSample@CTransformFilter@@QEAAJPEAUIMediaSample@@PEAPEAU2@@Z ; CTransformFilter::InitializeOutputSample
EXTRN	IID_IMediaSample2:BYTE
;	COMDAT pdata
pdata	SEGMENT
$pdata$?InitializeOutputSample@CTransformFilter@@QEAAJPEAUIMediaSample@@PEAPEAU2@@Z DD imagerel $LN21
	DD	imagerel $LN21+993
	DD	imagerel $unwind$?InitializeOutputSample@CTransformFilter@@QEAAJPEAUIMediaSample@@PEAPEAU2@@Z
pdata	ENDS
;	COMDAT xdata
xdata	SEGMENT
$unwind$?InitializeOutputSample@CTransformFilter@@QEAAJPEAUIMediaSample@@PEAPEAU2@@Z DD 032e01H
	DD	0260117H
	DD	07010H
xdata	ENDS
;	COMDAT CONST
CONST	SEGMENT
?InitializeOutputSample@CTransformFilter@@QEAAJPEAUIMediaSample@@PEAPEAU2@@Z$rtcName$0 DB 070H ; CTransformFilter::InitializeOutputSample
	DB	04fH
	DB	075H
	DB	074H
	DB	053H
	DB	061H
	DB	06dH
	DB	070H
	DB	06cH
	DB	065H
	DB	00H
	ORG $+5
?InitializeOutputSample@CTransformFilter@@QEAAJPEAUIMediaSample@@PEAPEAU2@@Z$rtcName$1 DB 070H ; CTransformFilter::InitializeOutputSample
	DB	04fH
	DB	075H
	DB	074H
	DB	053H
	DB	061H
	DB	06dH
	DB	070H
	DB	06cH
	DB	065H
	DB	032H
	DB	00H
	ORG $+4
?InitializeOutputSample@CTransformFilter@@QEAAJPEAUIMediaSample@@PEAPEAU2@@Z$rtcName$2 DB 04fH ; CTransformFilter::InitializeOutputSample
	DB	075H
	DB	074H
	DB	050H
	DB	072H
	DB	06fH
	DB	070H
	DB	073H
	DB	00H
	ORG $+7
?InitializeOutputSample@CTransformFilter@@QEAAJPEAUIMediaSample@@PEAPEAU2@@Z$rtcName$3 DB 04dH ; CTransformFilter::InitializeOutputSample
	DB	065H
	DB	064H
	DB	069H
	DB	061H
	DB	053H
	DB	074H
	DB	061H
	DB	072H
	DB	074H
	DB	00H
	ORG $+5
?InitializeOutputSample@CTransformFilter@@QEAAJPEAUIMediaSample@@PEAPEAU2@@Z$rtcName$4 DB 04dH ; CTransformFilter::InitializeOutputSample
	DB	065H
	DB	064H
	DB	069H
	DB	061H
	DB	045H
	DB	06eH
	DB	064H
	DB	00H
	ORG $+7
?InitializeOutputSample@CTransformFilter@@QEAAJPEAUIMediaSample@@PEAPEAU2@@Z$rtcVarDesc DD 0108H ; CTransformFilter::InitializeOutputSample
	DD	08H
	DQ	FLAT:?InitializeOutputSample@CTransformFilter@@QEAAJPEAUIMediaSample@@PEAPEAU2@@Z$rtcName$4
	DD	0e8H
	DD	08H
	DQ	FLAT:?InitializeOutputSample@CTransformFilter@@QEAAJPEAUIMediaSample@@PEAPEAU2@@Z$rtcName$3
	DD	090H
	DD	040H
	DQ	FLAT:?InitializeOutputSample@CTransformFilter@@QEAAJPEAUIMediaSample@@PEAPEAU2@@Z$rtcName$2
	DD	068H
	DD	08H
	DQ	FLAT:?InitializeOutputSample@CTransformFilter@@QEAAJPEAUIMediaSample@@PEAPEAU2@@Z$rtcName$1
	DD	038H
	DD	08H
	DQ	FLAT:?InitializeOutputSample@CTransformFilter@@QEAAJPEAUIMediaSample@@PEAPEAU2@@Z$rtcName$0
	ORG $+240
?InitializeOutputSample@CTransformFilter@@QEAAJPEAUIMediaSample@@PEAPEAU2@@Z$rtcFrameData DD 05H ; CTransformFilter::InitializeOutputSample
	DD	00H
	DQ	FLAT:?InitializeOutputSample@CTransformFilter@@QEAAJPEAUIMediaSample@@PEAPEAU2@@Z$rtcVarDesc
; Function compile flags: /Odtp /RTCsu
CONST	ENDS
;	COMDAT ?InitializeOutputSample@CTransformFilter@@QEAAJPEAUIMediaSample@@PEAPEAU2@@Z
_TEXT	SEGMENT
pOutSample$ = 56
pProps$ = 72
dwFlags$ = 80
hr$ = 84
pOutSample2$ = 104
OutProps$82372 = 144
MediaStart$82393 = 232
MediaEnd$82394 = 264
tv73 = 276
tv139 = 280
tv145 = 288
tv239 = 296
this$ = 320
pSample$ = 328
ppOutSample$ = 336
?InitializeOutputSample@CTransformFilter@@QEAAJPEAUIMediaSample@@PEAPEAU2@@Z PROC ; CTransformFilter::InitializeOutputSample, COMDAT
; Line 231
$LN21:
	mov	QWORD PTR [rsp+24], r8
	mov	QWORD PTR [rsp+16], rdx
	mov	QWORD PTR [rsp+8], rcx
	push	rdi
	sub	rsp, 304				; 00000130H
	mov	rdi, rsp
	mov	ecx, 76					; 0000004cH
	mov	eax, -858993460				; ccccccccH
	rep stosd
	mov	rcx, QWORD PTR [rsp+320]
; Line 236
	mov	rax, QWORD PTR this$[rsp]
	mov	rcx, QWORD PTR [rax+256]
	call	?SampleProps@CBaseInputPin@@QEAAPEAUtagAM_SAMPLE2_PROPERTIES@@XZ ; CBaseInputPin::SampleProps
	mov	QWORD PTR pProps$[rsp], rax
; Line 237
	mov	rax, QWORD PTR this$[rsp]
	cmp	DWORD PTR [rax+132], 0
	je	SHORT $LN15@Initialize
	mov	DWORD PTR tv73[rsp], 1
	jmp	SHORT $LN16@Initialize
$LN15@Initialize:
	mov	DWORD PTR tv73[rsp], 0
$LN16@Initialize:
	mov	eax, DWORD PTR tv73[rsp]
	mov	DWORD PTR dwFlags$[rsp], eax
; Line 243
	mov	rax, QWORD PTR pProps$[rsp]
	mov	eax, DWORD PTR [rax+8]
	and	eax, 1
	test	eax, eax
	jne	SHORT $LN12@Initialize
; Line 244
	mov	eax, DWORD PTR dwFlags$[rsp]
	or	eax, 2
	mov	DWORD PTR dwFlags$[rsp], eax
$LN12@Initialize:
; Line 247
	mov	rax, QWORD PTR this$[rsp]
	mov	rax, QWORD PTR [rax+264]
	cmp	QWORD PTR [rax+232], 0
	jne	SHORT $LN11@Initialize
	mov	r8d, 247				; 000000f7H
	lea	rdx, OFFSET FLAT:$SG82360
	lea	rcx, OFFSET FLAT:$SG82361
	call	?DbgAssert@@YAXPEB_W0H@Z		; DbgAssert
$LN11@Initialize:
; Line 255
	mov	rax, QWORD PTR pProps$[rsp]
	mov	eax, DWORD PTR [rax+8]
	and	eax, 256				; 00000100H
	test	eax, eax
	je	SHORT $LN17@Initialize
	mov	rax, QWORD PTR pProps$[rsp]
	add	rax, 24
	mov	QWORD PTR tv139[rsp], rax
	jmp	SHORT $LN18@Initialize
$LN17@Initialize:
	mov	QWORD PTR tv139[rsp], 0
$LN18@Initialize:
	mov	rax, QWORD PTR pProps$[rsp]
	mov	eax, DWORD PTR [rax+8]
	and	eax, 16
	test	eax, eax
	je	SHORT $LN19@Initialize
	mov	rax, QWORD PTR pProps$[rsp]
	add	rax, 16
	mov	QWORD PTR tv145[rsp], rax
	jmp	SHORT $LN20@Initialize
$LN19@Initialize:
	mov	QWORD PTR tv145[rsp], 0
$LN20@Initialize:
	mov	rax, QWORD PTR this$[rsp]
	mov	rax, QWORD PTR [rax+264]
	mov	rax, QWORD PTR [rax+232]
	mov	rcx, QWORD PTR this$[rsp]
	mov	rcx, QWORD PTR [rcx+264]
	mov	rcx, QWORD PTR [rcx+232]
	mov	rax, QWORD PTR [rax]
	mov	edx, DWORD PTR dwFlags$[rsp]
	mov	DWORD PTR [rsp+32], edx
	mov	r9, QWORD PTR tv139[rsp]
	mov	r8, QWORD PTR tv145[rsp]
	lea	rdx, QWORD PTR pOutSample$[rsp]
	call	QWORD PTR [rax+56]
	mov	DWORD PTR hr$[rsp], eax
; Line 256
	mov	rax, QWORD PTR ppOutSample$[rsp]
	mov	rcx, QWORD PTR pOutSample$[rsp]
	mov	QWORD PTR [rax], rcx
; Line 257
	cmp	DWORD PTR hr$[rsp], 0
	jge	SHORT $LN10@Initialize
; Line 258
	mov	eax, DWORD PTR hr$[rsp]
	jmp	$LN13@Initialize
$LN10@Initialize:
; Line 261
	cmp	QWORD PTR pOutSample$[rsp], 0
	jne	SHORT $LN9@Initialize
	mov	r8d, 261				; 00000105H
	lea	rdx, OFFSET FLAT:$SG82366
	lea	rcx, OFFSET FLAT:$SG82367
	call	?DbgAssert@@YAXPEB_W0H@Z		; DbgAssert
$LN9@Initialize:
; Line 264
	mov	rax, QWORD PTR pOutSample$[rsp]
	mov	rax, QWORD PTR [rax]
	lea	r8, QWORD PTR pOutSample2$[rsp]
	lea	rdx, OFFSET FLAT:IID_IMediaSample2
	mov	rcx, QWORD PTR pOutSample$[rsp]
	call	QWORD PTR [rax]
	test	eax, eax
	jl	$LN8@Initialize
; Line 269
	mov	rax, QWORD PTR pOutSample2$[rsp]
	mov	rax, QWORD PTR [rax]
	lea	r8, QWORD PTR OutProps$82372[rsp]
	mov	edx, 16
	mov	rcx, QWORD PTR pOutSample2$[rsp]
	call	QWORD PTR [rax+152]
	test	eax, eax
	jge	SHORT $LN7@Initialize
	mov	r8d, 269				; 0000010dH
	lea	rdx, OFFSET FLAT:$SG82379
	lea	rcx, OFFSET FLAT:$SG82380
	call	?DbgAssert@@YAXPEB_W0H@Z		; DbgAssert
$LN7@Initialize:
; Line 270
	mov	rax, QWORD PTR pProps$[rsp]
	mov	eax, DWORD PTR [rax+4]
	mov	DWORD PTR OutProps$82372[rsp+4], eax
; Line 273
	mov	eax, DWORD PTR OutProps$82372[rsp+8]
	and	eax, 8
	mov	rcx, QWORD PTR pProps$[rsp]
	mov	ecx, DWORD PTR [rcx+8]
	and	ecx, -9					; fffffff7H
	or	eax, ecx
	mov	DWORD PTR OutProps$82372[rsp+8], eax
; Line 274
	mov	rax, QWORD PTR pProps$[rsp]
	mov	rax, QWORD PTR [rax+16]
	mov	QWORD PTR OutProps$82372[rsp+16], rax
; Line 275
	mov	rax, QWORD PTR pProps$[rsp]
	mov	rax, QWORD PTR [rax+24]
	mov	QWORD PTR OutProps$82372[rsp+24], rax
; Line 276
	mov	DWORD PTR OutProps$82372[rsp], 32	; 00000020H
; Line 280
	mov	rax, QWORD PTR pOutSample2$[rsp]
	mov	rax, QWORD PTR [rax]
	lea	r8, QWORD PTR OutProps$82372[rsp]
	mov	edx, 32					; 00000020H
	mov	rcx, QWORD PTR pOutSample2$[rsp]
	call	QWORD PTR [rax+160]
	mov	DWORD PTR hr$[rsp], eax
; Line 281
	mov	rax, QWORD PTR pProps$[rsp]
	mov	eax, DWORD PTR [rax+8]
	and	eax, 4
	test	eax, eax
	je	SHORT $LN6@Initialize
; Line 282
	mov	rax, QWORD PTR this$[rsp]
	mov	DWORD PTR [rax+132], 0
$LN6@Initialize:
; Line 284
	mov	rax, QWORD PTR pOutSample2$[rsp]
	mov	rax, QWORD PTR [rax]
	mov	rcx, QWORD PTR pOutSample2$[rsp]
	call	QWORD PTR [rax+16]
; Line 285
	jmp	$LN5@Initialize
$LN8@Initialize:
; Line 286
	mov	rax, QWORD PTR pProps$[rsp]
	mov	eax, DWORD PTR [rax+8]
	and	eax, 16
	test	eax, eax
	je	SHORT $LN4@Initialize
; Line 288
	mov	rax, QWORD PTR pProps$[rsp]
	add	rax, 24
	mov	rcx, QWORD PTR pProps$[rsp]
	add	rcx, 16
	mov	rdx, QWORD PTR pOutSample$[rsp]
	mov	rdx, QWORD PTR [rdx]
	mov	QWORD PTR tv239[rsp], rdx
	mov	r8, rax
	mov	rdx, rcx
	mov	rcx, QWORD PTR pOutSample$[rsp]
	mov	rax, QWORD PTR tv239[rsp]
	call	QWORD PTR [rax+48]
$LN4@Initialize:
; Line 290
	mov	rax, QWORD PTR pProps$[rsp]
	mov	eax, DWORD PTR [rax+8]
	and	eax, 1
	test	eax, eax
	je	SHORT $LN3@Initialize
; Line 291
	mov	rax, QWORD PTR pOutSample$[rsp]
	mov	rax, QWORD PTR [rax]
	mov	edx, 1
	mov	rcx, QWORD PTR pOutSample$[rsp]
	call	QWORD PTR [rax+64]
$LN3@Initialize:
; Line 293
	mov	rax, QWORD PTR pProps$[rsp]
	mov	eax, DWORD PTR [rax+8]
	and	eax, 4
	test	eax, eax
	je	SHORT $LN2@Initialize
; Line 294
	mov	rax, QWORD PTR pOutSample$[rsp]
	mov	rax, QWORD PTR [rax]
	mov	edx, 1
	mov	rcx, QWORD PTR pOutSample$[rsp]
	call	QWORD PTR [rax+128]
; Line 295
	mov	rax, QWORD PTR this$[rsp]
	mov	DWORD PTR [rax+132], 0
$LN2@Initialize:
; Line 300
	mov	rax, QWORD PTR pSample$[rsp]
	mov	rax, QWORD PTR [rax]
	lea	r8, QWORD PTR MediaEnd$82394[rsp]
	lea	rdx, QWORD PTR MediaStart$82393[rsp]
	mov	rcx, QWORD PTR pSample$[rsp]
	call	QWORD PTR [rax+136]
	test	eax, eax
	jne	SHORT $LN1@Initialize
; Line 301
	mov	rax, QWORD PTR pOutSample$[rsp]
	mov	rax, QWORD PTR [rax]
	lea	r8, QWORD PTR MediaEnd$82394[rsp]
	lea	rdx, QWORD PTR MediaStart$82393[rsp]
	mov	rcx, QWORD PTR pOutSample$[rsp]
	call	QWORD PTR [rax+144]
$LN1@Initialize:
$LN5@Initialize:
; Line 304
	xor	eax, eax
$LN13@Initialize:
; Line 305
	mov	rdi, rax
	mov	rcx, rsp
	lea	rdx, OFFSET FLAT:?InitializeOutputSample@CTransformFilter@@QEAAJPEAUIMediaSample@@PEAPEAU2@@Z$rtcFrameData
	call	_RTC_CheckStackVars
	mov	rax, rdi
	add	rsp, 304				; 00000130H
	pop	rdi
	ret	0
?InitializeOutputSample@CTransformFilter@@QEAAJPEAUIMediaSample@@PEAPEAU2@@Z ENDP ; CTransformFilter::InitializeOutputSample
_TEXT	ENDS
PUBLIC	??_C@_1DE@JPFPKCAE@?$AAm?$AA_?$AAS?$AAa?$AAm?$AAp?$AAl?$AAe?$AAP?$AAr?$AAo?$AAp?$AAs?$AA?4?$AAc?$AAb?$AAD?$AAa?$AAt?$AAa?$AA?5?$AA?$CB?$AA?$DN?$AA?5?$AA0?$AA?$AA@ ; `string'
PUBLIC	??_C@_1II@PJBFDIOC@?$AAC?$AA?3?$AA?2?$AAD?$AAo?$AAw?$AAn?$AAl?$AAo?$AAa?$AAd?$AAs?$AA?2?$AAW?$AAP?$AAF?$AA?5?$AAM?$AAe?$AAd?$AAi?$AAa?$AAK?$AAi?$AAt?$AA?5?$AA?9?$AA?5?$AAC?$AAo?$AAp?$AAy@ ; `string'
;	COMDAT pdata
; File c:\downloads\wpf mediakit - copy\src\filters\baseclasses\amfilter.h
pdata	SEGMENT
$pdata$?SampleProps@CBaseInputPin@@QEAAPEAUtagAM_SAMPLE2_PROPERTIES@@XZ DD imagerel $LN4
	DD	imagerel $LN4+86
	DD	imagerel $unwind$?SampleProps@CBaseInputPin@@QEAAPEAUtagAM_SAMPLE2_PROPERTIES@@XZ
pdata	ENDS
;	COMDAT xdata
xdata	SEGMENT
$unwind$?SampleProps@CBaseInputPin@@QEAAPEAUtagAM_SAMPLE2_PROPERTIES@@XZ DD 021e01H
	DD	07006320aH
xdata	ENDS
;	COMDAT ??_C@_1DE@JPFPKCAE@?$AAm?$AA_?$AAS?$AAa?$AAm?$AAp?$AAl?$AAe?$AAP?$AAr?$AAo?$AAp?$AAs?$AA?4?$AAc?$AAb?$AAD?$AAa?$AAt?$AAa?$AA?5?$AA?$CB?$AA?$DN?$AA?5?$AA0?$AA?$AA@
CONST	SEGMENT
??_C@_1DE@JPFPKCAE@?$AAm?$AA_?$AAS?$AAa?$AAm?$AAp?$AAl?$AAe?$AAP?$AAr?$AAo?$AAp?$AAs?$AA?4?$AAc?$AAb?$AAD?$AAa?$AAt?$AAa?$AA?5?$AA?$CB?$AA?$DN?$AA?5?$AA0?$AA?$AA@ DB 'm'
	DB	00H, '_', 00H, 'S', 00H, 'a', 00H, 'm', 00H, 'p', 00H, 'l', 00H
	DB	'e', 00H, 'P', 00H, 'r', 00H, 'o', 00H, 'p', 00H, 's', 00H, '.'
	DB	00H, 'c', 00H, 'b', 00H, 'D', 00H, 'a', 00H, 't', 00H, 'a', 00H
	DB	' ', 00H, '!', 00H, '=', 00H, ' ', 00H, '0', 00H, 00H, 00H ; `string'
CONST	ENDS
;	COMDAT ??_C@_1II@PJBFDIOC@?$AAC?$AA?3?$AA?2?$AAD?$AAo?$AAw?$AAn?$AAl?$AAo?$AAa?$AAd?$AAs?$AA?2?$AAW?$AAP?$AAF?$AA?5?$AAM?$AAe?$AAd?$AAi?$AAa?$AAK?$AAi?$AAt?$AA?5?$AA?9?$AA?5?$AAC?$AAo?$AAp?$AAy@
CONST	SEGMENT
??_C@_1II@PJBFDIOC@?$AAC?$AA?3?$AA?2?$AAD?$AAo?$AAw?$AAn?$AAl?$AAo?$AAa?$AAd?$AAs?$AA?2?$AAW?$AAP?$AAF?$AA?5?$AAM?$AAe?$AAd?$AAi?$AAa?$AAK?$AAi?$AAt?$AA?5?$AA?9?$AA?5?$AAC?$AAo?$AAp?$AAy@ DB 'C'
	DB	00H, ':', 00H, '\', 00H, 'D', 00H, 'o', 00H, 'w', 00H, 'n', 00H
	DB	'l', 00H, 'o', 00H, 'a', 00H, 'd', 00H, 's', 00H, '\', 00H, 'W'
	DB	00H, 'P', 00H, 'F', 00H, ' ', 00H, 'M', 00H, 'e', 00H, 'd', 00H
	DB	'i', 00H, 'a', 00H, 'K', 00H, 'i', 00H, 't', 00H, ' ', 00H, '-'
	DB	00H, ' ', 00H, 'C', 00H, 'o', 00H, 'p', 00H, 'y', 00H, '\', 00H
	DB	's', 00H, 'r', 00H, 'c', 00H, '\', 00H, 'f', 00H, 'i', 00H, 'l'
	DB	00H, 't', 00H, 'e', 00H, 'r', 00H, 's', 00H, '\', 00H, 'B', 00H
	DB	'a', 00H, 's', 00H, 'e', 00H, 'C', 00H, 'l', 00H, 'a', 00H, 's'
	DB	00H, 's', 00H, 'e', 00H, 's', 00H, '\', 00H, 'a', 00H, 'm', 00H
	DB	'f', 00H, 'i', 00H, 'l', 00H, 't', 00H, 'e', 00H, 'r', 00H, '.'
	DB	00H, 'h', 00H, 00H, 00H			; `string'
; Function compile flags: /Odtp /RTCsu
CONST	ENDS
;	COMDAT ?SampleProps@CBaseInputPin@@QEAAPEAUtagAM_SAMPLE2_PROPERTIES@@XZ
_TEXT	SEGMENT
this$ = 48
?SampleProps@CBaseInputPin@@QEAAPEAUtagAM_SAMPLE2_PROPERTIES@@XZ PROC ; CBaseInputPin::SampleProps, COMDAT
; Line 938
$LN4:
	mov	QWORD PTR [rsp+8], rcx
	push	rdi
	sub	rsp, 32					; 00000020H
	mov	rdi, rsp
	mov	ecx, 8
	mov	eax, -858993460				; ccccccccH
	rep stosd
	mov	rcx, QWORD PTR [rsp+48]
; Line 939
	mov	rax, QWORD PTR this$[rsp]
	cmp	DWORD PTR [rax+256], 0
	jne	SHORT $LN1@SampleProp
	mov	r8d, 939				; 000003abH
	lea	rdx, OFFSET FLAT:??_C@_1II@PJBFDIOC@?$AAC?$AA?3?$AA?2?$AAD?$AAo?$AAw?$AAn?$AAl?$AAo?$AAa?$AAd?$AAs?$AA?2?$AAW?$AAP?$AAF?$AA?5?$AAM?$AAe?$AAd?$AAi?$AAa?$AAK?$AAi?$AAt?$AA?5?$AA?9?$AA?5?$AAC?$AAo?$AAp?$AAy@
	lea	rcx, OFFSET FLAT:??_C@_1DE@JPFPKCAE@?$AAm?$AA_?$AAS?$AAa?$AAm?$AAp?$AAl?$AAe?$AAP?$AAr?$AAo?$AAp?$AAs?$AA?4?$AAc?$AAb?$AAD?$AAa?$AAt?$AAa?$AA?5?$AA?$CB?$AA?$DN?$AA?5?$AA0?$AA?$AA@
	call	?DbgAssert@@YAXPEB_W0H@Z		; DbgAssert
$LN1@SampleProp:
; Line 940
	mov	rax, QWORD PTR this$[rsp]
	add	rax, 256				; 00000100H
; Line 941
	add	rsp, 32					; 00000020H
	pop	rdi
	ret	0
?SampleProps@CBaseInputPin@@QEAAPEAUtagAM_SAMPLE2_PROPERTIES@@XZ ENDP ; CBaseInputPin::SampleProps
_TEXT	ENDS
PUBLIC	?Receive@CTransformFilter@@UEAAJPEAUIMediaSample@@@Z ; CTransformFilter::Receive
EXTRN	?NotifyEvent@CBaseFilter@@QEAAJJ_J0@Z:PROC	; CBaseFilter::NotifyEvent
EXTRN	?DbgLogInfo@@YAXKKPEB_WZZ:PROC			; DbgLogInfo
;	COMDAT pdata
; File c:\downloads\wpf mediakit - copy\src\filters\baseclasses\transfrm.cpp
pdata	SEGMENT
$pdata$?Receive@CTransformFilter@@UEAAJPEAUIMediaSample@@@Z DD imagerel $LN13
	DD	imagerel $LN13+515
	DD	imagerel $unwind$?Receive@CTransformFilter@@UEAAJPEAUIMediaSample@@@Z
pdata	ENDS
;	COMDAT xdata
xdata	SEGMENT
$unwind$?Receive@CTransformFilter@@UEAAJPEAUIMediaSample@@@Z DD 022301H
	DD	0700b920fH
xdata	ENDS
;	COMDAT CONST
CONST	SEGMENT
?Receive@CTransformFilter@@UEAAJPEAUIMediaSample@@@Z$rtcName$0 DB 070H ; CTransformFilter::Receive
	DB	04fH
	DB	075H
	DB	074H
	DB	053H
	DB	061H
	DB	06dH
	DB	070H
	DB	06cH
	DB	065H
	DB	00H
	ORG $+5
?Receive@CTransformFilter@@UEAAJPEAUIMediaSample@@@Z$rtcVarDesc DD 038H ; CTransformFilter::Receive
	DD	08H
	DQ	FLAT:?Receive@CTransformFilter@@UEAAJPEAUIMediaSample@@@Z$rtcName$0
	ORG $+48
?Receive@CTransformFilter@@UEAAJPEAUIMediaSample@@@Z$rtcFrameData DD 01H ; CTransformFilter::Receive
	DD	00H
	DQ	FLAT:?Receive@CTransformFilter@@UEAAJPEAUIMediaSample@@@Z$rtcVarDesc
; Function compile flags: /Odtp /RTCsu
CONST	ENDS
;	COMDAT ?Receive@CTransformFilter@@UEAAJPEAUIMediaSample@@@Z
_TEXT	SEGMENT
pProps$ = 32
hr$ = 40
pOutSample$ = 56
this$ = 96
pSample$ = 104
?Receive@CTransformFilter@@UEAAJPEAUIMediaSample@@@Z PROC ; CTransformFilter::Receive, COMDAT
; Line 311
$LN13:
	mov	QWORD PTR [rsp+16], rdx
	mov	QWORD PTR [rsp+8], rcx
	push	rdi
	sub	rsp, 80					; 00000050H
	mov	rdi, rsp
	mov	ecx, 20
	mov	eax, -858993460				; ccccccccH
	rep stosd
	mov	rcx, QWORD PTR [rsp+96]
; Line 313
	mov	rax, QWORD PTR this$[rsp]
	mov	rcx, QWORD PTR [rax+256]
	call	?SampleProps@CBaseInputPin@@QEAAPEAUtagAM_SAMPLE2_PROPERTIES@@XZ ; CBaseInputPin::SampleProps
	mov	QWORD PTR pProps$[rsp], rax
; Line 314
	mov	rax, QWORD PTR pProps$[rsp]
	cmp	DWORD PTR [rax+32], 0
	je	SHORT $LN10@Receive
; Line 315
	mov	rax, QWORD PTR this$[rsp]
	mov	rax, QWORD PTR [rax+264]
	mov	rax, QWORD PTR [rax+240]
	mov	rcx, QWORD PTR this$[rsp]
	mov	rcx, QWORD PTR [rcx+264]
	mov	rcx, QWORD PTR [rcx+240]
	mov	rax, QWORD PTR [rax]
	mov	rdx, QWORD PTR pSample$[rsp]
	call	QWORD PTR [rax+48]
	jmp	$LN11@Receive
$LN10@Receive:
; Line 318
	cmp	QWORD PTR pSample$[rsp], 0
	jne	SHORT $LN9@Receive
	mov	r8d, 318				; 0000013eH
	lea	rdx, OFFSET FLAT:$SG82405
	lea	rcx, OFFSET FLAT:$SG82406
	call	?DbgAssert@@YAXPEB_W0H@Z		; DbgAssert
$LN9@Receive:
; Line 323
	mov	rax, QWORD PTR this$[rsp]
	cmp	QWORD PTR [rax+264], 0
	jne	SHORT $LN8@Receive
	mov	r8d, 323				; 00000143H
	lea	rdx, OFFSET FLAT:$SG82409
	lea	rcx, OFFSET FLAT:$SG82410
	call	?DbgAssert@@YAXPEB_W0H@Z		; DbgAssert
$LN8@Receive:
; Line 326
	lea	r8, QWORD PTR pOutSample$[rsp]
	mov	rdx, QWORD PTR pSample$[rsp]
	mov	rcx, QWORD PTR this$[rsp]
	call	?InitializeOutputSample@CTransformFilter@@QEAAJPEAUIMediaSample@@PEAPEAU2@@Z ; CTransformFilter::InitializeOutputSample
	mov	DWORD PTR hr$[rsp], eax
; Line 328
	cmp	DWORD PTR hr$[rsp], 0
	jge	SHORT $LN7@Receive
; Line 329
	mov	eax, DWORD PTR hr$[rsp]
	jmp	$LN11@Receive
$LN7@Receive:
; Line 337
	mov	rax, QWORD PTR this$[rsp]
	mov	rax, QWORD PTR [rax]
	mov	r8, QWORD PTR pOutSample$[rsp]
	mov	rdx, QWORD PTR pSample$[rsp]
	mov	rcx, QWORD PTR this$[rsp]
	call	QWORD PTR [rax+72]
	mov	DWORD PTR hr$[rsp], eax
; Line 342
	cmp	DWORD PTR hr$[rsp], 0
	jge	SHORT $LN6@Receive
; Line 343
	lea	r8, OFFSET FLAT:$SG82417
	mov	edx, 1
	mov	ecx, 2
	call	?DbgLogInfo@@YAXKKPEB_WZZ		; DbgLogInfo
; Line 344
	jmp	$LN5@Receive
$LN6@Receive:
; Line 348
	cmp	DWORD PTR hr$[rsp], 0
	jne	SHORT $LN4@Receive
; Line 349
	mov	rax, QWORD PTR this$[rsp]
	mov	rax, QWORD PTR [rax+264]
	mov	rax, QWORD PTR [rax+240]
	mov	rcx, QWORD PTR this$[rsp]
	mov	rcx, QWORD PTR [rcx+264]
	mov	rcx, QWORD PTR [rcx+240]
	mov	rax, QWORD PTR [rax]
	mov	rdx, QWORD PTR pOutSample$[rsp]
	call	QWORD PTR [rax+48]
	mov	DWORD PTR hr$[rsp], eax
; Line 350
	mov	rax, QWORD PTR this$[rsp]
	mov	DWORD PTR [rax+132], 0
; Line 351
	jmp	SHORT $LN3@Receive
$LN4@Receive:
; Line 356
	cmp	DWORD PTR hr$[rsp], 1
	jne	SHORT $LN2@Receive
; Line 361
	mov	rax, QWORD PTR pOutSample$[rsp]
	mov	rax, QWORD PTR [rax]
	mov	rcx, QWORD PTR pOutSample$[rsp]
	call	QWORD PTR [rax+16]
; Line 362
	mov	rax, QWORD PTR this$[rsp]
	mov	DWORD PTR [rax+132], 1
; Line 363
	mov	rax, QWORD PTR this$[rsp]
	cmp	DWORD PTR [rax+136], 0
	jne	SHORT $LN1@Receive
; Line 364
	xor	r9d, r9d
	xor	r8d, r8d
	mov	edx, 11
	mov	rcx, QWORD PTR this$[rsp]
	call	?NotifyEvent@CBaseFilter@@QEAAJJ_J0@Z	; CBaseFilter::NotifyEvent
; Line 365
	mov	rax, QWORD PTR this$[rsp]
	mov	DWORD PTR [rax+136], 1
$LN1@Receive:
; Line 367
	xor	eax, eax
	jmp	SHORT $LN11@Receive
$LN2@Receive:
$LN3@Receive:
$LN5@Receive:
; Line 374
	mov	rax, QWORD PTR pOutSample$[rsp]
	mov	rax, QWORD PTR [rax]
	mov	rcx, QWORD PTR pOutSample$[rsp]
	call	QWORD PTR [rax+16]
; Line 376
	mov	eax, DWORD PTR hr$[rsp]
$LN11@Receive:
; Line 377
	mov	rdi, rax
	mov	rcx, rsp
	lea	rdx, OFFSET FLAT:?Receive@CTransformFilter@@UEAAJPEAUIMediaSample@@@Z$rtcFrameData
	call	_RTC_CheckStackVars
	mov	rax, rdi
	add	rsp, 80					; 00000050H
	pop	rdi
	ret	0
?Receive@CTransformFilter@@UEAAJPEAUIMediaSample@@@Z ENDP ; CTransformFilter::Receive
_TEXT	ENDS
PUBLIC	?AlterQuality@CTransformFilter@@UEAAJUtagQuality@@@Z ; CTransformFilter::AlterQuality
;	COMDAT pdata
pdata	SEGMENT
$pdata$?AlterQuality@CTransformFilter@@UEAAJUtagQuality@@@Z DD imagerel $LN3
	DD	imagerel $LN3+65
	DD	imagerel $unwind$?AlterQuality@CTransformFilter@@UEAAJUtagQuality@@@Z
pdata	ENDS
;	COMDAT xdata
xdata	SEGMENT
$unwind$?AlterQuality@CTransformFilter@@UEAAJUtagQuality@@@Z DD 022301H
	DD	0700b720fH
xdata	ENDS
;	COMDAT CONST
CONST	SEGMENT
?AlterQuality@CTransformFilter@@UEAAJUtagQuality@@@Z$rtcName$0 DB 05fH ; CTransformFilter::AlterQuality
	DB	05fH
	DB	024H
	DB	041H
	DB	072H
	DB	072H
	DB	061H
	DB	079H
	DB	050H
	DB	061H
	DB	064H
	DB	00H
	ORG $+4
?AlterQuality@CTransformFilter@@UEAAJUtagQuality@@@Z$rtcVarDesc DD 028H ; CTransformFilter::AlterQuality
	DD	08H
	DQ	FLAT:?AlterQuality@CTransformFilter@@UEAAJUtagQuality@@@Z$rtcName$0
	ORG $+48
?AlterQuality@CTransformFilter@@UEAAJUtagQuality@@@Z$rtcFrameData DD 01H ; CTransformFilter::AlterQuality
	DD	00H
	DQ	FLAT:?AlterQuality@CTransformFilter@@UEAAJUtagQuality@@@Z$rtcVarDesc
; Function compile flags: /Odtp /RTCsu
CONST	ENDS
;	COMDAT ?AlterQuality@CTransformFilter@@UEAAJUtagQuality@@@Z
_TEXT	SEGMENT
this$ = 80
q$ = 88
?AlterQuality@CTransformFilter@@UEAAJUtagQuality@@@Z PROC ; CTransformFilter::AlterQuality, COMDAT
; Line 384
$LN3:
	mov	QWORD PTR [rsp+16], rdx
	mov	QWORD PTR [rsp+8], rcx
	push	rdi
	sub	rsp, 64					; 00000040H
	mov	rdi, rsp
	mov	ecx, 16
	mov	eax, -858993460				; ccccccccH
	rep stosd
	mov	rcx, QWORD PTR [rsp+80]
; Line 386
	mov	eax, 1
; Line 387
	mov	edi, eax
	mov	rcx, rsp
	lea	rdx, OFFSET FLAT:?AlterQuality@CTransformFilter@@UEAAJUtagQuality@@@Z$rtcFrameData
	call	_RTC_CheckStackVars
	mov	eax, edi
	add	rsp, 64					; 00000040H
	pop	rdi
	ret	0
?AlterQuality@CTransformFilter@@UEAAJUtagQuality@@@Z ENDP ; CTransformFilter::AlterQuality
_TEXT	ENDS
PUBLIC	?EndOfStream@CTransformFilter@@UEAAJXZ		; CTransformFilter::EndOfStream
;	COMDAT pdata
pdata	SEGMENT
$pdata$?EndOfStream@CTransformFilter@@UEAAJXZ DD imagerel $LN4
	DD	imagerel $LN4+100
	DD	imagerel $unwind$?EndOfStream@CTransformFilter@@UEAAJXZ
pdata	ENDS
;	COMDAT xdata
xdata	SEGMENT
$unwind$?EndOfStream@CTransformFilter@@UEAAJXZ DD 021e01H
	DD	07006520aH
; Function compile flags: /Odtp /RTCsu
xdata	ENDS
;	COMDAT ?EndOfStream@CTransformFilter@@UEAAJXZ
_TEXT	SEGMENT
hr$ = 32
this$ = 64
?EndOfStream@CTransformFilter@@UEAAJXZ PROC		; CTransformFilter::EndOfStream, COMDAT
; Line 396
$LN4:
	mov	QWORD PTR [rsp+8], rcx
	push	rdi
	sub	rsp, 48					; 00000030H
	mov	rdi, rsp
	mov	ecx, 12
	mov	eax, -858993460				; ccccccccH
	rep stosd
	mov	rcx, QWORD PTR [rsp+64]
; Line 397
	mov	DWORD PTR hr$[rsp], 0
; Line 398
	mov	rax, QWORD PTR this$[rsp]
	cmp	QWORD PTR [rax+264], 0
	je	SHORT $LN1@EndOfStrea
; Line 399
	mov	rax, QWORD PTR this$[rsp]
	mov	rax, QWORD PTR [rax+264]
	mov	rcx, QWORD PTR this$[rsp]
	mov	rcx, QWORD PTR [rcx+264]
	mov	rax, QWORD PTR [rax]
	call	QWORD PTR [rax+152]
	mov	DWORD PTR hr$[rsp], eax
$LN1@EndOfStrea:
; Line 402
	mov	eax, DWORD PTR hr$[rsp]
; Line 403
	add	rsp, 48					; 00000030H
	pop	rdi
	ret	0
?EndOfStream@CTransformFilter@@UEAAJXZ ENDP		; CTransformFilter::EndOfStream
_TEXT	ENDS
PUBLIC	?BeginFlush@CTransformFilter@@UEAAJXZ		; CTransformFilter::BeginFlush
;	COMDAT pdata
pdata	SEGMENT
$pdata$?BeginFlush@CTransformFilter@@UEAAJXZ DD imagerel $LN4
	DD	imagerel $LN4+100
	DD	imagerel $unwind$?BeginFlush@CTransformFilter@@UEAAJXZ
pdata	ENDS
;	COMDAT xdata
xdata	SEGMENT
$unwind$?BeginFlush@CTransformFilter@@UEAAJXZ DD 021e01H
	DD	07006520aH
; Function compile flags: /Odtp /RTCsu
xdata	ENDS
;	COMDAT ?BeginFlush@CTransformFilter@@UEAAJXZ
_TEXT	SEGMENT
hr$ = 32
this$ = 64
?BeginFlush@CTransformFilter@@UEAAJXZ PROC		; CTransformFilter::BeginFlush, COMDAT
; Line 410
$LN4:
	mov	QWORD PTR [rsp+8], rcx
	push	rdi
	sub	rsp, 48					; 00000030H
	mov	rdi, rsp
	mov	ecx, 12
	mov	eax, -858993460				; ccccccccH
	rep stosd
	mov	rcx, QWORD PTR [rsp+64]
; Line 411
	mov	DWORD PTR hr$[rsp], 0
; Line 412
	mov	rax, QWORD PTR this$[rsp]
	cmp	QWORD PTR [rax+264], 0
	je	SHORT $LN1@BeginFlush
; Line 420
	mov	rax, QWORD PTR this$[rsp]
	mov	rax, QWORD PTR [rax+264]
	mov	rcx, QWORD PTR this$[rsp]
	mov	rcx, QWORD PTR [rcx+264]
	mov	rax, QWORD PTR [rax]
	call	QWORD PTR [rax+160]
	mov	DWORD PTR hr$[rsp], eax
$LN1@BeginFlush:
; Line 422
	mov	eax, DWORD PTR hr$[rsp]
; Line 423
	add	rsp, 48					; 00000030H
	pop	rdi
	ret	0
?BeginFlush@CTransformFilter@@UEAAJXZ ENDP		; CTransformFilter::BeginFlush
_TEXT	ENDS
PUBLIC	?EndFlush@CTransformFilter@@UEAAJXZ		; CTransformFilter::EndFlush
;	COMDAT pdata
pdata	SEGMENT
$pdata$?EndFlush@CTransformFilter@@UEAAJXZ DD imagerel $LN4
	DD	imagerel $LN4+109
	DD	imagerel $unwind$?EndFlush@CTransformFilter@@UEAAJXZ
pdata	ENDS
;	COMDAT xdata
xdata	SEGMENT
$unwind$?EndFlush@CTransformFilter@@UEAAJXZ DD 021e01H
	DD	07006320aH
; Function compile flags: /Odtp /RTCsu
xdata	ENDS
;	COMDAT ?EndFlush@CTransformFilter@@UEAAJXZ
_TEXT	SEGMENT
this$ = 48
?EndFlush@CTransformFilter@@UEAAJXZ PROC		; CTransformFilter::EndFlush, COMDAT
; Line 430
$LN4:
	mov	QWORD PTR [rsp+8], rcx
	push	rdi
	sub	rsp, 32					; 00000020H
	mov	rdi, rsp
	mov	ecx, 8
	mov	eax, -858993460				; ccccccccH
	rep stosd
	mov	rcx, QWORD PTR [rsp+48]
; Line 436
	mov	rax, QWORD PTR this$[rsp]
	cmp	QWORD PTR [rax+264], 0
	jne	SHORT $LN1@EndFlush
	mov	r8d, 436				; 000001b4H
	lea	rdx, OFFSET FLAT:$SG82446
	lea	rcx, OFFSET FLAT:$SG82447
	call	?DbgAssert@@YAXPEB_W0H@Z		; DbgAssert
$LN1@EndFlush:
; Line 437
	mov	rax, QWORD PTR this$[rsp]
	mov	rax, QWORD PTR [rax+264]
	mov	rcx, QWORD PTR this$[rsp]
	mov	rcx, QWORD PTR [rcx+264]
	mov	rax, QWORD PTR [rax]
	call	QWORD PTR [rax+168]
; Line 440
	add	rsp, 32					; 00000020H
	pop	rdi
	ret	0
?EndFlush@CTransformFilter@@UEAAJXZ ENDP		; CTransformFilter::EndFlush
_TEXT	ENDS
PUBLIC	?IsConnected@CBasePin@@QEAAHXZ			; CBasePin::IsConnected
PUBLIC	??1CAutoLock@@QEAA@XZ				; CAutoLock::~CAutoLock
PUBLIC	??0CAutoLock@@QEAA@PEAVCCritSec@@@Z		; CAutoLock::CAutoLock
PUBLIC	?Stop@CTransformFilter@@UEAAJXZ			; CTransformFilter::Stop
;	COMDAT pdata
pdata	SEGMENT
$pdata$?Stop@CTransformFilter@@UEAAJXZ DD imagerel $LN12
	DD	imagerel $LN12+626
	DD	imagerel $unwind$?Stop@CTransformFilter@@UEAAJXZ
pdata	ENDS
;	COMDAT pdata
pdata	SEGMENT
$pdata$?dtor$0@?0??Stop@CTransformFilter@@UEAAJXZ@4HA DD imagerel ?dtor$0@?0??Stop@CTransformFilter@@UEAAJXZ@4HA
	DD	imagerel ?dtor$0@?0??Stop@CTransformFilter@@UEAAJXZ@4HA+35
	DD	imagerel $unwind$?dtor$0@?0??Stop@CTransformFilter@@UEAAJXZ@4HA
pdata	ENDS
;	COMDAT pdata
pdata	SEGMENT
$pdata$?dtor$1@?0??Stop@CTransformFilter@@UEAAJXZ@4HA DD imagerel ?dtor$1@?0??Stop@CTransformFilter@@UEAAJXZ@4HA
	DD	imagerel ?dtor$1@?0??Stop@CTransformFilter@@UEAAJXZ@4HA+35
	DD	imagerel $unwind$?dtor$1@?0??Stop@CTransformFilter@@UEAAJXZ@4HA
pdata	ENDS
;	COMDAT xdata
xdata	SEGMENT
$ip2state$?Stop@CTransformFilter@@UEAAJXZ DD imagerel ?Stop@CTransformFilter@@UEAAJXZ
	DD	0ffffffffH
	DD	imagerel ?Stop@CTransformFilter@@UEAAJXZ+71
	DD	00H
	DD	imagerel ?Stop@CTransformFilter@@UEAAJXZ+93
	DD	0ffffffffH
	DD	imagerel ?Stop@CTransformFilter@@UEAAJXZ+112
	DD	00H
	DD	imagerel ?Stop@CTransformFilter@@UEAAJXZ+277
	DD	0ffffffffH
	DD	imagerel ?Stop@CTransformFilter@@UEAAJXZ+296
	DD	00H
	DD	imagerel ?Stop@CTransformFilter@@UEAAJXZ+446
	DD	01H
	DD	imagerel ?Stop@CTransformFilter@@UEAAJXZ+571
	DD	00H
	DD	imagerel ?Stop@CTransformFilter@@UEAAJXZ+582
	DD	0ffffffffH
xdata	ENDS
;	COMDAT xdata
xdata	SEGMENT
$unwind$?dtor$1@?0??Stop@CTransformFilter@@UEAAJXZ@4HA DD 031001H
	DD	0700c4210H
	DD	0500bH
xdata	ENDS
;	COMDAT xdata
xdata	SEGMENT
$unwind$?dtor$0@?0??Stop@CTransformFilter@@UEAAJXZ@4HA DD 031001H
	DD	0700c4210H
	DD	0500bH
xdata	ENDS
;	COMDAT xdata
xdata	SEGMENT
$unwind$?Stop@CTransformFilter@@UEAAJXZ DD 022d11H
	DD	07006f20dH
	DD	imagerel __CxxFrameHandler3
	DD	imagerel $cppxdata$?Stop@CTransformFilter@@UEAAJXZ
xdata	ENDS
;	COMDAT xdata
xdata	SEGMENT
$stateUnwindMap$?Stop@CTransformFilter@@UEAAJXZ DD 0ffffffffH
	DD	imagerel ?dtor$0@?0??Stop@CTransformFilter@@UEAAJXZ@4HA
	DD	00H
	DD	imagerel ?dtor$1@?0??Stop@CTransformFilter@@UEAAJXZ@4HA
xdata	ENDS
;	COMDAT CONST
CONST	SEGMENT
?Stop@CTransformFilter@@UEAAJXZ$rtcName$0 DB 06cH	; CTransformFilter::Stop
	DB	063H
	DB	06bH
	DB	031H
	DB	00H
	ORG $+3
?Stop@CTransformFilter@@UEAAJXZ$rtcName$1 DB 06cH	; CTransformFilter::Stop
	DB	063H
	DB	06bH
	DB	032H
	DB	00H
	ORG $+3
?Stop@CTransformFilter@@UEAAJXZ$rtcVarDesc DD 048H	; CTransformFilter::Stop
	DD	08H
	DQ	FLAT:?Stop@CTransformFilter@@UEAAJXZ$rtcName$1
	DD	028H
	DD	08H
	DQ	FLAT:?Stop@CTransformFilter@@UEAAJXZ$rtcName$0
	ORG $+96
?Stop@CTransformFilter@@UEAAJXZ$rtcFrameData DD 02H	; CTransformFilter::Stop
	DD	00H
	DQ	FLAT:?Stop@CTransformFilter@@UEAAJXZ$rtcVarDesc
$cppxdata$?Stop@CTransformFilter@@UEAAJXZ DD 019930522H
	DD	02H
	DD	imagerel $stateUnwindMap$?Stop@CTransformFilter@@UEAAJXZ
	DD	00H
	DD	00H
	DD	09H
	DD	imagerel $ip2state$?Stop@CTransformFilter@@UEAAJXZ
	DD	068H
	DD	00H
	DD	01H
; Function compile flags: /Odtp /RTCsu
CONST	ENDS
;	COMDAT ?Stop@CTransformFilter@@UEAAJXZ
_TEXT	SEGMENT
lck1$ = 40
lck2$ = 72
hr$ = 84
$T83915 = 88
$T83916 = 92
$T83917 = 96
$T83925 = 104
tv173 = 112
this$ = 144
?Stop@CTransformFilter@@UEAAJXZ PROC			; CTransformFilter::Stop, COMDAT
; Line 447
$LN12:
	mov	QWORD PTR [rsp+8], rcx
	push	rdi
	sub	rsp, 128				; 00000080H
	mov	rdi, rsp
	mov	ecx, 32					; 00000020H
	mov	eax, -858993460				; ccccccccH
	rep stosd
	mov	rcx, QWORD PTR [rsp+144]
	mov	QWORD PTR $T83925[rsp], -2
; Line 448
	mov	rax, QWORD PTR this$[rsp]
	add	rax, 112				; 00000070H
	mov	rdx, rax
	lea	rcx, QWORD PTR lck1$[rsp]
	call	??0CAutoLock@@QEAA@PEAVCCritSec@@@Z	; CAutoLock::CAutoLock
	npad	1
; Line 449
	mov	rax, QWORD PTR this$[rsp]
	cmp	DWORD PTR [rax+16], 0
	jne	SHORT $LN7@Stop
; Line 450
	mov	DWORD PTR $T83915[rsp], 0
	lea	rcx, QWORD PTR lck1$[rsp]
	call	??1CAutoLock@@QEAA@XZ			; CAutoLock::~CAutoLock
	mov	eax, DWORD PTR $T83915[rsp]
	jmp	$LN8@Stop
$LN7@Stop:
; Line 455
	mov	rax, QWORD PTR this$[rsp]
	cmp	QWORD PTR [rax+224], 0
	je	SHORT $LN6@Stop
	mov	rax, QWORD PTR this$[rsp]
	cmp	QWORD PTR [rax+232], 0
	jne	SHORT $LN6@Stop
	mov	r8d, 455				; 000001c7H
	lea	rdx, OFFSET FLAT:$SG82455
	lea	rcx, OFFSET FLAT:$SG82456
	call	?DbgAssert@@YAXPEB_W0H@Z		; DbgAssert
$LN6@Stop:
; Line 457
	mov	rax, QWORD PTR this$[rsp]
	cmp	QWORD PTR [rax+224], 0
	je	SHORT $LN4@Stop
	mov	rax, QWORD PTR this$[rsp]
	mov	rcx, QWORD PTR [rax+224]
	call	?IsConnected@CBasePin@@QEAAHXZ		; CBasePin::IsConnected
	test	eax, eax
	je	SHORT $LN4@Stop
	mov	rax, QWORD PTR this$[rsp]
	mov	rcx, QWORD PTR [rax+232]
	call	?IsConnected@CBasePin@@QEAAHXZ		; CBasePin::IsConnected
	test	eax, eax
	jne	SHORT $LN5@Stop
$LN4@Stop:
; Line 458
	mov	rax, QWORD PTR this$[rsp]
	mov	DWORD PTR [rax+16], 0
; Line 459
	mov	rax, QWORD PTR this$[rsp]
	mov	DWORD PTR [rax+96], 0
; Line 460
	mov	DWORD PTR $T83916[rsp], 0
	lea	rcx, QWORD PTR lck1$[rsp]
	call	??1CAutoLock@@QEAA@XZ			; CAutoLock::~CAutoLock
	mov	eax, DWORD PTR $T83916[rsp]
	jmp	$LN8@Stop
$LN5@Stop:
; Line 463
	mov	rax, QWORD PTR this$[rsp]
	cmp	QWORD PTR [rax+224], 0
	jne	SHORT $LN3@Stop
	mov	r8d, 463				; 000001cfH
	lea	rdx, OFFSET FLAT:$SG82461
	lea	rcx, OFFSET FLAT:$SG82462
	call	?DbgAssert@@YAXPEB_W0H@Z		; DbgAssert
$LN3@Stop:
; Line 464
	mov	rax, QWORD PTR this$[rsp]
	cmp	QWORD PTR [rax+232], 0
	jne	SHORT $LN2@Stop
	mov	r8d, 464				; 000001d0H
	lea	rdx, OFFSET FLAT:$SG82464
	lea	rcx, OFFSET FLAT:$SG82465
	call	?DbgAssert@@YAXPEB_W0H@Z		; DbgAssert
$LN2@Stop:
; Line 467
	mov	rax, QWORD PTR this$[rsp]
	mov	rax, QWORD PTR [rax+224]
	mov	rcx, QWORD PTR this$[rsp]
	mov	rcx, QWORD PTR [rcx+224]
	mov	rax, QWORD PTR [rax]
	call	QWORD PTR [rax+48]
; Line 471
	mov	rax, QWORD PTR this$[rsp]
	add	rax, 168				; 000000a8H
	mov	rdx, rax
	lea	rcx, QWORD PTR lck2$[rsp]
	call	??0CAutoLock@@QEAA@PEAVCCritSec@@@Z	; CAutoLock::CAutoLock
	npad	1
; Line 472
	mov	rax, QWORD PTR this$[rsp]
	mov	rax, QWORD PTR [rax+232]
	mov	rcx, QWORD PTR this$[rsp]
	mov	rcx, QWORD PTR [rcx+232]
	mov	rax, QWORD PTR [rax]
	call	QWORD PTR [rax+48]
; Line 477
	mov	rax, QWORD PTR this$[rsp]
	sub	rax, 32					; 00000020H
	mov	rcx, QWORD PTR this$[rsp]
	mov	rcx, QWORD PTR [rcx-32]
	mov	QWORD PTR tv173[rsp], rcx
	mov	rcx, rax
	mov	rax, QWORD PTR tv173[rsp]
	call	QWORD PTR [rax+120]
	mov	DWORD PTR hr$[rsp], eax
; Line 478
	cmp	DWORD PTR hr$[rsp], 0
	jl	SHORT $LN1@Stop
; Line 480
	mov	rax, QWORD PTR this$[rsp]
	mov	DWORD PTR [rax+16], 0
; Line 481
	mov	rax, QWORD PTR this$[rsp]
	mov	DWORD PTR [rax+96], 0
$LN1@Stop:
; Line 483
	mov	eax, DWORD PTR hr$[rsp]
	mov	DWORD PTR $T83917[rsp], eax
	lea	rcx, QWORD PTR lck2$[rsp]
	call	??1CAutoLock@@QEAA@XZ			; CAutoLock::~CAutoLock
	npad	1
	lea	rcx, QWORD PTR lck1$[rsp]
	call	??1CAutoLock@@QEAA@XZ			; CAutoLock::~CAutoLock
	mov	eax, DWORD PTR $T83917[rsp]
$LN8@Stop:
; Line 484
	mov	rdi, rax
	mov	rcx, rsp
	lea	rdx, OFFSET FLAT:?Stop@CTransformFilter@@UEAAJXZ$rtcFrameData
	call	_RTC_CheckStackVars
	mov	rax, rdi
	add	rsp, 128				; 00000080H
	pop	rdi
	ret	0
?Stop@CTransformFilter@@UEAAJXZ ENDP			; CTransformFilter::Stop
; Function compile flags: /Odtp /RTCsu
_TEXT	ENDS
;	COMDAT text$x
text$x	SEGMENT
lck1$ = 40
lck2$ = 72
hr$ = 84
$T83915 = 88
$T83916 = 92
$T83917 = 96
$T83925 = 104
tv173 = 112
this$ = 144
?dtor$0@?0??Stop@CTransformFilter@@UEAAJXZ@4HA PROC	; `CTransformFilter::Stop'::`1'::dtor$0
	mov	QWORD PTR [rsp+8], rcx
	mov	QWORD PTR [rsp+16], rdx
	push	rbp
	push	rdi
	sub	rsp, 40					; 00000028H
	mov	rbp, rdx
	lea	rcx, QWORD PTR lck1$[rbp]
	call	??1CAutoLock@@QEAA@XZ			; CAutoLock::~CAutoLock
	add	rsp, 40					; 00000028H
	pop	rdi
	pop	rbp
	ret	0
?dtor$0@?0??Stop@CTransformFilter@@UEAAJXZ@4HA ENDP	; `CTransformFilter::Stop'::`1'::dtor$0
; Function compile flags: /Odtp /RTCsu
lck1$ = 40
lck2$ = 72
hr$ = 84
$T83915 = 88
$T83916 = 92
$T83917 = 96
$T83925 = 104
tv173 = 112
this$ = 144
?dtor$1@?0??Stop@CTransformFilter@@UEAAJXZ@4HA PROC	; `CTransformFilter::Stop'::`1'::dtor$1
	mov	QWORD PTR [rsp+8], rcx
	mov	QWORD PTR [rsp+16], rdx
	push	rbp
	push	rdi
	sub	rsp, 40					; 00000028H
	mov	rbp, rdx
	lea	rcx, QWORD PTR lck2$[rbp]
	call	??1CAutoLock@@QEAA@XZ			; CAutoLock::~CAutoLock
	add	rsp, 40					; 00000028H
	pop	rdi
	pop	rbp
	ret	0
?dtor$1@?0??Stop@CTransformFilter@@UEAAJXZ@4HA ENDP	; `CTransformFilter::Stop'::`1'::dtor$1
text$x	ENDS
EXTRN	?Lock@CCritSec@@QEAAXXZ:PROC			; CCritSec::Lock
;	COMDAT pdata
; File c:\downloads\wpf mediakit - copy\src\filters\baseclasses\wxutil.h
pdata	SEGMENT
$pdata$??0CAutoLock@@QEAA@PEAVCCritSec@@@Z DD imagerel $LN3
	DD	imagerel $LN3+72
	DD	imagerel $unwind$??0CAutoLock@@QEAA@PEAVCCritSec@@@Z
pdata	ENDS
;	COMDAT xdata
xdata	SEGMENT
$unwind$??0CAutoLock@@QEAA@PEAVCCritSec@@@Z DD 022301H
	DD	0700b320fH
; Function compile flags: /Odtp /RTCsu
xdata	ENDS
;	COMDAT ??0CAutoLock@@QEAA@PEAVCCritSec@@@Z
_TEXT	SEGMENT
this$ = 48
plock$ = 56
??0CAutoLock@@QEAA@PEAVCCritSec@@@Z PROC		; CAutoLock::CAutoLock, COMDAT
; Line 94
$LN3:
	mov	QWORD PTR [rsp+16], rdx
	mov	QWORD PTR [rsp+8], rcx
	push	rdi
	sub	rsp, 32					; 00000020H
	mov	rdi, rsp
	mov	ecx, 8
	mov	eax, -858993460				; ccccccccH
	rep stosd
	mov	rcx, QWORD PTR [rsp+48]
; Line 96
	mov	rax, QWORD PTR this$[rsp]
	mov	rcx, QWORD PTR plock$[rsp]
	mov	QWORD PTR [rax], rcx
; Line 97
	mov	rax, QWORD PTR this$[rsp]
	mov	rcx, QWORD PTR [rax]
	call	?Lock@CCritSec@@QEAAXXZ			; CCritSec::Lock
; Line 98
	mov	rax, QWORD PTR this$[rsp]
	add	rsp, 32					; 00000020H
	pop	rdi
	ret	0
??0CAutoLock@@QEAA@PEAVCCritSec@@@Z ENDP		; CAutoLock::CAutoLock
_TEXT	ENDS
EXTRN	?Unlock@CCritSec@@QEAAXXZ:PROC			; CCritSec::Unlock
;	COMDAT pdata
pdata	SEGMENT
$pdata$??1CAutoLock@@QEAA@XZ DD imagerel $LN3
	DD	imagerel $LN3+49
	DD	imagerel $unwind$??1CAutoLock@@QEAA@XZ
pdata	ENDS
;	COMDAT xdata
xdata	SEGMENT
$unwind$??1CAutoLock@@QEAA@XZ DD 021e01H
	DD	07006320aH
; Function compile flags: /Odtp /RTCsu
xdata	ENDS
;	COMDAT ??1CAutoLock@@QEAA@XZ
_TEXT	SEGMENT
this$ = 48
??1CAutoLock@@QEAA@XZ PROC				; CAutoLock::~CAutoLock, COMDAT
; Line 100
$LN3:
	mov	QWORD PTR [rsp+8], rcx
	push	rdi
	sub	rsp, 32					; 00000020H
	mov	rdi, rsp
	mov	ecx, 8
	mov	eax, -858993460				; ccccccccH
	rep stosd
	mov	rcx, QWORD PTR [rsp+48]
; Line 101
	mov	rax, QWORD PTR this$[rsp]
	mov	rcx, QWORD PTR [rax]
	call	?Unlock@CCritSec@@QEAAXXZ		; CCritSec::Unlock
; Line 102
	add	rsp, 32					; 00000020H
	pop	rdi
	ret	0
??1CAutoLock@@QEAA@XZ ENDP				; CAutoLock::~CAutoLock
_TEXT	ENDS
;	COMDAT pdata
; File c:\downloads\wpf mediakit - copy\src\filters\baseclasses\amfilter.h
pdata	SEGMENT
$pdata$?IsConnected@CBasePin@@QEAAHXZ DD imagerel $LN5
	DD	imagerel $LN5+67
	DD	imagerel $unwind$?IsConnected@CBasePin@@QEAAHXZ
pdata	ENDS
;	COMDAT xdata
xdata	SEGMENT
$unwind$?IsConnected@CBasePin@@QEAAHXZ DD 021e01H
	DD	07006120aH
; Function compile flags: /Odtp /RTCsu
xdata	ENDS
;	COMDAT ?IsConnected@CBasePin@@QEAAHXZ
_TEXT	SEGMENT
tv66 = 0
this$ = 32
?IsConnected@CBasePin@@QEAAHXZ PROC			; CBasePin::IsConnected, COMDAT
; Line 499
$LN5:
	mov	QWORD PTR [rsp+8], rcx
	push	rdi
	sub	rsp, 16
	mov	rdi, rsp
	mov	ecx, 4
	mov	eax, -858993460				; ccccccccH
	rep stosd
	mov	rcx, QWORD PTR [rsp+32]
	mov	rax, QWORD PTR this$[rsp]
	cmp	QWORD PTR [rax+56], 0
	je	SHORT $LN3@IsConnecte
	mov	DWORD PTR tv66[rsp], 1
	jmp	SHORT $LN4@IsConnecte
$LN3@IsConnecte:
	mov	DWORD PTR tv66[rsp], 0
$LN4@IsConnecte:
	mov	eax, DWORD PTR tv66[rsp]
	add	rsp, 16
	pop	rdi
	ret	0
?IsConnected@CBasePin@@QEAAHXZ ENDP			; CBasePin::IsConnected
_TEXT	ENDS
PUBLIC	?Pause@CTransformFilter@@UEAAJXZ		; CTransformFilter::Pause
EXTRN	?Pause@CBaseFilter@@UEAAJXZ:PROC		; CBaseFilter::Pause
;	COMDAT pdata
; File c:\downloads\wpf mediakit - copy\src\filters\baseclasses\transfrm.cpp
pdata	SEGMENT
$pdata$?Pause@CTransformFilter@@UEAAJXZ DD imagerel $LN15
	DD	imagerel $LN15+484
	DD	imagerel $unwind$?Pause@CTransformFilter@@UEAAJXZ
pdata	ENDS
;	COMDAT pdata
pdata	SEGMENT
$pdata$?dtor$0@?0??Pause@CTransformFilter@@UEAAJXZ@4HA DD imagerel ?dtor$0@?0??Pause@CTransformFilter@@UEAAJXZ@4HA
	DD	imagerel ?dtor$0@?0??Pause@CTransformFilter@@UEAAJXZ@4HA+35
	DD	imagerel $unwind$?dtor$0@?0??Pause@CTransformFilter@@UEAAJXZ@4HA
pdata	ENDS
;	COMDAT pdata
pdata	SEGMENT
$pdata$?dtor$1@?0??Pause@CTransformFilter@@UEAAJXZ@4HA DD imagerel ?dtor$1@?0??Pause@CTransformFilter@@UEAAJXZ@4HA
	DD	imagerel ?dtor$1@?0??Pause@CTransformFilter@@UEAAJXZ@4HA+35
	DD	imagerel $unwind$?dtor$1@?0??Pause@CTransformFilter@@UEAAJXZ@4HA
pdata	ENDS
;	COMDAT xdata
xdata	SEGMENT
$ip2state$?Pause@CTransformFilter@@UEAAJXZ DD imagerel ?Pause@CTransformFilter@@UEAAJXZ
	DD	0ffffffffH
	DD	imagerel ?Pause@CTransformFilter@@UEAAJXZ+68
	DD	00H
	DD	imagerel ?Pause@CTransformFilter@@UEAAJXZ+326
	DD	01H
	DD	imagerel ?Pause@CTransformFilter@@UEAAJXZ+370
	DD	00H
	DD	imagerel ?Pause@CTransformFilter@@UEAAJXZ+445
	DD	0ffffffffH
xdata	ENDS
;	COMDAT xdata
xdata	SEGMENT
$unwind$?dtor$1@?0??Pause@CTransformFilter@@UEAAJXZ@4HA DD 031001H
	DD	0700c4210H
	DD	0500bH
xdata	ENDS
;	COMDAT xdata
xdata	SEGMENT
$unwind$?dtor$0@?0??Pause@CTransformFilter@@UEAAJXZ@4HA DD 031001H
	DD	0700c4210H
	DD	0500bH
xdata	ENDS
;	COMDAT xdata
xdata	SEGMENT
$unwind$?Pause@CTransformFilter@@UEAAJXZ DD 022a11H
	DD	07006d20aH
	DD	imagerel __CxxFrameHandler3
	DD	imagerel $cppxdata$?Pause@CTransformFilter@@UEAAJXZ
xdata	ENDS
;	COMDAT xdata
xdata	SEGMENT
$stateUnwindMap$?Pause@CTransformFilter@@UEAAJXZ DD 0ffffffffH
	DD	imagerel ?dtor$0@?0??Pause@CTransformFilter@@UEAAJXZ@4HA
	DD	00H
	DD	imagerel ?dtor$1@?0??Pause@CTransformFilter@@UEAAJXZ@4HA
xdata	ENDS
;	COMDAT CONST
CONST	SEGMENT
?Pause@CTransformFilter@@UEAAJXZ$rtcName$0 DB 06cH	; CTransformFilter::Pause
	DB	063H
	DB	06bH
	DB	00H
?Pause@CTransformFilter@@UEAAJXZ$rtcName$1 DB 06cH	; CTransformFilter::Pause
	DB	063H
	DB	06bH
	DB	032H
	DB	00H
	ORG $+7
?Pause@CTransformFilter@@UEAAJXZ$rtcVarDesc DD 048H	; CTransformFilter::Pause
	DD	08H
	DQ	FLAT:?Pause@CTransformFilter@@UEAAJXZ$rtcName$1
	DD	028H
	DD	08H
	DQ	FLAT:?Pause@CTransformFilter@@UEAAJXZ$rtcName$0
	ORG $+96
?Pause@CTransformFilter@@UEAAJXZ$rtcFrameData DD 02H	; CTransformFilter::Pause
	DD	00H
	DQ	FLAT:?Pause@CTransformFilter@@UEAAJXZ$rtcVarDesc
$cppxdata$?Pause@CTransformFilter@@UEAAJXZ DD 019930522H
	DD	02H
	DD	imagerel $stateUnwindMap$?Pause@CTransformFilter@@UEAAJXZ
	DD	00H
	DD	00H
	DD	05H
	DD	imagerel $ip2state$?Pause@CTransformFilter@@UEAAJXZ
	DD	058H
	DD	00H
	DD	01H
; Function compile flags: /Odtp /RTCsu
CONST	ENDS
;	COMDAT ?Pause@CTransformFilter@@UEAAJXZ
_TEXT	SEGMENT
lck$ = 40
hr$ = 52
lck2$82485 = 72
$T83974 = 84
$T83982 = 88
tv171 = 96
this$ = 128
?Pause@CTransformFilter@@UEAAJXZ PROC			; CTransformFilter::Pause, COMDAT
; Line 489
$LN15:
	mov	QWORD PTR [rsp+8], rcx
	push	rdi
	sub	rsp, 112				; 00000070H
	mov	rdi, rsp
	mov	ecx, 28
	mov	eax, -858993460				; ccccccccH
	rep stosd
	mov	rcx, QWORD PTR [rsp+128]
	mov	QWORD PTR $T83982[rsp], -2
; Line 490
	mov	rax, QWORD PTR this$[rsp]
	add	rax, 112				; 00000070H
	mov	rdx, rax
	lea	rcx, QWORD PTR lck$[rsp]
	call	??0CAutoLock@@QEAA@PEAVCCritSec@@@Z	; CAutoLock::CAutoLock
	npad	1
; Line 491
	mov	DWORD PTR hr$[rsp], 0
; Line 493
	mov	rax, QWORD PTR this$[rsp]
	cmp	DWORD PTR [rax+16], 1
	jne	SHORT $LN10@Pause
	jmp	$LN9@Pause
$LN10@Pause:
; Line 502
	mov	rax, QWORD PTR this$[rsp]
	cmp	QWORD PTR [rax+224], 0
	je	SHORT $LN7@Pause
	mov	rax, QWORD PTR this$[rsp]
	mov	rcx, QWORD PTR [rax+224]
	call	?IsConnected@CBasePin@@QEAAHXZ		; CBasePin::IsConnected
	test	eax, eax
	jne	SHORT $LN8@Pause
$LN7@Pause:
; Line 503
	mov	rax, QWORD PTR this$[rsp]
	cmp	QWORD PTR [rax+232], 0
	je	SHORT $LN6@Pause
	mov	rax, QWORD PTR this$[rsp]
	cmp	DWORD PTR [rax+96], 0
	jne	SHORT $LN6@Pause
; Line 504
	mov	rax, QWORD PTR this$[rsp]
	mov	rax, QWORD PTR [rax+232]
	mov	rcx, QWORD PTR this$[rsp]
	mov	rcx, QWORD PTR [rcx+232]
	mov	rax, QWORD PTR [rax]
	call	QWORD PTR [rax+152]
; Line 505
	mov	rax, QWORD PTR this$[rsp]
	mov	DWORD PTR [rax+96], 1
$LN6@Pause:
; Line 507
	mov	rax, QWORD PTR this$[rsp]
	mov	DWORD PTR [rax+16], 1
	jmp	$LN9@Pause
$LN8@Pause:
; Line 513
	mov	rax, QWORD PTR this$[rsp]
	mov	rcx, QWORD PTR [rax+232]
	call	?IsConnected@CBasePin@@QEAAHXZ		; CBasePin::IsConnected
	test	eax, eax
	jne	SHORT $LN4@Pause
; Line 514
	mov	rax, QWORD PTR this$[rsp]
	mov	DWORD PTR [rax+16], 1
; Line 517
	jmp	SHORT $LN9@Pause
$LN4@Pause:
; Line 518
	mov	rax, QWORD PTR this$[rsp]
	cmp	DWORD PTR [rax+16], 0
	jne	SHORT $LN2@Pause
; Line 521
	mov	rax, QWORD PTR this$[rsp]
	add	rax, 168				; 000000a8H
	mov	rdx, rax
	lea	rcx, QWORD PTR lck2$82485[rsp]
	call	??0CAutoLock@@QEAA@PEAVCCritSec@@@Z	; CAutoLock::CAutoLock
	npad	1
; Line 522
	mov	rax, QWORD PTR this$[rsp]
	sub	rax, 32					; 00000020H
	mov	rcx, QWORD PTR this$[rsp]
	mov	rcx, QWORD PTR [rcx-32]
	mov	QWORD PTR tv171[rsp], rcx
	mov	rcx, rax
	mov	rax, QWORD PTR tv171[rsp]
	call	QWORD PTR [rax+112]
	mov	DWORD PTR hr$[rsp], eax
; Line 523
	lea	rcx, QWORD PTR lck2$82485[rsp]
	call	??1CAutoLock@@QEAA@XZ			; CAutoLock::~CAutoLock
$LN2@Pause:
; Line 524
	cmp	DWORD PTR hr$[rsp], 0
	jl	SHORT $LN9@Pause
; Line 525
	mov	rax, QWORD PTR this$[rsp]
	mov	rcx, rax
	call	?Pause@CBaseFilter@@UEAAJXZ		; CBaseFilter::Pause
	mov	DWORD PTR hr$[rsp], eax
$LN9@Pause:
; Line 529
	mov	rax, QWORD PTR this$[rsp]
	mov	DWORD PTR [rax+100], 0
; Line 530
	mov	rax, QWORD PTR this$[rsp]
	mov	DWORD PTR [rax+104], 0
; Line 531
	mov	eax, DWORD PTR hr$[rsp]
	mov	DWORD PTR $T83974[rsp], eax
	lea	rcx, QWORD PTR lck$[rsp]
	call	??1CAutoLock@@QEAA@XZ			; CAutoLock::~CAutoLock
	mov	eax, DWORD PTR $T83974[rsp]
; Line 532
	mov	edi, eax
	mov	rcx, rsp
	lea	rdx, OFFSET FLAT:?Pause@CTransformFilter@@UEAAJXZ$rtcFrameData
	call	_RTC_CheckStackVars
	mov	eax, edi
	add	rsp, 112				; 00000070H
	pop	rdi
	ret	0
?Pause@CTransformFilter@@UEAAJXZ ENDP			; CTransformFilter::Pause
; Function compile flags: /Odtp /RTCsu
_TEXT	ENDS
;	COMDAT text$x
text$x	SEGMENT
lck$ = 40
hr$ = 52
lck2$82485 = 72
$T83974 = 84
$T83982 = 88
tv171 = 96
this$ = 128
?dtor$0@?0??Pause@CTransformFilter@@UEAAJXZ@4HA PROC	; `CTransformFilter::Pause'::`1'::dtor$0
	mov	QWORD PTR [rsp+8], rcx
	mov	QWORD PTR [rsp+16], rdx
	push	rbp
	push	rdi
	sub	rsp, 40					; 00000028H
	mov	rbp, rdx
	lea	rcx, QWORD PTR lck$[rbp]
	call	??1CAutoLock@@QEAA@XZ			; CAutoLock::~CAutoLock
	add	rsp, 40					; 00000028H
	pop	rdi
	pop	rbp
	ret	0
?dtor$0@?0??Pause@CTransformFilter@@UEAAJXZ@4HA ENDP	; `CTransformFilter::Pause'::`1'::dtor$0
; Function compile flags: /Odtp /RTCsu
lck$ = 40
hr$ = 52
lck2$82485 = 72
$T83974 = 84
$T83982 = 88
tv171 = 96
this$ = 128
?dtor$1@?0??Pause@CTransformFilter@@UEAAJXZ@4HA PROC	; `CTransformFilter::Pause'::`1'::dtor$1
	mov	QWORD PTR [rsp+8], rcx
	mov	QWORD PTR [rsp+16], rdx
	push	rbp
	push	rdi
	sub	rsp, 40					; 00000028H
	mov	rbp, rdx
	lea	rcx, QWORD PTR lck2$82485[rbp]
	call	??1CAutoLock@@QEAA@XZ			; CAutoLock::~CAutoLock
	add	rsp, 40					; 00000028H
	pop	rdi
	pop	rbp
	ret	0
?dtor$1@?0??Pause@CTransformFilter@@UEAAJXZ@4HA ENDP	; `CTransformFilter::Pause'::`1'::dtor$1
text$x	ENDS
PUBLIC	?NewSegment@CTransformFilter@@UEAAJ_J0N@Z	; CTransformFilter::NewSegment
EXTRN	_fltused:DWORD
;	COMDAT pdata
pdata	SEGMENT
$pdata$?NewSegment@CTransformFilter@@UEAAJ_J0N@Z DD imagerel $LN4
	DD	imagerel $LN4+120
	DD	imagerel $unwind$?NewSegment@CTransformFilter@@UEAAJ_J0N@Z
pdata	ENDS
;	COMDAT xdata
xdata	SEGMENT
$unwind$?NewSegment@CTransformFilter@@UEAAJ_J0N@Z DD 022e01H
	DD	07016321aH
; Function compile flags: /Odtp /RTCsu
xdata	ENDS
;	COMDAT ?NewSegment@CTransformFilter@@UEAAJ_J0N@Z
_TEXT	SEGMENT
this$ = 48
tStart$ = 56
tStop$ = 64
dRate$ = 72
?NewSegment@CTransformFilter@@UEAAJ_J0N@Z PROC		; CTransformFilter::NewSegment, COMDAT
; Line 539
$LN4:
	movsdx	QWORD PTR [rsp+32], xmm3
	mov	QWORD PTR [rsp+24], r8
	mov	QWORD PTR [rsp+16], rdx
	mov	QWORD PTR [rsp+8], rcx
	push	rdi
	sub	rsp, 32					; 00000020H
	mov	rdi, rsp
	mov	ecx, 8
	mov	eax, -858993460				; ccccccccH
	rep stosd
	mov	rcx, QWORD PTR [rsp+48]
; Line 540
	mov	rax, QWORD PTR this$[rsp]
	cmp	QWORD PTR [rax+264], 0
	je	SHORT $LN1@NewSegment
; Line 541
	mov	rax, QWORD PTR this$[rsp]
	mov	rax, QWORD PTR [rax+264]
	mov	rcx, QWORD PTR this$[rsp]
	mov	rcx, QWORD PTR [rcx+264]
	mov	rax, QWORD PTR [rax]
	movsdx	xmm3, QWORD PTR dRate$[rsp]
	mov	r8, QWORD PTR tStop$[rsp]
	mov	rdx, QWORD PTR tStart$[rsp]
	call	QWORD PTR [rax+176]
	jmp	SHORT $LN2@NewSegment
$LN1@NewSegment:
; Line 543
	xor	eax, eax
$LN2@NewSegment:
; Line 544
	add	rsp, 32					; 00000020H
	pop	rdi
	ret	0
?NewSegment@CTransformFilter@@UEAAJ_J0N@Z ENDP		; CTransformFilter::NewSegment
_TEXT	ENDS
PUBLIC	?IsStopped@CBasePin@@QEAAHXZ			; CBasePin::IsStopped
PUBLIC	?CheckStreaming@CTransformInputPin@@UEAAJXZ	; CTransformInputPin::CheckStreaming
;	COMDAT pdata
pdata	SEGMENT
$pdata$?CheckStreaming@CTransformInputPin@@UEAAJXZ DD imagerel $LN10
	DD	imagerel $LN10+225
	DD	imagerel $unwind$?CheckStreaming@CTransformInputPin@@UEAAJXZ
pdata	ENDS
;	COMDAT xdata
xdata	SEGMENT
$unwind$?CheckStreaming@CTransformInputPin@@UEAAJXZ DD 021e01H
	DD	07006320aH
; Function compile flags: /Odtp /RTCsu
xdata	ENDS
;	COMDAT ?CheckStreaming@CTransformInputPin@@UEAAJXZ
_TEXT	SEGMENT
this$ = 48
?CheckStreaming@CTransformInputPin@@UEAAJXZ PROC	; CTransformInputPin::CheckStreaming, COMDAT
; Line 549
$LN10:
	mov	QWORD PTR [rsp+8], rcx
	push	rdi
	sub	rsp, 32					; 00000020H
	mov	rdi, rsp
	mov	ecx, 8
	mov	eax, -858993460				; ccccccccH
	rep stosd
	mov	rcx, QWORD PTR [rsp+48]
; Line 550
	mov	rax, QWORD PTR this$[rsp]
	mov	rax, QWORD PTR [rax+320]
	cmp	QWORD PTR [rax+264], 0
	jne	SHORT $LN7@CheckStrea
	mov	r8d, 550				; 00000226H
	lea	rdx, OFFSET FLAT:$SG82501
	lea	rcx, OFFSET FLAT:$SG82502
	call	?DbgAssert@@YAXPEB_W0H@Z		; DbgAssert
$LN7@CheckStrea:
; Line 551
	mov	rax, QWORD PTR this$[rsp]
	mov	rax, QWORD PTR [rax+320]
	mov	rcx, QWORD PTR [rax+264]
	call	?IsConnected@CBasePin@@QEAAHXZ		; CBasePin::IsConnected
	test	eax, eax
	jne	SHORT $LN6@CheckStrea
; Line 552
	mov	eax, -2147220983			; ffffffff80040209H
	jmp	SHORT $LN8@CheckStrea
; Line 553
	jmp	SHORT $LN5@CheckStrea
$LN6@CheckStrea:
; Line 555
	mov	rcx, QWORD PTR this$[rsp]
	call	?IsConnected@CBasePin@@QEAAHXZ		; CBasePin::IsConnected
	test	eax, eax
	jne	SHORT $LN4@CheckStrea
	mov	r8d, 555				; 0000022bH
	lea	rdx, OFFSET FLAT:$SG82507
	lea	rcx, OFFSET FLAT:$SG82508
	call	?DbgAssert@@YAXPEB_W0H@Z		; DbgAssert
$LN4@CheckStrea:
; Line 558
	mov	rax, QWORD PTR this$[rsp]
	movzx	eax, BYTE PTR [rax+249]
	test	eax, eax
	je	SHORT $LN3@CheckStrea
; Line 559
	mov	eax, 1
	jmp	SHORT $LN8@CheckStrea
$LN3@CheckStrea:
; Line 562
	mov	rcx, QWORD PTR this$[rsp]
	call	?IsStopped@CBasePin@@QEAAHXZ		; CBasePin::IsStopped
	test	eax, eax
	je	SHORT $LN2@CheckStrea
; Line 563
	mov	eax, -2147220953			; ffffffff80040227H
	jmp	SHORT $LN8@CheckStrea
$LN2@CheckStrea:
; Line 565
	mov	rax, QWORD PTR this$[rsp]
	movzx	eax, BYTE PTR [rax+80]
	test	eax, eax
	je	SHORT $LN1@CheckStrea
; Line 566
	mov	eax, -2147220981			; ffffffff8004020bH
	jmp	SHORT $LN8@CheckStrea
$LN1@CheckStrea:
; Line 568
	xor	eax, eax
$LN5@CheckStrea:
$LN8@CheckStrea:
; Line 570
	add	rsp, 32					; 00000020H
	pop	rdi
	ret	0
?CheckStreaming@CTransformInputPin@@UEAAJXZ ENDP	; CTransformInputPin::CheckStreaming
_TEXT	ENDS
;	COMDAT pdata
; File c:\downloads\wpf mediakit - copy\src\filters\baseclasses\amfilter.h
pdata	SEGMENT
$pdata$?IsStopped@CBasePin@@QEAAHXZ DD imagerel $LN5
	DD	imagerel $LN5+70
	DD	imagerel $unwind$?IsStopped@CBasePin@@QEAAHXZ
pdata	ENDS
;	COMDAT xdata
xdata	SEGMENT
$unwind$?IsStopped@CBasePin@@QEAAHXZ DD 021e01H
	DD	07006120aH
; Function compile flags: /Odtp /RTCsu
xdata	ENDS
;	COMDAT ?IsStopped@CBasePin@@QEAAHXZ
_TEXT	SEGMENT
tv67 = 0
this$ = 32
?IsStopped@CBasePin@@QEAAHXZ PROC			; CBasePin::IsStopped, COMDAT
; Line 504
$LN5:
	mov	QWORD PTR [rsp+8], rcx
	push	rdi
	sub	rsp, 16
	mov	rdi, rsp
	mov	ecx, 4
	mov	eax, -858993460				; ccccccccH
	rep stosd
	mov	rcx, QWORD PTR [rsp+32]
; Line 505
	mov	rax, QWORD PTR this$[rsp]
	mov	rax, QWORD PTR [rax+88]
	cmp	DWORD PTR [rax+48], 0
	jne	SHORT $LN3@IsStopped
	mov	DWORD PTR tv67[rsp], 1
	jmp	SHORT $LN4@IsStopped
$LN3@IsStopped:
	mov	DWORD PTR tv67[rsp], 0
$LN4@IsStopped:
	mov	eax, DWORD PTR tv67[rsp]
; Line 506
	add	rsp, 16
	pop	rdi
	ret	0
?IsStopped@CBasePin@@QEAAHXZ ENDP			; CBasePin::IsStopped
_TEXT	ENDS
PUBLIC	??_7CTransformInputPin@@6B@			; CTransformInputPin::`vftable'
PUBLIC	??_7CTransformInputPin@@6BIQualityControl@@@	; CTransformInputPin::`vftable'
PUBLIC	??_7CTransformInputPin@@6BIPin@@@		; CTransformInputPin::`vftable'
PUBLIC	??_7CTransformInputPin@@6BCUnknown@@@		; CTransformInputPin::`vftable'
PUBLIC	??_R4CTransformInputPin@@6BCUnknown@@@		; CTransformInputPin::`RTTI Complete Object Locator'
PUBLIC	??_R0?AVCTransformInputPin@@@8			; CTransformInputPin `RTTI Type Descriptor'
PUBLIC	??_R3CTransformInputPin@@8			; CTransformInputPin::`RTTI Class Hierarchy Descriptor'
PUBLIC	??_R2CTransformInputPin@@8			; CTransformInputPin::`RTTI Base Class Array'
PUBLIC	??_R1A@?0A@EA@CTransformInputPin@@8		; CTransformInputPin::`RTTI Base Class Descriptor at (0,-1,0,64)'
PUBLIC	??_R1A@?0A@EA@CBaseInputPin@@8			; CBaseInputPin::`RTTI Base Class Descriptor at (0,-1,0,64)'
PUBLIC	??_R0?AVCBaseInputPin@@@8			; CBaseInputPin `RTTI Type Descriptor'
PUBLIC	??_R3CBaseInputPin@@8				; CBaseInputPin::`RTTI Class Hierarchy Descriptor'
PUBLIC	??_R2CBaseInputPin@@8				; CBaseInputPin::`RTTI Base Class Array'
PUBLIC	??_R1A@?0A@EA@CBasePin@@8			; CBasePin::`RTTI Base Class Descriptor at (0,-1,0,64)'
PUBLIC	??_R0?AVCBasePin@@@8				; CBasePin `RTTI Type Descriptor'
PUBLIC	??_R3CBasePin@@8				; CBasePin::`RTTI Class Hierarchy Descriptor'
PUBLIC	??_R2CBasePin@@8				; CBasePin::`RTTI Base Class Array'
PUBLIC	??_R1A@?0A@EA@CUnknown@@8			; CUnknown::`RTTI Base Class Descriptor at (0,-1,0,64)'
PUBLIC	??_R0?AVCUnknown@@@8				; CUnknown `RTTI Type Descriptor'
PUBLIC	??_R3CUnknown@@8				; CUnknown::`RTTI Class Hierarchy Descriptor'
PUBLIC	??_R2CUnknown@@8				; CUnknown::`RTTI Base Class Array'
PUBLIC	??_R1A@?0A@EA@INonDelegatingUnknown@@8		; INonDelegatingUnknown::`RTTI Base Class Descriptor at (0,-1,0,64)'
PUBLIC	??_R0?AUINonDelegatingUnknown@@@8		; INonDelegatingUnknown `RTTI Type Descriptor'
PUBLIC	??_R3INonDelegatingUnknown@@8			; INonDelegatingUnknown::`RTTI Class Hierarchy Descriptor'
PUBLIC	??_R2INonDelegatingUnknown@@8			; INonDelegatingUnknown::`RTTI Base Class Array'
PUBLIC	??_R17?0A@EA@CBaseObject@@8			; CBaseObject::`RTTI Base Class Descriptor at (8,-1,0,64)'
PUBLIC	??_R0?AVCBaseObject@@@8				; CBaseObject `RTTI Type Descriptor'
PUBLIC	??_R3CBaseObject@@8				; CBaseObject::`RTTI Class Hierarchy Descriptor'
PUBLIC	??_R2CBaseObject@@8				; CBaseObject::`RTTI Base Class Array'
PUBLIC	??_R1A@?0A@EA@CBaseObject@@8			; CBaseObject::`RTTI Base Class Descriptor at (0,-1,0,64)'
PUBLIC	??_R1CA@?0A@EA@IPin@@8				; IPin::`RTTI Base Class Descriptor at (32,-1,0,64)'
PUBLIC	??_R0?AUIPin@@@8				; IPin `RTTI Type Descriptor'
PUBLIC	??_R3IPin@@8					; IPin::`RTTI Class Hierarchy Descriptor'
PUBLIC	??_R2IPin@@8					; IPin::`RTTI Base Class Array'
PUBLIC	??_R1A@?0A@EA@IPin@@8				; IPin::`RTTI Base Class Descriptor at (0,-1,0,64)'
PUBLIC	??_R1A@?0A@EA@IUnknown@@8			; IUnknown::`RTTI Base Class Descriptor at (0,-1,0,64)'
PUBLIC	??_R0?AUIUnknown@@@8				; IUnknown `RTTI Type Descriptor'
PUBLIC	??_R3IUnknown@@8				; IUnknown::`RTTI Class Hierarchy Descriptor'
PUBLIC	??_R2IUnknown@@8				; IUnknown::`RTTI Base Class Array'
PUBLIC	??_R1CA@?0A@EC@IUnknown@@8			; IUnknown::`RTTI Base Class Descriptor at (32,-1,0,66)'
PUBLIC	??_R1CI@?0A@EA@IQualityControl@@8		; IQualityControl::`RTTI Base Class Descriptor at (40,-1,0,64)'
PUBLIC	??_R0?AUIQualityControl@@@8			; IQualityControl `RTTI Type Descriptor'
PUBLIC	??_R3IQualityControl@@8				; IQualityControl::`RTTI Class Hierarchy Descriptor'
PUBLIC	??_R2IQualityControl@@8				; IQualityControl::`RTTI Base Class Array'
PUBLIC	??_R1A@?0A@EA@IQualityControl@@8		; IQualityControl::`RTTI Base Class Descriptor at (0,-1,0,64)'
PUBLIC	??_R1CI@?0A@EC@IUnknown@@8			; IUnknown::`RTTI Base Class Descriptor at (40,-1,0,66)'
PUBLIC	??_R1OI@?0A@EA@IMemInputPin@@8			; IMemInputPin::`RTTI Base Class Descriptor at (232,-1,0,64)'
PUBLIC	??_R0?AUIMemInputPin@@@8			; IMemInputPin `RTTI Type Descriptor'
PUBLIC	??_R3IMemInputPin@@8				; IMemInputPin::`RTTI Class Hierarchy Descriptor'
PUBLIC	??_R2IMemInputPin@@8				; IMemInputPin::`RTTI Base Class Array'
PUBLIC	??_R1A@?0A@EA@IMemInputPin@@8			; IMemInputPin::`RTTI Base Class Descriptor at (0,-1,0,64)'
PUBLIC	??_R1OI@?0A@EC@IUnknown@@8			; IUnknown::`RTTI Base Class Descriptor at (232,-1,0,66)'
PUBLIC	?CheckMediaType@CTransformInputPin@@UEAAJPEBVCMediaType@@@Z ; CTransformInputPin::CheckMediaType
PUBLIC	?SetMediaType@CTransformInputPin@@UEAAJPEBVCMediaType@@@Z ; CTransformInputPin::SetMediaType
PUBLIC	?CheckConnect@CTransformInputPin@@UEAAJPEAUIPin@@@Z ; CTransformInputPin::CheckConnect
PUBLIC	?BreakConnect@CTransformInputPin@@UEAAJXZ	; CTransformInputPin::BreakConnect
PUBLIC	?CompleteConnect@CTransformInputPin@@UEAAJPEAUIPin@@@Z ; CTransformInputPin::CompleteConnect
PUBLIC	??_R4CTransformInputPin@@6BIPin@@@		; CTransformInputPin::`RTTI Complete Object Locator'
PUBLIC	?QueryInterface@CBaseInputPin@@UEAAJAEBU_GUID@@PEAPEAX@Z ; CBaseInputPin::QueryInterface
PUBLIC	?AddRef@CBaseInputPin@@UEAAKXZ			; CBaseInputPin::AddRef
PUBLIC	?Release@CBaseInputPin@@UEAAKXZ			; CBaseInputPin::Release
PUBLIC	?QueryId@CTransformInputPin@@UEAAJPEAPEA_W@Z	; CTransformInputPin::QueryId
PUBLIC	?QueryInternalConnections@CBasePin@@UEAAJPEAPEAUIPin@@PEAK@Z ; CBasePin::QueryInternalConnections
PUBLIC	?EndOfStream@CTransformInputPin@@UEAAJXZ	; CTransformInputPin::EndOfStream
PUBLIC	?BeginFlush@CTransformInputPin@@UEAAJXZ		; CTransformInputPin::BeginFlush
PUBLIC	?EndFlush@CTransformInputPin@@UEAAJXZ		; CTransformInputPin::EndFlush
PUBLIC	?NewSegment@CTransformInputPin@@UEAAJ_J0N@Z	; CTransformInputPin::NewSegment
PUBLIC	??_R4CTransformInputPin@@6BIQualityControl@@@	; CTransformInputPin::`RTTI Complete Object Locator'
PUBLIC	?QueryInterface@CBaseInputPin@@W7EAAJAEBU_GUID@@PEAPEAX@Z ; [thunk]:CBaseInputPin::QueryInterface`adjustor{8}'
PUBLIC	?AddRef@CBaseInputPin@@W7EAAKXZ			; [thunk]:CBaseInputPin::AddRef`adjustor{8}'
PUBLIC	?Release@CBaseInputPin@@W7EAAKXZ		; [thunk]:CBaseInputPin::Release`adjustor{8}'
PUBLIC	??_R4CTransformInputPin@@6B@			; CTransformInputPin::`RTTI Complete Object Locator'
PUBLIC	?QueryInterface@CBaseInputPin@@WMI@EAAJAEBU_GUID@@PEAPEAX@Z ; [thunk]:CBaseInputPin::QueryInterface`adjustor{200}'
PUBLIC	?AddRef@CBaseInputPin@@WMI@EAAKXZ		; [thunk]:CBaseInputPin::AddRef`adjustor{200}'
PUBLIC	?Release@CBaseInputPin@@WMI@EAAKXZ		; [thunk]:CBaseInputPin::Release`adjustor{200}'
PUBLIC	?Receive@CTransformInputPin@@UEAAJPEAUIMediaSample@@@Z ; CTransformInputPin::Receive
EXTRN	??1CBaseInputPin@@UEAA@XZ:PROC			; CBaseInputPin::~CBaseInputPin
EXTRN	??0CBaseInputPin@@QEAA@PEA_WPEAVCBaseFilter@@PEAVCCritSec@@PEAJPEB_W@Z:PROC ; CBaseInputPin::CBaseInputPin
EXTRN	??_7type_info@@6B@:BYTE				; type_info::`vftable'
EXTRN	?NonDelegatingQueryInterface@CBaseInputPin@@UEAAJAEBU_GUID@@PEAPEAX@Z:PROC ; CBaseInputPin::NonDelegatingQueryInterface
EXTRN	?NonDelegatingAddRef@CBasePin@@UEAAKXZ:PROC	; CBasePin::NonDelegatingAddRef
EXTRN	?NonDelegatingRelease@CBasePin@@UEAAKXZ:PROC	; CBasePin::NonDelegatingRelease
EXTRN	??_ECTransformInputPin@@UEAAPEAXI@Z:PROC	; CTransformInputPin::`vector deleting destructor'
EXTRN	?GetMediaTypeVersion@CBasePin@@UEAAJXZ:PROC	; CBasePin::GetMediaTypeVersion
EXTRN	?Active@CBasePin@@UEAAJXZ:PROC			; CBasePin::Active
EXTRN	?Inactive@CBaseInputPin@@UEAAJXZ:PROC		; CBaseInputPin::Inactive
EXTRN	?Run@CBasePin@@UEAAJ_J@Z:PROC			; CBasePin::Run
EXTRN	?GetMediaType@CBasePin@@UEAAJHPEAVCMediaType@@@Z:PROC ; CBasePin::GetMediaType
EXTRN	?Connect@CBasePin@@UEAAJPEAUIPin@@PEBU_AMMediaType@@@Z:PROC ; CBasePin::Connect
EXTRN	?ReceiveConnection@CBasePin@@UEAAJPEAUIPin@@PEBU_AMMediaType@@@Z:PROC ; CBasePin::ReceiveConnection
EXTRN	?Disconnect@CBasePin@@UEAAJXZ:PROC		; CBasePin::Disconnect
EXTRN	?ConnectedTo@CBasePin@@UEAAJPEAPEAUIPin@@@Z:PROC ; CBasePin::ConnectedTo
EXTRN	?ConnectionMediaType@CBasePin@@UEAAJPEAU_AMMediaType@@@Z:PROC ; CBasePin::ConnectionMediaType
EXTRN	?QueryPinInfo@CBasePin@@UEAAJPEAU_PinInfo@@@Z:PROC ; CBasePin::QueryPinInfo
EXTRN	?QueryDirection@CBasePin@@UEAAJPEAW4_PinDirection@@@Z:PROC ; CBasePin::QueryDirection
EXTRN	?QueryAccept@CBasePin@@UEAAJPEBU_AMMediaType@@@Z:PROC ; CBasePin::QueryAccept
EXTRN	?EnumMediaTypes@CBasePin@@UEAAJPEAPEAUIEnumMediaTypes@@@Z:PROC ; CBasePin::EnumMediaTypes
EXTRN	?Notify@CBaseInputPin@@UEAAJPEAUIBaseFilter@@UtagQuality@@@Z:PROC ; CBaseInputPin::Notify
EXTRN	?SetSink@CBasePin@@UEAAJPEAUIQualityControl@@@Z:PROC ; CBasePin::SetSink
EXTRN	?GetAllocator@CBaseInputPin@@UEAAJPEAPEAUIMemAllocator@@@Z:PROC ; CBaseInputPin::GetAllocator
EXTRN	?NotifyAllocator@CBaseInputPin@@UEAAJPEAUIMemAllocator@@H@Z:PROC ; CBaseInputPin::NotifyAllocator
EXTRN	?GetAllocatorRequirements@CBaseInputPin@@UEAAJPEAU_AllocatorProperties@@@Z:PROC ; CBaseInputPin::GetAllocatorRequirements
EXTRN	?ReceiveMultiple@CBaseInputPin@@UEAAJPEAPEAUIMediaSample@@JPEAJ@Z:PROC ; CBaseInputPin::ReceiveMultiple
EXTRN	?ReceiveCanBlock@CBaseInputPin@@UEAAJXZ:PROC	; CBaseInputPin::ReceiveCanBlock
;	COMDAT pdata
; File c:\downloads\wpf mediakit - copy\src\filters\baseclasses\transfrm.cpp
pdata	SEGMENT
$pdata$??0CTransformInputPin@@QEAA@PEA_WPEAVCTransformFilter@@PEAJPEB_W@Z DD imagerel $LN4
	DD	imagerel $LN4+225
	DD	imagerel $unwind$??0CTransformInputPin@@QEAA@PEA_WPEAVCTransformFilter@@PEAJPEB_W@Z
pdata	ENDS
;	COMDAT pdata
pdata	SEGMENT
$pdata$?dtor$0@?0???0CTransformInputPin@@QEAA@PEA_WPEAVCTransformFilter@@PEAJPEB_W@Z@4HA DD imagerel ?dtor$0@?0???0CTransformInputPin@@QEAA@PEA_WPEAVCTransformFilter@@PEAJPEB_W@Z@4HA
	DD	imagerel ?dtor$0@?0???0CTransformInputPin@@QEAA@PEA_WPEAVCTransformFilter@@PEAJPEB_W@Z@4HA+35
	DD	imagerel $unwind$?dtor$0@?0???0CTransformInputPin@@QEAA@PEA_WPEAVCTransformFilter@@PEAJPEB_W@Z@4HA
pdata	ENDS
;	COMDAT xdata
xdata	SEGMENT
$ip2state$??0CTransformInputPin@@QEAA@PEA_WPEAVCTransformFilter@@PEAJPEB_W@Z DD imagerel ??0CTransformInputPin@@QEAA@PEA_WPEAVCTransformFilter@@PEAJPEB_W@Z
	DD	0ffffffffH
	DD	imagerel ??0CTransformInputPin@@QEAA@PEA_WPEAVCTransformFilter@@PEAJPEB_W@Z+109
	DD	00H
	DD	imagerel ??0CTransformInputPin@@QEAA@PEA_WPEAVCTransformFilter@@PEAJPEB_W@Z+214
	DD	0ffffffffH
xdata	ENDS
;	COMDAT ??_R4CTransformInputPin@@6B@
rdata$r	SEGMENT
??_R4CTransformInputPin@@6B@ DD 01H			; CTransformInputPin::`RTTI Complete Object Locator'
	DD	0e8H
	DD	00H
	DD	imagerel ??_R0?AVCTransformInputPin@@@8
	DD	imagerel ??_R3CTransformInputPin@@8
	DD	imagerel ??_R4CTransformInputPin@@6B@
rdata$r	ENDS
;	COMDAT ??_R4CTransformInputPin@@6BIQualityControl@@@
rdata$r	SEGMENT
??_R4CTransformInputPin@@6BIQualityControl@@@ DD 01H	; CTransformInputPin::`RTTI Complete Object Locator'
	DD	028H
	DD	00H
	DD	imagerel ??_R0?AVCTransformInputPin@@@8
	DD	imagerel ??_R3CTransformInputPin@@8
	DD	imagerel ??_R4CTransformInputPin@@6BIQualityControl@@@
rdata$r	ENDS
;	COMDAT ??_R4CTransformInputPin@@6BIPin@@@
rdata$r	SEGMENT
??_R4CTransformInputPin@@6BIPin@@@ DD 01H		; CTransformInputPin::`RTTI Complete Object Locator'
	DD	020H
	DD	00H
	DD	imagerel ??_R0?AVCTransformInputPin@@@8
	DD	imagerel ??_R3CTransformInputPin@@8
	DD	imagerel ??_R4CTransformInputPin@@6BIPin@@@
rdata$r	ENDS
;	COMDAT ??_R1OI@?0A@EC@IUnknown@@8
rdata$r	SEGMENT
??_R1OI@?0A@EC@IUnknown@@8 DD imagerel ??_R0?AUIUnknown@@@8 ; IUnknown::`RTTI Base Class Descriptor at (232,-1,0,66)'
	DD	00H
	DD	0e8H
	DD	0ffffffffH
	DD	00H
	DD	042H
	DD	imagerel ??_R3IUnknown@@8
rdata$r	ENDS
;	COMDAT ??_R1A@?0A@EA@IMemInputPin@@8
rdata$r	SEGMENT
??_R1A@?0A@EA@IMemInputPin@@8 DD imagerel ??_R0?AUIMemInputPin@@@8 ; IMemInputPin::`RTTI Base Class Descriptor at (0,-1,0,64)'
	DD	01H
	DD	00H
	DD	0ffffffffH
	DD	00H
	DD	040H
	DD	imagerel ??_R3IMemInputPin@@8
rdata$r	ENDS
;	COMDAT ??_R2IMemInputPin@@8
rdata$r	SEGMENT
??_R2IMemInputPin@@8 DD imagerel ??_R1A@?0A@EA@IMemInputPin@@8 ; IMemInputPin::`RTTI Base Class Array'
	DD	imagerel ??_R1A@?0A@EA@IUnknown@@8
	ORG $+3
rdata$r	ENDS
;	COMDAT ??_R3IMemInputPin@@8
rdata$r	SEGMENT
??_R3IMemInputPin@@8 DD 00H				; IMemInputPin::`RTTI Class Hierarchy Descriptor'
	DD	00H
	DD	02H
	DD	imagerel ??_R2IMemInputPin@@8
rdata$r	ENDS
;	COMDAT ??_R0?AUIMemInputPin@@@8
_DATA	SEGMENT
??_R0?AUIMemInputPin@@@8 DQ FLAT:??_7type_info@@6B@	; IMemInputPin `RTTI Type Descriptor'
	DQ	0000000000000000H
	DB	'.?AUIMemInputPin@@', 00H
_DATA	ENDS
;	COMDAT ??_R1OI@?0A@EA@IMemInputPin@@8
rdata$r	SEGMENT
??_R1OI@?0A@EA@IMemInputPin@@8 DD imagerel ??_R0?AUIMemInputPin@@@8 ; IMemInputPin::`RTTI Base Class Descriptor at (232,-1,0,64)'
	DD	01H
	DD	0e8H
	DD	0ffffffffH
	DD	00H
	DD	040H
	DD	imagerel ??_R3IMemInputPin@@8
rdata$r	ENDS
;	COMDAT ??_R1CI@?0A@EC@IUnknown@@8
rdata$r	SEGMENT
??_R1CI@?0A@EC@IUnknown@@8 DD imagerel ??_R0?AUIUnknown@@@8 ; IUnknown::`RTTI Base Class Descriptor at (40,-1,0,66)'
	DD	00H
	DD	028H
	DD	0ffffffffH
	DD	00H
	DD	042H
	DD	imagerel ??_R3IUnknown@@8
rdata$r	ENDS
;	COMDAT ??_R1A@?0A@EA@IQualityControl@@8
rdata$r	SEGMENT
??_R1A@?0A@EA@IQualityControl@@8 DD imagerel ??_R0?AUIQualityControl@@@8 ; IQualityControl::`RTTI Base Class Descriptor at (0,-1,0,64)'
	DD	01H
	DD	00H
	DD	0ffffffffH
	DD	00H
	DD	040H
	DD	imagerel ??_R3IQualityControl@@8
rdata$r	ENDS
;	COMDAT ??_R2IQualityControl@@8
rdata$r	SEGMENT
??_R2IQualityControl@@8 DD imagerel ??_R1A@?0A@EA@IQualityControl@@8 ; IQualityControl::`RTTI Base Class Array'
	DD	imagerel ??_R1A@?0A@EA@IUnknown@@8
	ORG $+3
rdata$r	ENDS
;	COMDAT ??_R3IQualityControl@@8
rdata$r	SEGMENT
??_R3IQualityControl@@8 DD 00H				; IQualityControl::`RTTI Class Hierarchy Descriptor'
	DD	00H
	DD	02H
	DD	imagerel ??_R2IQualityControl@@8
rdata$r	ENDS
;	COMDAT ??_R0?AUIQualityControl@@@8
_DATA	SEGMENT
??_R0?AUIQualityControl@@@8 DQ FLAT:??_7type_info@@6B@	; IQualityControl `RTTI Type Descriptor'
	DQ	0000000000000000H
	DB	'.?AUIQualityControl@@', 00H
_DATA	ENDS
;	COMDAT ??_R1CI@?0A@EA@IQualityControl@@8
rdata$r	SEGMENT
??_R1CI@?0A@EA@IQualityControl@@8 DD imagerel ??_R0?AUIQualityControl@@@8 ; IQualityControl::`RTTI Base Class Descriptor at (40,-1,0,64)'
	DD	01H
	DD	028H
	DD	0ffffffffH
	DD	00H
	DD	040H
	DD	imagerel ??_R3IQualityControl@@8
rdata$r	ENDS
;	COMDAT ??_R1CA@?0A@EC@IUnknown@@8
rdata$r	SEGMENT
??_R1CA@?0A@EC@IUnknown@@8 DD imagerel ??_R0?AUIUnknown@@@8 ; IUnknown::`RTTI Base Class Descriptor at (32,-1,0,66)'
	DD	00H
	DD	020H
	DD	0ffffffffH
	DD	00H
	DD	042H
	DD	imagerel ??_R3IUnknown@@8
rdata$r	ENDS
;	COMDAT ??_R2IUnknown@@8
rdata$r	SEGMENT
??_R2IUnknown@@8 DD imagerel ??_R1A@?0A@EA@IUnknown@@8	; IUnknown::`RTTI Base Class Array'
	ORG $+3
rdata$r	ENDS
;	COMDAT ??_R3IUnknown@@8
rdata$r	SEGMENT
??_R3IUnknown@@8 DD 00H					; IUnknown::`RTTI Class Hierarchy Descriptor'
	DD	00H
	DD	01H
	DD	imagerel ??_R2IUnknown@@8
rdata$r	ENDS
;	COMDAT ??_R0?AUIUnknown@@@8
_DATA	SEGMENT
??_R0?AUIUnknown@@@8 DQ FLAT:??_7type_info@@6B@		; IUnknown `RTTI Type Descriptor'
	DQ	0000000000000000H
	DB	'.?AUIUnknown@@', 00H
_DATA	ENDS
;	COMDAT ??_R1A@?0A@EA@IUnknown@@8
rdata$r	SEGMENT
??_R1A@?0A@EA@IUnknown@@8 DD imagerel ??_R0?AUIUnknown@@@8 ; IUnknown::`RTTI Base Class Descriptor at (0,-1,0,64)'
	DD	00H
	DD	00H
	DD	0ffffffffH
	DD	00H
	DD	040H
	DD	imagerel ??_R3IUnknown@@8
rdata$r	ENDS
;	COMDAT ??_R1A@?0A@EA@IPin@@8
rdata$r	SEGMENT
??_R1A@?0A@EA@IPin@@8 DD imagerel ??_R0?AUIPin@@@8	; IPin::`RTTI Base Class Descriptor at (0,-1,0,64)'
	DD	01H
	DD	00H
	DD	0ffffffffH
	DD	00H
	DD	040H
	DD	imagerel ??_R3IPin@@8
rdata$r	ENDS
;	COMDAT ??_R2IPin@@8
rdata$r	SEGMENT
??_R2IPin@@8 DD	imagerel ??_R1A@?0A@EA@IPin@@8		; IPin::`RTTI Base Class Array'
	DD	imagerel ??_R1A@?0A@EA@IUnknown@@8
	ORG $+3
rdata$r	ENDS
;	COMDAT ??_R3IPin@@8
rdata$r	SEGMENT
??_R3IPin@@8 DD	00H					; IPin::`RTTI Class Hierarchy Descriptor'
	DD	00H
	DD	02H
	DD	imagerel ??_R2IPin@@8
rdata$r	ENDS
;	COMDAT ??_R0?AUIPin@@@8
_DATA	SEGMENT
??_R0?AUIPin@@@8 DQ FLAT:??_7type_info@@6B@		; IPin `RTTI Type Descriptor'
	DQ	0000000000000000H
	DB	'.?AUIPin@@', 00H
_DATA	ENDS
;	COMDAT ??_R1CA@?0A@EA@IPin@@8
rdata$r	SEGMENT
??_R1CA@?0A@EA@IPin@@8 DD imagerel ??_R0?AUIPin@@@8	; IPin::`RTTI Base Class Descriptor at (32,-1,0,64)'
	DD	01H
	DD	020H
	DD	0ffffffffH
	DD	00H
	DD	040H
	DD	imagerel ??_R3IPin@@8
rdata$r	ENDS
;	COMDAT ??_R1A@?0A@EA@CBaseObject@@8
rdata$r	SEGMENT
??_R1A@?0A@EA@CBaseObject@@8 DD imagerel ??_R0?AVCBaseObject@@@8 ; CBaseObject::`RTTI Base Class Descriptor at (0,-1,0,64)'
	DD	00H
	DD	00H
	DD	0ffffffffH
	DD	00H
	DD	040H
	DD	imagerel ??_R3CBaseObject@@8
rdata$r	ENDS
;	COMDAT ??_R2CBaseObject@@8
rdata$r	SEGMENT
??_R2CBaseObject@@8 DD imagerel ??_R1A@?0A@EA@CBaseObject@@8 ; CBaseObject::`RTTI Base Class Array'
	ORG $+3
rdata$r	ENDS
;	COMDAT ??_R3CBaseObject@@8
rdata$r	SEGMENT
??_R3CBaseObject@@8 DD 00H				; CBaseObject::`RTTI Class Hierarchy Descriptor'
	DD	00H
	DD	01H
	DD	imagerel ??_R2CBaseObject@@8
rdata$r	ENDS
;	COMDAT ??_R0?AVCBaseObject@@@8
_DATA	SEGMENT
??_R0?AVCBaseObject@@@8 DQ FLAT:??_7type_info@@6B@	; CBaseObject `RTTI Type Descriptor'
	DQ	0000000000000000H
	DB	'.?AVCBaseObject@@', 00H
_DATA	ENDS
;	COMDAT ??_R17?0A@EA@CBaseObject@@8
rdata$r	SEGMENT
??_R17?0A@EA@CBaseObject@@8 DD imagerel ??_R0?AVCBaseObject@@@8 ; CBaseObject::`RTTI Base Class Descriptor at (8,-1,0,64)'
	DD	00H
	DD	08H
	DD	0ffffffffH
	DD	00H
	DD	040H
	DD	imagerel ??_R3CBaseObject@@8
rdata$r	ENDS
;	COMDAT ??_R2INonDelegatingUnknown@@8
rdata$r	SEGMENT
??_R2INonDelegatingUnknown@@8 DD imagerel ??_R1A@?0A@EA@INonDelegatingUnknown@@8 ; INonDelegatingUnknown::`RTTI Base Class Array'
	ORG $+3
rdata$r	ENDS
;	COMDAT ??_R3INonDelegatingUnknown@@8
rdata$r	SEGMENT
??_R3INonDelegatingUnknown@@8 DD 00H			; INonDelegatingUnknown::`RTTI Class Hierarchy Descriptor'
	DD	00H
	DD	01H
	DD	imagerel ??_R2INonDelegatingUnknown@@8
rdata$r	ENDS
;	COMDAT ??_R0?AUINonDelegatingUnknown@@@8
_DATA	SEGMENT
??_R0?AUINonDelegatingUnknown@@@8 DQ FLAT:??_7type_info@@6B@ ; INonDelegatingUnknown `RTTI Type Descriptor'
	DQ	0000000000000000H
	DB	'.?AUINonDelegatingUnknown@@', 00H
_DATA	ENDS
;	COMDAT ??_R1A@?0A@EA@INonDelegatingUnknown@@8
rdata$r	SEGMENT
??_R1A@?0A@EA@INonDelegatingUnknown@@8 DD imagerel ??_R0?AUINonDelegatingUnknown@@@8 ; INonDelegatingUnknown::`RTTI Base Class Descriptor at (0,-1,0,64)'
	DD	00H
	DD	00H
	DD	0ffffffffH
	DD	00H
	DD	040H
	DD	imagerel ??_R3INonDelegatingUnknown@@8
rdata$r	ENDS
;	COMDAT ??_R2CUnknown@@8
rdata$r	SEGMENT
??_R2CUnknown@@8 DD imagerel ??_R1A@?0A@EA@CUnknown@@8	; CUnknown::`RTTI Base Class Array'
	DD	imagerel ??_R1A@?0A@EA@INonDelegatingUnknown@@8
	DD	imagerel ??_R17?0A@EA@CBaseObject@@8
	ORG $+3
rdata$r	ENDS
;	COMDAT ??_R3CUnknown@@8
rdata$r	SEGMENT
??_R3CUnknown@@8 DD 00H					; CUnknown::`RTTI Class Hierarchy Descriptor'
	DD	01H
	DD	03H
	DD	imagerel ??_R2CUnknown@@8
rdata$r	ENDS
;	COMDAT ??_R0?AVCUnknown@@@8
_DATA	SEGMENT
??_R0?AVCUnknown@@@8 DQ FLAT:??_7type_info@@6B@		; CUnknown `RTTI Type Descriptor'
	DQ	0000000000000000H
	DB	'.?AVCUnknown@@', 00H
_DATA	ENDS
;	COMDAT ??_R1A@?0A@EA@CUnknown@@8
rdata$r	SEGMENT
??_R1A@?0A@EA@CUnknown@@8 DD imagerel ??_R0?AVCUnknown@@@8 ; CUnknown::`RTTI Base Class Descriptor at (0,-1,0,64)'
	DD	02H
	DD	00H
	DD	0ffffffffH
	DD	00H
	DD	040H
	DD	imagerel ??_R3CUnknown@@8
rdata$r	ENDS
;	COMDAT ??_R2CBasePin@@8
rdata$r	SEGMENT
??_R2CBasePin@@8 DD imagerel ??_R1A@?0A@EA@CBasePin@@8	; CBasePin::`RTTI Base Class Array'
	DD	imagerel ??_R1A@?0A@EA@CUnknown@@8
	DD	imagerel ??_R1A@?0A@EA@INonDelegatingUnknown@@8
	DD	imagerel ??_R17?0A@EA@CBaseObject@@8
	DD	imagerel ??_R1CA@?0A@EA@IPin@@8
	DD	imagerel ??_R1CA@?0A@EC@IUnknown@@8
	DD	imagerel ??_R1CI@?0A@EA@IQualityControl@@8
	DD	imagerel ??_R1CI@?0A@EC@IUnknown@@8
	ORG $+3
rdata$r	ENDS
;	COMDAT ??_R3CBasePin@@8
rdata$r	SEGMENT
??_R3CBasePin@@8 DD 00H					; CBasePin::`RTTI Class Hierarchy Descriptor'
	DD	01H
	DD	08H
	DD	imagerel ??_R2CBasePin@@8
rdata$r	ENDS
;	COMDAT ??_R0?AVCBasePin@@@8
_DATA	SEGMENT
??_R0?AVCBasePin@@@8 DQ FLAT:??_7type_info@@6B@		; CBasePin `RTTI Type Descriptor'
	DQ	0000000000000000H
	DB	'.?AVCBasePin@@', 00H
_DATA	ENDS
;	COMDAT ??_R1A@?0A@EA@CBasePin@@8
rdata$r	SEGMENT
??_R1A@?0A@EA@CBasePin@@8 DD imagerel ??_R0?AVCBasePin@@@8 ; CBasePin::`RTTI Base Class Descriptor at (0,-1,0,64)'
	DD	07H
	DD	00H
	DD	0ffffffffH
	DD	00H
	DD	040H
	DD	imagerel ??_R3CBasePin@@8
rdata$r	ENDS
;	COMDAT ??_R2CBaseInputPin@@8
rdata$r	SEGMENT
??_R2CBaseInputPin@@8 DD imagerel ??_R1A@?0A@EA@CBaseInputPin@@8 ; CBaseInputPin::`RTTI Base Class Array'
	DD	imagerel ??_R1A@?0A@EA@CBasePin@@8
	DD	imagerel ??_R1A@?0A@EA@CUnknown@@8
	DD	imagerel ??_R1A@?0A@EA@INonDelegatingUnknown@@8
	DD	imagerel ??_R17?0A@EA@CBaseObject@@8
	DD	imagerel ??_R1CA@?0A@EA@IPin@@8
	DD	imagerel ??_R1CA@?0A@EC@IUnknown@@8
	DD	imagerel ??_R1CI@?0A@EA@IQualityControl@@8
	DD	imagerel ??_R1CI@?0A@EC@IUnknown@@8
	DD	imagerel ??_R1OI@?0A@EA@IMemInputPin@@8
	DD	imagerel ??_R1OI@?0A@EC@IUnknown@@8
	ORG $+3
rdata$r	ENDS
;	COMDAT ??_R3CBaseInputPin@@8
rdata$r	SEGMENT
??_R3CBaseInputPin@@8 DD 00H				; CBaseInputPin::`RTTI Class Hierarchy Descriptor'
	DD	05H
	DD	0bH
	DD	imagerel ??_R2CBaseInputPin@@8
rdata$r	ENDS
;	COMDAT ??_R0?AVCBaseInputPin@@@8
_DATA	SEGMENT
??_R0?AVCBaseInputPin@@@8 DQ FLAT:??_7type_info@@6B@	; CBaseInputPin `RTTI Type Descriptor'
	DQ	0000000000000000H
	DB	'.?AVCBaseInputPin@@', 00H
_DATA	ENDS
;	COMDAT ??_R1A@?0A@EA@CBaseInputPin@@8
rdata$r	SEGMENT
??_R1A@?0A@EA@CBaseInputPin@@8 DD imagerel ??_R0?AVCBaseInputPin@@@8 ; CBaseInputPin::`RTTI Base Class Descriptor at (0,-1,0,64)'
	DD	0aH
	DD	00H
	DD	0ffffffffH
	DD	00H
	DD	040H
	DD	imagerel ??_R3CBaseInputPin@@8
rdata$r	ENDS
;	COMDAT ??_R1A@?0A@EA@CTransformInputPin@@8
rdata$r	SEGMENT
??_R1A@?0A@EA@CTransformInputPin@@8 DD imagerel ??_R0?AVCTransformInputPin@@@8 ; CTransformInputPin::`RTTI Base Class Descriptor at (0,-1,0,64)'
	DD	0bH
	DD	00H
	DD	0ffffffffH
	DD	00H
	DD	040H
	DD	imagerel ??_R3CTransformInputPin@@8
rdata$r	ENDS
;	COMDAT ??_R2CTransformInputPin@@8
rdata$r	SEGMENT
??_R2CTransformInputPin@@8 DD imagerel ??_R1A@?0A@EA@CTransformInputPin@@8 ; CTransformInputPin::`RTTI Base Class Array'
	DD	imagerel ??_R1A@?0A@EA@CBaseInputPin@@8
	DD	imagerel ??_R1A@?0A@EA@CBasePin@@8
	DD	imagerel ??_R1A@?0A@EA@CUnknown@@8
	DD	imagerel ??_R1A@?0A@EA@INonDelegatingUnknown@@8
	DD	imagerel ??_R17?0A@EA@CBaseObject@@8
	DD	imagerel ??_R1CA@?0A@EA@IPin@@8
	DD	imagerel ??_R1CA@?0A@EC@IUnknown@@8
	DD	imagerel ??_R1CI@?0A@EA@IQualityControl@@8
	DD	imagerel ??_R1CI@?0A@EC@IUnknown@@8
	DD	imagerel ??_R1OI@?0A@EA@IMemInputPin@@8
	DD	imagerel ??_R1OI@?0A@EC@IUnknown@@8
	ORG $+3
rdata$r	ENDS
;	COMDAT ??_R3CTransformInputPin@@8
rdata$r	SEGMENT
??_R3CTransformInputPin@@8 DD 00H			; CTransformInputPin::`RTTI Class Hierarchy Descriptor'
	DD	01H
	DD	0cH
	DD	imagerel ??_R2CTransformInputPin@@8
rdata$r	ENDS
;	COMDAT ??_R0?AVCTransformInputPin@@@8
_DATA	SEGMENT
??_R0?AVCTransformInputPin@@@8 DQ FLAT:??_7type_info@@6B@ ; CTransformInputPin `RTTI Type Descriptor'
	DQ	0000000000000000H
	DB	'.?AVCTransformInputPin@@', 00H
_DATA	ENDS
;	COMDAT ??_R4CTransformInputPin@@6BCUnknown@@@
rdata$r	SEGMENT
??_R4CTransformInputPin@@6BCUnknown@@@ DD 01H		; CTransformInputPin::`RTTI Complete Object Locator'
	DD	00H
	DD	00H
	DD	imagerel ??_R0?AVCTransformInputPin@@@8
	DD	imagerel ??_R3CTransformInputPin@@8
	DD	imagerel ??_R4CTransformInputPin@@6BCUnknown@@@
rdata$r	ENDS
;	COMDAT xdata
xdata	SEGMENT
$unwind$?dtor$0@?0???0CTransformInputPin@@QEAA@PEA_WPEAVCTransformFilter@@PEAJPEB_W@Z@4HA DD 031001H
	DD	0700c4210H
	DD	0500bH
xdata	ENDS
;	COMDAT xdata
xdata	SEGMENT
$unwind$??0CTransformInputPin@@QEAA@PEA_WPEAVCTransformFilter@@PEAJPEB_W@Z DD 023611H
	DD	070157219H
	DD	imagerel __CxxFrameHandler3
	DD	imagerel $cppxdata$??0CTransformInputPin@@QEAA@PEA_WPEAVCTransformFilter@@PEAJPEB_W@Z
xdata	ENDS
;	COMDAT CONST
CONST	SEGMENT
$cppxdata$??0CTransformInputPin@@QEAA@PEA_WPEAVCTransformFilter@@PEAJPEB_W@Z DD 019930522H
	DD	01H
	DD	imagerel $stateUnwindMap$??0CTransformInputPin@@QEAA@PEA_WPEAVCTransformFilter@@PEAJPEB_W@Z
	DD	00H
	DD	00H
	DD	03H
	DD	imagerel $ip2state$??0CTransformInputPin@@QEAA@PEA_WPEAVCTransformFilter@@PEAJPEB_W@Z
	DD	030H
	DD	00H
	DD	01H
CONST	ENDS
;	COMDAT xdata
xdata	SEGMENT
$stateUnwindMap$??0CTransformInputPin@@QEAA@PEA_WPEAVCTransformFilter@@PEAJPEB_W@Z DD 0ffffffffH
	DD	imagerel ?dtor$0@?0???0CTransformInputPin@@QEAA@PEA_WPEAVCTransformFilter@@PEAJPEB_W@Z@4HA
xdata	ENDS
;	COMDAT ??_7CTransformInputPin@@6B@
CONST	SEGMENT
??_7CTransformInputPin@@6B@ DQ FLAT:??_R4CTransformInputPin@@6B@ ; CTransformInputPin::`vftable'
	DQ	FLAT:?QueryInterface@CBaseInputPin@@WMI@EAAJAEBU_GUID@@PEAPEAX@Z
	DQ	FLAT:?AddRef@CBaseInputPin@@WMI@EAAKXZ
	DQ	FLAT:?Release@CBaseInputPin@@WMI@EAAKXZ
	DQ	FLAT:?GetAllocator@CBaseInputPin@@UEAAJPEAPEAUIMemAllocator@@@Z
	DQ	FLAT:?NotifyAllocator@CBaseInputPin@@UEAAJPEAUIMemAllocator@@H@Z
	DQ	FLAT:?GetAllocatorRequirements@CBaseInputPin@@UEAAJPEAU_AllocatorProperties@@@Z
	DQ	FLAT:?Receive@CTransformInputPin@@UEAAJPEAUIMediaSample@@@Z
	DQ	FLAT:?ReceiveMultiple@CBaseInputPin@@UEAAJPEAPEAUIMediaSample@@JPEAJ@Z
	DQ	FLAT:?ReceiveCanBlock@CBaseInputPin@@UEAAJXZ
CONST	ENDS
;	COMDAT ??_7CTransformInputPin@@6BIQualityControl@@@
CONST	SEGMENT
??_7CTransformInputPin@@6BIQualityControl@@@ DQ FLAT:??_R4CTransformInputPin@@6BIQualityControl@@@ ; CTransformInputPin::`vftable'
	DQ	FLAT:?QueryInterface@CBaseInputPin@@W7EAAJAEBU_GUID@@PEAPEAX@Z
	DQ	FLAT:?AddRef@CBaseInputPin@@W7EAAKXZ
	DQ	FLAT:?Release@CBaseInputPin@@W7EAAKXZ
	DQ	FLAT:?Notify@CBaseInputPin@@UEAAJPEAUIBaseFilter@@UtagQuality@@@Z
	DQ	FLAT:?SetSink@CBasePin@@UEAAJPEAUIQualityControl@@@Z
CONST	ENDS
;	COMDAT ??_7CTransformInputPin@@6BIPin@@@
CONST	SEGMENT
??_7CTransformInputPin@@6BIPin@@@ DQ FLAT:??_R4CTransformInputPin@@6BIPin@@@ ; CTransformInputPin::`vftable'
	DQ	FLAT:?QueryInterface@CBaseInputPin@@UEAAJAEBU_GUID@@PEAPEAX@Z
	DQ	FLAT:?AddRef@CBaseInputPin@@UEAAKXZ
	DQ	FLAT:?Release@CBaseInputPin@@UEAAKXZ
	DQ	FLAT:?Connect@CBasePin@@UEAAJPEAUIPin@@PEBU_AMMediaType@@@Z
	DQ	FLAT:?ReceiveConnection@CBasePin@@UEAAJPEAUIPin@@PEBU_AMMediaType@@@Z
	DQ	FLAT:?Disconnect@CBasePin@@UEAAJXZ
	DQ	FLAT:?ConnectedTo@CBasePin@@UEAAJPEAPEAUIPin@@@Z
	DQ	FLAT:?ConnectionMediaType@CBasePin@@UEAAJPEAU_AMMediaType@@@Z
	DQ	FLAT:?QueryPinInfo@CBasePin@@UEAAJPEAU_PinInfo@@@Z
	DQ	FLAT:?QueryDirection@CBasePin@@UEAAJPEAW4_PinDirection@@@Z
	DQ	FLAT:?QueryId@CTransformInputPin@@UEAAJPEAPEA_W@Z
	DQ	FLAT:?QueryAccept@CBasePin@@UEAAJPEBU_AMMediaType@@@Z
	DQ	FLAT:?EnumMediaTypes@CBasePin@@UEAAJPEAPEAUIEnumMediaTypes@@@Z
	DQ	FLAT:?QueryInternalConnections@CBasePin@@UEAAJPEAPEAUIPin@@PEAK@Z
	DQ	FLAT:?EndOfStream@CTransformInputPin@@UEAAJXZ
	DQ	FLAT:?BeginFlush@CTransformInputPin@@UEAAJXZ
	DQ	FLAT:?EndFlush@CTransformInputPin@@UEAAJXZ
	DQ	FLAT:?NewSegment@CTransformInputPin@@UEAAJ_J0N@Z
CONST	ENDS
;	COMDAT ??_7CTransformInputPin@@6BCUnknown@@@
CONST	SEGMENT
??_7CTransformInputPin@@6BCUnknown@@@ DQ FLAT:??_R4CTransformInputPin@@6BCUnknown@@@ ; CTransformInputPin::`vftable'
	DQ	FLAT:?NonDelegatingQueryInterface@CBaseInputPin@@UEAAJAEBU_GUID@@PEAPEAX@Z
	DQ	FLAT:?NonDelegatingAddRef@CBasePin@@UEAAKXZ
	DQ	FLAT:?NonDelegatingRelease@CBasePin@@UEAAKXZ
	DQ	FLAT:??_ECTransformInputPin@@UEAAPEAXI@Z
	DQ	FLAT:?GetMediaTypeVersion@CBasePin@@UEAAJXZ
	DQ	FLAT:?Active@CBasePin@@UEAAJXZ
	DQ	FLAT:?Inactive@CBaseInputPin@@UEAAJXZ
	DQ	FLAT:?Run@CBasePin@@UEAAJ_J@Z
	DQ	FLAT:?CheckMediaType@CTransformInputPin@@UEAAJPEBVCMediaType@@@Z
	DQ	FLAT:?SetMediaType@CTransformInputPin@@UEAAJPEBVCMediaType@@@Z
	DQ	FLAT:?CheckConnect@CTransformInputPin@@UEAAJPEAUIPin@@@Z
	DQ	FLAT:?BreakConnect@CTransformInputPin@@UEAAJXZ
	DQ	FLAT:?CompleteConnect@CTransformInputPin@@UEAAJPEAUIPin@@@Z
	DQ	FLAT:?GetMediaType@CBasePin@@UEAAJHPEAVCMediaType@@@Z
	DQ	FLAT:?CheckStreaming@CTransformInputPin@@UEAAJXZ
; Function compile flags: /Odtp /RTCsu
CONST	ENDS
;	COMDAT ??0CTransformInputPin@@QEAA@PEA_WPEAVCTransformFilter@@PEAJPEB_W@Z
_TEXT	SEGMENT
$T84037 = 48
this$ = 80
pObjectName$ = 88
pTransformFilter$ = 96
phr$ = 104
pName$ = 112
??0CTransformInputPin@@QEAA@PEA_WPEAVCTransformFilter@@PEAJPEB_W@Z PROC ; CTransformInputPin::CTransformInputPin, COMDAT
; Line 586
$LN4:
	mov	QWORD PTR [rsp+32], r9
	mov	QWORD PTR [rsp+24], r8
	mov	QWORD PTR [rsp+16], rdx
	mov	QWORD PTR [rsp+8], rcx
	push	rdi
	sub	rsp, 64					; 00000040H
	mov	rdi, rsp
	mov	ecx, 16
	mov	eax, -858993460				; ccccccccH
	rep stosd
	mov	rcx, QWORD PTR [rsp+80]
	mov	QWORD PTR $T84037[rsp], -2
	mov	rax, QWORD PTR pTransformFilter$[rsp]
	add	rax, 144				; 00000090H
	mov	rcx, QWORD PTR pName$[rsp]
	mov	QWORD PTR [rsp+40], rcx
	mov	rcx, QWORD PTR phr$[rsp]
	mov	QWORD PTR [rsp+32], rcx
	mov	r9, rax
	mov	r8, QWORD PTR pTransformFilter$[rsp]
	mov	rdx, QWORD PTR pObjectName$[rsp]
	mov	rcx, QWORD PTR this$[rsp]
	call	??0CBaseInputPin@@QEAA@PEA_WPEAVCBaseFilter@@PEAVCCritSec@@PEAJPEB_W@Z ; CBaseInputPin::CBaseInputPin
	npad	1
	mov	rax, QWORD PTR this$[rsp]
	lea	rcx, OFFSET FLAT:??_7CTransformInputPin@@6BCUnknown@@@
	mov	QWORD PTR [rax], rcx
	mov	rax, QWORD PTR this$[rsp]
	lea	rcx, OFFSET FLAT:??_7CTransformInputPin@@6BIPin@@@
	mov	QWORD PTR [rax+32], rcx
	mov	rax, QWORD PTR this$[rsp]
	lea	rcx, OFFSET FLAT:??_7CTransformInputPin@@6BIQualityControl@@@
	mov	QWORD PTR [rax+40], rcx
	mov	rax, QWORD PTR this$[rsp]
	lea	rcx, OFFSET FLAT:??_7CTransformInputPin@@6B@
	mov	QWORD PTR [rax+232], rcx
; Line 587
	lea	r8, OFFSET FLAT:$SG82523
	mov	edx, 2
	mov	ecx, 2
	call	?DbgLogInfo@@YAXKKPEB_WZZ		; DbgLogInfo
; Line 588
	mov	rax, QWORD PTR this$[rsp]
	mov	rcx, QWORD PTR pTransformFilter$[rsp]
	mov	QWORD PTR [rax+320], rcx
; Line 589
	mov	rax, QWORD PTR this$[rsp]
	add	rsp, 64					; 00000040H
	pop	rdi
	ret	0
??0CTransformInputPin@@QEAA@PEA_WPEAVCTransformFilter@@PEAJPEB_W@Z ENDP ; CTransformInputPin::CTransformInputPin
; Function compile flags: /Odtp /RTCsu
_TEXT	ENDS
;	COMDAT text$x
text$x	SEGMENT
$T84037 = 48
this$ = 80
pObjectName$ = 88
pTransformFilter$ = 96
phr$ = 104
pName$ = 112
?dtor$0@?0???0CTransformInputPin@@QEAA@PEA_WPEAVCTransformFilter@@PEAJPEB_W@Z@4HA PROC ; `CTransformInputPin::CTransformInputPin'::`1'::dtor$0
	mov	QWORD PTR [rsp+8], rcx
	mov	QWORD PTR [rsp+16], rdx
	push	rbp
	push	rdi
	sub	rsp, 40					; 00000028H
	mov	rbp, rdx
	mov	rcx, QWORD PTR this$[rbp]
	call	??1CBaseInputPin@@UEAA@XZ		; CBaseInputPin::~CBaseInputPin
	add	rsp, 40					; 00000028H
	pop	rdi
	pop	rbp
	ret	0
?dtor$0@?0???0CTransformInputPin@@QEAA@PEA_WPEAVCTransformFilter@@PEAJPEB_W@Z@4HA ENDP ; `CTransformInputPin::CTransformInputPin'::`1'::dtor$0
text$x	ENDS
;	COMDAT pdata
; File c:\downloads\wpf mediakit - copy\src\filters\baseclasses\amfilter.h
pdata	SEGMENT
$pdata$?QueryInternalConnections@CBasePin@@UEAAJPEAPEAUIPin@@PEAK@Z DD imagerel $LN3
	DD	imagerel $LN3+23
	DD	imagerel $unwind$?QueryInternalConnections@CBasePin@@UEAAJPEAPEAUIPin@@PEAK@Z
pdata	ENDS
;	COMDAT xdata
xdata	SEGMENT
$unwind$?QueryInternalConnections@CBasePin@@UEAAJPEAPEAUIPin@@PEAK@Z DD 011001H
	DD	07010H
; Function compile flags: /Odtp /RTCsu
xdata	ENDS
;	COMDAT ?QueryInternalConnections@CBasePin@@UEAAJPEAPEAUIPin@@PEAK@Z
_TEXT	SEGMENT
this$ = 16
apPin$ = 24
nPin$ = 32
?QueryInternalConnections@CBasePin@@UEAAJPEAPEAUIPin@@PEAK@Z PROC ; CBasePin::QueryInternalConnections, COMDAT
; Line 472
$LN3:
	mov	QWORD PTR [rsp+24], r8
	mov	QWORD PTR [rsp+16], rdx
	mov	QWORD PTR [rsp+8], rcx
	push	rdi
	mov	eax, -2147467263			; ffffffff80004001H
	pop	rdi
	ret	0
?QueryInternalConnections@CBasePin@@UEAAJPEAPEAUIPin@@PEAK@Z ENDP ; CBasePin::QueryInternalConnections
_TEXT	ENDS
PUBLIC	?GetOwner@CUnknown@@QEBAPEAUIUnknown@@XZ	; CUnknown::GetOwner
;	COMDAT pdata
pdata	SEGMENT
$pdata$?QueryInterface@CBaseInputPin@@UEAAJAEBU_GUID@@PEAPEAX@Z DD imagerel $LN3
	DD	imagerel $LN3+93
	DD	imagerel $unwind$?QueryInterface@CBaseInputPin@@UEAAJAEBU_GUID@@PEAPEAX@Z
pdata	ENDS
;	COMDAT xdata
xdata	SEGMENT
$unwind$?QueryInterface@CBaseInputPin@@UEAAJAEBU_GUID@@PEAPEAX@Z DD 022801H
	DD	070105214H
; Function compile flags: /Odtp /RTCsu
xdata	ENDS
;	COMDAT ?QueryInterface@CBaseInputPin@@UEAAJAEBU_GUID@@PEAPEAX@Z
_TEXT	SEGMENT
tv72 = 32
this$ = 64
riid$ = 72
ppv$ = 80
?QueryInterface@CBaseInputPin@@UEAAJAEBU_GUID@@PEAPEAX@Z PROC ; CBaseInputPin::QueryInterface, COMDAT
; Line 857
$LN3:
	mov	QWORD PTR [rsp+24], r8
	mov	QWORD PTR [rsp+16], rdx
	mov	QWORD PTR [rsp+8], rcx
	push	rdi
	sub	rsp, 48					; 00000030H
	mov	rdi, rsp
	mov	ecx, 12
	mov	eax, -858993460				; ccccccccH
	rep stosd
	mov	rcx, QWORD PTR [rsp+64]
	mov	rax, QWORD PTR this$[rsp]
	sub	rax, 32					; 00000020H
	mov	rcx, rax
	call	?GetOwner@CUnknown@@QEBAPEAUIUnknown@@XZ ; CUnknown::GetOwner
	mov	QWORD PTR tv72[rsp], rax
	mov	rax, QWORD PTR tv72[rsp]
	mov	rax, QWORD PTR [rax]
	mov	r8, QWORD PTR ppv$[rsp]
	mov	rdx, QWORD PTR riid$[rsp]
	mov	rcx, QWORD PTR tv72[rsp]
	call	QWORD PTR [rax]
	add	rsp, 48					; 00000030H
	pop	rdi
	ret	0
?QueryInterface@CBaseInputPin@@UEAAJAEBU_GUID@@PEAPEAX@Z ENDP ; CBaseInputPin::QueryInterface
_TEXT	ENDS
;	COMDAT pdata
; File c:\downloads\wpf mediakit - copy\src\filters\baseclasses\combase.h
pdata	SEGMENT
$pdata$?GetOwner@CUnknown@@QEBAPEAUIUnknown@@XZ DD imagerel $LN3
	DD	imagerel $LN3+17
	DD	imagerel $unwind$?GetOwner@CUnknown@@QEBAPEAUIUnknown@@XZ
pdata	ENDS
;	COMDAT xdata
xdata	SEGMENT
$unwind$?GetOwner@CUnknown@@QEBAPEAUIUnknown@@XZ DD 010601H
	DD	07006H
; Function compile flags: /Odtp /RTCsu
xdata	ENDS
;	COMDAT ?GetOwner@CUnknown@@QEBAPEAUIUnknown@@XZ
_TEXT	SEGMENT
this$ = 16
?GetOwner@CUnknown@@QEBAPEAUIUnknown@@XZ PROC		; CUnknown::GetOwner, COMDAT
; Line 224
$LN3:
	mov	QWORD PTR [rsp+8], rcx
	push	rdi
; Line 225
	mov	rax, QWORD PTR this$[rsp]
	mov	rax, QWORD PTR [rax+16]
; Line 226
	pop	rdi
	ret	0
?GetOwner@CUnknown@@QEBAPEAUIUnknown@@XZ ENDP		; CUnknown::GetOwner
_TEXT	ENDS
;	COMDAT pdata
; File c:\downloads\wpf mediakit - copy\src\filters\baseclasses\amfilter.h
pdata	SEGMENT
$pdata$?AddRef@CBaseInputPin@@UEAAKXZ DD imagerel $LN3
	DD	imagerel $LN3+74
	DD	imagerel $unwind$?AddRef@CBaseInputPin@@UEAAKXZ
pdata	ENDS
;	COMDAT xdata
xdata	SEGMENT
$unwind$?AddRef@CBaseInputPin@@UEAAKXZ DD 021e01H
	DD	07006520aH
; Function compile flags: /Odtp /RTCsu
xdata	ENDS
;	COMDAT ?AddRef@CBaseInputPin@@UEAAKXZ
_TEXT	SEGMENT
tv72 = 32
this$ = 64
?AddRef@CBaseInputPin@@UEAAKXZ PROC			; CBaseInputPin::AddRef, COMDAT
; Line 857
$LN3:
	mov	QWORD PTR [rsp+8], rcx
	push	rdi
	sub	rsp, 48					; 00000030H
	mov	rdi, rsp
	mov	ecx, 12
	mov	eax, -858993460				; ccccccccH
	rep stosd
	mov	rcx, QWORD PTR [rsp+64]
	mov	rax, QWORD PTR this$[rsp]
	sub	rax, 32					; 00000020H
	mov	rcx, rax
	call	?GetOwner@CUnknown@@QEBAPEAUIUnknown@@XZ ; CUnknown::GetOwner
	mov	QWORD PTR tv72[rsp], rax
	mov	rax, QWORD PTR tv72[rsp]
	mov	rax, QWORD PTR [rax]
	mov	rcx, QWORD PTR tv72[rsp]
	call	QWORD PTR [rax+8]
	add	rsp, 48					; 00000030H
	pop	rdi
	ret	0
?AddRef@CBaseInputPin@@UEAAKXZ ENDP			; CBaseInputPin::AddRef
_TEXT	ENDS
;	COMDAT pdata
pdata	SEGMENT
$pdata$?Release@CBaseInputPin@@UEAAKXZ DD imagerel $LN3
	DD	imagerel $LN3+74
	DD	imagerel $unwind$?Release@CBaseInputPin@@UEAAKXZ
pdata	ENDS
;	COMDAT xdata
xdata	SEGMENT
$unwind$?Release@CBaseInputPin@@UEAAKXZ DD 021e01H
	DD	07006520aH
; Function compile flags: /Odtp /RTCsu
xdata	ENDS
;	COMDAT ?Release@CBaseInputPin@@UEAAKXZ
_TEXT	SEGMENT
tv72 = 32
this$ = 64
?Release@CBaseInputPin@@UEAAKXZ PROC			; CBaseInputPin::Release, COMDAT
; Line 857
$LN3:
	mov	QWORD PTR [rsp+8], rcx
	push	rdi
	sub	rsp, 48					; 00000030H
	mov	rdi, rsp
	mov	ecx, 12
	mov	eax, -858993460				; ccccccccH
	rep stosd
	mov	rcx, QWORD PTR [rsp+64]
	mov	rax, QWORD PTR this$[rsp]
	sub	rax, 32					; 00000020H
	mov	rcx, rax
	call	?GetOwner@CUnknown@@QEBAPEAUIUnknown@@XZ ; CUnknown::GetOwner
	mov	QWORD PTR tv72[rsp], rax
	mov	rax, QWORD PTR tv72[rsp]
	mov	rax, QWORD PTR [rax]
	mov	rcx, QWORD PTR tv72[rsp]
	call	QWORD PTR [rax+16]
	add	rsp, 48					; 00000030H
	pop	rdi
	ret	0
?Release@CBaseInputPin@@UEAAKXZ ENDP			; CBaseInputPin::Release
_TEXT	ENDS
PUBLIC	??_C@_15LNJDIFMI@?$AAI?$AAn?$AA?$AA@		; `string'
EXTRN	AMGetWideString:PROC
;	COMDAT pdata
; File c:\downloads\wpf mediakit - copy\src\filters\baseclasses\transfrm.h
pdata	SEGMENT
$pdata$?QueryId@CTransformInputPin@@UEAAJPEAPEA_W@Z DD imagerel $LN3
	DD	imagerel $LN3+58
	DD	imagerel $unwind$?QueryId@CTransformInputPin@@UEAAJPEAPEA_W@Z
pdata	ENDS
;	COMDAT xdata
xdata	SEGMENT
$unwind$?QueryId@CTransformInputPin@@UEAAJPEAPEA_W@Z DD 022301H
	DD	0700b320fH
xdata	ENDS
;	COMDAT ??_C@_15LNJDIFMI@?$AAI?$AAn?$AA?$AA@
CONST	SEGMENT
??_C@_15LNJDIFMI@?$AAI?$AAn?$AA?$AA@ DB 'I', 00H, 'n', 00H, 00H, 00H ; `string'
; Function compile flags: /Odtp /RTCsu
CONST	ENDS
;	COMDAT ?QueryId@CTransformInputPin@@UEAAJPEAPEA_W@Z
_TEXT	SEGMENT
this$ = 48
Id$ = 56
?QueryId@CTransformInputPin@@UEAAJPEAPEA_W@Z PROC	; CTransformInputPin::QueryId, COMDAT
; Line 57
$LN3:
	mov	QWORD PTR [rsp+16], rdx
	mov	QWORD PTR [rsp+8], rcx
	push	rdi
	sub	rsp, 32					; 00000020H
	mov	rdi, rsp
	mov	ecx, 8
	mov	eax, -858993460				; ccccccccH
	rep stosd
	mov	rcx, QWORD PTR [rsp+48]
; Line 58
	mov	rdx, QWORD PTR Id$[rsp]
	lea	rcx, OFFSET FLAT:??_C@_15LNJDIFMI@?$AAI?$AAn?$AA?$AA@
	call	AMGetWideString
; Line 59
	add	rsp, 32					; 00000020H
	pop	rdi
	ret	0
?QueryId@CTransformInputPin@@UEAAJPEAPEA_W@Z ENDP	; CTransformInputPin::QueryId
_TEXT	ENDS
PUBLIC	??1CTransformInputPin@@UEAA@XZ			; CTransformInputPin::~CTransformInputPin
;	COMDAT pdata
pdata	SEGMENT
$pdata$??_GCTransformInputPin@@UEAAPEAXI@Z DD imagerel $LN4
	DD	imagerel $LN4+76
	DD	imagerel $unwind$??_GCTransformInputPin@@UEAAPEAXI@Z
pdata	ENDS
;	COMDAT xdata
xdata	SEGMENT
$unwind$??_GCTransformInputPin@@UEAAPEAXI@Z DD 022201H
	DD	0700a320eH
; Function compile flags: /Odtp /RTCsu
xdata	ENDS
;	COMDAT ??_GCTransformInputPin@@UEAAPEAXI@Z
_TEXT	SEGMENT
this$ = 48
__flags$ = 56
??_GCTransformInputPin@@UEAAPEAXI@Z PROC		; CTransformInputPin::`scalar deleting destructor', COMDAT
$LN4:
	mov	DWORD PTR [rsp+16], edx
	mov	QWORD PTR [rsp+8], rcx
	push	rdi
	sub	rsp, 32					; 00000020H
	mov	rdi, rsp
	mov	ecx, 8
	mov	eax, -858993460				; ccccccccH
	rep stosd
	mov	rcx, QWORD PTR [rsp+48]
	mov	rcx, QWORD PTR this$[rsp]
	call	??1CTransformInputPin@@UEAA@XZ
	mov	eax, DWORD PTR __flags$[rsp]
	and	eax, 1
	test	eax, eax
	je	SHORT $LN1@scalar
	mov	rcx, QWORD PTR this$[rsp]
	call	??3@YAXPEAX@Z				; operator delete
$LN1@scalar:
	mov	rax, QWORD PTR this$[rsp]
	add	rsp, 32					; 00000020H
	pop	rdi
	ret	0
??_GCTransformInputPin@@UEAAPEAXI@Z ENDP		; CTransformInputPin::`scalar deleting destructor'
_TEXT	ENDS
;	COMDAT pdata
pdata	SEGMENT
$pdata$??1CTransformInputPin@@UEAA@XZ DD imagerel $LN4
	DD	imagerel $LN4+46
	DD	imagerel $unwind$??1CTransformInputPin@@UEAA@XZ
pdata	ENDS
;	COMDAT xdata
xdata	SEGMENT
$unwind$??1CTransformInputPin@@UEAA@XZ DD 021e01H
	DD	07006320aH
; Function compile flags: /Odtp /RTCsu
xdata	ENDS
;	COMDAT ??1CTransformInputPin@@UEAA@XZ
_TEXT	SEGMENT
this$ = 48
??1CTransformInputPin@@UEAA@XZ PROC			; CTransformInputPin::~CTransformInputPin, COMDAT
$LN4:
	mov	QWORD PTR [rsp+8], rcx
	push	rdi
	sub	rsp, 32					; 00000020H
	mov	rdi, rsp
	mov	ecx, 8
	mov	eax, -858993460				; ccccccccH
	rep stosd
	mov	rcx, QWORD PTR [rsp+48]
	mov	rcx, QWORD PTR this$[rsp]
	call	??1CBaseInputPin@@UEAA@XZ		; CBaseInputPin::~CBaseInputPin
	add	rsp, 32					; 00000020H
	pop	rdi
	ret	0
??1CTransformInputPin@@UEAA@XZ ENDP			; CTransformInputPin::~CTransformInputPin
_TEXT	ENDS
PUBLIC	??0CTransformInputPin@@QEAA@PEADPEAVCTransformFilter@@PEAJPEB_W@Z ; CTransformInputPin::CTransformInputPin
EXTRN	??0CBaseInputPin@@QEAA@PEADPEAVCBaseFilter@@PEAVCCritSec@@PEAJPEB_W@Z:PROC ; CBaseInputPin::CBaseInputPin
;	COMDAT pdata
; File c:\downloads\wpf mediakit - copy\src\filters\baseclasses\transfrm.cpp
pdata	SEGMENT
$pdata$??0CTransformInputPin@@QEAA@PEADPEAVCTransformFilter@@PEAJPEB_W@Z DD imagerel $LN4
	DD	imagerel $LN4+225
	DD	imagerel $unwind$??0CTransformInputPin@@QEAA@PEADPEAVCTransformFilter@@PEAJPEB_W@Z
pdata	ENDS
;	COMDAT pdata
pdata	SEGMENT
$pdata$?dtor$0@?0???0CTransformInputPin@@QEAA@PEADPEAVCTransformFilter@@PEAJPEB_W@Z@4HA DD imagerel ?dtor$0@?0???0CTransformInputPin@@QEAA@PEADPEAVCTransformFilter@@PEAJPEB_W@Z@4HA
	DD	imagerel ?dtor$0@?0???0CTransformInputPin@@QEAA@PEADPEAVCTransformFilter@@PEAJPEB_W@Z@4HA+35
	DD	imagerel $unwind$?dtor$0@?0???0CTransformInputPin@@QEAA@PEADPEAVCTransformFilter@@PEAJPEB_W@Z@4HA
pdata	ENDS
;	COMDAT xdata
xdata	SEGMENT
$ip2state$??0CTransformInputPin@@QEAA@PEADPEAVCTransformFilter@@PEAJPEB_W@Z DD imagerel ??0CTransformInputPin@@QEAA@PEADPEAVCTransformFilter@@PEAJPEB_W@Z
	DD	0ffffffffH
	DD	imagerel ??0CTransformInputPin@@QEAA@PEADPEAVCTransformFilter@@PEAJPEB_W@Z+109
	DD	00H
	DD	imagerel ??0CTransformInputPin@@QEAA@PEADPEAVCTransformFilter@@PEAJPEB_W@Z+214
	DD	0ffffffffH
xdata	ENDS
;	COMDAT xdata
xdata	SEGMENT
$unwind$?dtor$0@?0???0CTransformInputPin@@QEAA@PEADPEAVCTransformFilter@@PEAJPEB_W@Z@4HA DD 031001H
	DD	0700c4210H
	DD	0500bH
xdata	ENDS
;	COMDAT xdata
xdata	SEGMENT
$unwind$??0CTransformInputPin@@QEAA@PEADPEAVCTransformFilter@@PEAJPEB_W@Z DD 023611H
	DD	070157219H
	DD	imagerel __CxxFrameHandler3
	DD	imagerel $cppxdata$??0CTransformInputPin@@QEAA@PEADPEAVCTransformFilter@@PEAJPEB_W@Z
xdata	ENDS
;	COMDAT CONST
CONST	SEGMENT
$cppxdata$??0CTransformInputPin@@QEAA@PEADPEAVCTransformFilter@@PEAJPEB_W@Z DD 019930522H
	DD	01H
	DD	imagerel $stateUnwindMap$??0CTransformInputPin@@QEAA@PEADPEAVCTransformFilter@@PEAJPEB_W@Z
	DD	00H
	DD	00H
	DD	03H
	DD	imagerel $ip2state$??0CTransformInputPin@@QEAA@PEADPEAVCTransformFilter@@PEAJPEB_W@Z
	DD	030H
	DD	00H
	DD	01H
CONST	ENDS
;	COMDAT xdata
xdata	SEGMENT
$stateUnwindMap$??0CTransformInputPin@@QEAA@PEADPEAVCTransformFilter@@PEAJPEB_W@Z DD 0ffffffffH
	DD	imagerel ?dtor$0@?0???0CTransformInputPin@@QEAA@PEADPEAVCTransformFilter@@PEAJPEB_W@Z@4HA
; Function compile flags: /Odtp /RTCsu
xdata	ENDS
;	COMDAT ??0CTransformInputPin@@QEAA@PEADPEAVCTransformFilter@@PEAJPEB_W@Z
_TEXT	SEGMENT
$T84120 = 48
this$ = 80
pObjectName$ = 88
pTransformFilter$ = 96
phr$ = 104
pName$ = 112
??0CTransformInputPin@@QEAA@PEADPEAVCTransformFilter@@PEAJPEB_W@Z PROC ; CTransformInputPin::CTransformInputPin, COMDAT
; Line 598
$LN4:
	mov	QWORD PTR [rsp+32], r9
	mov	QWORD PTR [rsp+24], r8
	mov	QWORD PTR [rsp+16], rdx
	mov	QWORD PTR [rsp+8], rcx
	push	rdi
	sub	rsp, 64					; 00000040H
	mov	rdi, rsp
	mov	ecx, 16
	mov	eax, -858993460				; ccccccccH
	rep stosd
	mov	rcx, QWORD PTR [rsp+80]
	mov	QWORD PTR $T84120[rsp], -2
	mov	rax, QWORD PTR pTransformFilter$[rsp]
	add	rax, 144				; 00000090H
	mov	rcx, QWORD PTR pName$[rsp]
	mov	QWORD PTR [rsp+40], rcx
	mov	rcx, QWORD PTR phr$[rsp]
	mov	QWORD PTR [rsp+32], rcx
	mov	r9, rax
	mov	r8, QWORD PTR pTransformFilter$[rsp]
	mov	rdx, QWORD PTR pObjectName$[rsp]
	mov	rcx, QWORD PTR this$[rsp]
	call	??0CBaseInputPin@@QEAA@PEADPEAVCBaseFilter@@PEAVCCritSec@@PEAJPEB_W@Z ; CBaseInputPin::CBaseInputPin
	npad	1
	mov	rax, QWORD PTR this$[rsp]
	lea	rcx, OFFSET FLAT:??_7CTransformInputPin@@6BCUnknown@@@
	mov	QWORD PTR [rax], rcx
	mov	rax, QWORD PTR this$[rsp]
	lea	rcx, OFFSET FLAT:??_7CTransformInputPin@@6BIPin@@@
	mov	QWORD PTR [rax+32], rcx
	mov	rax, QWORD PTR this$[rsp]
	lea	rcx, OFFSET FLAT:??_7CTransformInputPin@@6BIQualityControl@@@
	mov	QWORD PTR [rax+40], rcx
	mov	rax, QWORD PTR this$[rsp]
	lea	rcx, OFFSET FLAT:??_7CTransformInputPin@@6B@
	mov	QWORD PTR [rax+232], rcx
; Line 599
	lea	r8, OFFSET FLAT:$SG82537
	mov	edx, 2
	mov	ecx, 2
	call	?DbgLogInfo@@YAXKKPEB_WZZ		; DbgLogInfo
; Line 600
	mov	rax, QWORD PTR this$[rsp]
	mov	rcx, QWORD PTR pTransformFilter$[rsp]
	mov	QWORD PTR [rax+320], rcx
; Line 601
	mov	rax, QWORD PTR this$[rsp]
	add	rsp, 64					; 00000040H
	pop	rdi
	ret	0
??0CTransformInputPin@@QEAA@PEADPEAVCTransformFilter@@PEAJPEB_W@Z ENDP ; CTransformInputPin::CTransformInputPin
; Function compile flags: /Odtp /RTCsu
_TEXT	ENDS
;	COMDAT text$x
text$x	SEGMENT
$T84120 = 48
this$ = 80
pObjectName$ = 88
pTransformFilter$ = 96
phr$ = 104
pName$ = 112
?dtor$0@?0???0CTransformInputPin@@QEAA@PEADPEAVCTransformFilter@@PEAJPEB_W@Z@4HA PROC ; `CTransformInputPin::CTransformInputPin'::`1'::dtor$0
	mov	QWORD PTR [rsp+8], rcx
	mov	QWORD PTR [rsp+16], rdx
	push	rbp
	push	rdi
	sub	rsp, 40					; 00000028H
	mov	rbp, rdx
	mov	rcx, QWORD PTR this$[rbp]
	call	??1CBaseInputPin@@UEAA@XZ		; CBaseInputPin::~CBaseInputPin
	add	rsp, 40					; 00000028H
	pop	rdi
	pop	rbp
	ret	0
?dtor$0@?0???0CTransformInputPin@@QEAA@PEADPEAVCTransformFilter@@PEAJPEB_W@Z@4HA ENDP ; `CTransformInputPin::CTransformInputPin'::`1'::dtor$0
text$x	ENDS
EXTRN	?CheckConnect@CBasePin@@UEAAJPEAUIPin@@@Z:PROC	; CBasePin::CheckConnect
;	COMDAT pdata
pdata	SEGMENT
$pdata$?CheckConnect@CTransformInputPin@@UEAAJPEAUIPin@@@Z DD imagerel $LN4
	DD	imagerel $LN4+113
	DD	imagerel $unwind$?CheckConnect@CTransformInputPin@@UEAAJPEAUIPin@@@Z
pdata	ENDS
;	COMDAT xdata
xdata	SEGMENT
$unwind$?CheckConnect@CTransformInputPin@@UEAAJPEAUIPin@@@Z DD 022301H
	DD	0700b520fH
; Function compile flags: /Odtp /RTCsu
xdata	ENDS
;	COMDAT ?CheckConnect@CTransformInputPin@@UEAAJPEAUIPin@@@Z
_TEXT	SEGMENT
hr$ = 32
this$ = 64
pPin$ = 72
?CheckConnect@CTransformInputPin@@UEAAJPEAUIPin@@@Z PROC ; CTransformInputPin::CheckConnect, COMDAT
; Line 608
$LN4:
	mov	QWORD PTR [rsp+16], rdx
	mov	QWORD PTR [rsp+8], rcx
	push	rdi
	sub	rsp, 48					; 00000030H
	mov	rdi, rsp
	mov	ecx, 12
	mov	eax, -858993460				; ccccccccH
	rep stosd
	mov	rcx, QWORD PTR [rsp+64]
; Line 609
	mov	rax, QWORD PTR this$[rsp]
	mov	rax, QWORD PTR [rax+320]
	mov	rcx, QWORD PTR this$[rsp]
	mov	rcx, QWORD PTR [rcx+320]
	mov	rax, QWORD PTR [rax]
	mov	r8, QWORD PTR pPin$[rsp]
	xor	edx, edx
	call	QWORD PTR [rax+144]
	mov	DWORD PTR hr$[rsp], eax
; Line 610
	cmp	DWORD PTR hr$[rsp], 0
	jge	SHORT $LN1@CheckConne
; Line 611
	mov	eax, DWORD PTR hr$[rsp]
	jmp	SHORT $LN2@CheckConne
$LN1@CheckConne:
; Line 613
	mov	rdx, QWORD PTR pPin$[rsp]
	mov	rcx, QWORD PTR this$[rsp]
	call	?CheckConnect@CBasePin@@UEAAJPEAUIPin@@@Z ; CBasePin::CheckConnect
$LN2@CheckConne:
; Line 614
	add	rsp, 48					; 00000030H
	pop	rdi
	ret	0
?CheckConnect@CTransformInputPin@@UEAAJPEAUIPin@@@Z ENDP ; CTransformInputPin::CheckConnect
_TEXT	ENDS
EXTRN	?BreakConnect@CBaseInputPin@@UEAAJXZ:PROC	; CBaseInputPin::BreakConnect
;	COMDAT pdata
pdata	SEGMENT
$pdata$?BreakConnect@CTransformInputPin@@UEAAJXZ DD imagerel $LN4
	DD	imagerel $LN4+120
	DD	imagerel $unwind$?BreakConnect@CTransformInputPin@@UEAAJXZ
pdata	ENDS
;	COMDAT xdata
xdata	SEGMENT
$unwind$?BreakConnect@CTransformInputPin@@UEAAJXZ DD 021e01H
	DD	07006320aH
; Function compile flags: /Odtp /RTCsu
xdata	ENDS
;	COMDAT ?BreakConnect@CTransformInputPin@@UEAAJXZ
_TEXT	SEGMENT
this$ = 48
?BreakConnect@CTransformInputPin@@UEAAJXZ PROC		; CTransformInputPin::BreakConnect, COMDAT
; Line 621
$LN4:
	mov	QWORD PTR [rsp+8], rcx
	push	rdi
	sub	rsp, 32					; 00000020H
	mov	rdi, rsp
	mov	ecx, 8
	mov	eax, -858993460				; ccccccccH
	rep stosd
	mov	rcx, QWORD PTR [rsp+48]
; Line 623
	mov	rcx, QWORD PTR this$[rsp]
	call	?IsStopped@CBasePin@@QEAAHXZ		; CBasePin::IsStopped
	test	eax, eax
	jne	SHORT $LN1@BreakConne
	mov	r8d, 623				; 0000026fH
	lea	rdx, OFFSET FLAT:$SG82549
	lea	rcx, OFFSET FLAT:$SG82550
	call	?DbgAssert@@YAXPEB_W0H@Z		; DbgAssert
$LN1@BreakConne:
; Line 624
	mov	rax, QWORD PTR this$[rsp]
	mov	rax, QWORD PTR [rax+320]
	mov	rcx, QWORD PTR this$[rsp]
	mov	rcx, QWORD PTR [rcx+320]
	mov	rax, QWORD PTR [rax]
	xor	edx, edx
	call	QWORD PTR [rax+152]
; Line 625
	mov	rcx, QWORD PTR this$[rsp]
	call	?BreakConnect@CBaseInputPin@@UEAAJXZ	; CBaseInputPin::BreakConnect
; Line 626
	add	rsp, 32					; 00000020H
	pop	rdi
	ret	0
?BreakConnect@CTransformInputPin@@UEAAJXZ ENDP		; CTransformInputPin::BreakConnect
_TEXT	ENDS
EXTRN	?CompleteConnect@CBasePin@@UEAAJPEAUIPin@@@Z:PROC ; CBasePin::CompleteConnect
;	COMDAT pdata
pdata	SEGMENT
$pdata$?CompleteConnect@CTransformInputPin@@UEAAJPEAUIPin@@@Z DD imagerel $LN4
	DD	imagerel $LN4+113
	DD	imagerel $unwind$?CompleteConnect@CTransformInputPin@@UEAAJPEAUIPin@@@Z
pdata	ENDS
;	COMDAT xdata
xdata	SEGMENT
$unwind$?CompleteConnect@CTransformInputPin@@UEAAJPEAUIPin@@@Z DD 022301H
	DD	0700b520fH
; Function compile flags: /Odtp /RTCsu
xdata	ENDS
;	COMDAT ?CompleteConnect@CTransformInputPin@@UEAAJPEAUIPin@@@Z
_TEXT	SEGMENT
hr$ = 32
this$ = 64
pReceivePin$ = 72
?CompleteConnect@CTransformInputPin@@UEAAJPEAUIPin@@@Z PROC ; CTransformInputPin::CompleteConnect, COMDAT
; Line 633
$LN4:
	mov	QWORD PTR [rsp+16], rdx
	mov	QWORD PTR [rsp+8], rcx
	push	rdi
	sub	rsp, 48					; 00000030H
	mov	rdi, rsp
	mov	ecx, 12
	mov	eax, -858993460				; ccccccccH
	rep stosd
	mov	rcx, QWORD PTR [rsp+64]
; Line 634
	mov	rax, QWORD PTR this$[rsp]
	mov	rax, QWORD PTR [rax+320]
	mov	rcx, QWORD PTR this$[rsp]
	mov	rcx, QWORD PTR [rcx+320]
	mov	rax, QWORD PTR [rax]
	mov	r8, QWORD PTR pReceivePin$[rsp]
	xor	edx, edx
	call	QWORD PTR [rax+160]
	mov	DWORD PTR hr$[rsp], eax
; Line 635
	cmp	DWORD PTR hr$[rsp], 0
	jge	SHORT $LN1@CompleteCo
; Line 636
	mov	eax, DWORD PTR hr$[rsp]
	jmp	SHORT $LN2@CompleteCo
$LN1@CompleteCo:
; Line 638
	mov	rdx, QWORD PTR pReceivePin$[rsp]
	mov	rcx, QWORD PTR this$[rsp]
	call	?CompleteConnect@CBasePin@@UEAAJPEAUIPin@@@Z ; CBasePin::CompleteConnect
$LN2@CompleteCo:
; Line 639
	add	rsp, 48					; 00000030H
	pop	rdi
	ret	0
?CompleteConnect@CTransformInputPin@@UEAAJPEAUIPin@@@Z ENDP ; CTransformInputPin::CompleteConnect
_TEXT	ENDS
PUBLIC	?CurrentMediaType@CTransformOutputPin@@QEAAAEAVCMediaType@@XZ ; CTransformOutputPin::CurrentMediaType
;	COMDAT pdata
pdata	SEGMENT
$pdata$?CheckMediaType@CTransformInputPin@@UEAAJPEBVCMediaType@@@Z DD imagerel $LN6
	DD	imagerel $LN6+239
	DD	imagerel $unwind$?CheckMediaType@CTransformInputPin@@UEAAJPEBVCMediaType@@@Z
pdata	ENDS
;	COMDAT xdata
xdata	SEGMENT
$unwind$?CheckMediaType@CTransformInputPin@@UEAAJPEBVCMediaType@@@Z DD 022301H
	DD	0700b720fH
; Function compile flags: /Odtp /RTCsu
xdata	ENDS
;	COMDAT ?CheckMediaType@CTransformInputPin@@UEAAJPEBVCMediaType@@@Z
_TEXT	SEGMENT
hr$ = 32
tv90 = 40
tv132 = 48
this$ = 80
pmt$ = 88
?CheckMediaType@CTransformInputPin@@UEAAJPEBVCMediaType@@@Z PROC ; CTransformInputPin::CheckMediaType, COMDAT
; Line 646
$LN6:
	mov	QWORD PTR [rsp+16], rdx
	mov	QWORD PTR [rsp+8], rcx
	push	rdi
	sub	rsp, 64					; 00000040H
	mov	rdi, rsp
	mov	ecx, 16
	mov	eax, -858993460				; ccccccccH
	rep stosd
	mov	rcx, QWORD PTR [rsp+80]
; Line 649
	mov	rax, QWORD PTR this$[rsp]
	mov	rax, QWORD PTR [rax+320]
	mov	rcx, QWORD PTR this$[rsp]
	mov	rcx, QWORD PTR [rcx+320]
	mov	rax, QWORD PTR [rax]
	mov	rdx, QWORD PTR pmt$[rsp]
	call	QWORD PTR [rax+80]
	mov	DWORD PTR hr$[rsp], eax
; Line 650
	cmp	DWORD PTR hr$[rsp], 0
	je	SHORT $LN3@CheckMedia
; Line 651
	mov	eax, DWORD PTR hr$[rsp]
	jmp	$LN4@CheckMedia
$LN3@CheckMedia:
; Line 658
	mov	rax, QWORD PTR this$[rsp]
	mov	rax, QWORD PTR [rax+320]
	cmp	QWORD PTR [rax+264], 0
	je	SHORT $LN2@CheckMedia
	mov	rax, QWORD PTR this$[rsp]
	mov	rax, QWORD PTR [rax+320]
	mov	rcx, QWORD PTR [rax+264]
	call	?IsConnected@CBasePin@@QEAAHXZ		; CBasePin::IsConnected
	test	eax, eax
	je	SHORT $LN2@CheckMedia
; Line 661
	mov	rax, QWORD PTR this$[rsp]
	mov	rax, QWORD PTR [rax+320]
	mov	rcx, QWORD PTR [rax+264]
	call	?CurrentMediaType@CTransformOutputPin@@QEAAAEAVCMediaType@@XZ ; CTransformOutputPin::CurrentMediaType
	mov	rcx, QWORD PTR this$[rsp]
	mov	rcx, QWORD PTR [rcx+320]
	mov	rdx, QWORD PTR this$[rsp]
	mov	rdx, QWORD PTR [rdx+320]
	mov	QWORD PTR tv90[rsp], rdx
	mov	rcx, QWORD PTR [rcx]
	mov	QWORD PTR tv132[rsp], rcx
	mov	r8, rax
	mov	rdx, QWORD PTR pmt$[rsp]
	mov	rax, QWORD PTR tv90[rsp]
	mov	rcx, rax
	mov	rax, QWORD PTR tv132[rsp]
	call	QWORD PTR [rax+88]
	jmp	SHORT $LN4@CheckMedia
; Line 662
	jmp	SHORT $LN1@CheckMedia
$LN2@CheckMedia:
; Line 663
	mov	eax, DWORD PTR hr$[rsp]
$LN1@CheckMedia:
$LN4@CheckMedia:
; Line 665
	add	rsp, 64					; 00000040H
	pop	rdi
	ret	0
?CheckMediaType@CTransformInputPin@@UEAAJPEBVCMediaType@@@Z ENDP ; CTransformInputPin::CheckMediaType
_TEXT	ENDS
;	COMDAT pdata
; File c:\downloads\wpf mediakit - copy\src\filters\baseclasses\transfrm.h
pdata	SEGMENT
$pdata$?CurrentMediaType@CTransformOutputPin@@QEAAAEAVCMediaType@@XZ DD imagerel $LN3
	DD	imagerel $LN3+17
	DD	imagerel $unwind$?CurrentMediaType@CTransformOutputPin@@QEAAAEAVCMediaType@@XZ
pdata	ENDS
;	COMDAT xdata
xdata	SEGMENT
$unwind$?CurrentMediaType@CTransformOutputPin@@QEAAAEAVCMediaType@@XZ DD 010601H
	DD	07006H
; Function compile flags: /Odtp /RTCsu
xdata	ENDS
;	COMDAT ?CurrentMediaType@CTransformOutputPin@@QEAAAEAVCMediaType@@XZ
_TEXT	SEGMENT
this$ = 16
?CurrentMediaType@CTransformOutputPin@@QEAAAEAVCMediaType@@XZ PROC ; CTransformOutputPin::CurrentMediaType, COMDAT
; Line 170
$LN3:
	mov	QWORD PTR [rsp+8], rcx
	push	rdi
	mov	rax, QWORD PTR this$[rsp]
	add	rax, 112				; 00000070H
	pop	rdi
	ret	0
?CurrentMediaType@CTransformOutputPin@@QEAAAEAVCMediaType@@XZ ENDP ; CTransformOutputPin::CurrentMediaType
_TEXT	ENDS
EXTRN	?SetMediaType@CBasePin@@UEAAJPEBVCMediaType@@@Z:PROC ; CBasePin::SetMediaType
;	COMDAT pdata
; File c:\downloads\wpf mediakit - copy\src\filters\baseclasses\transfrm.cpp
pdata	SEGMENT
$pdata$?SetMediaType@CTransformInputPin@@UEAAJPEBVCMediaType@@@Z DD imagerel $LN5
	DD	imagerel $LN5+177
	DD	imagerel $unwind$?SetMediaType@CTransformInputPin@@UEAAJPEBVCMediaType@@@Z
pdata	ENDS
;	COMDAT xdata
xdata	SEGMENT
$unwind$?SetMediaType@CTransformInputPin@@UEAAJPEBVCMediaType@@@Z DD 022301H
	DD	0700b520fH
; Function compile flags: /Odtp /RTCsu
xdata	ENDS
;	COMDAT ?SetMediaType@CTransformInputPin@@UEAAJPEBVCMediaType@@@Z
_TEXT	SEGMENT
hr$ = 32
this$ = 64
mtIn$ = 72
?SetMediaType@CTransformInputPin@@UEAAJPEBVCMediaType@@@Z PROC ; CTransformInputPin::SetMediaType, COMDAT
; Line 672
$LN5:
	mov	QWORD PTR [rsp+16], rdx
	mov	QWORD PTR [rsp+8], rcx
	push	rdi
	sub	rsp, 48					; 00000030H
	mov	rdi, rsp
	mov	ecx, 12
	mov	eax, -858993460				; ccccccccH
	rep stosd
	mov	rcx, QWORD PTR [rsp+64]
; Line 674
	mov	rdx, QWORD PTR mtIn$[rsp]
	mov	rcx, QWORD PTR this$[rsp]
	call	?SetMediaType@CBasePin@@UEAAJPEBVCMediaType@@@Z ; CBasePin::SetMediaType
	mov	DWORD PTR hr$[rsp], eax
; Line 675
	cmp	DWORD PTR hr$[rsp], 0
	jge	SHORT $LN2@SetMediaTy
; Line 676
	mov	eax, DWORD PTR hr$[rsp]
	jmp	SHORT $LN3@SetMediaTy
$LN2@SetMediaTy:
; Line 680
	mov	rax, QWORD PTR this$[rsp]
	mov	rax, QWORD PTR [rax+320]
	mov	rcx, QWORD PTR this$[rsp]
	mov	rcx, QWORD PTR [rcx+320]
	mov	rax, QWORD PTR [rax]
	mov	rdx, QWORD PTR mtIn$[rsp]
	call	QWORD PTR [rax+80]
	test	eax, eax
	jge	SHORT $LN1@SetMediaTy
	mov	r8d, 680				; 000002a8H
	lea	rdx, OFFSET FLAT:$SG82576
	lea	rcx, OFFSET FLAT:$SG82577
	call	?DbgAssert@@YAXPEB_W0H@Z		; DbgAssert
$LN1@SetMediaTy:
; Line 682
	mov	rax, QWORD PTR this$[rsp]
	mov	rax, QWORD PTR [rax+320]
	mov	rcx, QWORD PTR this$[rsp]
	mov	rcx, QWORD PTR [rcx+320]
	mov	rax, QWORD PTR [rax]
	mov	r8, QWORD PTR mtIn$[rsp]
	xor	edx, edx
	call	QWORD PTR [rax+136]
$LN3@SetMediaTy:
; Line 683
	add	rsp, 48					; 00000030H
	pop	rdi
	ret	0
?SetMediaType@CTransformInputPin@@UEAAJPEBVCMediaType@@@Z ENDP ; CTransformInputPin::SetMediaType
_TEXT	ENDS
;	COMDAT pdata
pdata	SEGMENT
$pdata$?EndOfStream@CTransformInputPin@@UEAAJXZ DD imagerel $LN5
	DD	imagerel $LN5+200
	DD	imagerel $unwind$?EndOfStream@CTransformInputPin@@UEAAJXZ
pdata	ENDS
;	COMDAT pdata
pdata	SEGMENT
$pdata$?dtor$0@?0??EndOfStream@CTransformInputPin@@UEAAJXZ@4HA DD imagerel ?dtor$0@?0??EndOfStream@CTransformInputPin@@UEAAJXZ@4HA
	DD	imagerel ?dtor$0@?0??EndOfStream@CTransformInputPin@@UEAAJXZ@4HA+35
	DD	imagerel $unwind$?dtor$0@?0??EndOfStream@CTransformInputPin@@UEAAJXZ@4HA
pdata	ENDS
;	COMDAT xdata
xdata	SEGMENT
$ip2state$?EndOfStream@CTransformInputPin@@UEAAJXZ DD imagerel ?EndOfStream@CTransformInputPin@@UEAAJXZ
	DD	0ffffffffH
	DD	imagerel ?EndOfStream@CTransformInputPin@@UEAAJXZ+71
	DD	00H
	DD	imagerel ?EndOfStream@CTransformInputPin@@UEAAJXZ+161
	DD	0ffffffffH
xdata	ENDS
;	COMDAT xdata
xdata	SEGMENT
$unwind$?dtor$0@?0??EndOfStream@CTransformInputPin@@UEAAJXZ@4HA DD 031001H
	DD	0700c4210H
	DD	0500bH
xdata	ENDS
;	COMDAT xdata
xdata	SEGMENT
$unwind$?EndOfStream@CTransformInputPin@@UEAAJXZ DD 022711H
	DD	07006920aH
	DD	imagerel __CxxFrameHandler3
	DD	imagerel $cppxdata$?EndOfStream@CTransformInputPin@@UEAAJXZ
xdata	ENDS
;	COMDAT xdata
xdata	SEGMENT
$stateUnwindMap$?EndOfStream@CTransformInputPin@@UEAAJXZ DD 0ffffffffH
	DD	imagerel ?dtor$0@?0??EndOfStream@CTransformInputPin@@UEAAJXZ@4HA
xdata	ENDS
;	COMDAT CONST
CONST	SEGMENT
?EndOfStream@CTransformInputPin@@UEAAJXZ$rtcName$0 DB 06cH ; CTransformInputPin::EndOfStream
	DB	063H
	DB	06bH
	DB	00H
	ORG $+12
?EndOfStream@CTransformInputPin@@UEAAJXZ$rtcVarDesc DD 028H ; CTransformInputPin::EndOfStream
	DD	08H
	DQ	FLAT:?EndOfStream@CTransformInputPin@@UEAAJXZ$rtcName$0
	ORG $+48
?EndOfStream@CTransformInputPin@@UEAAJXZ$rtcFrameData DD 01H ; CTransformInputPin::EndOfStream
	DD	00H
	DQ	FLAT:?EndOfStream@CTransformInputPin@@UEAAJXZ$rtcVarDesc
$cppxdata$?EndOfStream@CTransformInputPin@@UEAAJXZ DD 019930522H
	DD	01H
	DD	imagerel $stateUnwindMap$?EndOfStream@CTransformInputPin@@UEAAJXZ
	DD	00H
	DD	00H
	DD	03H
	DD	imagerel $ip2state$?EndOfStream@CTransformInputPin@@UEAAJXZ
	DD	040H
	DD	00H
	DD	01H
; Function compile flags: /Odtp /RTCsu
CONST	ENDS
;	COMDAT ?EndOfStream@CTransformInputPin@@UEAAJXZ
_TEXT	SEGMENT
lck$ = 40
hr$ = 52
$T84180 = 56
$T84186 = 64
tv94 = 72
this$ = 96
?EndOfStream@CTransformInputPin@@UEAAJXZ PROC		; CTransformInputPin::EndOfStream, COMDAT
; Line 695
$LN5:
	mov	QWORD PTR [rsp+8], rcx
	push	rdi
	sub	rsp, 80					; 00000050H
	mov	rdi, rsp
	mov	ecx, 20
	mov	eax, -858993460				; ccccccccH
	rep stosd
	mov	rcx, QWORD PTR [rsp+96]
	mov	QWORD PTR $T84186[rsp], -2
; Line 696
	mov	rax, QWORD PTR this$[rsp]
	mov	rax, QWORD PTR [rax+288]
	add	rax, 200				; 000000c8H
	mov	rdx, rax
	lea	rcx, QWORD PTR lck$[rsp]
	call	??0CAutoLock@@QEAA@PEAVCCritSec@@@Z	; CAutoLock::CAutoLock
	npad	1
; Line 697
	mov	rax, QWORD PTR this$[rsp]
	sub	rax, 32					; 00000020H
	mov	rcx, QWORD PTR this$[rsp]
	mov	rcx, QWORD PTR [rcx-32]
	mov	QWORD PTR tv94[rsp], rcx
	mov	rcx, rax
	mov	rax, QWORD PTR tv94[rsp]
	call	QWORD PTR [rax+112]
	mov	DWORD PTR hr$[rsp], eax
; Line 698
	cmp	DWORD PTR hr$[rsp], 0
	jne	SHORT $LN1@EndOfStrea@2
; Line 699
	mov	rax, QWORD PTR this$[rsp]
	mov	rax, QWORD PTR [rax+288]
	mov	rcx, QWORD PTR this$[rsp]
	mov	rcx, QWORD PTR [rcx+288]
	mov	rax, QWORD PTR [rax]
	call	QWORD PTR [rax+176]
	mov	DWORD PTR hr$[rsp], eax
$LN1@EndOfStrea@2:
; Line 701
	mov	eax, DWORD PTR hr$[rsp]
	mov	DWORD PTR $T84180[rsp], eax
	lea	rcx, QWORD PTR lck$[rsp]
	call	??1CAutoLock@@QEAA@XZ			; CAutoLock::~CAutoLock
	mov	eax, DWORD PTR $T84180[rsp]
; Line 702
	mov	edi, eax
	mov	rcx, rsp
	lea	rdx, OFFSET FLAT:?EndOfStream@CTransformInputPin@@UEAAJXZ$rtcFrameData
	call	_RTC_CheckStackVars
	mov	eax, edi
	add	rsp, 80					; 00000050H
	pop	rdi
	ret	0
?EndOfStream@CTransformInputPin@@UEAAJXZ ENDP		; CTransformInputPin::EndOfStream
; Function compile flags: /Odtp /RTCsu
_TEXT	ENDS
;	COMDAT text$x
text$x	SEGMENT
lck$ = 40
hr$ = 52
$T84180 = 56
$T84186 = 64
tv94 = 72
this$ = 96
?dtor$0@?0??EndOfStream@CTransformInputPin@@UEAAJXZ@4HA PROC ; `CTransformInputPin::EndOfStream'::`1'::dtor$0
	mov	QWORD PTR [rsp+8], rcx
	mov	QWORD PTR [rsp+16], rdx
	push	rbp
	push	rdi
	sub	rsp, 40					; 00000028H
	mov	rbp, rdx
	lea	rcx, QWORD PTR lck$[rbp]
	call	??1CAutoLock@@QEAA@XZ			; CAutoLock::~CAutoLock
	add	rsp, 40					; 00000028H
	pop	rdi
	pop	rbp
	ret	0
?dtor$0@?0??EndOfStream@CTransformInputPin@@UEAAJXZ@4HA ENDP ; `CTransformInputPin::EndOfStream'::`1'::dtor$0
text$x	ENDS
EXTRN	?BeginFlush@CBaseInputPin@@UEAAJXZ:PROC		; CBaseInputPin::BeginFlush
;	COMDAT pdata
pdata	SEGMENT
$pdata$?BeginFlush@CTransformInputPin@@UEAAJXZ DD imagerel $LN8
	DD	imagerel $LN8+317
	DD	imagerel $unwind$?BeginFlush@CTransformInputPin@@UEAAJXZ
pdata	ENDS
;	COMDAT pdata
pdata	SEGMENT
$pdata$?dtor$0@?0??BeginFlush@CTransformInputPin@@UEAAJXZ@4HA DD imagerel ?dtor$0@?0??BeginFlush@CTransformInputPin@@UEAAJXZ@4HA
	DD	imagerel ?dtor$0@?0??BeginFlush@CTransformInputPin@@UEAAJXZ@4HA+35
	DD	imagerel $unwind$?dtor$0@?0??BeginFlush@CTransformInputPin@@UEAAJXZ@4HA
pdata	ENDS
;	COMDAT xdata
xdata	SEGMENT
$ip2state$?BeginFlush@CTransformInputPin@@UEAAJXZ DD imagerel ?BeginFlush@CTransformInputPin@@UEAAJXZ
	DD	0ffffffffH
	DD	imagerel ?BeginFlush@CTransformInputPin@@UEAAJXZ+71
	DD	00H
	DD	imagerel ?BeginFlush@CTransformInputPin@@UEAAJXZ+175
	DD	0ffffffffH
	DD	imagerel ?BeginFlush@CTransformInputPin@@UEAAJXZ+191
	DD	00H
	DD	imagerel ?BeginFlush@CTransformInputPin@@UEAAJXZ+223
	DD	0ffffffffH
	DD	imagerel ?BeginFlush@CTransformInputPin@@UEAAJXZ+239
	DD	00H
	DD	imagerel ?BeginFlush@CTransformInputPin@@UEAAJXZ+276
	DD	0ffffffffH
xdata	ENDS
;	COMDAT xdata
xdata	SEGMENT
$unwind$?dtor$0@?0??BeginFlush@CTransformInputPin@@UEAAJXZ@4HA DD 031001H
	DD	0700c4210H
	DD	0500bH
xdata	ENDS
;	COMDAT xdata
xdata	SEGMENT
$unwind$?BeginFlush@CTransformInputPin@@UEAAJXZ DD 022711H
	DD	07006920aH
	DD	imagerel __CxxFrameHandler3
	DD	imagerel $cppxdata$?BeginFlush@CTransformInputPin@@UEAAJXZ
xdata	ENDS
;	COMDAT xdata
xdata	SEGMENT
$stateUnwindMap$?BeginFlush@CTransformInputPin@@UEAAJXZ DD 0ffffffffH
	DD	imagerel ?dtor$0@?0??BeginFlush@CTransformInputPin@@UEAAJXZ@4HA
xdata	ENDS
;	COMDAT CONST
CONST	SEGMENT
?BeginFlush@CTransformInputPin@@UEAAJXZ$rtcName$0 DB 06cH ; CTransformInputPin::BeginFlush
	DB	063H
	DB	06bH
	DB	00H
	ORG $+12
?BeginFlush@CTransformInputPin@@UEAAJXZ$rtcVarDesc DD 028H ; CTransformInputPin::BeginFlush
	DD	08H
	DQ	FLAT:?BeginFlush@CTransformInputPin@@UEAAJXZ$rtcName$0
	ORG $+48
?BeginFlush@CTransformInputPin@@UEAAJXZ$rtcFrameData DD 01H ; CTransformInputPin::BeginFlush
	DD	00H
	DQ	FLAT:?BeginFlush@CTransformInputPin@@UEAAJXZ$rtcVarDesc
$cppxdata$?BeginFlush@CTransformInputPin@@UEAAJXZ DD 019930522H
	DD	01H
	DD	imagerel $stateUnwindMap$?BeginFlush@CTransformInputPin@@UEAAJXZ
	DD	00H
	DD	00H
	DD	07H
	DD	imagerel $ip2state$?BeginFlush@CTransformInputPin@@UEAAJXZ
	DD	048H
	DD	00H
	DD	01H
; Function compile flags: /Odtp /RTCsu
CONST	ENDS
;	COMDAT ?BeginFlush@CTransformInputPin@@UEAAJXZ
_TEXT	SEGMENT
lck$ = 40
hr$ = 52
$T84207 = 56
$T84208 = 60
$T84209 = 64
$T84215 = 72
this$ = 96
?BeginFlush@CTransformInputPin@@UEAAJXZ PROC		; CTransformInputPin::BeginFlush, COMDAT
; Line 709
$LN8:
	mov	QWORD PTR [rsp+8], rcx
	push	rdi
	sub	rsp, 80					; 00000050H
	mov	rdi, rsp
	mov	ecx, 20
	mov	eax, -858993460				; ccccccccH
	rep stosd
	mov	rcx, QWORD PTR [rsp+96]
	mov	QWORD PTR $T84215[rsp], -2
; Line 710
	mov	rax, QWORD PTR this$[rsp]
	mov	rax, QWORD PTR [rax+288]
	add	rax, 144				; 00000090H
	mov	rdx, rax
	lea	rcx, QWORD PTR lck$[rsp]
	call	??0CAutoLock@@QEAA@PEAVCCritSec@@@Z	; CAutoLock::CAutoLock
	npad	1
; Line 712
	mov	rax, QWORD PTR this$[rsp]
	mov	rax, QWORD PTR [rax+288]
	cmp	QWORD PTR [rax+264], 0
	jne	SHORT $LN4@BeginFlush@2
	mov	r8d, 712				; 000002c8H
	lea	rdx, OFFSET FLAT:$SG82593
	lea	rcx, OFFSET FLAT:$SG82594
	call	?DbgAssert@@YAXPEB_W0H@Z		; DbgAssert
$LN4@BeginFlush@2:
; Line 714
	mov	rax, QWORD PTR this$[rsp]
	sub	rax, 32					; 00000020H
	mov	rcx, rax
	call	?IsConnected@CBasePin@@QEAAHXZ		; CBasePin::IsConnected
	test	eax, eax
	je	SHORT $LN2@BeginFlush@2
	mov	rax, QWORD PTR this$[rsp]
	mov	rax, QWORD PTR [rax+288]
	mov	rcx, QWORD PTR [rax+264]
	call	?IsConnected@CBasePin@@QEAAHXZ		; CBasePin::IsConnected
	test	eax, eax
	jne	SHORT $LN3@BeginFlush@2
$LN2@BeginFlush@2:
; Line 715
	mov	DWORD PTR $T84207[rsp], -2147220983	; ffffffff80040209H
	lea	rcx, QWORD PTR lck$[rsp]
	call	??1CAutoLock@@QEAA@XZ			; CAutoLock::~CAutoLock
	mov	eax, DWORD PTR $T84207[rsp]
	jmp	SHORT $LN5@BeginFlush@2
$LN3@BeginFlush@2:
; Line 717
	mov	rax, QWORD PTR this$[rsp]
	mov	rcx, rax
	call	?BeginFlush@CBaseInputPin@@UEAAJXZ	; CBaseInputPin::BeginFlush
	mov	DWORD PTR hr$[rsp], eax
; Line 718
	cmp	DWORD PTR hr$[rsp], 0
	jge	SHORT $LN1@BeginFlush@2
; Line 719
	mov	eax, DWORD PTR hr$[rsp]
	mov	DWORD PTR $T84208[rsp], eax
	lea	rcx, QWORD PTR lck$[rsp]
	call	??1CAutoLock@@QEAA@XZ			; CAutoLock::~CAutoLock
	mov	eax, DWORD PTR $T84208[rsp]
	jmp	SHORT $LN5@BeginFlush@2
$LN1@BeginFlush@2:
; Line 722
	mov	rax, QWORD PTR this$[rsp]
	mov	rax, QWORD PTR [rax+288]
	mov	rcx, QWORD PTR this$[rsp]
	mov	rcx, QWORD PTR [rcx+288]
	mov	rax, QWORD PTR [rax]
	call	QWORD PTR [rax+184]
	mov	DWORD PTR $T84209[rsp], eax
	lea	rcx, QWORD PTR lck$[rsp]
	call	??1CAutoLock@@QEAA@XZ			; CAutoLock::~CAutoLock
	mov	eax, DWORD PTR $T84209[rsp]
$LN5@BeginFlush@2:
; Line 723
	mov	rdi, rax
	mov	rcx, rsp
	lea	rdx, OFFSET FLAT:?BeginFlush@CTransformInputPin@@UEAAJXZ$rtcFrameData
	call	_RTC_CheckStackVars
	mov	rax, rdi
	add	rsp, 80					; 00000050H
	pop	rdi
	ret	0
?BeginFlush@CTransformInputPin@@UEAAJXZ ENDP		; CTransformInputPin::BeginFlush
; Function compile flags: /Odtp /RTCsu
_TEXT	ENDS
;	COMDAT text$x
text$x	SEGMENT
lck$ = 40
hr$ = 52
$T84207 = 56
$T84208 = 60
$T84209 = 64
$T84215 = 72
this$ = 96
?dtor$0@?0??BeginFlush@CTransformInputPin@@UEAAJXZ@4HA PROC ; `CTransformInputPin::BeginFlush'::`1'::dtor$0
	mov	QWORD PTR [rsp+8], rcx
	mov	QWORD PTR [rsp+16], rdx
	push	rbp
	push	rdi
	sub	rsp, 40					; 00000028H
	mov	rbp, rdx
	lea	rcx, QWORD PTR lck$[rbp]
	call	??1CAutoLock@@QEAA@XZ			; CAutoLock::~CAutoLock
	add	rsp, 40					; 00000028H
	pop	rdi
	pop	rbp
	ret	0
?dtor$0@?0??BeginFlush@CTransformInputPin@@UEAAJXZ@4HA ENDP ; `CTransformInputPin::BeginFlush'::`1'::dtor$0
text$x	ENDS
EXTRN	?EndFlush@CBaseInputPin@@UEAAJXZ:PROC		; CBaseInputPin::EndFlush
;	COMDAT pdata
pdata	SEGMENT
$pdata$?EndFlush@CTransformInputPin@@UEAAJXZ DD imagerel $LN8
	DD	imagerel $LN8+317
	DD	imagerel $unwind$?EndFlush@CTransformInputPin@@UEAAJXZ
pdata	ENDS
;	COMDAT pdata
pdata	SEGMENT
$pdata$?dtor$0@?0??EndFlush@CTransformInputPin@@UEAAJXZ@4HA DD imagerel ?dtor$0@?0??EndFlush@CTransformInputPin@@UEAAJXZ@4HA
	DD	imagerel ?dtor$0@?0??EndFlush@CTransformInputPin@@UEAAJXZ@4HA+35
	DD	imagerel $unwind$?dtor$0@?0??EndFlush@CTransformInputPin@@UEAAJXZ@4HA
pdata	ENDS
;	COMDAT xdata
xdata	SEGMENT
$ip2state$?EndFlush@CTransformInputPin@@UEAAJXZ DD imagerel ?EndFlush@CTransformInputPin@@UEAAJXZ
	DD	0ffffffffH
	DD	imagerel ?EndFlush@CTransformInputPin@@UEAAJXZ+71
	DD	00H
	DD	imagerel ?EndFlush@CTransformInputPin@@UEAAJXZ+175
	DD	0ffffffffH
	DD	imagerel ?EndFlush@CTransformInputPin@@UEAAJXZ+191
	DD	00H
	DD	imagerel ?EndFlush@CTransformInputPin@@UEAAJXZ+243
	DD	0ffffffffH
	DD	imagerel ?EndFlush@CTransformInputPin@@UEAAJXZ+259
	DD	00H
	DD	imagerel ?EndFlush@CTransformInputPin@@UEAAJXZ+276
	DD	0ffffffffH
xdata	ENDS
;	COMDAT xdata
xdata	SEGMENT
$unwind$?dtor$0@?0??EndFlush@CTransformInputPin@@UEAAJXZ@4HA DD 031001H
	DD	0700c4210H
	DD	0500bH
xdata	ENDS
;	COMDAT xdata
xdata	SEGMENT
$unwind$?EndFlush@CTransformInputPin@@UEAAJXZ DD 022711H
	DD	07006920aH
	DD	imagerel __CxxFrameHandler3
	DD	imagerel $cppxdata$?EndFlush@CTransformInputPin@@UEAAJXZ
xdata	ENDS
;	COMDAT xdata
xdata	SEGMENT
$stateUnwindMap$?EndFlush@CTransformInputPin@@UEAAJXZ DD 0ffffffffH
	DD	imagerel ?dtor$0@?0??EndFlush@CTransformInputPin@@UEAAJXZ@4HA
xdata	ENDS
;	COMDAT CONST
CONST	SEGMENT
?EndFlush@CTransformInputPin@@UEAAJXZ$rtcName$0 DB 06cH	; CTransformInputPin::EndFlush
	DB	063H
	DB	06bH
	DB	00H
	ORG $+12
?EndFlush@CTransformInputPin@@UEAAJXZ$rtcVarDesc DD 028H ; CTransformInputPin::EndFlush
	DD	08H
	DQ	FLAT:?EndFlush@CTransformInputPin@@UEAAJXZ$rtcName$0
	ORG $+48
?EndFlush@CTransformInputPin@@UEAAJXZ$rtcFrameData DD 01H ; CTransformInputPin::EndFlush
	DD	00H
	DQ	FLAT:?EndFlush@CTransformInputPin@@UEAAJXZ$rtcVarDesc
$cppxdata$?EndFlush@CTransformInputPin@@UEAAJXZ DD 019930522H
	DD	01H
	DD	imagerel $stateUnwindMap$?EndFlush@CTransformInputPin@@UEAAJXZ
	DD	00H
	DD	00H
	DD	07H
	DD	imagerel $ip2state$?EndFlush@CTransformInputPin@@UEAAJXZ
	DD	048H
	DD	00H
	DD	01H
; Function compile flags: /Odtp /RTCsu
CONST	ENDS
;	COMDAT ?EndFlush@CTransformInputPin@@UEAAJXZ
_TEXT	SEGMENT
lck$ = 40
hr$ = 52
$T84236 = 56
$T84237 = 60
$T84238 = 64
$T84244 = 72
this$ = 96
?EndFlush@CTransformInputPin@@UEAAJXZ PROC		; CTransformInputPin::EndFlush, COMDAT
; Line 731
$LN8:
	mov	QWORD PTR [rsp+8], rcx
	push	rdi
	sub	rsp, 80					; 00000050H
	mov	rdi, rsp
	mov	ecx, 20
	mov	eax, -858993460				; ccccccccH
	rep stosd
	mov	rcx, QWORD PTR [rsp+96]
	mov	QWORD PTR $T84244[rsp], -2
; Line 732
	mov	rax, QWORD PTR this$[rsp]
	mov	rax, QWORD PTR [rax+288]
	add	rax, 144				; 00000090H
	mov	rdx, rax
	lea	rcx, QWORD PTR lck$[rsp]
	call	??0CAutoLock@@QEAA@PEAVCCritSec@@@Z	; CAutoLock::CAutoLock
	npad	1
; Line 734
	mov	rax, QWORD PTR this$[rsp]
	mov	rax, QWORD PTR [rax+288]
	cmp	QWORD PTR [rax+264], 0
	jne	SHORT $LN4@EndFlush@2
	mov	r8d, 734				; 000002deH
	lea	rdx, OFFSET FLAT:$SG82610
	lea	rcx, OFFSET FLAT:$SG82611
	call	?DbgAssert@@YAXPEB_W0H@Z		; DbgAssert
$LN4@EndFlush@2:
; Line 736
	mov	rax, QWORD PTR this$[rsp]
	sub	rax, 32					; 00000020H
	mov	rcx, rax
	call	?IsConnected@CBasePin@@QEAAHXZ		; CBasePin::IsConnected
	test	eax, eax
	je	SHORT $LN2@EndFlush@2
	mov	rax, QWORD PTR this$[rsp]
	mov	rax, QWORD PTR [rax+288]
	mov	rcx, QWORD PTR [rax+264]
	call	?IsConnected@CBasePin@@QEAAHXZ		; CBasePin::IsConnected
	test	eax, eax
	jne	SHORT $LN3@EndFlush@2
$LN2@EndFlush@2:
; Line 737
	mov	DWORD PTR $T84236[rsp], -2147220983	; ffffffff80040209H
	lea	rcx, QWORD PTR lck$[rsp]
	call	??1CAutoLock@@QEAA@XZ			; CAutoLock::~CAutoLock
	mov	eax, DWORD PTR $T84236[rsp]
	jmp	SHORT $LN5@EndFlush@2
$LN3@EndFlush@2:
; Line 740
	mov	rax, QWORD PTR this$[rsp]
	mov	rax, QWORD PTR [rax+288]
	mov	rcx, QWORD PTR this$[rsp]
	mov	rcx, QWORD PTR [rcx+288]
	mov	rax, QWORD PTR [rax]
	call	QWORD PTR [rax+192]
	mov	DWORD PTR hr$[rsp], eax
; Line 741
	cmp	DWORD PTR hr$[rsp], 0
	jge	SHORT $LN1@EndFlush@2
; Line 742
	mov	eax, DWORD PTR hr$[rsp]
	mov	DWORD PTR $T84237[rsp], eax
	lea	rcx, QWORD PTR lck$[rsp]
	call	??1CAutoLock@@QEAA@XZ			; CAutoLock::~CAutoLock
	mov	eax, DWORD PTR $T84237[rsp]
	jmp	SHORT $LN5@EndFlush@2
$LN1@EndFlush@2:
; Line 745
	mov	rax, QWORD PTR this$[rsp]
	mov	rcx, rax
	call	?EndFlush@CBaseInputPin@@UEAAJXZ	; CBaseInputPin::EndFlush
	mov	DWORD PTR $T84238[rsp], eax
	lea	rcx, QWORD PTR lck$[rsp]
	call	??1CAutoLock@@QEAA@XZ			; CAutoLock::~CAutoLock
	mov	eax, DWORD PTR $T84238[rsp]
$LN5@EndFlush@2:
; Line 746
	mov	rdi, rax
	mov	rcx, rsp
	lea	rdx, OFFSET FLAT:?EndFlush@CTransformInputPin@@UEAAJXZ$rtcFrameData
	call	_RTC_CheckStackVars
	mov	rax, rdi
	add	rsp, 80					; 00000050H
	pop	rdi
	ret	0
?EndFlush@CTransformInputPin@@UEAAJXZ ENDP		; CTransformInputPin::EndFlush
; Function compile flags: /Odtp /RTCsu
_TEXT	ENDS
;	COMDAT text$x
text$x	SEGMENT
lck$ = 40
hr$ = 52
$T84236 = 56
$T84237 = 60
$T84238 = 64
$T84244 = 72
this$ = 96
?dtor$0@?0??EndFlush@CTransformInputPin@@UEAAJXZ@4HA PROC ; `CTransformInputPin::EndFlush'::`1'::dtor$0
	mov	QWORD PTR [rsp+8], rcx
	mov	QWORD PTR [rsp+16], rdx
	push	rbp
	push	rdi
	sub	rsp, 40					; 00000028H
	mov	rbp, rdx
	lea	rcx, QWORD PTR lck$[rbp]
	call	??1CAutoLock@@QEAA@XZ			; CAutoLock::~CAutoLock
	add	rsp, 40					; 00000028H
	pop	rdi
	pop	rbp
	ret	0
?dtor$0@?0??EndFlush@CTransformInputPin@@UEAAJXZ@4HA ENDP ; `CTransformInputPin::EndFlush'::`1'::dtor$0
text$x	ENDS
EXTRN	?Receive@CBaseInputPin@@UEAAJPEAUIMediaSample@@@Z:PROC ; CBaseInputPin::Receive
;	COMDAT pdata
pdata	SEGMENT
$pdata$?Receive@CTransformInputPin@@UEAAJPEAUIMediaSample@@@Z DD imagerel $LN6
	DD	imagerel $LN6+218
	DD	imagerel $unwind$?Receive@CTransformInputPin@@UEAAJPEAUIMediaSample@@@Z
pdata	ENDS
;	COMDAT pdata
pdata	SEGMENT
$pdata$?dtor$0@?0??Receive@CTransformInputPin@@UEAAJPEAUIMediaSample@@@Z@4HA DD imagerel ?dtor$0@?0??Receive@CTransformInputPin@@UEAAJPEAUIMediaSample@@@Z@4HA
	DD	imagerel ?dtor$0@?0??Receive@CTransformInputPin@@UEAAJPEAUIMediaSample@@@Z@4HA+35
	DD	imagerel $unwind$?dtor$0@?0??Receive@CTransformInputPin@@UEAAJPEAUIMediaSample@@@Z@4HA
pdata	ENDS
;	COMDAT xdata
xdata	SEGMENT
$ip2state$?Receive@CTransformInputPin@@UEAAJPEAUIMediaSample@@@Z DD imagerel ?Receive@CTransformInputPin@@UEAAJPEAUIMediaSample@@@Z
	DD	0ffffffffH
	DD	imagerel ?Receive@CTransformInputPin@@UEAAJPEAUIMediaSample@@@Z+73
	DD	00H
	DD	imagerel ?Receive@CTransformInputPin@@UEAAJPEAUIMediaSample@@@Z+179
	DD	0ffffffffH
xdata	ENDS
;	COMDAT xdata
xdata	SEGMENT
$unwind$?dtor$0@?0??Receive@CTransformInputPin@@UEAAJPEAUIMediaSample@@@Z@4HA DD 031001H
	DD	0700c4210H
	DD	0500bH
xdata	ENDS
;	COMDAT xdata
xdata	SEGMENT
$unwind$?Receive@CTransformInputPin@@UEAAJPEAUIMediaSample@@@Z DD 022c11H
	DD	0700b920fH
	DD	imagerel __CxxFrameHandler3
	DD	imagerel $cppxdata$?Receive@CTransformInputPin@@UEAAJPEAUIMediaSample@@@Z
xdata	ENDS
;	COMDAT xdata
xdata	SEGMENT
$stateUnwindMap$?Receive@CTransformInputPin@@UEAAJPEAUIMediaSample@@@Z DD 0ffffffffH
	DD	imagerel ?dtor$0@?0??Receive@CTransformInputPin@@UEAAJPEAUIMediaSample@@@Z@4HA
xdata	ENDS
;	COMDAT CONST
CONST	SEGMENT
?Receive@CTransformInputPin@@UEAAJPEAUIMediaSample@@@Z$rtcName$0 DB 06cH ; CTransformInputPin::Receive
	DB	063H
	DB	06bH
	DB	00H
	ORG $+12
?Receive@CTransformInputPin@@UEAAJPEAUIMediaSample@@@Z$rtcVarDesc DD 038H ; CTransformInputPin::Receive
	DD	08H
	DQ	FLAT:?Receive@CTransformInputPin@@UEAAJPEAUIMediaSample@@@Z$rtcName$0
	ORG $+48
?Receive@CTransformInputPin@@UEAAJPEAUIMediaSample@@@Z$rtcFrameData DD 01H ; CTransformInputPin::Receive
	DD	00H
	DQ	FLAT:?Receive@CTransformInputPin@@UEAAJPEAUIMediaSample@@@Z$rtcVarDesc
$cppxdata$?Receive@CTransformInputPin@@UEAAJPEAUIMediaSample@@@Z DD 019930522H
	DD	01H
	DD	imagerel $stateUnwindMap$?Receive@CTransformInputPin@@UEAAJPEAUIMediaSample@@@Z
	DD	00H
	DD	00H
	DD	03H
	DD	imagerel $ip2state$?Receive@CTransformInputPin@@UEAAJPEAUIMediaSample@@@Z
	DD	048H
	DD	00H
	DD	01H
; Function compile flags: /Odtp /RTCsu
CONST	ENDS
;	COMDAT ?Receive@CTransformInputPin@@UEAAJPEAUIMediaSample@@@Z
_TEXT	SEGMENT
hr$ = 32
lck$ = 56
$T84265 = 68
$T84271 = 72
this$ = 96
pSample$ = 104
?Receive@CTransformInputPin@@UEAAJPEAUIMediaSample@@@Z PROC ; CTransformInputPin::Receive, COMDAT
; Line 755
$LN6:
	mov	QWORD PTR [rsp+16], rdx
	mov	QWORD PTR [rsp+8], rcx
	push	rdi
	sub	rsp, 80					; 00000050H
	mov	rdi, rsp
	mov	ecx, 20
	mov	eax, -858993460				; ccccccccH
	rep stosd
	mov	rcx, QWORD PTR [rsp+96]
	mov	QWORD PTR $T84271[rsp], -2
; Line 757
	mov	rax, QWORD PTR this$[rsp]
	mov	rax, QWORD PTR [rax+88]
	add	rax, 200				; 000000c8H
	mov	rdx, rax
	lea	rcx, QWORD PTR lck$[rsp]
	call	??0CAutoLock@@QEAA@PEAVCCritSec@@@Z	; CAutoLock::CAutoLock
	npad	1
; Line 758
	cmp	QWORD PTR pSample$[rsp], 0
	jne	SHORT $LN2@Receive@2
	mov	r8d, 758				; 000002f6H
	lea	rdx, OFFSET FLAT:$SG82628
	lea	rcx, OFFSET FLAT:$SG82629
	call	?DbgAssert@@YAXPEB_W0H@Z		; DbgAssert
$LN2@Receive@2:
; Line 761
	mov	rax, QWORD PTR this$[rsp]
	mov	rdx, QWORD PTR pSample$[rsp]
	mov	rcx, rax
	call	?Receive@CBaseInputPin@@UEAAJPEAUIMediaSample@@@Z ; CBaseInputPin::Receive
	mov	DWORD PTR hr$[rsp], eax
; Line 762
	cmp	DWORD PTR hr$[rsp], 0
	jne	SHORT $LN1@Receive@2
; Line 763
	mov	rax, QWORD PTR this$[rsp]
	mov	rax, QWORD PTR [rax+88]
	mov	rcx, QWORD PTR this$[rsp]
	mov	rcx, QWORD PTR [rcx+88]
	mov	rax, QWORD PTR [rax]
	mov	rdx, QWORD PTR pSample$[rsp]
	call	QWORD PTR [rax+168]
	mov	DWORD PTR hr$[rsp], eax
$LN1@Receive@2:
; Line 765
	mov	eax, DWORD PTR hr$[rsp]
	mov	DWORD PTR $T84265[rsp], eax
	lea	rcx, QWORD PTR lck$[rsp]
	call	??1CAutoLock@@QEAA@XZ			; CAutoLock::~CAutoLock
	mov	eax, DWORD PTR $T84265[rsp]
; Line 766
	mov	edi, eax
	mov	rcx, rsp
	lea	rdx, OFFSET FLAT:?Receive@CTransformInputPin@@UEAAJPEAUIMediaSample@@@Z$rtcFrameData
	call	_RTC_CheckStackVars
	mov	eax, edi
	add	rsp, 80					; 00000050H
	pop	rdi
	ret	0
?Receive@CTransformInputPin@@UEAAJPEAUIMediaSample@@@Z ENDP ; CTransformInputPin::Receive
; Function compile flags: /Odtp /RTCsu
_TEXT	ENDS
;	COMDAT text$x
text$x	SEGMENT
hr$ = 32
lck$ = 56
$T84265 = 68
$T84271 = 72
this$ = 96
pSample$ = 104
?dtor$0@?0??Receive@CTransformInputPin@@UEAAJPEAUIMediaSample@@@Z@4HA PROC ; `CTransformInputPin::Receive'::`1'::dtor$0
	mov	QWORD PTR [rsp+8], rcx
	mov	QWORD PTR [rsp+16], rdx
	push	rbp
	push	rdi
	sub	rsp, 40					; 00000028H
	mov	rbp, rdx
	lea	rcx, QWORD PTR lck$[rbp]
	call	??1CAutoLock@@QEAA@XZ			; CAutoLock::~CAutoLock
	add	rsp, 40					; 00000028H
	pop	rdi
	pop	rbp
	ret	0
?dtor$0@?0??Receive@CTransformInputPin@@UEAAJPEAUIMediaSample@@@Z@4HA ENDP ; `CTransformInputPin::Receive'::`1'::dtor$0
text$x	ENDS
EXTRN	?NewSegment@CBasePin@@UEAAJ_J0N@Z:PROC		; CBasePin::NewSegment
;	COMDAT pdata
pdata	SEGMENT
$pdata$?NewSegment@CTransformInputPin@@UEAAJ_J0N@Z DD imagerel $LN3
	DD	imagerel $LN3+130
	DD	imagerel $unwind$?NewSegment@CTransformInputPin@@UEAAJ_J0N@Z
pdata	ENDS
;	COMDAT xdata
xdata	SEGMENT
$unwind$?NewSegment@CTransformInputPin@@UEAAJ_J0N@Z DD 022e01H
	DD	07016321aH
; Function compile flags: /Odtp /RTCsu
xdata	ENDS
;	COMDAT ?NewSegment@CTransformInputPin@@UEAAJ_J0N@Z
_TEXT	SEGMENT
this$ = 48
tStart$ = 56
tStop$ = 64
dRate$ = 72
?NewSegment@CTransformInputPin@@UEAAJ_J0N@Z PROC	; CTransformInputPin::NewSegment, COMDAT
; Line 777
$LN3:
	movsdx	QWORD PTR [rsp+32], xmm3
	mov	QWORD PTR [rsp+24], r8
	mov	QWORD PTR [rsp+16], rdx
	mov	QWORD PTR [rsp+8], rcx
	push	rdi
	sub	rsp, 32					; 00000020H
	mov	rdi, rsp
	mov	ecx, 8
	mov	eax, -858993460				; ccccccccH
	rep stosd
	mov	rcx, QWORD PTR [rsp+48]
; Line 779
	mov	rax, QWORD PTR this$[rsp]
	movsdx	xmm3, QWORD PTR dRate$[rsp]
	mov	r8, QWORD PTR tStop$[rsp]
	mov	rdx, QWORD PTR tStart$[rsp]
	mov	rcx, rax
	call	?NewSegment@CBasePin@@UEAAJ_J0N@Z	; CBasePin::NewSegment
; Line 780
	mov	rax, QWORD PTR this$[rsp]
	mov	rax, QWORD PTR [rax+288]
	mov	rcx, QWORD PTR this$[rsp]
	mov	rcx, QWORD PTR [rcx+288]
	mov	rax, QWORD PTR [rax]
	movsdx	xmm3, QWORD PTR dRate$[rsp]
	mov	r8, QWORD PTR tStop$[rsp]
	mov	rdx, QWORD PTR tStart$[rsp]
	call	QWORD PTR [rax+200]
; Line 781
	add	rsp, 32					; 00000020H
	pop	rdi
	ret	0
?NewSegment@CTransformInputPin@@UEAAJ_J0N@Z ENDP	; CTransformInputPin::NewSegment
_TEXT	ENDS
PUBLIC	??1CBaseOutputPin@@UEAA@XZ			; CBaseOutputPin::~CBaseOutputPin
PUBLIC	??_7CTransformOutputPin@@6BIQualityControl@@@	; CTransformOutputPin::`vftable'
PUBLIC	??_7CTransformOutputPin@@6BIPin@@@		; CTransformOutputPin::`vftable'
PUBLIC	??_7CTransformOutputPin@@6BCUnknown@@@		; CTransformOutputPin::`vftable'
PUBLIC	??_R4CTransformOutputPin@@6BCUnknown@@@		; CTransformOutputPin::`RTTI Complete Object Locator'
PUBLIC	??_R0?AVCTransformOutputPin@@@8			; CTransformOutputPin `RTTI Type Descriptor'
PUBLIC	??_R3CTransformOutputPin@@8			; CTransformOutputPin::`RTTI Class Hierarchy Descriptor'
PUBLIC	??_R2CTransformOutputPin@@8			; CTransformOutputPin::`RTTI Base Class Array'
PUBLIC	??_R1A@?0A@EA@CTransformOutputPin@@8		; CTransformOutputPin::`RTTI Base Class Descriptor at (0,-1,0,64)'
PUBLIC	??_R1A@?0A@EA@CBaseOutputPin@@8			; CBaseOutputPin::`RTTI Base Class Descriptor at (0,-1,0,64)'
PUBLIC	??_R0?AVCBaseOutputPin@@@8			; CBaseOutputPin `RTTI Type Descriptor'
PUBLIC	??_R3CBaseOutputPin@@8				; CBaseOutputPin::`RTTI Class Hierarchy Descriptor'
PUBLIC	??_R2CBaseOutputPin@@8				; CBaseOutputPin::`RTTI Base Class Array'
PUBLIC	?NonDelegatingQueryInterface@CTransformOutputPin@@UEAAJAEBU_GUID@@PEAPEAX@Z ; CTransformOutputPin::NonDelegatingQueryInterface
PUBLIC	?CheckMediaType@CTransformOutputPin@@UEAAJPEBVCMediaType@@@Z ; CTransformOutputPin::CheckMediaType
PUBLIC	?SetMediaType@CTransformOutputPin@@UEAAJPEBVCMediaType@@@Z ; CTransformOutputPin::SetMediaType
PUBLIC	?CheckConnect@CTransformOutputPin@@UEAAJPEAUIPin@@@Z ; CTransformOutputPin::CheckConnect
PUBLIC	?BreakConnect@CTransformOutputPin@@UEAAJXZ	; CTransformOutputPin::BreakConnect
PUBLIC	?CompleteConnect@CTransformOutputPin@@UEAAJPEAUIPin@@@Z ; CTransformOutputPin::CompleteConnect
PUBLIC	?GetMediaType@CTransformOutputPin@@UEAAJHPEAVCMediaType@@@Z ; CTransformOutputPin::GetMediaType
PUBLIC	?DecideBufferSize@CTransformOutputPin@@UEAAJPEAUIMemAllocator@@PEAU_AllocatorProperties@@@Z ; CTransformOutputPin::DecideBufferSize
PUBLIC	??_R4CTransformOutputPin@@6BIPin@@@		; CTransformOutputPin::`RTTI Complete Object Locator'
PUBLIC	?QueryInterface@CBasePin@@UEAAJAEBU_GUID@@PEAPEAX@Z ; CBasePin::QueryInterface
PUBLIC	?AddRef@CBasePin@@UEAAKXZ			; CBasePin::AddRef
PUBLIC	?Release@CBasePin@@UEAAKXZ			; CBasePin::Release
PUBLIC	?QueryId@CTransformOutputPin@@UEAAJPEAPEA_W@Z	; CTransformOutputPin::QueryId
PUBLIC	??_R4CTransformOutputPin@@6BIQualityControl@@@	; CTransformOutputPin::`RTTI Complete Object Locator'
PUBLIC	?QueryInterface@CBasePin@@W7EAAJAEBU_GUID@@PEAPEAX@Z ; [thunk]:CBasePin::QueryInterface`adjustor{8}'
PUBLIC	?AddRef@CBasePin@@W7EAAKXZ			; [thunk]:CBasePin::AddRef`adjustor{8}'
PUBLIC	?Release@CBasePin@@W7EAAKXZ			; [thunk]:CBasePin::Release`adjustor{8}'
PUBLIC	?Notify@CTransformOutputPin@@UEAAJPEAUIBaseFilter@@UtagQuality@@@Z ; CTransformOutputPin::Notify
EXTRN	??0CBaseOutputPin@@QEAA@PEA_WPEAVCBaseFilter@@PEAVCCritSec@@PEAJPEB_W@Z:PROC ; CBaseOutputPin::CBaseOutputPin
EXTRN	??_ECTransformOutputPin@@UEAAPEAXI@Z:PROC	; CTransformOutputPin::`vector deleting destructor'
EXTRN	?Active@CBaseOutputPin@@UEAAJXZ:PROC		; CBaseOutputPin::Active
EXTRN	?Inactive@CBaseOutputPin@@UEAAJXZ:PROC		; CBaseOutputPin::Inactive
EXTRN	?DecideAllocator@CBaseOutputPin@@UEAAJPEAUIMemInputPin@@PEAPEAUIMemAllocator@@@Z:PROC ; CBaseOutputPin::DecideAllocator
EXTRN	?GetDeliveryBuffer@CBaseOutputPin@@UEAAJPEAPEAUIMediaSample@@PEA_J1K@Z:PROC ; CBaseOutputPin::GetDeliveryBuffer
EXTRN	?Deliver@CBaseOutputPin@@UEAAJPEAUIMediaSample@@@Z:PROC ; CBaseOutputPin::Deliver
EXTRN	?InitAllocator@CBaseOutputPin@@UEAAJPEAPEAUIMemAllocator@@@Z:PROC ; CBaseOutputPin::InitAllocator
EXTRN	?DeliverEndOfStream@CBaseOutputPin@@UEAAJXZ:PROC ; CBaseOutputPin::DeliverEndOfStream
EXTRN	?DeliverBeginFlush@CBaseOutputPin@@UEAAJXZ:PROC	; CBaseOutputPin::DeliverBeginFlush
EXTRN	?DeliverEndFlush@CBaseOutputPin@@UEAAJXZ:PROC	; CBaseOutputPin::DeliverEndFlush
EXTRN	?DeliverNewSegment@CBaseOutputPin@@UEAAJ_J0N@Z:PROC ; CBaseOutputPin::DeliverNewSegment
EXTRN	?EndOfStream@CBaseOutputPin@@UEAAJXZ:PROC	; CBaseOutputPin::EndOfStream
EXTRN	?BeginFlush@CBaseOutputPin@@UEAAJXZ:PROC	; CBaseOutputPin::BeginFlush
EXTRN	?EndFlush@CBaseOutputPin@@UEAAJXZ:PROC		; CBaseOutputPin::EndFlush
;	COMDAT pdata
pdata	SEGMENT
$pdata$??0CTransformOutputPin@@QEAA@PEA_WPEAVCTransformFilter@@PEAJPEB_W@Z DD imagerel $LN4
	DD	imagerel $LN4+222
	DD	imagerel $unwind$??0CTransformOutputPin@@QEAA@PEA_WPEAVCTransformFilter@@PEAJPEB_W@Z
pdata	ENDS
;	COMDAT pdata
pdata	SEGMENT
$pdata$?dtor$0@?0???0CTransformOutputPin@@QEAA@PEA_WPEAVCTransformFilter@@PEAJPEB_W@Z@4HA DD imagerel ?dtor$0@?0???0CTransformOutputPin@@QEAA@PEA_WPEAVCTransformFilter@@PEAJPEB_W@Z@4HA
	DD	imagerel ?dtor$0@?0???0CTransformOutputPin@@QEAA@PEA_WPEAVCTransformFilter@@PEAJPEB_W@Z@4HA+35
	DD	imagerel $unwind$?dtor$0@?0???0CTransformOutputPin@@QEAA@PEA_WPEAVCTransformFilter@@PEAJPEB_W@Z@4HA
pdata	ENDS
;	COMDAT xdata
xdata	SEGMENT
$ip2state$??0CTransformOutputPin@@QEAA@PEA_WPEAVCTransformFilter@@PEAJPEB_W@Z DD imagerel ??0CTransformOutputPin@@QEAA@PEA_WPEAVCTransformFilter@@PEAJPEB_W@Z
	DD	0ffffffffH
	DD	imagerel ??0CTransformOutputPin@@QEAA@PEA_WPEAVCTransformFilter@@PEAJPEB_W@Z+109
	DD	00H
	DD	imagerel ??0CTransformOutputPin@@QEAA@PEA_WPEAVCTransformFilter@@PEAJPEB_W@Z+211
	DD	0ffffffffH
xdata	ENDS
;	COMDAT ??_R4CTransformOutputPin@@6BIQualityControl@@@
rdata$r	SEGMENT
??_R4CTransformOutputPin@@6BIQualityControl@@@ DD 01H	; CTransformOutputPin::`RTTI Complete Object Locator'
	DD	028H
	DD	00H
	DD	imagerel ??_R0?AVCTransformOutputPin@@@8
	DD	imagerel ??_R3CTransformOutputPin@@8
	DD	imagerel ??_R4CTransformOutputPin@@6BIQualityControl@@@
rdata$r	ENDS
;	COMDAT ??_R4CTransformOutputPin@@6BIPin@@@
rdata$r	SEGMENT
??_R4CTransformOutputPin@@6BIPin@@@ DD 01H		; CTransformOutputPin::`RTTI Complete Object Locator'
	DD	020H
	DD	00H
	DD	imagerel ??_R0?AVCTransformOutputPin@@@8
	DD	imagerel ??_R3CTransformOutputPin@@8
	DD	imagerel ??_R4CTransformOutputPin@@6BIPin@@@
rdata$r	ENDS
;	COMDAT ??_R2CBaseOutputPin@@8
rdata$r	SEGMENT
??_R2CBaseOutputPin@@8 DD imagerel ??_R1A@?0A@EA@CBaseOutputPin@@8 ; CBaseOutputPin::`RTTI Base Class Array'
	DD	imagerel ??_R1A@?0A@EA@CBasePin@@8
	DD	imagerel ??_R1A@?0A@EA@CUnknown@@8
	DD	imagerel ??_R1A@?0A@EA@INonDelegatingUnknown@@8
	DD	imagerel ??_R17?0A@EA@CBaseObject@@8
	DD	imagerel ??_R1CA@?0A@EA@IPin@@8
	DD	imagerel ??_R1CA@?0A@EC@IUnknown@@8
	DD	imagerel ??_R1CI@?0A@EA@IQualityControl@@8
	DD	imagerel ??_R1CI@?0A@EC@IUnknown@@8
	ORG $+3
rdata$r	ENDS
;	COMDAT ??_R3CBaseOutputPin@@8
rdata$r	SEGMENT
??_R3CBaseOutputPin@@8 DD 00H				; CBaseOutputPin::`RTTI Class Hierarchy Descriptor'
	DD	01H
	DD	09H
	DD	imagerel ??_R2CBaseOutputPin@@8
rdata$r	ENDS
;	COMDAT ??_R0?AVCBaseOutputPin@@@8
_DATA	SEGMENT
??_R0?AVCBaseOutputPin@@@8 DQ FLAT:??_7type_info@@6B@	; CBaseOutputPin `RTTI Type Descriptor'
	DQ	0000000000000000H
	DB	'.?AVCBaseOutputPin@@', 00H
_DATA	ENDS
;	COMDAT ??_R1A@?0A@EA@CBaseOutputPin@@8
rdata$r	SEGMENT
??_R1A@?0A@EA@CBaseOutputPin@@8 DD imagerel ??_R0?AVCBaseOutputPin@@@8 ; CBaseOutputPin::`RTTI Base Class Descriptor at (0,-1,0,64)'
	DD	08H
	DD	00H
	DD	0ffffffffH
	DD	00H
	DD	040H
	DD	imagerel ??_R3CBaseOutputPin@@8
rdata$r	ENDS
;	COMDAT ??_R1A@?0A@EA@CTransformOutputPin@@8
rdata$r	SEGMENT
??_R1A@?0A@EA@CTransformOutputPin@@8 DD imagerel ??_R0?AVCTransformOutputPin@@@8 ; CTransformOutputPin::`RTTI Base Class Descriptor at (0,-1,0,64)'
	DD	09H
	DD	00H
	DD	0ffffffffH
	DD	00H
	DD	040H
	DD	imagerel ??_R3CTransformOutputPin@@8
rdata$r	ENDS
;	COMDAT ??_R2CTransformOutputPin@@8
rdata$r	SEGMENT
??_R2CTransformOutputPin@@8 DD imagerel ??_R1A@?0A@EA@CTransformOutputPin@@8 ; CTransformOutputPin::`RTTI Base Class Array'
	DD	imagerel ??_R1A@?0A@EA@CBaseOutputPin@@8
	DD	imagerel ??_R1A@?0A@EA@CBasePin@@8
	DD	imagerel ??_R1A@?0A@EA@CUnknown@@8
	DD	imagerel ??_R1A@?0A@EA@INonDelegatingUnknown@@8
	DD	imagerel ??_R17?0A@EA@CBaseObject@@8
	DD	imagerel ??_R1CA@?0A@EA@IPin@@8
	DD	imagerel ??_R1CA@?0A@EC@IUnknown@@8
	DD	imagerel ??_R1CI@?0A@EA@IQualityControl@@8
	DD	imagerel ??_R1CI@?0A@EC@IUnknown@@8
	ORG $+3
rdata$r	ENDS
;	COMDAT ??_R3CTransformOutputPin@@8
rdata$r	SEGMENT
??_R3CTransformOutputPin@@8 DD 00H			; CTransformOutputPin::`RTTI Class Hierarchy Descriptor'
	DD	01H
	DD	0aH
	DD	imagerel ??_R2CTransformOutputPin@@8
rdata$r	ENDS
;	COMDAT ??_R0?AVCTransformOutputPin@@@8
_DATA	SEGMENT
??_R0?AVCTransformOutputPin@@@8 DQ FLAT:??_7type_info@@6B@ ; CTransformOutputPin `RTTI Type Descriptor'
	DQ	0000000000000000H
	DB	'.?AVCTransformOutputPin@@', 00H
_DATA	ENDS
;	COMDAT ??_R4CTransformOutputPin@@6BCUnknown@@@
rdata$r	SEGMENT
??_R4CTransformOutputPin@@6BCUnknown@@@ DD 01H		; CTransformOutputPin::`RTTI Complete Object Locator'
	DD	00H
	DD	00H
	DD	imagerel ??_R0?AVCTransformOutputPin@@@8
	DD	imagerel ??_R3CTransformOutputPin@@8
	DD	imagerel ??_R4CTransformOutputPin@@6BCUnknown@@@
rdata$r	ENDS
;	COMDAT xdata
xdata	SEGMENT
$unwind$?dtor$0@?0???0CTransformOutputPin@@QEAA@PEA_WPEAVCTransformFilter@@PEAJPEB_W@Z@4HA DD 031001H
	DD	0700c4210H
	DD	0500bH
xdata	ENDS
;	COMDAT xdata
xdata	SEGMENT
$unwind$??0CTransformOutputPin@@QEAA@PEA_WPEAVCTransformFilter@@PEAJPEB_W@Z DD 023611H
	DD	070157219H
	DD	imagerel __CxxFrameHandler3
	DD	imagerel $cppxdata$??0CTransformOutputPin@@QEAA@PEA_WPEAVCTransformFilter@@PEAJPEB_W@Z
xdata	ENDS
;	COMDAT CONST
CONST	SEGMENT
$cppxdata$??0CTransformOutputPin@@QEAA@PEA_WPEAVCTransformFilter@@PEAJPEB_W@Z DD 019930522H
	DD	01H
	DD	imagerel $stateUnwindMap$??0CTransformOutputPin@@QEAA@PEA_WPEAVCTransformFilter@@PEAJPEB_W@Z
	DD	00H
	DD	00H
	DD	03H
	DD	imagerel $ip2state$??0CTransformOutputPin@@QEAA@PEA_WPEAVCTransformFilter@@PEAJPEB_W@Z
	DD	030H
	DD	00H
	DD	01H
CONST	ENDS
;	COMDAT xdata
xdata	SEGMENT
$stateUnwindMap$??0CTransformOutputPin@@QEAA@PEA_WPEAVCTransformFilter@@PEAJPEB_W@Z DD 0ffffffffH
	DD	imagerel ?dtor$0@?0???0CTransformOutputPin@@QEAA@PEA_WPEAVCTransformFilter@@PEAJPEB_W@Z@4HA
xdata	ENDS
;	COMDAT ??_7CTransformOutputPin@@6BIQualityControl@@@
CONST	SEGMENT
??_7CTransformOutputPin@@6BIQualityControl@@@ DQ FLAT:??_R4CTransformOutputPin@@6BIQualityControl@@@ ; CTransformOutputPin::`vftable'
	DQ	FLAT:?QueryInterface@CBasePin@@W7EAAJAEBU_GUID@@PEAPEAX@Z
	DQ	FLAT:?AddRef@CBasePin@@W7EAAKXZ
	DQ	FLAT:?Release@CBasePin@@W7EAAKXZ
	DQ	FLAT:?Notify@CTransformOutputPin@@UEAAJPEAUIBaseFilter@@UtagQuality@@@Z
	DQ	FLAT:?SetSink@CBasePin@@UEAAJPEAUIQualityControl@@@Z
CONST	ENDS
;	COMDAT ??_7CTransformOutputPin@@6BIPin@@@
CONST	SEGMENT
??_7CTransformOutputPin@@6BIPin@@@ DQ FLAT:??_R4CTransformOutputPin@@6BIPin@@@ ; CTransformOutputPin::`vftable'
	DQ	FLAT:?QueryInterface@CBasePin@@UEAAJAEBU_GUID@@PEAPEAX@Z
	DQ	FLAT:?AddRef@CBasePin@@UEAAKXZ
	DQ	FLAT:?Release@CBasePin@@UEAAKXZ
	DQ	FLAT:?Connect@CBasePin@@UEAAJPEAUIPin@@PEBU_AMMediaType@@@Z
	DQ	FLAT:?ReceiveConnection@CBasePin@@UEAAJPEAUIPin@@PEBU_AMMediaType@@@Z
	DQ	FLAT:?Disconnect@CBasePin@@UEAAJXZ
	DQ	FLAT:?ConnectedTo@CBasePin@@UEAAJPEAPEAUIPin@@@Z
	DQ	FLAT:?ConnectionMediaType@CBasePin@@UEAAJPEAU_AMMediaType@@@Z
	DQ	FLAT:?QueryPinInfo@CBasePin@@UEAAJPEAU_PinInfo@@@Z
	DQ	FLAT:?QueryDirection@CBasePin@@UEAAJPEAW4_PinDirection@@@Z
	DQ	FLAT:?QueryId@CTransformOutputPin@@UEAAJPEAPEA_W@Z
	DQ	FLAT:?QueryAccept@CBasePin@@UEAAJPEBU_AMMediaType@@@Z
	DQ	FLAT:?EnumMediaTypes@CBasePin@@UEAAJPEAPEAUIEnumMediaTypes@@@Z
	DQ	FLAT:?QueryInternalConnections@CBasePin@@UEAAJPEAPEAUIPin@@PEAK@Z
	DQ	FLAT:?EndOfStream@CBaseOutputPin@@UEAAJXZ
	DQ	FLAT:?BeginFlush@CBaseOutputPin@@UEAAJXZ
	DQ	FLAT:?EndFlush@CBaseOutputPin@@UEAAJXZ
	DQ	FLAT:?NewSegment@CBasePin@@UEAAJ_J0N@Z
CONST	ENDS
;	COMDAT ??_7CTransformOutputPin@@6BCUnknown@@@
CONST	SEGMENT
??_7CTransformOutputPin@@6BCUnknown@@@ DQ FLAT:??_R4CTransformOutputPin@@6BCUnknown@@@ ; CTransformOutputPin::`vftable'
	DQ	FLAT:?NonDelegatingQueryInterface@CTransformOutputPin@@UEAAJAEBU_GUID@@PEAPEAX@Z
	DQ	FLAT:?NonDelegatingAddRef@CBasePin@@UEAAKXZ
	DQ	FLAT:?NonDelegatingRelease@CBasePin@@UEAAKXZ
	DQ	FLAT:??_ECTransformOutputPin@@UEAAPEAXI@Z
	DQ	FLAT:?GetMediaTypeVersion@CBasePin@@UEAAJXZ
	DQ	FLAT:?Active@CBaseOutputPin@@UEAAJXZ
	DQ	FLAT:?Inactive@CBaseOutputPin@@UEAAJXZ
	DQ	FLAT:?Run@CBasePin@@UEAAJ_J@Z
	DQ	FLAT:?CheckMediaType@CTransformOutputPin@@UEAAJPEBVCMediaType@@@Z
	DQ	FLAT:?SetMediaType@CTransformOutputPin@@UEAAJPEBVCMediaType@@@Z
	DQ	FLAT:?CheckConnect@CTransformOutputPin@@UEAAJPEAUIPin@@@Z
	DQ	FLAT:?BreakConnect@CTransformOutputPin@@UEAAJXZ
	DQ	FLAT:?CompleteConnect@CTransformOutputPin@@UEAAJPEAUIPin@@@Z
	DQ	FLAT:?GetMediaType@CTransformOutputPin@@UEAAJHPEAVCMediaType@@@Z
	DQ	FLAT:?DecideAllocator@CBaseOutputPin@@UEAAJPEAUIMemInputPin@@PEAPEAUIMemAllocator@@@Z
	DQ	FLAT:?DecideBufferSize@CTransformOutputPin@@UEAAJPEAUIMemAllocator@@PEAU_AllocatorProperties@@@Z
	DQ	FLAT:?GetDeliveryBuffer@CBaseOutputPin@@UEAAJPEAPEAUIMediaSample@@PEA_J1K@Z
	DQ	FLAT:?Deliver@CBaseOutputPin@@UEAAJPEAUIMediaSample@@@Z
	DQ	FLAT:?InitAllocator@CBaseOutputPin@@UEAAJPEAPEAUIMemAllocator@@@Z
	DQ	FLAT:?DeliverEndOfStream@CBaseOutputPin@@UEAAJXZ
	DQ	FLAT:?DeliverBeginFlush@CBaseOutputPin@@UEAAJXZ
	DQ	FLAT:?DeliverEndFlush@CBaseOutputPin@@UEAAJXZ
	DQ	FLAT:?DeliverNewSegment@CBaseOutputPin@@UEAAJ_J0N@Z
; Function compile flags: /Odtp /RTCsu
CONST	ENDS
;	COMDAT ??0CTransformOutputPin@@QEAA@PEA_WPEAVCTransformFilter@@PEAJPEB_W@Z
_TEXT	SEGMENT
$T84304 = 48
this$ = 80
pObjectName$ = 88
pTransformFilter$ = 96
phr$ = 104
pPinName$ = 112
??0CTransformOutputPin@@QEAA@PEA_WPEAVCTransformFilter@@PEAJPEB_W@Z PROC ; CTransformOutputPin::CTransformOutputPin, COMDAT
; Line 800
$LN4:
	mov	QWORD PTR [rsp+32], r9
	mov	QWORD PTR [rsp+24], r8
	mov	QWORD PTR [rsp+16], rdx
	mov	QWORD PTR [rsp+8], rcx
	push	rdi
	sub	rsp, 64					; 00000040H
	mov	rdi, rsp
	mov	ecx, 16
	mov	eax, -858993460				; ccccccccH
	rep stosd
	mov	rcx, QWORD PTR [rsp+80]
	mov	QWORD PTR $T84304[rsp], -2
	mov	rax, QWORD PTR pTransformFilter$[rsp]
	add	rax, 144				; 00000090H
	mov	rcx, QWORD PTR pPinName$[rsp]
	mov	QWORD PTR [rsp+40], rcx
	mov	rcx, QWORD PTR phr$[rsp]
	mov	QWORD PTR [rsp+32], rcx
	mov	r9, rax
	mov	r8, QWORD PTR pTransformFilter$[rsp]
	mov	rdx, QWORD PTR pObjectName$[rsp]
	mov	rcx, QWORD PTR this$[rsp]
	call	??0CBaseOutputPin@@QEAA@PEA_WPEAVCBaseFilter@@PEAVCCritSec@@PEAJPEB_W@Z ; CBaseOutputPin::CBaseOutputPin
	npad	1
	mov	rax, QWORD PTR this$[rsp]
	lea	rcx, OFFSET FLAT:??_7CTransformOutputPin@@6BCUnknown@@@
	mov	QWORD PTR [rax], rcx
	mov	rax, QWORD PTR this$[rsp]
	lea	rcx, OFFSET FLAT:??_7CTransformOutputPin@@6BIPin@@@
	mov	QWORD PTR [rax+32], rcx
	mov	rax, QWORD PTR this$[rsp]
	lea	rcx, OFFSET FLAT:??_7CTransformOutputPin@@6BIQualityControl@@@
	mov	QWORD PTR [rax+40], rcx
	mov	rax, QWORD PTR this$[rsp]
	mov	QWORD PTR [rax+256], 0
; Line 801
	lea	r8, OFFSET FLAT:$SG82646
	mov	edx, 2
	mov	ecx, 2
	call	?DbgLogInfo@@YAXKKPEB_WZZ		; DbgLogInfo
; Line 802
	mov	rax, QWORD PTR this$[rsp]
	mov	rcx, QWORD PTR pTransformFilter$[rsp]
	mov	QWORD PTR [rax+248], rcx
; Line 804
	mov	rax, QWORD PTR this$[rsp]
	add	rsp, 64					; 00000040H
	pop	rdi
	ret	0
??0CTransformOutputPin@@QEAA@PEA_WPEAVCTransformFilter@@PEAJPEB_W@Z ENDP ; CTransformOutputPin::CTransformOutputPin
; Function compile flags: /Odtp /RTCsu
_TEXT	ENDS
;	COMDAT text$x
text$x	SEGMENT
$T84304 = 48
this$ = 80
pObjectName$ = 88
pTransformFilter$ = 96
phr$ = 104
pPinName$ = 112
?dtor$0@?0???0CTransformOutputPin@@QEAA@PEA_WPEAVCTransformFilter@@PEAJPEB_W@Z@4HA PROC ; `CTransformOutputPin::CTransformOutputPin'::`1'::dtor$0
	mov	QWORD PTR [rsp+8], rcx
	mov	QWORD PTR [rsp+16], rdx
	push	rbp
	push	rdi
	sub	rsp, 40					; 00000028H
	mov	rbp, rdx
	mov	rcx, QWORD PTR this$[rbp]
	call	??1CBaseOutputPin@@UEAA@XZ
	add	rsp, 40					; 00000028H
	pop	rdi
	pop	rbp
	ret	0
?dtor$0@?0???0CTransformOutputPin@@QEAA@PEA_WPEAVCTransformFilter@@PEAJPEB_W@Z@4HA ENDP ; `CTransformOutputPin::CTransformOutputPin'::`1'::dtor$0
text$x	ENDS
;	COMDAT pdata
; File c:\downloads\wpf mediakit - copy\src\filters\baseclasses\amfilter.h
pdata	SEGMENT
$pdata$?QueryInterface@CBasePin@@UEAAJAEBU_GUID@@PEAPEAX@Z DD imagerel $LN3
	DD	imagerel $LN3+93
	DD	imagerel $unwind$?QueryInterface@CBasePin@@UEAAJAEBU_GUID@@PEAPEAX@Z
pdata	ENDS
;	COMDAT xdata
xdata	SEGMENT
$unwind$?QueryInterface@CBasePin@@UEAAJAEBU_GUID@@PEAPEAX@Z DD 022801H
	DD	070105214H
; Function compile flags: /Odtp /RTCsu
xdata	ENDS
;	COMDAT ?QueryInterface@CBasePin@@UEAAJAEBU_GUID@@PEAPEAX@Z
_TEXT	SEGMENT
tv72 = 32
this$ = 64
riid$ = 72
ppv$ = 80
?QueryInterface@CBasePin@@UEAAJAEBU_GUID@@PEAPEAX@Z PROC ; CBasePin::QueryInterface, COMDAT
; Line 411
$LN3:
	mov	QWORD PTR [rsp+24], r8
	mov	QWORD PTR [rsp+16], rdx
	mov	QWORD PTR [rsp+8], rcx
	push	rdi
	sub	rsp, 48					; 00000030H
	mov	rdi, rsp
	mov	ecx, 12
	mov	eax, -858993460				; ccccccccH
	rep stosd
	mov	rcx, QWORD PTR [rsp+64]
	mov	rax, QWORD PTR this$[rsp]
	sub	rax, 32					; 00000020H
	mov	rcx, rax
	call	?GetOwner@CUnknown@@QEBAPEAUIUnknown@@XZ ; CUnknown::GetOwner
	mov	QWORD PTR tv72[rsp], rax
	mov	rax, QWORD PTR tv72[rsp]
	mov	rax, QWORD PTR [rax]
	mov	r8, QWORD PTR ppv$[rsp]
	mov	rdx, QWORD PTR riid$[rsp]
	mov	rcx, QWORD PTR tv72[rsp]
	call	QWORD PTR [rax]
	add	rsp, 48					; 00000030H
	pop	rdi
	ret	0
?QueryInterface@CBasePin@@UEAAJAEBU_GUID@@PEAPEAX@Z ENDP ; CBasePin::QueryInterface
_TEXT	ENDS
;	COMDAT pdata
pdata	SEGMENT
$pdata$?AddRef@CBasePin@@UEAAKXZ DD imagerel $LN3
	DD	imagerel $LN3+74
	DD	imagerel $unwind$?AddRef@CBasePin@@UEAAKXZ
pdata	ENDS
;	COMDAT xdata
xdata	SEGMENT
$unwind$?AddRef@CBasePin@@UEAAKXZ DD 021e01H
	DD	07006520aH
; Function compile flags: /Odtp /RTCsu
xdata	ENDS
;	COMDAT ?AddRef@CBasePin@@UEAAKXZ
_TEXT	SEGMENT
tv72 = 32
this$ = 64
?AddRef@CBasePin@@UEAAKXZ PROC				; CBasePin::AddRef, COMDAT
; Line 411
$LN3:
	mov	QWORD PTR [rsp+8], rcx
	push	rdi
	sub	rsp, 48					; 00000030H
	mov	rdi, rsp
	mov	ecx, 12
	mov	eax, -858993460				; ccccccccH
	rep stosd
	mov	rcx, QWORD PTR [rsp+64]
	mov	rax, QWORD PTR this$[rsp]
	sub	rax, 32					; 00000020H
	mov	rcx, rax
	call	?GetOwner@CUnknown@@QEBAPEAUIUnknown@@XZ ; CUnknown::GetOwner
	mov	QWORD PTR tv72[rsp], rax
	mov	rax, QWORD PTR tv72[rsp]
	mov	rax, QWORD PTR [rax]
	mov	rcx, QWORD PTR tv72[rsp]
	call	QWORD PTR [rax+8]
	add	rsp, 48					; 00000030H
	pop	rdi
	ret	0
?AddRef@CBasePin@@UEAAKXZ ENDP				; CBasePin::AddRef
_TEXT	ENDS
;	COMDAT pdata
pdata	SEGMENT
$pdata$?Release@CBasePin@@UEAAKXZ DD imagerel $LN3
	DD	imagerel $LN3+74
	DD	imagerel $unwind$?Release@CBasePin@@UEAAKXZ
pdata	ENDS
;	COMDAT xdata
xdata	SEGMENT
$unwind$?Release@CBasePin@@UEAAKXZ DD 021e01H
	DD	07006520aH
; Function compile flags: /Odtp /RTCsu
xdata	ENDS
;	COMDAT ?Release@CBasePin@@UEAAKXZ
_TEXT	SEGMENT
tv72 = 32
this$ = 64
?Release@CBasePin@@UEAAKXZ PROC				; CBasePin::Release, COMDAT
; Line 411
$LN3:
	mov	QWORD PTR [rsp+8], rcx
	push	rdi
	sub	rsp, 48					; 00000030H
	mov	rdi, rsp
	mov	ecx, 12
	mov	eax, -858993460				; ccccccccH
	rep stosd
	mov	rcx, QWORD PTR [rsp+64]
	mov	rax, QWORD PTR this$[rsp]
	sub	rax, 32					; 00000020H
	mov	rcx, rax
	call	?GetOwner@CUnknown@@QEBAPEAUIUnknown@@XZ ; CUnknown::GetOwner
	mov	QWORD PTR tv72[rsp], rax
	mov	rax, QWORD PTR tv72[rsp]
	mov	rax, QWORD PTR [rax]
	mov	rcx, QWORD PTR tv72[rsp]
	call	QWORD PTR [rax+16]
	add	rsp, 48					; 00000030H
	pop	rdi
	ret	0
?Release@CBasePin@@UEAAKXZ ENDP				; CBasePin::Release
_TEXT	ENDS
PUBLIC	??_C@_17NFNCFLGO@?$AAO?$AAu?$AAt?$AA?$AA@	; `string'
;	COMDAT pdata
; File c:\downloads\wpf mediakit - copy\src\filters\baseclasses\transfrm.h
pdata	SEGMENT
$pdata$?QueryId@CTransformOutputPin@@UEAAJPEAPEA_W@Z DD imagerel $LN3
	DD	imagerel $LN3+58
	DD	imagerel $unwind$?QueryId@CTransformOutputPin@@UEAAJPEAPEA_W@Z
pdata	ENDS
;	COMDAT xdata
xdata	SEGMENT
$unwind$?QueryId@CTransformOutputPin@@UEAAJPEAPEA_W@Z DD 022301H
	DD	0700b320fH
xdata	ENDS
;	COMDAT ??_C@_17NFNCFLGO@?$AAO?$AAu?$AAt?$AA?$AA@
CONST	SEGMENT
??_C@_17NFNCFLGO@?$AAO?$AAu?$AAt?$AA?$AA@ DB 'O', 00H, 'u', 00H, 't', 00H
	DB	00H, 00H					; `string'
; Function compile flags: /Odtp /RTCsu
CONST	ENDS
;	COMDAT ?QueryId@CTransformOutputPin@@UEAAJPEAPEA_W@Z
_TEXT	SEGMENT
this$ = 48
Id$ = 56
?QueryId@CTransformOutputPin@@UEAAJPEAPEA_W@Z PROC	; CTransformOutputPin::QueryId, COMDAT
; Line 140
$LN3:
	mov	QWORD PTR [rsp+16], rdx
	mov	QWORD PTR [rsp+8], rcx
	push	rdi
	sub	rsp, 32					; 00000020H
	mov	rdi, rsp
	mov	ecx, 8
	mov	eax, -858993460				; ccccccccH
	rep stosd
	mov	rcx, QWORD PTR [rsp+48]
; Line 141
	mov	rdx, QWORD PTR Id$[rsp]
	lea	rcx, OFFSET FLAT:??_C@_17NFNCFLGO@?$AAO?$AAu?$AAt?$AA?$AA@
	call	AMGetWideString
; Line 142
	add	rsp, 32					; 00000020H
	pop	rdi
	ret	0
?QueryId@CTransformOutputPin@@UEAAJPEAPEA_W@Z ENDP	; CTransformOutputPin::QueryId
_TEXT	ENDS
PUBLIC	??1CTransformOutputPin@@UEAA@XZ			; CTransformOutputPin::~CTransformOutputPin
;	COMDAT pdata
pdata	SEGMENT
$pdata$??_GCTransformOutputPin@@UEAAPEAXI@Z DD imagerel $LN4
	DD	imagerel $LN4+76
	DD	imagerel $unwind$??_GCTransformOutputPin@@UEAAPEAXI@Z
pdata	ENDS
;	COMDAT xdata
xdata	SEGMENT
$unwind$??_GCTransformOutputPin@@UEAAPEAXI@Z DD 022201H
	DD	0700a320eH
; Function compile flags: /Odtp /RTCsu
xdata	ENDS
;	COMDAT ??_GCTransformOutputPin@@UEAAPEAXI@Z
_TEXT	SEGMENT
this$ = 48
__flags$ = 56
??_GCTransformOutputPin@@UEAAPEAXI@Z PROC		; CTransformOutputPin::`scalar deleting destructor', COMDAT
$LN4:
	mov	DWORD PTR [rsp+16], edx
	mov	QWORD PTR [rsp+8], rcx
	push	rdi
	sub	rsp, 32					; 00000020H
	mov	rdi, rsp
	mov	ecx, 8
	mov	eax, -858993460				; ccccccccH
	rep stosd
	mov	rcx, QWORD PTR [rsp+48]
	mov	rcx, QWORD PTR this$[rsp]
	call	??1CTransformOutputPin@@UEAA@XZ		; CTransformOutputPin::~CTransformOutputPin
	mov	eax, DWORD PTR __flags$[rsp]
	and	eax, 1
	test	eax, eax
	je	SHORT $LN1@scalar@2
	mov	rcx, QWORD PTR this$[rsp]
	call	??3@YAXPEAX@Z				; operator delete
$LN1@scalar@2:
	mov	rax, QWORD PTR this$[rsp]
	add	rsp, 32					; 00000020H
	pop	rdi
	ret	0
??_GCTransformOutputPin@@UEAAPEAXI@Z ENDP		; CTransformOutputPin::`scalar deleting destructor'
_TEXT	ENDS
EXTRN	??1CBasePin@@UEAA@XZ:PROC			; CBasePin::~CBasePin
;	COMDAT pdata
pdata	SEGMENT
$pdata$??1CBaseOutputPin@@UEAA@XZ DD imagerel $LN4
	DD	imagerel $LN4+46
	DD	imagerel $unwind$??1CBaseOutputPin@@UEAA@XZ
pdata	ENDS
;	COMDAT xdata
xdata	SEGMENT
$unwind$??1CBaseOutputPin@@UEAA@XZ DD 021e01H
	DD	07006320aH
; Function compile flags: /Odtp /RTCsu
xdata	ENDS
;	COMDAT ??1CBaseOutputPin@@UEAA@XZ
_TEXT	SEGMENT
this$ = 48
??1CBaseOutputPin@@UEAA@XZ PROC				; CBaseOutputPin::~CBaseOutputPin, COMDAT
$LN4:
	mov	QWORD PTR [rsp+8], rcx
	push	rdi
	sub	rsp, 32					; 00000020H
	mov	rdi, rsp
	mov	ecx, 8
	mov	eax, -858993460				; ccccccccH
	rep stosd
	mov	rcx, QWORD PTR [rsp+48]
	mov	rcx, QWORD PTR this$[rsp]
	call	??1CBasePin@@UEAA@XZ			; CBasePin::~CBasePin
	add	rsp, 32					; 00000020H
	pop	rdi
	ret	0
??1CBaseOutputPin@@UEAA@XZ ENDP				; CBaseOutputPin::~CBaseOutputPin
_TEXT	ENDS
PUBLIC	??0CTransformOutputPin@@QEAA@PEADPEAVCTransformFilter@@PEAJPEB_W@Z ; CTransformOutputPin::CTransformOutputPin
EXTRN	??0CBaseOutputPin@@QEAA@PEADPEAVCBaseFilter@@PEAVCCritSec@@PEAJPEB_W@Z:PROC ; CBaseOutputPin::CBaseOutputPin
;	COMDAT pdata
; File c:\downloads\wpf mediakit - copy\src\filters\baseclasses\transfrm.cpp
pdata	SEGMENT
$pdata$??0CTransformOutputPin@@QEAA@PEADPEAVCTransformFilter@@PEAJPEB_W@Z DD imagerel $LN4
	DD	imagerel $LN4+222
	DD	imagerel $unwind$??0CTransformOutputPin@@QEAA@PEADPEAVCTransformFilter@@PEAJPEB_W@Z
pdata	ENDS
;	COMDAT pdata
pdata	SEGMENT
$pdata$?dtor$0@?0???0CTransformOutputPin@@QEAA@PEADPEAVCTransformFilter@@PEAJPEB_W@Z@4HA DD imagerel ?dtor$0@?0???0CTransformOutputPin@@QEAA@PEADPEAVCTransformFilter@@PEAJPEB_W@Z@4HA
	DD	imagerel ?dtor$0@?0???0CTransformOutputPin@@QEAA@PEADPEAVCTransformFilter@@PEAJPEB_W@Z@4HA+35
	DD	imagerel $unwind$?dtor$0@?0???0CTransformOutputPin@@QEAA@PEADPEAVCTransformFilter@@PEAJPEB_W@Z@4HA
pdata	ENDS
;	COMDAT xdata
xdata	SEGMENT
$ip2state$??0CTransformOutputPin@@QEAA@PEADPEAVCTransformFilter@@PEAJPEB_W@Z DD imagerel ??0CTransformOutputPin@@QEAA@PEADPEAVCTransformFilter@@PEAJPEB_W@Z
	DD	0ffffffffH
	DD	imagerel ??0CTransformOutputPin@@QEAA@PEADPEAVCTransformFilter@@PEAJPEB_W@Z+109
	DD	00H
	DD	imagerel ??0CTransformOutputPin@@QEAA@PEADPEAVCTransformFilter@@PEAJPEB_W@Z+211
	DD	0ffffffffH
xdata	ENDS
;	COMDAT xdata
xdata	SEGMENT
$unwind$?dtor$0@?0???0CTransformOutputPin@@QEAA@PEADPEAVCTransformFilter@@PEAJPEB_W@Z@4HA DD 031001H
	DD	0700c4210H
	DD	0500bH
xdata	ENDS
;	COMDAT xdata
xdata	SEGMENT
$unwind$??0CTransformOutputPin@@QEAA@PEADPEAVCTransformFilter@@PEAJPEB_W@Z DD 023611H
	DD	070157219H
	DD	imagerel __CxxFrameHandler3
	DD	imagerel $cppxdata$??0CTransformOutputPin@@QEAA@PEADPEAVCTransformFilter@@PEAJPEB_W@Z
xdata	ENDS
;	COMDAT CONST
CONST	SEGMENT
$cppxdata$??0CTransformOutputPin@@QEAA@PEADPEAVCTransformFilter@@PEAJPEB_W@Z DD 019930522H
	DD	01H
	DD	imagerel $stateUnwindMap$??0CTransformOutputPin@@QEAA@PEADPEAVCTransformFilter@@PEAJPEB_W@Z
	DD	00H
	DD	00H
	DD	03H
	DD	imagerel $ip2state$??0CTransformOutputPin@@QEAA@PEADPEAVCTransformFilter@@PEAJPEB_W@Z
	DD	030H
	DD	00H
	DD	01H
CONST	ENDS
;	COMDAT xdata
xdata	SEGMENT
$stateUnwindMap$??0CTransformOutputPin@@QEAA@PEADPEAVCTransformFilter@@PEAJPEB_W@Z DD 0ffffffffH
	DD	imagerel ?dtor$0@?0???0CTransformOutputPin@@QEAA@PEADPEAVCTransformFilter@@PEAJPEB_W@Z@4HA
; Function compile flags: /Odtp /RTCsu
xdata	ENDS
;	COMDAT ??0CTransformOutputPin@@QEAA@PEADPEAVCTransformFilter@@PEAJPEB_W@Z
_TEXT	SEGMENT
$T84373 = 48
this$ = 80
pObjectName$ = 88
pTransformFilter$ = 96
phr$ = 104
pPinName$ = 112
??0CTransformOutputPin@@QEAA@PEADPEAVCTransformFilter@@PEAJPEB_W@Z PROC ; CTransformOutputPin::CTransformOutputPin, COMDAT
; Line 814
$LN4:
	mov	QWORD PTR [rsp+32], r9
	mov	QWORD PTR [rsp+24], r8
	mov	QWORD PTR [rsp+16], rdx
	mov	QWORD PTR [rsp+8], rcx
	push	rdi
	sub	rsp, 64					; 00000040H
	mov	rdi, rsp
	mov	ecx, 16
	mov	eax, -858993460				; ccccccccH
	rep stosd
	mov	rcx, QWORD PTR [rsp+80]
	mov	QWORD PTR $T84373[rsp], -2
	mov	rax, QWORD PTR pTransformFilter$[rsp]
	add	rax, 144				; 00000090H
	mov	rcx, QWORD PTR pPinName$[rsp]
	mov	QWORD PTR [rsp+40], rcx
	mov	rcx, QWORD PTR phr$[rsp]
	mov	QWORD PTR [rsp+32], rcx
	mov	r9, rax
	mov	r8, QWORD PTR pTransformFilter$[rsp]
	mov	rdx, QWORD PTR pObjectName$[rsp]
	mov	rcx, QWORD PTR this$[rsp]
	call	??0CBaseOutputPin@@QEAA@PEADPEAVCBaseFilter@@PEAVCCritSec@@PEAJPEB_W@Z ; CBaseOutputPin::CBaseOutputPin
	npad	1
	mov	rax, QWORD PTR this$[rsp]
	lea	rcx, OFFSET FLAT:??_7CTransformOutputPin@@6BCUnknown@@@
	mov	QWORD PTR [rax], rcx
	mov	rax, QWORD PTR this$[rsp]
	lea	rcx, OFFSET FLAT:??_7CTransformOutputPin@@6BIPin@@@
	mov	QWORD PTR [rax+32], rcx
	mov	rax, QWORD PTR this$[rsp]
	lea	rcx, OFFSET FLAT:??_7CTransformOutputPin@@6BIQualityControl@@@
	mov	QWORD PTR [rax+40], rcx
	mov	rax, QWORD PTR this$[rsp]
	mov	QWORD PTR [rax+256], 0
; Line 815
	lea	r8, OFFSET FLAT:$SG82660
	mov	edx, 2
	mov	ecx, 2
	call	?DbgLogInfo@@YAXKKPEB_WZZ		; DbgLogInfo
; Line 816
	mov	rax, QWORD PTR this$[rsp]
	mov	rcx, QWORD PTR pTransformFilter$[rsp]
	mov	QWORD PTR [rax+248], rcx
; Line 818
	mov	rax, QWORD PTR this$[rsp]
	add	rsp, 64					; 00000040H
	pop	rdi
	ret	0
??0CTransformOutputPin@@QEAA@PEADPEAVCTransformFilter@@PEAJPEB_W@Z ENDP ; CTransformOutputPin::CTransformOutputPin
; Function compile flags: /Odtp /RTCsu
_TEXT	ENDS
;	COMDAT text$x
text$x	SEGMENT
$T84373 = 48
this$ = 80
pObjectName$ = 88
pTransformFilter$ = 96
phr$ = 104
pPinName$ = 112
?dtor$0@?0???0CTransformOutputPin@@QEAA@PEADPEAVCTransformFilter@@PEAJPEB_W@Z@4HA PROC ; `CTransformOutputPin::CTransformOutputPin'::`1'::dtor$0
	mov	QWORD PTR [rsp+8], rcx
	mov	QWORD PTR [rsp+16], rdx
	push	rbp
	push	rdi
	sub	rsp, 40					; 00000028H
	mov	rbp, rdx
	mov	rcx, QWORD PTR this$[rbp]
	call	??1CBaseOutputPin@@UEAA@XZ
	add	rsp, 40					; 00000028H
	pop	rdi
	pop	rbp
	ret	0
?dtor$0@?0???0CTransformOutputPin@@QEAA@PEADPEAVCTransformFilter@@PEAJPEB_W@Z@4HA ENDP ; `CTransformOutputPin::CTransformOutputPin'::`1'::dtor$0
text$x	ENDS
;	COMDAT pdata
pdata	SEGMENT
$pdata$??1CTransformOutputPin@@UEAA@XZ DD imagerel $LN5
	DD	imagerel $LN5+170
	DD	imagerel $unwind$??1CTransformOutputPin@@UEAA@XZ
pdata	ENDS
;	COMDAT pdata
pdata	SEGMENT
$pdata$?dtor$0@?0???1CTransformOutputPin@@UEAA@XZ@4HA DD imagerel ?dtor$0@?0???1CTransformOutputPin@@UEAA@XZ@4HA
	DD	imagerel ?dtor$0@?0???1CTransformOutputPin@@UEAA@XZ@4HA+35
	DD	imagerel $unwind$?dtor$0@?0???1CTransformOutputPin@@UEAA@XZ@4HA
pdata	ENDS
;	COMDAT xdata
xdata	SEGMENT
$ip2state$??1CTransformOutputPin@@UEAA@XZ DD imagerel ??1CTransformOutputPin@@UEAA@XZ
	DD	0ffffffffH
	DD	imagerel ??1CTransformOutputPin@@UEAA@XZ+86
	DD	00H
	DD	imagerel ??1CTransformOutputPin@@UEAA@XZ+154
	DD	0ffffffffH
xdata	ENDS
;	COMDAT xdata
xdata	SEGMENT
$unwind$?dtor$0@?0???1CTransformOutputPin@@UEAA@XZ@4HA DD 031001H
	DD	0700c4210H
	DD	0500bH
xdata	ENDS
;	COMDAT xdata
xdata	SEGMENT
$unwind$??1CTransformOutputPin@@UEAA@XZ DD 022711H
	DD	07006520aH
	DD	imagerel __CxxFrameHandler3
	DD	imagerel $cppxdata$??1CTransformOutputPin@@UEAA@XZ
xdata	ENDS
;	COMDAT CONST
CONST	SEGMENT
$cppxdata$??1CTransformOutputPin@@UEAA@XZ DD 019930522H
	DD	01H
	DD	imagerel $stateUnwindMap$??1CTransformOutputPin@@UEAA@XZ
	DD	00H
	DD	00H
	DD	03H
	DD	imagerel $ip2state$??1CTransformOutputPin@@UEAA@XZ
	DD	020H
	DD	00H
	DD	01H
CONST	ENDS
;	COMDAT xdata
xdata	SEGMENT
$stateUnwindMap$??1CTransformOutputPin@@UEAA@XZ DD 0ffffffffH
	DD	imagerel ?dtor$0@?0???1CTransformOutputPin@@UEAA@XZ@4HA
; Function compile flags: /Odtp /RTCsu
xdata	ENDS
;	COMDAT ??1CTransformOutputPin@@UEAA@XZ
_TEXT	SEGMENT
$T84396 = 32
this$ = 64
??1CTransformOutputPin@@UEAA@XZ PROC			; CTransformOutputPin::~CTransformOutputPin, COMDAT
; Line 824
$LN5:
	mov	QWORD PTR [rsp+8], rcx
	push	rdi
	sub	rsp, 48					; 00000030H
	mov	rdi, rsp
	mov	ecx, 12
	mov	eax, -858993460				; ccccccccH
	rep stosd
	mov	rcx, QWORD PTR [rsp+64]
	mov	QWORD PTR $T84396[rsp], -2
	mov	rax, QWORD PTR this$[rsp]
	lea	rcx, OFFSET FLAT:??_7CTransformOutputPin@@6BCUnknown@@@
	mov	QWORD PTR [rax], rcx
	mov	rax, QWORD PTR this$[rsp]
	lea	rcx, OFFSET FLAT:??_7CTransformOutputPin@@6BIPin@@@
	mov	QWORD PTR [rax+32], rcx
	mov	rax, QWORD PTR this$[rsp]
	lea	rcx, OFFSET FLAT:??_7CTransformOutputPin@@6BIQualityControl@@@
	mov	QWORD PTR [rax+40], rcx
; Line 825
	lea	r8, OFFSET FLAT:$SG82664
	mov	edx, 2
	mov	ecx, 2
	call	?DbgLogInfo@@YAXKKPEB_WZZ		; DbgLogInfo
; Line 827
	mov	rax, QWORD PTR this$[rsp]
	cmp	QWORD PTR [rax+256], 0
	je	SHORT $LN1@CTransform@2
	mov	rax, QWORD PTR this$[rsp]
	mov	rax, QWORD PTR [rax+256]
	mov	rcx, QWORD PTR this$[rsp]
	mov	rcx, QWORD PTR [rcx+256]
	mov	rax, QWORD PTR [rax]
	call	QWORD PTR [rax+16]
	npad	1
$LN1@CTransform@2:
; Line 828
	mov	rcx, QWORD PTR this$[rsp]
	call	??1CBaseOutputPin@@UEAA@XZ
	add	rsp, 48					; 00000030H
	pop	rdi
	ret	0
??1CTransformOutputPin@@UEAA@XZ ENDP			; CTransformOutputPin::~CTransformOutputPin
; Function compile flags: /Odtp /RTCsu
_TEXT	ENDS
;	COMDAT text$x
text$x	SEGMENT
$T84396 = 32
this$ = 64
?dtor$0@?0???1CTransformOutputPin@@UEAA@XZ@4HA PROC	; `CTransformOutputPin::~CTransformOutputPin'::`1'::dtor$0
	mov	QWORD PTR [rsp+8], rcx
	mov	QWORD PTR [rsp+16], rdx
	push	rbp
	push	rdi
	sub	rsp, 40					; 00000028H
	mov	rbp, rdx
	mov	rcx, QWORD PTR this$[rbp]
	call	??1CBaseOutputPin@@UEAA@XZ
	add	rsp, 40					; 00000028H
	pop	rdi
	pop	rbp
	ret	0
?dtor$0@?0???1CTransformOutputPin@@UEAA@XZ@4HA ENDP	; `CTransformOutputPin::~CTransformOutputPin'::`1'::dtor$0
text$x	ENDS
PUBLIC	==
EXTRN	?NonDelegatingQueryInterface@CBasePin@@UEAAJAEBU_GUID@@PEAPEAX@Z:PROC ; CBasePin::NonDelegatingQueryInterface
EXTRN	CreatePosPassThru:PROC
EXTRN	IID_IMediaSeeking:BYTE
EXTRN	IID_IMediaPosition:BYTE
;	COMDAT pdata
pdata	SEGMENT
$pdata$?NonDelegatingQueryInterface@CTransformOutputPin@@UEAAJAEBU_GUID@@PEAPEAX@Z DD imagerel $LN14
	DD	imagerel $LN14+462
	DD	imagerel $unwind$?NonDelegatingQueryInterface@CTransformOutputPin@@UEAAJAEBU_GUID@@PEAPEAX@Z
pdata	ENDS
;	COMDAT xdata
xdata	SEGMENT
$unwind$?NonDelegatingQueryInterface@CTransformOutputPin@@UEAAJAEBU_GUID@@PEAPEAX@Z DD 022801H
	DD	070107214H
; Function compile flags: /Odtp /RTCsu
xdata	ENDS
;	COMDAT ?NonDelegatingQueryInterface@CTransformOutputPin@@UEAAJAEBU_GUID@@PEAPEAX@Z
_TEXT	SEGMENT
hr$82689 = 32
tv137 = 40
tv136 = 48
tv128 = 56
this$ = 80
riid$ = 88
ppv$ = 96
?NonDelegatingQueryInterface@CTransformOutputPin@@UEAAJAEBU_GUID@@PEAPEAX@Z PROC ; CTransformOutputPin::NonDelegatingQueryInterface, COMDAT
; Line 835
$LN14:
	mov	QWORD PTR [rsp+24], r8
	mov	QWORD PTR [rsp+16], rdx
	mov	QWORD PTR [rsp+8], rcx
	push	rdi
	sub	rsp, 64					; 00000040H
	mov	rdi, rsp
	mov	ecx, 16
	mov	eax, -858993460				; ccccccccH
	rep stosd
	mov	rcx, QWORD PTR [rsp+80]
; Line 836
	cmp	QWORD PTR ppv$[rsp], 0
	jne	SHORT $LN9@NonDelegat
	mov	eax, -2147467261			; ffffffff80004003H
	jmp	$LN10@NonDelegat
$LN9@NonDelegat:
; Line 837
	mov	edx, 8
	mov	rcx, QWORD PTR ppv$[rsp]
	call	QWORD PTR __imp_IsBadReadPtr
	cmp	eax, 1
	jne	SHORT $LN8@NonDelegat
	mov	r8d, 837				; 00000345H
	lea	rdx, OFFSET FLAT:$SG82676
	lea	rcx, OFFSET FLAT:$SG82677
	call	?DbgBreakPoint@@YAXPEB_W0H@Z		; DbgBreakPoint
$LN8@NonDelegat:
	mov	edx, 8
	mov	rcx, QWORD PTR ppv$[rsp]
	call	QWORD PTR __imp_IsBadWritePtr
	cmp	eax, 1
	jne	SHORT $LN7@NonDelegat
	mov	r8d, 837				; 00000345H
	lea	rdx, OFFSET FLAT:$SG82681
	lea	rcx, OFFSET FLAT:$SG82682
	call	?DbgBreakPoint@@YAXPEB_W0H@Z		; DbgBreakPoint
$LN7@NonDelegat:
; Line 838
	mov	rax, QWORD PTR ppv$[rsp]
	mov	QWORD PTR [rax], 0
; Line 840
	lea	rdx, OFFSET FLAT:IID_IMediaPosition
	mov	rcx, QWORD PTR riid$[rsp]
	call	==
	test	eax, eax
	jne	SHORT $LN5@NonDelegat
	lea	rdx, OFFSET FLAT:IID_IMediaSeeking
	mov	rcx, QWORD PTR riid$[rsp]
	call	==
	test	eax, eax
	je	$LN6@NonDelegat
$LN5@NonDelegat:
; Line 844
	mov	rax, QWORD PTR this$[rsp]
	mov	rax, QWORD PTR [rax+248]
	cmp	QWORD PTR [rax+256], 0
	jne	SHORT $LN4@NonDelegat
	mov	r8d, 844				; 0000034cH
	lea	rdx, OFFSET FLAT:$SG82686
	lea	rcx, OFFSET FLAT:$SG82687
	call	?DbgAssert@@YAXPEB_W0H@Z		; DbgAssert
$LN4@NonDelegat:
; Line 846
	mov	rax, QWORD PTR this$[rsp]
	cmp	QWORD PTR [rax+256], 0
	jne	SHORT $LN3@NonDelegat
; Line 852
	mov	rax, QWORD PTR this$[rsp]
	mov	rax, QWORD PTR [rax+248]
	mov	rax, QWORD PTR [rax+256]
	mov	QWORD PTR tv137[rsp], rax
	cmp	QWORD PTR tv137[rsp], 0
	je	SHORT $LN12@NonDelegat
	mov	rax, QWORD PTR tv137[rsp]
	add	rax, 32					; 00000020H
	mov	QWORD PTR tv136[rsp], rax
	jmp	SHORT $LN13@NonDelegat
$LN12@NonDelegat:
	mov	QWORD PTR tv136[rsp], 0
$LN13@NonDelegat:
	mov	rax, QWORD PTR this$[rsp]
	add	rax, 256				; 00000100H
	mov	QWORD PTR tv128[rsp], rax
	mov	rcx, QWORD PTR this$[rsp]
	call	?GetOwner@CUnknown@@QEBAPEAUIUnknown@@XZ ; CUnknown::GetOwner
	mov	rcx, QWORD PTR tv128[rsp]
	mov	r9, rcx
	mov	r8, QWORD PTR tv136[rsp]
	xor	edx, edx
	mov	rcx, rax
	call	CreatePosPassThru
	mov	DWORD PTR hr$82689[rsp], eax
; Line 853
	cmp	DWORD PTR hr$82689[rsp], 0
	jge	SHORT $LN2@NonDelegat
; Line 854
	mov	eax, DWORD PTR hr$82689[rsp]
	jmp	SHORT $LN10@NonDelegat
$LN2@NonDelegat:
$LN3@NonDelegat:
; Line 857
	mov	rax, QWORD PTR this$[rsp]
	mov	rax, QWORD PTR [rax+256]
	mov	rcx, QWORD PTR this$[rsp]
	mov	rcx, QWORD PTR [rcx+256]
	mov	rax, QWORD PTR [rax]
	mov	r8, QWORD PTR ppv$[rsp]
	mov	rdx, QWORD PTR riid$[rsp]
	call	QWORD PTR [rax]
	jmp	SHORT $LN10@NonDelegat
; Line 858
	jmp	SHORT $LN1@NonDelegat
$LN6@NonDelegat:
; Line 859
	mov	r8, QWORD PTR ppv$[rsp]
	mov	rdx, QWORD PTR riid$[rsp]
	mov	rcx, QWORD PTR this$[rsp]
	call	?NonDelegatingQueryInterface@CBasePin@@UEAAJAEBU_GUID@@PEAPEAX@Z ; CBasePin::NonDelegatingQueryInterface
$LN1@NonDelegat:
$LN10@NonDelegat:
; Line 861
	add	rsp, 64					; 00000040H
	pop	rdi
	ret	0
?NonDelegatingQueryInterface@CTransformOutputPin@@UEAAJAEBU_GUID@@PEAPEAX@Z ENDP ; CTransformOutputPin::NonDelegatingQueryInterface
_TEXT	ENDS
PUBLIC	IsEqualGUID
;	COMDAT pdata
; File c:\program files (x86)\microsoft sdks\windows\v7.0a\include\guiddef.h
pdata	SEGMENT
$pdata$== DD	imagerel $LN3
	DD	imagerel $LN3+56
	DD	imagerel $unwind$==
pdata	ENDS
;	COMDAT xdata
xdata	SEGMENT
$unwind$== DD	022301H
	DD	0700b320fH
; Function compile flags: /Odtp /RTCsu
xdata	ENDS
;	COMDAT ==
_TEXT	SEGMENT
guidOne$ = 48
guidOther$ = 56
==	PROC						; COMDAT
; Line 193
$LN3:
	mov	QWORD PTR [rsp+16], rdx
	mov	QWORD PTR [rsp+8], rcx
	push	rdi
	sub	rsp, 32					; 00000020H
	mov	rdi, rsp
	mov	ecx, 8
	mov	eax, -858993460				; ccccccccH
	rep stosd
	mov	rcx, QWORD PTR [rsp+48]
; Line 194
	mov	rdx, QWORD PTR guidOther$[rsp]
	mov	rcx, QWORD PTR guidOne$[rsp]
	call	IsEqualGUID
; Line 195
	add	rsp, 32					; 00000020H
	pop	rdi
	ret	0
==	ENDP
_TEXT	ENDS
EXTRN	memcmp:PROC
;	COMDAT pdata
pdata	SEGMENT
$pdata$IsEqualGUID DD imagerel $LN5
	DD	imagerel $LN5+88
	DD	imagerel $unwind$IsEqualGUID
pdata	ENDS
;	COMDAT xdata
xdata	SEGMENT
$unwind$IsEqualGUID DD 022301H
	DD	0700b520fH
; Function compile flags: /Odtp /RTCsu
xdata	ENDS
;	COMDAT IsEqualGUID
_TEXT	SEGMENT
tv69 = 32
rguid1$ = 64
rguid2$ = 72
IsEqualGUID PROC					; COMDAT
; Line 160
$LN5:
	mov	QWORD PTR [rsp+16], rdx
	mov	QWORD PTR [rsp+8], rcx
	push	rdi
	sub	rsp, 48					; 00000030H
	mov	rdi, rsp
	mov	ecx, 12
	mov	eax, -858993460				; ccccccccH
	rep stosd
	mov	rcx, QWORD PTR [rsp+64]
; Line 161
	mov	r8d, 16
	mov	rdx, QWORD PTR rguid2$[rsp]
	mov	rcx, QWORD PTR rguid1$[rsp]
	call	memcmp
	test	eax, eax
	jne	SHORT $LN3@IsEqualGUI
	mov	DWORD PTR tv69[rsp], 1
	jmp	SHORT $LN4@IsEqualGUI
$LN3@IsEqualGUI:
	mov	DWORD PTR tv69[rsp], 0
$LN4@IsEqualGUI:
	mov	eax, DWORD PTR tv69[rsp]
; Line 162
	add	rsp, 48					; 00000030H
	pop	rdi
	ret	0
IsEqualGUID ENDP
_TEXT	ENDS
EXTRN	?CheckConnect@CBaseOutputPin@@UEAAJPEAUIPin@@@Z:PROC ; CBaseOutputPin::CheckConnect
;	COMDAT pdata
; File c:\downloads\wpf mediakit - copy\src\filters\baseclasses\transfrm.cpp
pdata	SEGMENT
$pdata$?CheckConnect@CTransformOutputPin@@UEAAJPEAUIPin@@@Z DD imagerel $LN6
	DD	imagerel $LN6+198
	DD	imagerel $unwind$?CheckConnect@CTransformOutputPin@@UEAAJPEAUIPin@@@Z
pdata	ENDS
;	COMDAT xdata
xdata	SEGMENT
$unwind$?CheckConnect@CTransformOutputPin@@UEAAJPEAUIPin@@@Z DD 022301H
	DD	0700b520fH
; Function compile flags: /Odtp /RTCsu
xdata	ENDS
;	COMDAT ?CheckConnect@CTransformOutputPin@@UEAAJPEAUIPin@@@Z
_TEXT	SEGMENT
hr$ = 32
this$ = 64
pPin$ = 72
?CheckConnect@CTransformOutputPin@@UEAAJPEAUIPin@@@Z PROC ; CTransformOutputPin::CheckConnect, COMDAT
; Line 868
$LN6:
	mov	QWORD PTR [rsp+16], rdx
	mov	QWORD PTR [rsp+8], rcx
	push	rdi
	sub	rsp, 48					; 00000030H
	mov	rdi, rsp
	mov	ecx, 12
	mov	eax, -858993460				; ccccccccH
	rep stosd
	mov	rcx, QWORD PTR [rsp+64]
; Line 871
	mov	rax, QWORD PTR this$[rsp]
	mov	rax, QWORD PTR [rax+248]
	cmp	QWORD PTR [rax+256], 0
	jne	SHORT $LN3@CheckConne@2
	mov	r8d, 871				; 00000367H
	lea	rdx, OFFSET FLAT:$SG82699
	lea	rcx, OFFSET FLAT:$SG82700
	call	?DbgAssert@@YAXPEB_W0H@Z		; DbgAssert
$LN3@CheckConne@2:
; Line 872
	mov	rax, QWORD PTR this$[rsp]
	mov	rax, QWORD PTR [rax+248]
	mov	rcx, QWORD PTR [rax+256]
	call	?IsConnected@CBasePin@@QEAAHXZ		; CBasePin::IsConnected
	test	eax, eax
	jne	SHORT $LN2@CheckConne@2
; Line 873
	mov	eax, -2147418113			; ffffffff8000ffffH
	jmp	SHORT $LN4@CheckConne@2
$LN2@CheckConne@2:
; Line 876
	mov	rax, QWORD PTR this$[rsp]
	mov	rax, QWORD PTR [rax+248]
	mov	rcx, QWORD PTR this$[rsp]
	mov	rcx, QWORD PTR [rcx+248]
	mov	rax, QWORD PTR [rax]
	mov	r8, QWORD PTR pPin$[rsp]
	mov	edx, 1
	call	QWORD PTR [rax+144]
	mov	DWORD PTR hr$[rsp], eax
; Line 877
	cmp	DWORD PTR hr$[rsp], 0
	jge	SHORT $LN1@CheckConne@2
; Line 878
	mov	eax, DWORD PTR hr$[rsp]
	jmp	SHORT $LN4@CheckConne@2
$LN1@CheckConne@2:
; Line 880
	mov	rdx, QWORD PTR pPin$[rsp]
	mov	rcx, QWORD PTR this$[rsp]
	call	?CheckConnect@CBaseOutputPin@@UEAAJPEAUIPin@@@Z ; CBaseOutputPin::CheckConnect
$LN4@CheckConne@2:
; Line 881
	add	rsp, 48					; 00000030H
	pop	rdi
	ret	0
?CheckConnect@CTransformOutputPin@@UEAAJPEAUIPin@@@Z ENDP ; CTransformOutputPin::CheckConnect
_TEXT	ENDS
EXTRN	?BreakConnect@CBaseOutputPin@@UEAAJXZ:PROC	; CBaseOutputPin::BreakConnect
;	COMDAT pdata
pdata	SEGMENT
$pdata$?BreakConnect@CTransformOutputPin@@UEAAJXZ DD imagerel $LN4
	DD	imagerel $LN4+123
	DD	imagerel $unwind$?BreakConnect@CTransformOutputPin@@UEAAJXZ
pdata	ENDS
;	COMDAT xdata
xdata	SEGMENT
$unwind$?BreakConnect@CTransformOutputPin@@UEAAJXZ DD 021e01H
	DD	07006320aH
; Function compile flags: /Odtp /RTCsu
xdata	ENDS
;	COMDAT ?BreakConnect@CTransformOutputPin@@UEAAJXZ
_TEXT	SEGMENT
this$ = 48
?BreakConnect@CTransformOutputPin@@UEAAJXZ PROC		; CTransformOutputPin::BreakConnect, COMDAT
; Line 888
$LN4:
	mov	QWORD PTR [rsp+8], rcx
	push	rdi
	sub	rsp, 32					; 00000020H
	mov	rdi, rsp
	mov	ecx, 8
	mov	eax, -858993460				; ccccccccH
	rep stosd
	mov	rcx, QWORD PTR [rsp+48]
; Line 890
	mov	rcx, QWORD PTR this$[rsp]
	call	?IsStopped@CBasePin@@QEAAHXZ		; CBasePin::IsStopped
	test	eax, eax
	jne	SHORT $LN1@BreakConne@2
	mov	r8d, 890				; 0000037aH
	lea	rdx, OFFSET FLAT:$SG82710
	lea	rcx, OFFSET FLAT:$SG82711
	call	?DbgAssert@@YAXPEB_W0H@Z		; DbgAssert
$LN1@BreakConne@2:
; Line 891
	mov	rax, QWORD PTR this$[rsp]
	mov	rax, QWORD PTR [rax+248]
	mov	rcx, QWORD PTR this$[rsp]
	mov	rcx, QWORD PTR [rcx+248]
	mov	rax, QWORD PTR [rax]
	mov	edx, 1
	call	QWORD PTR [rax+152]
; Line 892
	mov	rcx, QWORD PTR this$[rsp]
	call	?BreakConnect@CBaseOutputPin@@UEAAJXZ	; CBaseOutputPin::BreakConnect
; Line 893
	add	rsp, 32					; 00000020H
	pop	rdi
	ret	0
?BreakConnect@CTransformOutputPin@@UEAAJXZ ENDP		; CTransformOutputPin::BreakConnect
_TEXT	ENDS
EXTRN	?CompleteConnect@CBaseOutputPin@@UEAAJPEAUIPin@@@Z:PROC ; CBaseOutputPin::CompleteConnect
;	COMDAT pdata
pdata	SEGMENT
$pdata$?CompleteConnect@CTransformOutputPin@@UEAAJPEAUIPin@@@Z DD imagerel $LN4
	DD	imagerel $LN4+116
	DD	imagerel $unwind$?CompleteConnect@CTransformOutputPin@@UEAAJPEAUIPin@@@Z
pdata	ENDS
;	COMDAT xdata
xdata	SEGMENT
$unwind$?CompleteConnect@CTransformOutputPin@@UEAAJPEAUIPin@@@Z DD 022301H
	DD	0700b520fH
; Function compile flags: /Odtp /RTCsu
xdata	ENDS
;	COMDAT ?CompleteConnect@CTransformOutputPin@@UEAAJPEAUIPin@@@Z
_TEXT	SEGMENT
hr$ = 32
this$ = 64
pReceivePin$ = 72
?CompleteConnect@CTransformOutputPin@@UEAAJPEAUIPin@@@Z PROC ; CTransformOutputPin::CompleteConnect, COMDAT
; Line 900
$LN4:
	mov	QWORD PTR [rsp+16], rdx
	mov	QWORD PTR [rsp+8], rcx
	push	rdi
	sub	rsp, 48					; 00000030H
	mov	rdi, rsp
	mov	ecx, 12
	mov	eax, -858993460				; ccccccccH
	rep stosd
	mov	rcx, QWORD PTR [rsp+64]
; Line 901
	mov	rax, QWORD PTR this$[rsp]
	mov	rax, QWORD PTR [rax+248]
	mov	rcx, QWORD PTR this$[rsp]
	mov	rcx, QWORD PTR [rcx+248]
	mov	rax, QWORD PTR [rax]
	mov	r8, QWORD PTR pReceivePin$[rsp]
	mov	edx, 1
	call	QWORD PTR [rax+160]
	mov	DWORD PTR hr$[rsp], eax
; Line 902
	cmp	DWORD PTR hr$[rsp], 0
	jge	SHORT $LN1@CompleteCo@2
; Line 903
	mov	eax, DWORD PTR hr$[rsp]
	jmp	SHORT $LN2@CompleteCo@2
$LN1@CompleteCo@2:
; Line 905
	mov	rdx, QWORD PTR pReceivePin$[rsp]
	mov	rcx, QWORD PTR this$[rsp]
	call	?CompleteConnect@CBaseOutputPin@@UEAAJPEAUIPin@@@Z ; CBaseOutputPin::CompleteConnect
$LN2@CompleteCo@2:
; Line 906
	add	rsp, 48					; 00000030H
	pop	rdi
	ret	0
?CompleteConnect@CTransformOutputPin@@UEAAJPEAUIPin@@@Z ENDP ; CTransformOutputPin::CompleteConnect
_TEXT	ENDS
PUBLIC	?CurrentMediaType@CTransformInputPin@@QEAAAEAVCMediaType@@XZ ; CTransformInputPin::CurrentMediaType
;	COMDAT pdata
pdata	SEGMENT
$pdata$?CheckMediaType@CTransformOutputPin@@UEAAJPEBVCMediaType@@@Z DD imagerel $LN5
	DD	imagerel $LN5+208
	DD	imagerel $unwind$?CheckMediaType@CTransformOutputPin@@UEAAJPEBVCMediaType@@@Z
pdata	ENDS
;	COMDAT xdata
xdata	SEGMENT
$unwind$?CheckMediaType@CTransformOutputPin@@UEAAJPEBVCMediaType@@@Z DD 022301H
	DD	0700b520fH
; Function compile flags: /Odtp /RTCsu
xdata	ENDS
;	COMDAT ?CheckMediaType@CTransformOutputPin@@UEAAJPEBVCMediaType@@@Z
_TEXT	SEGMENT
tv83 = 32
tv93 = 40
this$ = 64
pmtOut$ = 72
?CheckMediaType@CTransformOutputPin@@UEAAJPEBVCMediaType@@@Z PROC ; CTransformOutputPin::CheckMediaType, COMDAT
; Line 913
$LN5:
	mov	QWORD PTR [rsp+16], rdx
	mov	QWORD PTR [rsp+8], rcx
	push	rdi
	sub	rsp, 48					; 00000030H
	mov	rdi, rsp
	mov	ecx, 12
	mov	eax, -858993460				; ccccccccH
	rep stosd
	mov	rcx, QWORD PTR [rsp+64]
; Line 915
	mov	rax, QWORD PTR this$[rsp]
	mov	rax, QWORD PTR [rax+248]
	cmp	QWORD PTR [rax+256], 0
	jne	SHORT $LN2@CheckMedia@2
	mov	r8d, 915				; 00000393H
	lea	rdx, OFFSET FLAT:$SG82724
	lea	rcx, OFFSET FLAT:$SG82725
	call	?DbgAssert@@YAXPEB_W0H@Z		; DbgAssert
$LN2@CheckMedia@2:
; Line 916
	mov	rax, QWORD PTR this$[rsp]
	mov	rax, QWORD PTR [rax+248]
	mov	rcx, QWORD PTR [rax+256]
	call	?IsConnected@CBasePin@@QEAAHXZ		; CBasePin::IsConnected
	test	eax, eax
	jne	SHORT $LN1@CheckMedia@2
; Line 917
	mov	eax, -2147024809			; ffffffff80070057H
	jmp	SHORT $LN3@CheckMedia@2
$LN1@CheckMedia@2:
; Line 922
	mov	rax, QWORD PTR this$[rsp]
	mov	rax, QWORD PTR [rax+248]
	mov	rcx, QWORD PTR [rax+256]
	call	?CurrentMediaType@CTransformInputPin@@QEAAAEAVCMediaType@@XZ ; CTransformInputPin::CurrentMediaType
	mov	rcx, QWORD PTR this$[rsp]
	mov	rcx, QWORD PTR [rcx+248]
	mov	rdx, QWORD PTR this$[rsp]
	mov	rdx, QWORD PTR [rdx+248]
	mov	QWORD PTR tv83[rsp], rdx
	mov	rcx, QWORD PTR [rcx]
	mov	QWORD PTR tv93[rsp], rcx
	mov	r8, QWORD PTR pmtOut$[rsp]
	mov	rdx, rax
	mov	rax, QWORD PTR tv83[rsp]
	mov	rcx, rax
	mov	rax, QWORD PTR tv93[rsp]
	call	QWORD PTR [rax+88]
$LN3@CheckMedia@2:
; Line 923
	add	rsp, 48					; 00000030H
	pop	rdi
	ret	0
?CheckMediaType@CTransformOutputPin@@UEAAJPEBVCMediaType@@@Z ENDP ; CTransformOutputPin::CheckMediaType
_TEXT	ENDS
;	COMDAT pdata
; File c:\downloads\wpf mediakit - copy\src\filters\baseclasses\transfrm.h
pdata	SEGMENT
$pdata$?CurrentMediaType@CTransformInputPin@@QEAAAEAVCMediaType@@XZ DD imagerel $LN3
	DD	imagerel $LN3+17
	DD	imagerel $unwind$?CurrentMediaType@CTransformInputPin@@QEAAAEAVCMediaType@@XZ
pdata	ENDS
;	COMDAT xdata
xdata	SEGMENT
$unwind$?CurrentMediaType@CTransformInputPin@@QEAAAEAVCMediaType@@XZ DD 010601H
	DD	07006H
; Function compile flags: /Odtp /RTCsu
xdata	ENDS
;	COMDAT ?CurrentMediaType@CTransformInputPin@@QEAAAEAVCMediaType@@XZ
_TEXT	SEGMENT
this$ = 16
?CurrentMediaType@CTransformInputPin@@QEAAAEAVCMediaType@@XZ PROC ; CTransformInputPin::CurrentMediaType, COMDAT
; Line 100
$LN3:
	mov	QWORD PTR [rsp+8], rcx
	push	rdi
	mov	rax, QWORD PTR this$[rsp]
	add	rax, 112				; 00000070H
	pop	rdi
	ret	0
?CurrentMediaType@CTransformInputPin@@QEAAAEAVCMediaType@@XZ ENDP ; CTransformInputPin::CurrentMediaType
_TEXT	ENDS
EXTRN	?IsValid@CMediaType@@QEBAHXZ:PROC		; CMediaType::IsValid
;	COMDAT pdata
; File c:\downloads\wpf mediakit - copy\src\filters\baseclasses\transfrm.cpp
pdata	SEGMENT
$pdata$?SetMediaType@CTransformOutputPin@@UEAAJPEBVCMediaType@@@Z DD imagerel $LN7
	DD	imagerel $LN7+381
	DD	imagerel $unwind$?SetMediaType@CTransformOutputPin@@UEAAJPEBVCMediaType@@@Z
pdata	ENDS
;	COMDAT xdata
xdata	SEGMENT
$unwind$?SetMediaType@CTransformOutputPin@@UEAAJPEBVCMediaType@@@Z DD 022301H
	DD	0700b720fH
; Function compile flags: /Odtp /RTCsu
xdata	ENDS
;	COMDAT ?SetMediaType@CTransformOutputPin@@UEAAJPEBVCMediaType@@@Z
_TEXT	SEGMENT
hr$ = 32
tv92 = 40
tv158 = 48
this$ = 80
pmtOut$ = 88
?SetMediaType@CTransformOutputPin@@UEAAJPEBVCMediaType@@@Z PROC ; CTransformOutputPin::SetMediaType, COMDAT
; Line 931
$LN7:
	mov	QWORD PTR [rsp+16], rdx
	mov	QWORD PTR [rsp+8], rcx
	push	rdi
	sub	rsp, 64					; 00000040H
	mov	rdi, rsp
	mov	ecx, 16
	mov	eax, -858993460				; ccccccccH
	rep stosd
	mov	rcx, QWORD PTR [rsp+80]
; Line 932
	mov	DWORD PTR hr$[rsp], 0
; Line 933
	mov	rax, QWORD PTR this$[rsp]
	mov	rax, QWORD PTR [rax+248]
	cmp	QWORD PTR [rax+256], 0
	jne	SHORT $LN4@SetMediaTy@2
	mov	r8d, 933				; 000003a5H
	lea	rdx, OFFSET FLAT:$SG82734
	lea	rcx, OFFSET FLAT:$SG82735
	call	?DbgAssert@@YAXPEB_W0H@Z		; DbgAssert
$LN4@SetMediaTy@2:
; Line 935
	mov	rax, QWORD PTR this$[rsp]
	mov	rax, QWORD PTR [rax+248]
	mov	rcx, QWORD PTR [rax+256]
	call	?CurrentMediaType@CTransformInputPin@@QEAAAEAVCMediaType@@XZ ; CTransformInputPin::CurrentMediaType
	mov	rcx, rax
	call	?IsValid@CMediaType@@QEBAHXZ		; CMediaType::IsValid
	test	eax, eax
	jne	SHORT $LN3@SetMediaTy@2
	mov	r8d, 935				; 000003a7H
	lea	rdx, OFFSET FLAT:$SG82737
	lea	rcx, OFFSET FLAT:$SG82738
	call	?DbgAssert@@YAXPEB_W0H@Z		; DbgAssert
$LN3@SetMediaTy@2:
; Line 938
	mov	rdx, QWORD PTR pmtOut$[rsp]
	mov	rcx, QWORD PTR this$[rsp]
	call	?SetMediaType@CBasePin@@UEAAJPEBVCMediaType@@@Z ; CBasePin::SetMediaType
	mov	DWORD PTR hr$[rsp], eax
; Line 939
	cmp	DWORD PTR hr$[rsp], 0
	jge	SHORT $LN2@SetMediaTy@2
; Line 940
	mov	eax, DWORD PTR hr$[rsp]
	jmp	$LN5@SetMediaTy@2
$LN2@SetMediaTy@2:
; Line 945
	mov	rax, QWORD PTR this$[rsp]
	mov	rax, QWORD PTR [rax+248]
	mov	rcx, QWORD PTR [rax+256]
	call	?CurrentMediaType@CTransformInputPin@@QEAAAEAVCMediaType@@XZ ; CTransformInputPin::CurrentMediaType
	mov	rcx, QWORD PTR this$[rsp]
	mov	rcx, QWORD PTR [rcx+248]
	mov	rdx, QWORD PTR this$[rsp]
	mov	rdx, QWORD PTR [rdx+248]
	mov	QWORD PTR tv92[rsp], rdx
	mov	rcx, QWORD PTR [rcx]
	mov	QWORD PTR tv158[rsp], rcx
	mov	r8, QWORD PTR pmtOut$[rsp]
	mov	rdx, rax
	mov	rax, QWORD PTR tv92[rsp]
	mov	rcx, rax
	mov	rax, QWORD PTR tv158[rsp]
	call	QWORD PTR [rax+88]
	test	eax, eax
	jge	SHORT $LN1@SetMediaTy@2
; Line 946
	lea	r8, OFFSET FLAT:$SG82743
	xor	edx, edx
	mov	ecx, 16
	call	?DbgLogInfo@@YAXKKPEB_WZZ		; DbgLogInfo
; Line 947
	lea	r8, OFFSET FLAT:$SG82744
	xor	edx, edx
	mov	ecx, 16
	call	?DbgLogInfo@@YAXKKPEB_WZZ		; DbgLogInfo
; Line 948
	lea	r8, OFFSET FLAT:$SG82745
	xor	edx, edx
	mov	ecx, 16
	call	?DbgLogInfo@@YAXKKPEB_WZZ		; DbgLogInfo
$LN1@SetMediaTy@2:
; Line 952
	mov	rax, QWORD PTR this$[rsp]
	mov	rax, QWORD PTR [rax+248]
	mov	rcx, QWORD PTR this$[rsp]
	mov	rcx, QWORD PTR [rcx+248]
	mov	rax, QWORD PTR [rax]
	mov	r8, QWORD PTR pmtOut$[rsp]
	mov	edx, 1
	call	QWORD PTR [rax+136]
$LN5@SetMediaTy@2:
; Line 953
	add	rsp, 64					; 00000040H
	pop	rdi
	ret	0
?SetMediaType@CTransformOutputPin@@UEAAJPEBVCMediaType@@@Z ENDP ; CTransformOutputPin::SetMediaType
_TEXT	ENDS
;	COMDAT pdata
pdata	SEGMENT
$pdata$?DecideBufferSize@CTransformOutputPin@@UEAAJPEAUIMemAllocator@@PEAU_AllocatorProperties@@@Z DD imagerel $LN3
	DD	imagerel $LN3+86
	DD	imagerel $unwind$?DecideBufferSize@CTransformOutputPin@@UEAAJPEAUIMemAllocator@@PEAU_AllocatorProperties@@@Z
pdata	ENDS
;	COMDAT xdata
xdata	SEGMENT
$unwind$?DecideBufferSize@CTransformOutputPin@@UEAAJPEAUIMemAllocator@@PEAU_AllocatorProperties@@@Z DD 022801H
	DD	070103214H
; Function compile flags: /Odtp /RTCsu
xdata	ENDS
;	COMDAT ?DecideBufferSize@CTransformOutputPin@@UEAAJPEAUIMemAllocator@@PEAU_AllocatorProperties@@@Z
_TEXT	SEGMENT
this$ = 48
pAllocator$ = 56
pProp$ = 64
?DecideBufferSize@CTransformOutputPin@@UEAAJPEAUIMemAllocator@@PEAU_AllocatorProperties@@@Z PROC ; CTransformOutputPin::DecideBufferSize, COMDAT
; Line 962
$LN3:
	mov	QWORD PTR [rsp+24], r8
	mov	QWORD PTR [rsp+16], rdx
	mov	QWORD PTR [rsp+8], rcx
	push	rdi
	sub	rsp, 32					; 00000020H
	mov	rdi, rsp
	mov	ecx, 8
	mov	eax, -858993460				; ccccccccH
	rep stosd
	mov	rcx, QWORD PTR [rsp+48]
; Line 963
	mov	rax, QWORD PTR this$[rsp]
	mov	rax, QWORD PTR [rax+248]
	mov	rcx, QWORD PTR this$[rsp]
	mov	rcx, QWORD PTR [rcx+248]
	mov	rax, QWORD PTR [rax]
	mov	r8, QWORD PTR pProp$[rsp]
	mov	rdx, QWORD PTR pAllocator$[rsp]
	call	QWORD PTR [rax+96]
; Line 964
	add	rsp, 32					; 00000020H
	pop	rdi
	ret	0
?DecideBufferSize@CTransformOutputPin@@UEAAJPEAUIMemAllocator@@PEAU_AllocatorProperties@@@Z ENDP ; CTransformOutputPin::DecideBufferSize
_TEXT	ENDS
;	COMDAT pdata
pdata	SEGMENT
$pdata$?GetMediaType@CTransformOutputPin@@UEAAJHPEAVCMediaType@@@Z DD imagerel $LN6
	DD	imagerel $LN6+168
	DD	imagerel $unwind$?GetMediaType@CTransformOutputPin@@UEAAJHPEAVCMediaType@@@Z
pdata	ENDS
;	COMDAT xdata
xdata	SEGMENT
$unwind$?GetMediaType@CTransformOutputPin@@UEAAJHPEAVCMediaType@@@Z DD 022701H
	DD	0700f3213H
; Function compile flags: /Odtp /RTCsu
xdata	ENDS
;	COMDAT ?GetMediaType@CTransformOutputPin@@UEAAJHPEAVCMediaType@@@Z
_TEXT	SEGMENT
this$ = 48
iPosition$ = 56
pMediaType$ = 64
?GetMediaType@CTransformOutputPin@@UEAAJHPEAVCMediaType@@@Z PROC ; CTransformOutputPin::GetMediaType, COMDAT
; Line 974
$LN6:
	mov	QWORD PTR [rsp+24], r8
	mov	DWORD PTR [rsp+16], edx
	mov	QWORD PTR [rsp+8], rcx
	push	rdi
	sub	rsp, 32					; 00000020H
	mov	rdi, rsp
	mov	ecx, 8
	mov	eax, -858993460				; ccccccccH
	rep stosd
	mov	rcx, QWORD PTR [rsp+48]
; Line 975
	mov	rax, QWORD PTR this$[rsp]
	mov	rax, QWORD PTR [rax+248]
	cmp	QWORD PTR [rax+256], 0
	jne	SHORT $LN3@GetMediaTy
	mov	r8d, 975				; 000003cfH
	lea	rdx, OFFSET FLAT:$SG82757
	lea	rcx, OFFSET FLAT:$SG82758
	call	?DbgAssert@@YAXPEB_W0H@Z		; DbgAssert
$LN3@GetMediaTy:
; Line 979
	mov	rax, QWORD PTR this$[rsp]
	mov	rax, QWORD PTR [rax+248]
	mov	rcx, QWORD PTR [rax+256]
	call	?IsConnected@CBasePin@@QEAAHXZ		; CBasePin::IsConnected
	test	eax, eax
	je	SHORT $LN2@GetMediaTy
; Line 980
	mov	rax, QWORD PTR this$[rsp]
	mov	rax, QWORD PTR [rax+248]
	mov	rcx, QWORD PTR this$[rsp]
	mov	rcx, QWORD PTR [rcx+248]
	mov	rax, QWORD PTR [rax]
	mov	r8, QWORD PTR pMediaType$[rsp]
	mov	edx, DWORD PTR iPosition$[rsp]
	call	QWORD PTR [rax+104]
	jmp	SHORT $LN4@GetMediaTy
; Line 981
	jmp	SHORT $LN1@GetMediaTy
$LN2@GetMediaTy:
; Line 982
	mov	eax, 262403				; 00040103H
$LN1@GetMediaTy:
$LN4@GetMediaTy:
; Line 984
	add	rsp, 32					; 00000020H
	pop	rdi
	ret	0
?GetMediaType@CTransformOutputPin@@UEAAJHPEAVCMediaType@@@Z ENDP ; CTransformOutputPin::GetMediaType
_TEXT	ENDS
PUBLIC	$T84496
EXTRN	?PassNotify@CBaseInputPin@@QEAAJAEAUtagQuality@@@Z:PROC ; CBaseInputPin::PassNotify
;	COMDAT pdata
pdata	SEGMENT
$pdata$?Notify@CTransformOutputPin@@UEAAJPEAUIBaseFilter@@UtagQuality@@@Z DD imagerel $LN6
	DD	imagerel $LN6+290
	DD	imagerel $unwind$?Notify@CTransformOutputPin@@UEAAJPEAUIBaseFilter@@UtagQuality@@@Z
pdata	ENDS
;	COMDAT xdata
xdata	SEGMENT
$unwind$?Notify@CTransformOutputPin@@UEAAJPEAUIBaseFilter@@UtagQuality@@@Z DD 032c01H
	DD	07011e215H
	DD	06010H
xdata	ENDS
;	COMDAT CONST
CONST	SEGMENT
?Notify@CTransformOutputPin@@UEAAJPEAUIBaseFilter@@UtagQuality@@@Z$rtcName$0 DB 05fH ; CTransformOutputPin::Notify
	DB	05fH
	DB	024H
	DB	041H
	DB	072H
	DB	072H
	DB	061H
	DB	079H
	DB	050H
	DB	061H
	DB	064H
	DB	00H
	ORG $+4
?Notify@CTransformOutputPin@@UEAAJPEAUIBaseFilter@@UtagQuality@@@Z$rtcVarDesc DD 038H ; CTransformOutputPin::Notify
	DD	08H
	DQ	FLAT:?Notify@CTransformOutputPin@@UEAAJPEAUIBaseFilter@@UtagQuality@@@Z$rtcName$0
	ORG $+48
?Notify@CTransformOutputPin@@UEAAJPEAUIBaseFilter@@UtagQuality@@@Z$rtcFrameData DD 01H ; CTransformOutputPin::Notify
	DD	00H
	DQ	FLAT:?Notify@CTransformOutputPin@@UEAAJPEAUIBaseFilter@@UtagQuality@@@Z$rtcVarDesc
; Function compile flags: /Odtp /RTCsu
CONST	ENDS
;	COMDAT ?Notify@CTransformOutputPin@@UEAAJPEAUIBaseFilter@@UtagQuality@@@Z
_TEXT	SEGMENT
hr$ = 32
$T84496 = 80
this$ = 144
pSender$ = 152
q$ = 160
?Notify@CTransformOutputPin@@UEAAJPEAUIBaseFilter@@UtagQuality@@@Z PROC ; CTransformOutputPin::Notify, COMDAT
; Line 994
$LN6:
	mov	QWORD PTR [rsp+24], r8
	mov	QWORD PTR [rsp+16], rdx
	mov	QWORD PTR [rsp+8], rcx
	push	rsi
	push	rdi
	sub	rsp, 120				; 00000078H
	mov	rdi, rsp
	mov	ecx, 30
	mov	eax, -858993460				; ccccccccH
	rep stosd
	mov	rcx, QWORD PTR [rsp+144]
; Line 996
	mov	edx, 8
	mov	rcx, QWORD PTR pSender$[rsp]
	call	QWORD PTR __imp_IsBadReadPtr
	cmp	eax, 1
	jne	SHORT $LN3@Notify
	mov	r8d, 996				; 000003e4H
	lea	rdx, OFFSET FLAT:$SG82770
	lea	rcx, OFFSET FLAT:$SG82771
	call	?DbgBreakPoint@@YAXPEB_W0H@Z		; DbgBreakPoint
$LN3@Notify:
; Line 999
	lea	rax, QWORD PTR $T84496[rsp]
	mov	rdi, rax
	mov	rsi, QWORD PTR q$[rsp]
	mov	ecx, 24
	rep movsb
	mov	rax, QWORD PTR this$[rsp]
	mov	rax, QWORD PTR [rax+208]
	mov	rcx, QWORD PTR this$[rsp]
	mov	rcx, QWORD PTR [rcx+208]
	mov	rax, QWORD PTR [rax]
	lea	rdx, QWORD PTR $T84496[rsp]
	call	QWORD PTR [rax+128]
	mov	DWORD PTR hr$[rsp], eax
; Line 1000
	cmp	DWORD PTR hr$[rsp], 1
	je	SHORT $LN2@Notify
; Line 1001
	mov	eax, DWORD PTR hr$[rsp]
	jmp	SHORT $LN4@Notify
$LN2@Notify:
; Line 1007
	mov	rax, QWORD PTR this$[rsp]
	mov	rax, QWORD PTR [rax+208]
	cmp	QWORD PTR [rax+256], 0
	jne	SHORT $LN1@Notify
	mov	r8d, 1007				; 000003efH
	lea	rdx, OFFSET FLAT:$SG82776
	lea	rcx, OFFSET FLAT:$SG82777
	call	?DbgAssert@@YAXPEB_W0H@Z		; DbgAssert
$LN1@Notify:
; Line 1009
	mov	rax, QWORD PTR this$[rsp]
	mov	rax, QWORD PTR [rax+208]
	mov	rdx, QWORD PTR q$[rsp]
	mov	rcx, QWORD PTR [rax+256]
	call	?PassNotify@CBaseInputPin@@QEAAJAEAUtagQuality@@@Z ; CBaseInputPin::PassNotify
$LN4@Notify:
; Line 1011
	mov	rdi, rax
	mov	rcx, rsp
	lea	rdx, OFFSET FLAT:?Notify@CTransformOutputPin@@UEAAJPEAUIBaseFilter@@UtagQuality@@@Z$rtcFrameData
	call	_RTC_CheckStackVars
	mov	rax, rdi
	add	rsp, 120				; 00000078H
	pop	rdi
	pop	rsi
	ret	0
?Notify@CTransformOutputPin@@UEAAJPEAUIBaseFilter@@UtagQuality@@@Z ENDP ; CTransformOutputPin::Notify
; Function compile flags: /Odtp /RTCsu
_TEXT	ENDS
;	COMDAT ?Release@CBasePin@@W7EAAKXZ
_TEXT	SEGMENT
?Release@CBasePin@@W7EAAKXZ PROC			; [thunk]:CBasePin::Release`adjustor{8}', COMDAT
	sub	rcx, 8
	jmp	?Release@CBasePin@@UEAAKXZ		; CBasePin::Release
?Release@CBasePin@@W7EAAKXZ ENDP			; [thunk]:CBasePin::Release`adjustor{8}'
; Function compile flags: /Odtp /RTCsu
_TEXT	ENDS
;	COMDAT ?QueryInterface@CBaseInputPin@@WMI@EAAJAEBU_GUID@@PEAPEAX@Z
_TEXT	SEGMENT
?QueryInterface@CBaseInputPin@@WMI@EAAJAEBU_GUID@@PEAPEAX@Z PROC ; [thunk]:CBaseInputPin::QueryInterface`adjustor{200}', COMDAT
	sub	rcx, 200				; 000000c8H
	jmp	?QueryInterface@CBaseInputPin@@UEAAJAEBU_GUID@@PEAPEAX@Z ; CBaseInputPin::QueryInterface
?QueryInterface@CBaseInputPin@@WMI@EAAJAEBU_GUID@@PEAPEAX@Z ENDP ; [thunk]:CBaseInputPin::QueryInterface`adjustor{200}'
; Function compile flags: /Odtp /RTCsu
_TEXT	ENDS
;	COMDAT ?AddRef@CBasePin@@W7EAAKXZ
_TEXT	SEGMENT
?AddRef@CBasePin@@W7EAAKXZ PROC				; [thunk]:CBasePin::AddRef`adjustor{8}', COMDAT
	sub	rcx, 8
	jmp	?AddRef@CBasePin@@UEAAKXZ		; CBasePin::AddRef
?AddRef@CBasePin@@W7EAAKXZ ENDP				; [thunk]:CBasePin::AddRef`adjustor{8}'
; Function compile flags: /Odtp /RTCsu
_TEXT	ENDS
;	COMDAT ?Release@CBaseInputPin@@W7EAAKXZ
_TEXT	SEGMENT
?Release@CBaseInputPin@@W7EAAKXZ PROC			; [thunk]:CBaseInputPin::Release`adjustor{8}', COMDAT
	sub	rcx, 8
	jmp	?Release@CBaseInputPin@@UEAAKXZ		; CBaseInputPin::Release
?Release@CBaseInputPin@@W7EAAKXZ ENDP			; [thunk]:CBaseInputPin::Release`adjustor{8}'
; Function compile flags: /Odtp /RTCsu
_TEXT	ENDS
;	COMDAT ?QueryInterface@CBasePin@@W7EAAJAEBU_GUID@@PEAPEAX@Z
_TEXT	SEGMENT
?QueryInterface@CBasePin@@W7EAAJAEBU_GUID@@PEAPEAX@Z PROC ; [thunk]:CBasePin::QueryInterface`adjustor{8}', COMDAT
	sub	rcx, 8
	jmp	?QueryInterface@CBasePin@@UEAAJAEBU_GUID@@PEAPEAX@Z ; CBasePin::QueryInterface
?QueryInterface@CBasePin@@W7EAAJAEBU_GUID@@PEAPEAX@Z ENDP ; [thunk]:CBasePin::QueryInterface`adjustor{8}'
; Function compile flags: /Odtp /RTCsu
_TEXT	ENDS
;	COMDAT ?Release@CBaseInputPin@@WMI@EAAKXZ
_TEXT	SEGMENT
?Release@CBaseInputPin@@WMI@EAAKXZ PROC			; [thunk]:CBaseInputPin::Release`adjustor{200}', COMDAT
	sub	rcx, 200				; 000000c8H
	jmp	?Release@CBaseInputPin@@UEAAKXZ		; CBaseInputPin::Release
?Release@CBaseInputPin@@WMI@EAAKXZ ENDP			; [thunk]:CBaseInputPin::Release`adjustor{200}'
; Function compile flags: /Odtp /RTCsu
_TEXT	ENDS
;	COMDAT ?AddRef@CBaseInputPin@@W7EAAKXZ
_TEXT	SEGMENT
?AddRef@CBaseInputPin@@W7EAAKXZ PROC			; [thunk]:CBaseInputPin::AddRef`adjustor{8}', COMDAT
	sub	rcx, 8
	jmp	?AddRef@CBaseInputPin@@UEAAKXZ		; CBaseInputPin::AddRef
?AddRef@CBaseInputPin@@W7EAAKXZ ENDP			; [thunk]:CBaseInputPin::AddRef`adjustor{8}'
; Function compile flags: /Odtp /RTCsu
_TEXT	ENDS
;	COMDAT ?AddRef@CBaseInputPin@@WMI@EAAKXZ
_TEXT	SEGMENT
?AddRef@CBaseInputPin@@WMI@EAAKXZ PROC			; [thunk]:CBaseInputPin::AddRef`adjustor{200}', COMDAT
	sub	rcx, 200				; 000000c8H
	jmp	?AddRef@CBaseInputPin@@UEAAKXZ		; CBaseInputPin::AddRef
?AddRef@CBaseInputPin@@WMI@EAAKXZ ENDP			; [thunk]:CBaseInputPin::AddRef`adjustor{200}'
; Function compile flags: /Odtp /RTCsu
_TEXT	ENDS
;	COMDAT ?QueryInterface@CBaseInputPin@@W7EAAJAEBU_GUID@@PEAPEAX@Z
_TEXT	SEGMENT
?QueryInterface@CBaseInputPin@@W7EAAJAEBU_GUID@@PEAPEAX@Z PROC ; [thunk]:CBaseInputPin::QueryInterface`adjustor{8}', COMDAT
	sub	rcx, 8
	jmp	?QueryInterface@CBaseInputPin@@UEAAJAEBU_GUID@@PEAPEAX@Z ; CBaseInputPin::QueryInterface
?QueryInterface@CBaseInputPin@@W7EAAJAEBU_GUID@@PEAPEAX@Z ENDP ; [thunk]:CBaseInputPin::QueryInterface`adjustor{8}'
_TEXT	ENDS
END
