; Listing generated by Microsoft (R) Optimizing Compiler Version 16.00.30319.01 

include listing.inc

INCLUDELIB LIBCMTD
INCLUDELIB OLDNAMES

PUBLIC	IID_IAMFilterGraphCallback
CONST	SEGMENT
$SG82260 DB	'I', 00H, 'n', 00H, 'p', 00H, 'u', 00H, 't', 00H, 00H, 00H
	ORG $+4
$SG82261 DB	'T', 00H, 'r', 00H, 'a', 00H, 'n', 00H, 's', 00H, 'I', 00H
	DB	'n', 00H, 'P', 00H, 'l', 00H, 'a', 00H, 'c', 00H, 'e', 00H, ' '
	DB	00H, 'i', 00H, 'n', 00H, 'p', 00H, 'u', 00H, 't', 00H, ' ', 00H
	DB	'p', 00H, 'i', 00H, 'n', 00H, 00H, 00H
	ORG $+2
$SG82264 DB	'.', 00H, '.', 00H, '\', 00H, 't', 00H, 'r', 00H, 'a', 00H
	DB	'n', 00H, 's', 00H, 'i', 00H, 'p', 00H, '.', 00H, 'c', 00H, 'p'
	DB	00H, 'p', 00H, 00H, 00H
	ORG $+2
$SG82265 DB	'S', 00H, 'U', 00H, 'C', 00H, 'C', 00H, 'E', 00H, 'E', 00H
	DB	'D', 00H, 'E', 00H, 'D', 00H, '(', 00H, 'h', 00H, 'r', 00H, ')'
	DB	00H, 00H, 00H
	ORG $+4
$SG82271 DB	'O', 00H, 'u', 00H, 't', 00H, 'p', 00H, 'u', 00H, 't', 00H
	DB	00H, 00H
	ORG $+2
$SG82272 DB	'T', 00H, 'r', 00H, 'a', 00H, 'n', 00H, 's', 00H, 'I', 00H
	DB	'n', 00H, 'P', 00H, 'l', 00H, 'a', 00H, 'c', 00H, 'e', 00H, ' '
	DB	00H, 'o', 00H, 'u', 00H, 't', 00H, 'p', 00H, 'u', 00H, 't', 00H
	DB	' ', 00H, 'p', 00H, 'i', 00H, 'n', 00H, 00H, 00H
$SG82275 DB	'.', 00H, '.', 00H, '\', 00H, 't', 00H, 'r', 00H, 'a', 00H
	DB	'n', 00H, 's', 00H, 'i', 00H, 'p', 00H, '.', 00H, 'c', 00H, 'p'
	DB	00H, 'p', 00H, 00H, 00H
	ORG $+2
$SG82276 DB	'S', 00H, 'U', 00H, 'C', 00H, 'C', 00H, 'E', 00H, 'E', 00H
	DB	'D', 00H, 'E', 00H, 'D', 00H, '(', 00H, 'h', 00H, 'r', 00H, ')'
	DB	00H, 00H, 00H
	ORG $+4
$SG82282 DB	'.', 00H, '.', 00H, '\', 00H, 't', 00H, 'r', 00H, 'a', 00H
	DB	'n', 00H, 's', 00H, 'i', 00H, 'p', 00H, '.', 00H, 'c', 00H, 'p'
	DB	00H, 'p', 00H, 00H, 00H
	ORG $+2
$SG82283 DB	'n', 00H, '>', 00H, '=', 00H, '0', 00H, ' ', 00H, '&', 00H
	DB	'&', 00H, ' ', 00H, 'n', 00H, '<', 00H, '=', 00H, '1', 00H, 00H
	DB	00H
	ORG $+6
$SG82294 DB	'.', 00H, '.', 00H, '\', 00H, 't', 00H, 'r', 00H, 'a', 00H
	DB	'n', 00H, 's', 00H, 'i', 00H, 'p', 00H, '.', 00H, 'c', 00H, 'p'
	DB	00H, 'p', 00H, 00H, 00H
	ORG $+2
$SG82295 DB	'm', 00H, '_', 00H, 'p', 00H, 'I', 00H, 'n', 00H, 'p', 00H
	DB	'u', 00H, 't', 00H, 00H, 00H
	ORG $+6
$SG82297 DB	'.', 00H, '.', 00H, '\', 00H, 't', 00H, 'r', 00H, 'a', 00H
	DB	'n', 00H, 's', 00H, 'i', 00H, 'p', 00H, '.', 00H, 'c', 00H, 'p'
	DB	00H, 'p', 00H, 00H, 00H
	ORG $+2
$SG82298 DB	'm', 00H, '_', 00H, 'p', 00H, 'O', 00H, 'u', 00H, 't', 00H
	DB	'p', 00H, 'u', 00H, 't', 00H, 00H, 00H
	ORG $+4
$SG82304 DB	'.', 00H, '.', 00H, '\', 00H, 't', 00H, 'r', 00H, 'a', 00H
	DB	'n', 00H, 's', 00H, 'i', 00H, 'p', 00H, '.', 00H, 'c', 00H, 'p'
	DB	00H, 'p', 00H, 00H, 00H
	ORG $+2
$SG82305 DB	'd', 00H, 'i', 00H, 'r', 00H, ' ', 00H, '=', 00H, '=', 00H
	DB	' ', 00H, 'P', 00H, 'I', 00H, 'N', 00H, 'D', 00H, 'I', 00H, 'R'
	DB	00H, '_', 00H, 'I', 00H, 'N', 00H, 'P', 00H, 'U', 00H, 'T', 00H
	DB	00H, 00H
$SG82320 DB	'S', 00H, 'e', 00H, 't', 00H, 't', 00H, 'i', 00H, 'n', 00H
	DB	'g', 00H, ' ', 00H, 'A', 00H, 'l', 00H, 'l', 00H, 'o', 00H, 'c'
	DB	00H, 'a', 00H, 't', 00H, 'o', 00H, 'r', 00H, ' ', 00H, 'R', 00H
	DB	'e', 00H, 'q', 00H, 'u', 00H, 'i', 00H, 'r', 00H, 'e', 00H, 'm'
	DB	00H, 'e', 00H, 'n', 00H, 't', 00H, 's', 00H, 00H, 00H
	ORG $+2
$SG82321 DB	'C', 00H, 'o', 00H, 'u', 00H, 'n', 00H, 't', 00H, ' ', 00H
	DB	'%', 00H, 'd', 00H, ',', 00H, ' ', 00H, 'S', 00H, 'i', 00H, 'z'
	DB	00H, 'e', 00H, ' ', 00H, '%', 00H, 'd', 00H, 00H, 00H
	ORG $+4
$SG82326 DB	'O', 00H, 'b', 00H, 't', 00H, 'a', 00H, 'i', 00H, 'n', 00H
	DB	'e', 00H, 'd', 00H, ' ', 00H, 'A', 00H, 'l', 00H, 'l', 00H, 'o'
	DB	00H, 'c', 00H, 'a', 00H, 't', 00H, 'o', 00H, 'r', 00H, ' ', 00H
	DB	'R', 00H, 'e', 00H, 'q', 00H, 'u', 00H, 'i', 00H, 'r', 00H, 'e'
	DB	00H, 'm', 00H, 'e', 00H, 'n', 00H, 't', 00H, 's', 00H, 00H, 00H
$SG82327 DB	'C', 00H, 'o', 00H, 'u', 00H, 'n', 00H, 't', 00H, ' ', 00H
	DB	'%', 00H, 'd', 00H, ',', 00H, ' ', 00H, 'S', 00H, 'i', 00H, 'z'
	DB	00H, 'e', 00H, ' ', 00H, '%', 00H, 'd', 00H, ',', 00H, ' ', 00H
	DB	'A', 00H, 'l', 00H, 'i', 00H, 'g', 00H, 'n', 00H, 'm', 00H, 'e'
	DB	00H, 'n', 00H, 't', 00H, ' ', 00H, '%', 00H, 'd', 00H, 00H, 00H
$SG82344 DB	'.', 00H, '.', 00H, '\', 00H, 't', 00H, 'r', 00H, 'a', 00H
	DB	'n', 00H, 's', 00H, 'i', 00H, 'p', 00H, '.', 00H, 'c', 00H, 'p'
	DB	00H, 'p', 00H, 00H, 00H
	ORG $+2
$SG82345 DB	'p', 00H, 'D', 00H, 'e', 00H, 's', 00H, 't', 00H, 00H, 00H
	ORG $+4
$SG82379 DB	'.', 00H, '.', 00H, '\', 00H, 't', 00H, 'r', 00H, 'a', 00H
	DB	'n', 00H, 's', 00H, 'i', 00H, 'p', 00H, '.', 00H, 'c', 00H, 'p'
	DB	00H, 'p', 00H, 00H, 00H
	ORG $+2
$SG82380 DB	'l', 00H, 'D', 00H, 'e', 00H, 's', 00H, 't', 00H, 'S', 00H
	DB	'i', 00H, 'z', 00H, 'e', 00H, ' ', 00H, '>', 00H, '=', 00H, ' '
	DB	00H, 'l', 00H, 'S', 00H, 'o', 00H, 'u', 00H, 'r', 00H, 'c', 00H
	DB	'e', 00H, 'S', 00H, 'i', 00H, 'z', 00H, 'e', 00H, ' ', 00H, '&'
	DB	00H, '&', 00H, ' ', 00H, 'l', 00H, 'D', 00H, 'e', 00H, 's', 00H
	DB	't', 00H, 'S', 00H, 'i', 00H, 'z', 00H, 'e', 00H, ' ', 00H, '>'
	DB	00H, '=', 00H, ' ', 00H, 'l', 00H, 'D', 00H, 'a', 00H, 't', 00H
	DB	'a', 00H, 'L', 00H, 'e', 00H, 'n', 00H, 'g', 00H, 't', 00H, 'h'
	DB	00H, 00H, 00H
	ORG $+6
$SG82383 DB	'.', 00H, '.', 00H, '\', 00H, 't', 00H, 'r', 00H, 'a', 00H
	DB	'n', 00H, 's', 00H, 'i', 00H, 'p', 00H, '.', 00H, 'c', 00H, 'p'
	DB	00H, 'p', 00H, 00H, 00H
	ORG $+2
$SG82384 DB	'l', 00H, 'D', 00H, 'e', 00H, 's', 00H, 't', 00H, 'S', 00H
	DB	'i', 00H, 'z', 00H, 'e', 00H, ' ', 00H, '=', 00H, '=', 00H, ' '
	DB	00H, '0', 00H, ' ', 00H, '|', 00H, '|', 00H, ' ', 00H, 'p', 00H
	DB	'S', 00H, 'o', 00H, 'u', 00H, 'r', 00H, 'c', 00H, 'e', 00H, 'B'
	DB	00H, 'u', 00H, 'f', 00H, 'f', 00H, 'e', 00H, 'r', 00H, ' ', 00H
	DB	'!', 00H, '=', 00H, ' ', 00H, 'N', 00H, 'U', 00H, 'L', 00H, 'L'
	DB	00H, ' ', 00H, '&', 00H, '&', 00H, ' ', 00H, 'p', 00H, 'D', 00H
	DB	'e', 00H, 's', 00H, 't', 00H, 'B', 00H, 'u', 00H, 'f', 00H, 'f'
	DB	00H, 'e', 00H, 'r', 00H, ' ', 00H, '!', 00H, '=', 00H, ' ', 00H
	DB	'N', 00H, 'U', 00H, 'L', 00H, 'L', 00H, 00H, 00H
	ORG $+2
$SG82402 DB	'E', 00H, 'r', 00H, 'r', 00H, 'o', 00H, 'r', 00H, ' ', 00H
	DB	'f', 00H, 'r', 00H, 'o', 00H, 'm', 00H, ' ', 00H, 'T', 00H, 'r'
	DB	00H, 'a', 00H, 'n', 00H, 's', 00H, 'I', 00H, 'n', 00H, 'P', 00H
	DB	'l', 00H, 'a', 00H, 'c', 00H, 'e', 00H, 00H, 00H
$SG82417 DB	'C', 00H, 'T', 00H, 'r', 00H, 'a', 00H, 'n', 00H, 's', 00H
	DB	'I', 00H, 'n', 00H, 'P', 00H, 'l', 00H, 'a', 00H, 'c', 00H, 'e'
	DB	00H, 'I', 00H, 'n', 00H, 'p', 00H, 'u', 00H, 't', 00H, 'P', 00H
	DB	'i', 00H, 'n', 00H, ':', 00H, ':', 00H, 'C', 00H, 'T', 00H, 'r'
	DB	00H, 'a', 00H, 'n', 00H, 's', 00H, 'I', 00H, 'n', 00H, 'P', 00H
	DB	'l', 00H, 'a', 00H, 'c', 00H, 'e', 00H, 'I', 00H, 'n', 00H, 'p'
	DB	00H, 'u', 00H, 't', 00H, 'P', 00H, 'i', 00H, 'n', 00H, 00H, 00H
	ORG $+6
$SG82435 DB	'.', 00H, '.', 00H, '\', 00H, 't', 00H, 'r', 00H, 'a', 00H
	DB	'n', 00H, 's', 00H, 'i', 00H, 'p', 00H, '.', 00H, 'c', 00H, 'p'
	DB	00H, 'p', 00H, 00H, 00H
	ORG $+2
$SG82436 DB	'"', 00H, 'I', 00H, 'n', 00H, 'v', 00H, 'a', 00H, 'l', 00H
	DB	'i', 00H, 'd', 00H, ' ', 00H, 'r', 00H, 'e', 00H, 'a', 00H, 'd'
	DB	00H, ' ', 00H, 'p', 00H, 'o', 00H, 'i', 00H, 'n', 00H, 't', 00H
	DB	'e', 00H, 'r', 00H, '"', 00H, 00H, 00H
	ORG $+2
$SG82440 DB	'.', 00H, '.', 00H, '\', 00H, 't', 00H, 'r', 00H, 'a', 00H
	DB	'n', 00H, 's', 00H, 'i', 00H, 'p', 00H, '.', 00H, 'c', 00H, 'p'
	DB	00H, 'p', 00H, 00H, 00H
	ORG $+2
$SG82441 DB	'"', 00H, 'I', 00H, 'n', 00H, 'v', 00H, 'a', 00H, 'l', 00H
	DB	'i', 00H, 'd', 00H, ' ', 00H, 'w', 00H, 'r', 00H, 'i', 00H, 't'
	DB	00H, 'e', 00H, ' ', 00H, 'p', 00H, 'o', 00H, 'i', 00H, 'n', 00H
	DB	't', 00H, 'e', 00H, 'r', 00H, '"', 00H, 00H, 00H
$SG82461 DB	'.', 00H, '.', 00H, '\', 00H, 't', 00H, 'r', 00H, 'a', 00H
	DB	'n', 00H, 's', 00H, 'i', 00H, 'p', 00H, '.', 00H, 'c', 00H, 'p'
	DB	00H, 'p', 00H, 00H, 00H
	ORG $+2
$SG82462 DB	'"', 00H, 'I', 00H, 'n', 00H, 'v', 00H, 'a', 00H, 'l', 00H
	DB	'i', 00H, 'd', 00H, ' ', 00H, 'r', 00H, 'e', 00H, 'a', 00H, 'd'
	DB	00H, ' ', 00H, 'p', 00H, 'o', 00H, 'i', 00H, 'n', 00H, 't', 00H
	DB	'e', 00H, 'r', 00H, '"', 00H, 00H, 00H
	ORG $+2
$SG82533 DB	'C', 00H, 'T', 00H, 'r', 00H, 'a', 00H, 'n', 00H, 's', 00H
	DB	'I', 00H, 'n', 00H, 'P', 00H, 'l', 00H, 'a', 00H, 'c', 00H, 'e'
	DB	00H, 'O', 00H, 'u', 00H, 't', 00H, 'p', 00H, 'u', 00H, 't', 00H
	DB	'P', 00H, 'i', 00H, 'n', 00H, ':', 00H, ':', 00H, 'C', 00H, 'T'
	DB	00H, 'r', 00H, 'a', 00H, 'n', 00H, 's', 00H, 'I', 00H, 'n', 00H
	DB	'P', 00H, 'l', 00H, 'a', 00H, 'c', 00H, 'e', 00H, 'O', 00H, 'u'
	DB	00H, 't', 00H, 'p', 00H, 'u', 00H, 't', 00H, 'P', 00H, 'i', 00H
	DB	'n', 00H, 00H, 00H
CONST	ENDS
;	COMDAT IID_IAMFilterGraphCallback
CONST	SEGMENT
IID_IAMFilterGraphCallback DD 056a868fdH
	DW	0ad4H
	DW	011ceH
	DB	0b0H
	DB	0a3H
	DB	00H
	DB	020H
	DB	0afH
	DB	0bH
	DB	0a7H
	DB	070H
CONST	ENDS
PUBLIC	??0CTransInPlaceFilter@@QEAA@PEA_WPEAUIUnknown@@AEBU_GUID@@PEAJ_N@Z ; CTransInPlaceFilter::CTransInPlaceFilter
EXTRN	??0CTransformFilter@@QEAA@PEA_WPEAUIUnknown@@AEBU_GUID@@@Z:PROC ; CTransformFilter::CTransformFilter
EXTRN	_RTC_Shutdown:PROC
EXTRN	_RTC_InitBase:PROC
;	COMDAT pdata
; File c:\downloads\wpf mediakit - copy\src\filters\baseclasses\transip.cpp
pdata	SEGMENT
$pdata$??0CTransInPlaceFilter@@QEAA@PEA_WPEAUIUnknown@@AEBU_GUID@@PEAJ_N@Z DD imagerel $LN4
	DD	imagerel $LN4+97
	DD	imagerel $unwind$??0CTransInPlaceFilter@@QEAA@PEA_WPEAUIUnknown@@AEBU_GUID@@PEAJ_N@Z
pdata	ENDS
;	COMDAT xdata
xdata	SEGMENT
$unwind$??0CTransInPlaceFilter@@QEAA@PEA_WPEAUIUnknown@@AEBU_GUID@@PEAJ_N@Z DD 022d01H
	DD	070153219H
xdata	ENDS
;	COMDAT rtc$TMZ
rtc$TMZ	SEGMENT
_RTC_Shutdown.rtc$TMZ DQ FLAT:_RTC_Shutdown
rtc$TMZ	ENDS
;	COMDAT rtc$IMZ
rtc$IMZ	SEGMENT
_RTC_InitBase.rtc$IMZ DQ FLAT:_RTC_InitBase
; Function compile flags: /Odtp /RTCsu
rtc$IMZ	ENDS
;	COMDAT ??0CTransInPlaceFilter@@QEAA@PEA_WPEAUIUnknown@@AEBU_GUID@@PEAJ_N@Z
_TEXT	SEGMENT
this$ = 48
pName$ = 56
pUnk$ = 64
clsid$ = 72
phr$ = 80
bModifiesData$ = 88
??0CTransInPlaceFilter@@QEAA@PEA_WPEAUIUnknown@@AEBU_GUID@@PEAJ_N@Z PROC ; CTransInPlaceFilter::CTransInPlaceFilter, COMDAT
; Line 272
$LN4:
	mov	QWORD PTR [rsp+32], r9
	mov	QWORD PTR [rsp+24], r8
	mov	QWORD PTR [rsp+16], rdx
	mov	QWORD PTR [rsp+8], rcx
	push	rdi
	sub	rsp, 32					; 00000020H
	mov	rdi, rsp
	mov	ecx, 8
	mov	eax, -858993460				; ccccccccH
	rep stosd
	mov	rcx, QWORD PTR [rsp+48]
	mov	r9, QWORD PTR clsid$[rsp]
	mov	r8, QWORD PTR pUnk$[rsp]
	mov	rdx, QWORD PTR pName$[rsp]
	mov	rcx, QWORD PTR this$[rsp]
	call	??0CTransformFilter@@QEAA@PEA_WPEAUIUnknown@@AEBU_GUID@@@Z ; CTransformFilter::CTransformFilter
	mov	rax, QWORD PTR this$[rsp]
	movzx	ecx, BYTE PTR bModifiesData$[rsp]
	mov	BYTE PTR [rax+272], cl
; Line 277
	mov	rax, QWORD PTR this$[rsp]
	add	rsp, 32					; 00000020H
	pop	rdi
	ret	0
??0CTransInPlaceFilter@@QEAA@PEA_WPEAUIUnknown@@AEBU_GUID@@PEAJ_N@Z ENDP ; CTransInPlaceFilter::CTransInPlaceFilter
_TEXT	ENDS
PUBLIC	??0CTransInPlaceFilter@@QEAA@PEADPEAUIUnknown@@AEBU_GUID@@PEAJ_N@Z ; CTransInPlaceFilter::CTransInPlaceFilter
EXTRN	??0CTransformFilter@@QEAA@PEADPEAUIUnknown@@AEBU_GUID@@@Z:PROC ; CTransformFilter::CTransformFilter
;	COMDAT pdata
pdata	SEGMENT
$pdata$??0CTransInPlaceFilter@@QEAA@PEADPEAUIUnknown@@AEBU_GUID@@PEAJ_N@Z DD imagerel $LN4
	DD	imagerel $LN4+97
	DD	imagerel $unwind$??0CTransInPlaceFilter@@QEAA@PEADPEAUIUnknown@@AEBU_GUID@@PEAJ_N@Z
pdata	ENDS
;	COMDAT xdata
xdata	SEGMENT
$unwind$??0CTransInPlaceFilter@@QEAA@PEADPEAUIUnknown@@AEBU_GUID@@PEAJ_N@Z DD 022d01H
	DD	070153219H
; Function compile flags: /Odtp /RTCsu
xdata	ENDS
;	COMDAT ??0CTransInPlaceFilter@@QEAA@PEADPEAUIUnknown@@AEBU_GUID@@PEAJ_N@Z
_TEXT	SEGMENT
this$ = 48
pName$ = 56
pUnk$ = 64
clsid$ = 72
phr$ = 80
bModifiesData$ = 88
??0CTransInPlaceFilter@@QEAA@PEADPEAUIUnknown@@AEBU_GUID@@PEAJ_N@Z PROC ; CTransInPlaceFilter::CTransInPlaceFilter, COMDAT
; Line 289
$LN4:
	mov	QWORD PTR [rsp+32], r9
	mov	QWORD PTR [rsp+24], r8
	mov	QWORD PTR [rsp+16], rdx
	mov	QWORD PTR [rsp+8], rcx
	push	rdi
	sub	rsp, 32					; 00000020H
	mov	rdi, rsp
	mov	ecx, 8
	mov	eax, -858993460				; ccccccccH
	rep stosd
	mov	rcx, QWORD PTR [rsp+48]
	mov	r9, QWORD PTR clsid$[rsp]
	mov	r8, QWORD PTR pUnk$[rsp]
	mov	rdx, QWORD PTR pName$[rsp]
	mov	rcx, QWORD PTR this$[rsp]
	call	??0CTransformFilter@@QEAA@PEADPEAUIUnknown@@AEBU_GUID@@@Z ; CTransformFilter::CTransformFilter
	mov	rax, QWORD PTR this$[rsp]
	movzx	ecx, BYTE PTR bModifiesData$[rsp]
	mov	BYTE PTR [rax+272], cl
; Line 294
	mov	rax, QWORD PTR this$[rsp]
	add	rsp, 32					; 00000020H
	pop	rdi
	ret	0
??0CTransInPlaceFilter@@QEAA@PEADPEAUIUnknown@@AEBU_GUID@@PEAJ_N@Z ENDP ; CTransInPlaceFilter::CTransInPlaceFilter
_TEXT	ENDS
PUBLIC	??0CTransInPlaceOutputPin@@QEAA@PEA_WPEAVCTransInPlaceFilter@@PEAJPEB_W@Z ; CTransInPlaceOutputPin::CTransInPlaceOutputPin
PUBLIC	??0CTransInPlaceInputPin@@QEAA@PEA_WPEAVCTransInPlaceFilter@@PEAJPEB_W@Z ; CTransInPlaceInputPin::CTransInPlaceInputPin
PUBLIC	?GetPin@CTransInPlaceFilter@@UEAAPEAVCBasePin@@H@Z ; CTransInPlaceFilter::GetPin
EXTRN	__CxxFrameHandler3:PROC
EXTRN	??3@YAXPEAX@Z:PROC				; operator delete
EXTRN	?DbgAssert@@YAXPEB_W0H@Z:PROC			; DbgAssert
EXTRN	??2@YAPEAX_K@Z:PROC				; operator new
EXTRN	_RTC_CheckStackVars:PROC
;	COMDAT pdata
pdata	SEGMENT
$pdata$?GetPin@CTransInPlaceFilter@@UEAAPEAVCBasePin@@H@Z DD imagerel $LN22
	DD	imagerel $LN22+680
	DD	imagerel $unwind$?GetPin@CTransInPlaceFilter@@UEAAPEAVCBasePin@@H@Z
pdata	ENDS
;	COMDAT pdata
pdata	SEGMENT
$pdata$?dtor$0@?0??GetPin@CTransInPlaceFilter@@UEAAPEAVCBasePin@@H@Z@4HA DD imagerel ?dtor$0@?0??GetPin@CTransInPlaceFilter@@UEAAPEAVCBasePin@@H@Z@4HA
	DD	imagerel ?dtor$0@?0??GetPin@CTransInPlaceFilter@@UEAAPEAVCBasePin@@H@Z@4HA+35
	DD	imagerel $unwind$?dtor$0@?0??GetPin@CTransInPlaceFilter@@UEAAPEAVCBasePin@@H@Z@4HA
pdata	ENDS
;	COMDAT pdata
pdata	SEGMENT
$pdata$?dtor$1@?0??GetPin@CTransInPlaceFilter@@UEAAPEAVCBasePin@@H@Z@4HA DD imagerel ?dtor$1@?0??GetPin@CTransInPlaceFilter@@UEAAPEAVCBasePin@@H@Z@4HA
	DD	imagerel ?dtor$1@?0??GetPin@CTransInPlaceFilter@@UEAAPEAVCBasePin@@H@Z@4HA+35
	DD	imagerel $unwind$?dtor$1@?0??GetPin@CTransInPlaceFilter@@UEAAPEAVCBasePin@@H@Z@4HA
pdata	ENDS
;	COMDAT xdata
xdata	SEGMENT
$ip2state$?GetPin@CTransInPlaceFilter@@UEAAPEAVCBasePin@@H@Z DD imagerel ?GetPin@CTransInPlaceFilter@@UEAAPEAVCBasePin@@H@Z
	DD	0ffffffffH
	DD	imagerel ?GetPin@CTransInPlaceFilter@@UEAAPEAVCBasePin@@H@Z+94
	DD	00H
	DD	imagerel ?GetPin@CTransInPlaceFilter@@UEAAPEAVCBasePin@@H@Z+179
	DD	0ffffffffH
	DD	imagerel ?GetPin@CTransInPlaceFilter@@UEAAPEAVCBasePin@@H@Z+290
	DD	01H
	DD	imagerel ?GetPin@CTransInPlaceFilter@@UEAAPEAVCBasePin@@H@Z+375
	DD	0ffffffffH
xdata	ENDS
;	COMDAT xdata
xdata	SEGMENT
$unwind$?dtor$1@?0??GetPin@CTransInPlaceFilter@@UEAAPEAVCBasePin@@H@Z@4HA DD 031001H
	DD	0700c4210H
	DD	0500bH
xdata	ENDS
;	COMDAT xdata
xdata	SEGMENT
$unwind$?dtor$0@?0??GetPin@CTransInPlaceFilter@@UEAAPEAVCBasePin@@H@Z@4HA DD 031001H
	DD	0700c4210H
	DD	0500bH
xdata	ENDS
;	COMDAT xdata
xdata	SEGMENT
$unwind$?GetPin@CTransInPlaceFilter@@UEAAPEAVCBasePin@@H@Z DD 033111H
	DD	0140111H
	DD	0700aH
	DD	imagerel __CxxFrameHandler3
	DD	imagerel $cppxdata$?GetPin@CTransInPlaceFilter@@UEAAPEAVCBasePin@@H@Z
xdata	ENDS
;	COMDAT xdata
xdata	SEGMENT
$stateUnwindMap$?GetPin@CTransInPlaceFilter@@UEAAPEAVCBasePin@@H@Z DD 0ffffffffH
	DD	imagerel ?dtor$0@?0??GetPin@CTransInPlaceFilter@@UEAAPEAVCBasePin@@H@Z@4HA
	DD	0ffffffffH
	DD	imagerel ?dtor$1@?0??GetPin@CTransInPlaceFilter@@UEAAPEAVCBasePin@@H@Z@4HA
xdata	ENDS
;	COMDAT CONST
CONST	SEGMENT
?GetPin@CTransInPlaceFilter@@UEAAPEAVCBasePin@@H@Z$rtcName$0 DB 068H ; CTransInPlaceFilter::GetPin
	DB	072H
	DB	00H
	ORG $+13
?GetPin@CTransInPlaceFilter@@UEAAPEAVCBasePin@@H@Z$rtcVarDesc DD 034H ; CTransInPlaceFilter::GetPin
	DD	04H
	DQ	FLAT:?GetPin@CTransInPlaceFilter@@UEAAPEAVCBasePin@@H@Z$rtcName$0
	ORG $+48
?GetPin@CTransInPlaceFilter@@UEAAPEAVCBasePin@@H@Z$rtcFrameData DD 01H ; CTransInPlaceFilter::GetPin
	DD	00H
	DQ	FLAT:?GetPin@CTransInPlaceFilter@@UEAAPEAVCBasePin@@H@Z$rtcVarDesc
$cppxdata$?GetPin@CTransInPlaceFilter@@UEAAPEAVCBasePin@@H@Z DD 019930522H
	DD	02H
	DD	imagerel $stateUnwindMap$?GetPin@CTransInPlaceFilter@@UEAAPEAVCBasePin@@H@Z
	DD	00H
	DD	00H
	DD	05H
	DD	imagerel $ip2state$?GetPin@CTransInPlaceFilter@@UEAAPEAVCBasePin@@H@Z
	DD	078H
	DD	00H
	DD	01H
; Function compile flags: /Odtp /RTCsu
CONST	ENDS
;	COMDAT ?GetPin@CTransInPlaceFilter@@UEAAPEAVCBasePin@@H@Z
_TEXT	SEGMENT
hr$ = 52
$T83403 = 72
$T83404 = 80
$T83407 = 88
$T83408 = 96
$T83411 = 104
$T83412 = 112
$T83422 = 120
tv89 = 128
tv157 = 136
tv183 = 144
this$ = 176
n$ = 184
?GetPin@CTransInPlaceFilter@@UEAAPEAVCBasePin@@H@Z PROC	; CTransInPlaceFilter::GetPin, COMDAT
; Line 309
$LN22:
	mov	DWORD PTR [rsp+16], edx
	mov	QWORD PTR [rsp+8], rcx
	push	rdi
	sub	rsp, 160				; 000000a0H
	mov	rdi, rsp
	mov	ecx, 40					; 00000028H
	mov	eax, -858993460				; ccccccccH
	rep stosd
	mov	rcx, QWORD PTR [rsp+176]
	mov	QWORD PTR $T83422[rsp], -2
; Line 310
	mov	DWORD PTR hr$[rsp], 0
; Line 314
	mov	rax, QWORD PTR this$[rsp]
	cmp	QWORD PTR [rax+256], 0
	jne	$LN11@GetPin
; Line 320
	mov	ecx, 344				; 00000158H
	call	??2@YAPEAX_K@Z				; operator new
	mov	QWORD PTR $T83404[rsp], rax
	cmp	QWORD PTR $T83404[rsp], 0
	je	SHORT $LN14@GetPin
	lea	rax, OFFSET FLAT:$SG82260
	mov	QWORD PTR [rsp+32], rax
	lea	r9, QWORD PTR hr$[rsp]
	mov	r8, QWORD PTR this$[rsp]
	lea	rdx, OFFSET FLAT:$SG82261
	mov	rcx, QWORD PTR $T83404[rsp]
	call	??0CTransInPlaceInputPin@@QEAA@PEA_WPEAVCTransInPlaceFilter@@PEAJPEB_W@Z ; CTransInPlaceInputPin::CTransInPlaceInputPin
	mov	QWORD PTR tv89[rsp], rax
	jmp	SHORT $LN15@GetPin
$LN14@GetPin:
	mov	QWORD PTR tv89[rsp], 0
$LN15@GetPin:
	mov	rax, QWORD PTR tv89[rsp]
	mov	QWORD PTR $T83403[rsp], rax
	mov	rax, QWORD PTR this$[rsp]
	mov	rcx, QWORD PTR $T83403[rsp]
	mov	QWORD PTR [rax+256], rcx
; Line 323
	cmp	DWORD PTR hr$[rsp], 0
	jge	SHORT $LN11@GetPin
	mov	r8d, 323				; 00000143H
	lea	rdx, OFFSET FLAT:$SG82264
	lea	rcx, OFFSET FLAT:$SG82265
	call	?DbgAssert@@YAXPEB_W0H@Z		; DbgAssert
$LN11@GetPin:
; Line 328
	mov	rax, QWORD PTR this$[rsp]
	cmp	QWORD PTR [rax+256], 0
	je	$LN9@GetPin
	mov	rax, QWORD PTR this$[rsp]
	cmp	QWORD PTR [rax+264], 0
	jne	$LN9@GetPin
; Line 334
	mov	ecx, 272				; 00000110H
	call	??2@YAPEAX_K@Z				; operator new
	mov	QWORD PTR $T83408[rsp], rax
	cmp	QWORD PTR $T83408[rsp], 0
	je	SHORT $LN16@GetPin
	lea	rax, OFFSET FLAT:$SG82271
	mov	QWORD PTR [rsp+32], rax
	lea	r9, QWORD PTR hr$[rsp]
	mov	r8, QWORD PTR this$[rsp]
	lea	rdx, OFFSET FLAT:$SG82272
	mov	rcx, QWORD PTR $T83408[rsp]
	call	??0CTransInPlaceOutputPin@@QEAA@PEA_WPEAVCTransInPlaceFilter@@PEAJPEB_W@Z ; CTransInPlaceOutputPin::CTransInPlaceOutputPin
	mov	QWORD PTR tv157[rsp], rax
	jmp	SHORT $LN17@GetPin
$LN16@GetPin:
	mov	QWORD PTR tv157[rsp], 0
$LN17@GetPin:
	mov	rax, QWORD PTR tv157[rsp]
	mov	QWORD PTR $T83407[rsp], rax
	mov	rax, QWORD PTR this$[rsp]
	mov	rcx, QWORD PTR $T83407[rsp]
	mov	QWORD PTR [rax+264], rcx
; Line 338
	cmp	DWORD PTR hr$[rsp], 0
	jge	SHORT $LN8@GetPin
	mov	r8d, 338				; 00000152H
	lea	rdx, OFFSET FLAT:$SG82275
	lea	rcx, OFFSET FLAT:$SG82276
	call	?DbgAssert@@YAXPEB_W0H@Z		; DbgAssert
$LN8@GetPin:
; Line 339
	mov	rax, QWORD PTR this$[rsp]
	cmp	QWORD PTR [rax+264], 0
	jne	SHORT $LN9@GetPin
; Line 340
	mov	rax, QWORD PTR this$[rsp]
	mov	rax, QWORD PTR [rax+256]
	mov	QWORD PTR $T83412[rsp], rax
	mov	rax, QWORD PTR $T83412[rsp]
	mov	QWORD PTR $T83411[rsp], rax
	cmp	QWORD PTR $T83411[rsp], 0
	je	SHORT $LN18@GetPin
	mov	rax, QWORD PTR $T83411[rsp]
	mov	rax, QWORD PTR [rax]
	mov	edx, 1
	mov	rcx, QWORD PTR $T83411[rsp]
	call	QWORD PTR [rax+24]
	mov	QWORD PTR tv183[rsp], rax
	jmp	SHORT $LN19@GetPin
$LN18@GetPin:
	mov	QWORD PTR tv183[rsp], 0
$LN19@GetPin:
; Line 341
	mov	rax, QWORD PTR this$[rsp]
	mov	QWORD PTR [rax+256], 0
$LN9@GetPin:
; Line 347
	cmp	DWORD PTR n$[rsp], 0
	jl	SHORT $LN5@GetPin
	cmp	DWORD PTR n$[rsp], 1
	jle	SHORT $LN6@GetPin
$LN5@GetPin:
	mov	r8d, 347				; 0000015bH
	lea	rdx, OFFSET FLAT:$SG82282
	lea	rcx, OFFSET FLAT:$SG82283
	call	?DbgAssert@@YAXPEB_W0H@Z		; DbgAssert
$LN6@GetPin:
; Line 348
	cmp	DWORD PTR n$[rsp], 0
	jne	SHORT $LN4@GetPin
; Line 349
	mov	rax, QWORD PTR this$[rsp]
	mov	rax, QWORD PTR [rax+256]
	jmp	SHORT $LN12@GetPin
	jmp	SHORT $LN12@GetPin
$LN4@GetPin:
; Line 350
	cmp	DWORD PTR n$[rsp], 1
	jne	SHORT $LN2@GetPin
; Line 351
	mov	rax, QWORD PTR this$[rsp]
	mov	rax, QWORD PTR [rax+264]
	jmp	SHORT $LN12@GetPin
; Line 352
	jmp	SHORT $LN12@GetPin
$LN2@GetPin:
; Line 353
	xor	eax, eax
$LN12@GetPin:
; Line 356
	mov	rdi, rax
	mov	rcx, rsp
	lea	rdx, OFFSET FLAT:?GetPin@CTransInPlaceFilter@@UEAAPEAVCBasePin@@H@Z$rtcFrameData
	call	_RTC_CheckStackVars
	mov	rax, rdi
	add	rsp, 160				; 000000a0H
	pop	rdi
	ret	0
?GetPin@CTransInPlaceFilter@@UEAAPEAVCBasePin@@H@Z ENDP	; CTransInPlaceFilter::GetPin
; Function compile flags: /Odtp /RTCsu
_TEXT	ENDS
;	COMDAT text$x
text$x	SEGMENT
hr$ = 52
$T83403 = 72
$T83404 = 80
$T83407 = 88
$T83408 = 96
$T83411 = 104
$T83412 = 112
$T83422 = 120
tv89 = 128
tv157 = 136
tv183 = 144
this$ = 176
n$ = 184
?dtor$0@?0??GetPin@CTransInPlaceFilter@@UEAAPEAVCBasePin@@H@Z@4HA PROC ; `CTransInPlaceFilter::GetPin'::`1'::dtor$0
	mov	QWORD PTR [rsp+8], rcx
	mov	QWORD PTR [rsp+16], rdx
	push	rbp
	push	rdi
	sub	rsp, 40					; 00000028H
	mov	rbp, rdx
	mov	rcx, QWORD PTR $T83404[rbp]
	call	??3@YAXPEAX@Z				; operator delete
	add	rsp, 40					; 00000028H
	pop	rdi
	pop	rbp
	ret	0
?dtor$0@?0??GetPin@CTransInPlaceFilter@@UEAAPEAVCBasePin@@H@Z@4HA ENDP ; `CTransInPlaceFilter::GetPin'::`1'::dtor$0
; Function compile flags: /Odtp /RTCsu
hr$ = 52
$T83403 = 72
$T83404 = 80
$T83407 = 88
$T83408 = 96
$T83411 = 104
$T83412 = 112
$T83422 = 120
tv89 = 128
tv157 = 136
tv183 = 144
this$ = 176
n$ = 184
?dtor$1@?0??GetPin@CTransInPlaceFilter@@UEAAPEAVCBasePin@@H@Z@4HA PROC ; `CTransInPlaceFilter::GetPin'::`1'::dtor$1
	mov	QWORD PTR [rsp+8], rcx
	mov	QWORD PTR [rsp+16], rdx
	push	rbp
	push	rdi
	sub	rsp, 40					; 00000028H
	mov	rbp, rdx
	mov	rcx, QWORD PTR $T83408[rbp]
	call	??3@YAXPEAX@Z				; operator delete
	add	rsp, 40					; 00000028H
	pop	rdi
	pop	rbp
	ret	0
?dtor$1@?0??GetPin@CTransInPlaceFilter@@UEAAPEAVCBasePin@@H@Z@4HA ENDP ; `CTransInPlaceFilter::GetPin'::`1'::dtor$1
text$x	ENDS
PUBLIC	?CurrentMediaType@CTransformInputPin@@QEAAAEAVCMediaType@@XZ ; CTransformInputPin::CurrentMediaType
PUBLIC	?CurrentMediaType@CTransformOutputPin@@QEAAAEAVCMediaType@@XZ ; CTransformOutputPin::CurrentMediaType
PUBLIC	?IsConnected@CBasePin@@QEAAHXZ			; CBasePin::IsConnected
PUBLIC	?CompleteConnect@CTransInPlaceFilter@@UEAAJW4_PinDirection@@PEAUIPin@@@Z ; CTransInPlaceFilter::CompleteConnect
EXTRN	??9CMediaType@@QEBAHAEBV0@@Z:PROC		; CMediaType::operator!=
EXTRN	?ReconnectPin@CBaseFilter@@QEAAJPEAUIPin@@PEBU_AMMediaType@@@Z:PROC ; CBaseFilter::ReconnectPin
;	COMDAT pdata
pdata	SEGMENT
$pdata$?CompleteConnect@CTransInPlaceFilter@@UEAAJW4_PinDirection@@PEAUIPin@@@Z DD imagerel $LN15
	DD	imagerel $LN15+477
	DD	imagerel $unwind$?CompleteConnect@CTransInPlaceFilter@@UEAAJW4_PinDirection@@PEAUIPin@@@Z
pdata	ENDS
;	COMDAT xdata
xdata	SEGMENT
$unwind$?CompleteConnect@CTransInPlaceFilter@@UEAAJW4_PinDirection@@PEAUIPin@@@Z DD 022701H
	DD	0700f9213H
; Function compile flags: /Odtp /RTCsu
xdata	ENDS
;	COMDAT ?CompleteConnect@CTransInPlaceFilter@@UEAAJW4_PinDirection@@PEAUIPin@@@Z
_TEXT	SEGMENT
tv161 = 32
tv160 = 40
tv195 = 48
tv226 = 56
tv225 = 64
this$ = 96
dir$ = 104
pReceivePin$ = 112
?CompleteConnect@CTransInPlaceFilter@@UEAAJW4_PinDirection@@PEAUIPin@@@Z PROC ; CTransInPlaceFilter::CompleteConnect, COMDAT
; Line 363
$LN15:
	mov	QWORD PTR [rsp+24], r8
	mov	DWORD PTR [rsp+16], edx
	mov	QWORD PTR [rsp+8], rcx
	push	rdi
	sub	rsp, 80					; 00000050H
	mov	rdi, rsp
	mov	ecx, 20
	mov	eax, -858993460				; ccccccccH
	rep stosd
	mov	rcx, QWORD PTR [rsp+96]
; Line 365
	mov	rax, QWORD PTR this$[rsp]
	cmp	QWORD PTR [rax+256], 0
	jne	SHORT $LN8@CompleteCo
	mov	r8d, 365				; 0000016dH
	lea	rdx, OFFSET FLAT:$SG82294
	lea	rcx, OFFSET FLAT:$SG82295
	call	?DbgAssert@@YAXPEB_W0H@Z		; DbgAssert
$LN8@CompleteCo:
; Line 366
	mov	rax, QWORD PTR this$[rsp]
	cmp	QWORD PTR [rax+264], 0
	jne	SHORT $LN7@CompleteCo
	mov	r8d, 366				; 0000016eH
	lea	rdx, OFFSET FLAT:$SG82297
	lea	rcx, OFFSET FLAT:$SG82298
	call	?DbgAssert@@YAXPEB_W0H@Z		; DbgAssert
$LN7@CompleteCo:
; Line 370
	mov	rax, QWORD PTR this$[rsp]
	cmp	QWORD PTR [rax+104], 0
	jne	SHORT $LN6@CompleteCo
; Line 371
	mov	eax, -2147220897			; ffffffff8004025fH
	jmp	$LN9@CompleteCo
$LN6@CompleteCo:
; Line 384
	cmp	DWORD PTR dir$[rsp], 1
	jne	SHORT $LN5@CompleteCo
; Line 385
	mov	rax, QWORD PTR this$[rsp]
	mov	rcx, QWORD PTR [rax+256]
	call	?IsConnected@CBasePin@@QEAAHXZ		; CBasePin::IsConnected
	test	eax, eax
	je	SHORT $LN4@CompleteCo
; Line 386
	mov	rax, QWORD PTR this$[rsp]
	mov	rax, QWORD PTR [rax+256]
	mov	QWORD PTR tv161[rsp], rax
	cmp	QWORD PTR tv161[rsp], 0
	je	SHORT $LN11@CompleteCo
	mov	rax, QWORD PTR tv161[rsp]
	add	rax, 32					; 00000020H
	mov	QWORD PTR tv160[rsp], rax
	jmp	SHORT $LN12@CompleteCo
$LN11@CompleteCo:
	mov	QWORD PTR tv160[rsp], 0
$LN12@CompleteCo:
	mov	rax, QWORD PTR this$[rsp]
	mov	rcx, QWORD PTR [rax+264]
	call	?CurrentMediaType@CTransformOutputPin@@QEAAAEAVCMediaType@@XZ ; CTransformOutputPin::CurrentMediaType
	mov	r8, rax
	mov	rdx, QWORD PTR tv160[rsp]
	mov	rcx, QWORD PTR this$[rsp]
	call	?ReconnectPin@CBaseFilter@@QEAAJPEAUIPin@@PEBU_AMMediaType@@@Z ; CBaseFilter::ReconnectPin
	jmp	$LN9@CompleteCo
$LN4@CompleteCo:
; Line 388
	xor	eax, eax
	jmp	$LN9@CompleteCo
$LN5@CompleteCo:
; Line 391
	cmp	DWORD PTR dir$[rsp], 0
	je	SHORT $LN3@CompleteCo
	mov	r8d, 391				; 00000187H
	lea	rdx, OFFSET FLAT:$SG82304
	lea	rcx, OFFSET FLAT:$SG82305
	call	?DbgAssert@@YAXPEB_W0H@Z		; DbgAssert
$LN3@CompleteCo:
; Line 395
	mov	rax, QWORD PTR this$[rsp]
	mov	rcx, QWORD PTR [rax+264]
	call	?IsConnected@CBasePin@@QEAAHXZ		; CBasePin::IsConnected
	test	eax, eax
	je	$LN2@CompleteCo
; Line 399
	mov	rax, QWORD PTR this$[rsp]
	mov	rcx, QWORD PTR [rax+264]
	call	?CurrentMediaType@CTransformOutputPin@@QEAAAEAVCMediaType@@XZ ; CTransformOutputPin::CurrentMediaType
	mov	QWORD PTR tv195[rsp], rax
	mov	rcx, QWORD PTR this$[rsp]
	mov	rcx, QWORD PTR [rcx+256]
	call	?CurrentMediaType@CTransformInputPin@@QEAAAEAVCMediaType@@XZ ; CTransformInputPin::CurrentMediaType
	mov	rcx, QWORD PTR tv195[rsp]
	mov	rdx, rcx
	mov	rcx, rax
	call	??9CMediaType@@QEBAHAEBV0@@Z		; CMediaType::operator!=
	test	eax, eax
	je	SHORT $LN1@CompleteCo
; Line 400
	mov	rax, QWORD PTR this$[rsp]
	mov	rax, QWORD PTR [rax+264]
	mov	QWORD PTR tv226[rsp], rax
	cmp	QWORD PTR tv226[rsp], 0
	je	SHORT $LN13@CompleteCo
	mov	rax, QWORD PTR tv226[rsp]
	add	rax, 32					; 00000020H
	mov	QWORD PTR tv225[rsp], rax
	jmp	SHORT $LN14@CompleteCo
$LN13@CompleteCo:
	mov	QWORD PTR tv225[rsp], 0
$LN14@CompleteCo:
	mov	rax, QWORD PTR this$[rsp]
	mov	rcx, QWORD PTR [rax+256]
	call	?CurrentMediaType@CTransformInputPin@@QEAAAEAVCMediaType@@XZ ; CTransformInputPin::CurrentMediaType
	mov	r8, rax
	mov	rdx, QWORD PTR tv225[rsp]
	mov	rcx, QWORD PTR this$[rsp]
	call	?ReconnectPin@CBaseFilter@@QEAAJPEAUIPin@@PEBU_AMMediaType@@@Z ; CBaseFilter::ReconnectPin
	jmp	SHORT $LN9@CompleteCo
$LN1@CompleteCo:
$LN2@CompleteCo:
; Line 403
	xor	eax, eax
$LN9@CompleteCo:
; Line 405
	add	rsp, 80					; 00000050H
	pop	rdi
	ret	0
?CompleteConnect@CTransInPlaceFilter@@UEAAJW4_PinDirection@@PEAUIPin@@@Z ENDP ; CTransInPlaceFilter::CompleteConnect
_TEXT	ENDS
;	COMDAT pdata
; File c:\downloads\wpf mediakit - copy\src\filters\baseclasses\amfilter.h
pdata	SEGMENT
$pdata$?IsConnected@CBasePin@@QEAAHXZ DD imagerel $LN5
	DD	imagerel $LN5+67
	DD	imagerel $unwind$?IsConnected@CBasePin@@QEAAHXZ
pdata	ENDS
;	COMDAT xdata
xdata	SEGMENT
$unwind$?IsConnected@CBasePin@@QEAAHXZ DD 021e01H
	DD	07006120aH
; Function compile flags: /Odtp /RTCsu
xdata	ENDS
;	COMDAT ?IsConnected@CBasePin@@QEAAHXZ
_TEXT	SEGMENT
tv66 = 0
this$ = 32
?IsConnected@CBasePin@@QEAAHXZ PROC			; CBasePin::IsConnected, COMDAT
; Line 499
$LN5:
	mov	QWORD PTR [rsp+8], rcx
	push	rdi
	sub	rsp, 16
	mov	rdi, rsp
	mov	ecx, 4
	mov	eax, -858993460				; ccccccccH
	rep stosd
	mov	rcx, QWORD PTR [rsp+32]
	mov	rax, QWORD PTR this$[rsp]
	cmp	QWORD PTR [rax+56], 0
	je	SHORT $LN3@IsConnecte
	mov	DWORD PTR tv66[rsp], 1
	jmp	SHORT $LN4@IsConnecte
$LN3@IsConnecte:
	mov	DWORD PTR tv66[rsp], 0
$LN4@IsConnecte:
	mov	eax, DWORD PTR tv66[rsp]
	add	rsp, 16
	pop	rdi
	ret	0
?IsConnected@CBasePin@@QEAAHXZ ENDP			; CBasePin::IsConnected
_TEXT	ENDS
;	COMDAT pdata
; File c:\downloads\wpf mediakit - copy\src\filters\baseclasses\transfrm.h
pdata	SEGMENT
$pdata$?CurrentMediaType@CTransformInputPin@@QEAAAEAVCMediaType@@XZ DD imagerel $LN3
	DD	imagerel $LN3+17
	DD	imagerel $unwind$?CurrentMediaType@CTransformInputPin@@QEAAAEAVCMediaType@@XZ
pdata	ENDS
;	COMDAT xdata
xdata	SEGMENT
$unwind$?CurrentMediaType@CTransformInputPin@@QEAAAEAVCMediaType@@XZ DD 010601H
	DD	07006H
; Function compile flags: /Odtp /RTCsu
xdata	ENDS
;	COMDAT ?CurrentMediaType@CTransformInputPin@@QEAAAEAVCMediaType@@XZ
_TEXT	SEGMENT
this$ = 16
?CurrentMediaType@CTransformInputPin@@QEAAAEAVCMediaType@@XZ PROC ; CTransformInputPin::CurrentMediaType, COMDAT
; Line 100
$LN3:
	mov	QWORD PTR [rsp+8], rcx
	push	rdi
	mov	rax, QWORD PTR this$[rsp]
	add	rax, 112				; 00000070H
	pop	rdi
	ret	0
?CurrentMediaType@CTransformInputPin@@QEAAAEAVCMediaType@@XZ ENDP ; CTransformInputPin::CurrentMediaType
_TEXT	ENDS
;	COMDAT pdata
pdata	SEGMENT
$pdata$?CurrentMediaType@CTransformOutputPin@@QEAAAEAVCMediaType@@XZ DD imagerel $LN3
	DD	imagerel $LN3+17
	DD	imagerel $unwind$?CurrentMediaType@CTransformOutputPin@@QEAAAEAVCMediaType@@XZ
pdata	ENDS
;	COMDAT xdata
xdata	SEGMENT
$unwind$?CurrentMediaType@CTransformOutputPin@@QEAAAEAVCMediaType@@XZ DD 010601H
	DD	07006H
; Function compile flags: /Odtp /RTCsu
xdata	ENDS
;	COMDAT ?CurrentMediaType@CTransformOutputPin@@QEAAAEAVCMediaType@@XZ
_TEXT	SEGMENT
this$ = 16
?CurrentMediaType@CTransformOutputPin@@QEAAAEAVCMediaType@@XZ PROC ; CTransformOutputPin::CurrentMediaType, COMDAT
; Line 170
$LN3:
	mov	QWORD PTR [rsp+8], rcx
	push	rdi
	mov	rax, QWORD PTR this$[rsp]
	add	rax, 112				; 00000070H
	pop	rdi
	ret	0
?CurrentMediaType@CTransformOutputPin@@QEAAAEAVCMediaType@@XZ ENDP ; CTransformOutputPin::CurrentMediaType
_TEXT	ENDS
PUBLIC	?PeekAllocator@CTransInPlaceInputPin@@QEBAPEAUIMemAllocator@@XZ ; CTransInPlaceInputPin::PeekAllocator
PUBLIC	?InputPin@CTransInPlaceFilter@@IEBAPEAVCTransInPlaceInputPin@@XZ ; CTransInPlaceFilter::InputPin
PUBLIC	__$ArrayPad$
PUBLIC	?DecideBufferSize@CTransInPlaceFilter@@UEAAJPEAUIMemAllocator@@PEAU_AllocatorProperties@@@Z ; CTransInPlaceFilter::DecideBufferSize
EXTRN	__GSHandlerCheck:PROC
EXTRN	?DbgLogInfo@@YAXKKPEB_WZZ:PROC			; DbgLogInfo
EXTRN	memset:PROC
EXTRN	__security_cookie:QWORD
EXTRN	__security_check_cookie:PROC
;	COMDAT pdata
; File c:\downloads\wpf mediakit - copy\src\filters\baseclasses\transip.cpp
pdata	SEGMENT
$pdata$?DecideBufferSize@CTransInPlaceFilter@@UEAAJPEAUIMemAllocator@@PEAU_AllocatorProperties@@@Z DD imagerel $LN11
	DD	imagerel $LN11+577
	DD	imagerel $unwind$?DecideBufferSize@CTransInPlaceFilter@@UEAAJPEAUIMemAllocator@@PEAU_AllocatorProperties@@@Z
pdata	ENDS
;	COMDAT xdata
xdata	SEGMENT
$unwind$?DecideBufferSize@CTransInPlaceFilter@@UEAAJPEAUIMemAllocator@@PEAU_AllocatorProperties@@@Z DD 034019H
	DD	0140117H
	DD	07010H
	DD	imagerel __GSHandlerCheck
	DD	098H
xdata	ENDS
;	COMDAT CONST
CONST	SEGMENT
?DecideBufferSize@CTransInPlaceFilter@@UEAAJPEAUIMemAllocator@@PEAU_AllocatorProperties@@@Z$rtcName$0 DB 052H ; CTransInPlaceFilter::DecideBufferSize
	DB	065H
	DB	071H
	DB	075H
	DB	065H
	DB	073H
	DB	074H
	DB	00H
?DecideBufferSize@CTransInPlaceFilter@@UEAAJPEAUIMemAllocator@@PEAU_AllocatorProperties@@@Z$rtcName$1 DB 041H ; CTransInPlaceFilter::DecideBufferSize
	DB	063H
	DB	074H
	DB	075H
	DB	061H
	DB	06cH
	DB	00H
	ORG $+1
?DecideBufferSize@CTransInPlaceFilter@@UEAAJPEAUIMemAllocator@@PEAU_AllocatorProperties@@@Z$rtcVarDesc DD 068H ; CTransInPlaceFilter::DecideBufferSize
	DD	010H
	DQ	FLAT:?DecideBufferSize@CTransInPlaceFilter@@UEAAJPEAUIMemAllocator@@PEAU_AllocatorProperties@@@Z$rtcName$1
	DD	038H
	DD	010H
	DQ	FLAT:?DecideBufferSize@CTransInPlaceFilter@@UEAAJPEAUIMemAllocator@@PEAU_AllocatorProperties@@@Z$rtcName$0
	ORG $+96
?DecideBufferSize@CTransInPlaceFilter@@UEAAJPEAUIMemAllocator@@PEAU_AllocatorProperties@@@Z$rtcFrameData DD 02H ; CTransInPlaceFilter::DecideBufferSize
	DD	00H
	DQ	FLAT:?DecideBufferSize@CTransInPlaceFilter@@UEAAJPEAUIMemAllocator@@PEAU_AllocatorProperties@@@Z$rtcVarDesc
; Function compile flags: /Odtp /RTCsu
CONST	ENDS
;	COMDAT ?DecideBufferSize@CTransInPlaceFilter@@UEAAJPEAUIMemAllocator@@PEAU_AllocatorProperties@@@Z
_TEXT	SEGMENT
Request$ = 56
Actual$ = 104
hr$ = 132
tv81 = 144
__$ArrayPad$ = 152
this$ = 176
pAlloc$ = 184
pProperties$ = 192
?DecideBufferSize@CTransInPlaceFilter@@UEAAJPEAUIMemAllocator@@PEAU_AllocatorProperties@@@Z PROC ; CTransInPlaceFilter::DecideBufferSize, COMDAT
; Line 419
$LN11:
	mov	QWORD PTR [rsp+24], r8
	mov	QWORD PTR [rsp+16], rdx
	mov	QWORD PTR [rsp+8], rcx
	push	rdi
	sub	rsp, 160				; 000000a0H
	mov	rdi, rsp
	mov	ecx, 40					; 00000028H
	mov	eax, -858993460				; ccccccccH
	rep stosd
	mov	rcx, QWORD PTR [rsp+176]
	mov	rax, QWORD PTR __security_cookie
	xor	rax, rsp
	mov	QWORD PTR __$ArrayPad$[rsp], rax
; Line 424
	mov	rax, QWORD PTR this$[rsp]
	mov	rcx, QWORD PTR [rax+256]
	call	?IsConnected@CBasePin@@QEAAHXZ		; CBasePin::IsConnected
	test	eax, eax
	je	SHORT $LN8@DecideBuff
; Line 428
	mov	rcx, QWORD PTR this$[rsp]
	call	?InputPin@CTransInPlaceFilter@@IEBAPEAVCTransInPlaceInputPin@@XZ ; CTransInPlaceFilter::InputPin
	mov	rcx, rax
	call	?PeekAllocator@CTransInPlaceInputPin@@QEBAPEAUIMemAllocator@@XZ ; CTransInPlaceInputPin::PeekAllocator
	mov	QWORD PTR tv81[rsp], rax
	mov	rax, QWORD PTR tv81[rsp]
	mov	rax, QWORD PTR [rax]
	lea	rdx, QWORD PTR Request$[rsp]
	mov	rcx, QWORD PTR tv81[rsp]
	call	QWORD PTR [rax+32]
	mov	DWORD PTR hr$[rsp], eax
; Line 429
	cmp	DWORD PTR hr$[rsp], 0
	jge	SHORT $LN7@DecideBuff
; Line 431
	mov	eax, DWORD PTR hr$[rsp]
	jmp	$LN9@DecideBuff
$LN7@DecideBuff:
; Line 433
	jmp	SHORT $LN6@DecideBuff
$LN8@DecideBuff:
; Line 437
	mov	r8d, 16
	xor	edx, edx
	lea	rcx, QWORD PTR Request$[rsp]
	call	memset
; Line 438
	mov	DWORD PTR Request$[rsp], 1
; Line 439
	mov	DWORD PTR Request$[rsp+4], 1
$LN6@DecideBuff:
; Line 443
	lea	r8, OFFSET FLAT:$SG82320
	mov	edx, 1
	mov	ecx, 4
	call	?DbgLogInfo@@YAXKKPEB_WZZ		; DbgLogInfo
; Line 445
	mov	eax, DWORD PTR Request$[rsp+4]
	mov	DWORD PTR [rsp+32], eax
	mov	r9d, DWORD PTR Request$[rsp]
	lea	r8, OFFSET FLAT:$SG82321
	mov	edx, 1
	mov	ecx, 4
	call	?DbgLogInfo@@YAXKKPEB_WZZ		; DbgLogInfo
; Line 451
	mov	rax, QWORD PTR pProperties$[rsp]
	mov	ecx, DWORD PTR Request$[rsp]
	mov	DWORD PTR [rax], ecx
; Line 452
	mov	rax, QWORD PTR pProperties$[rsp]
	mov	ecx, DWORD PTR Request$[rsp+4]
	mov	DWORD PTR [rax+4], ecx
; Line 453
	mov	rax, QWORD PTR pProperties$[rsp]
	mov	ecx, DWORD PTR Request$[rsp+8]
	mov	DWORD PTR [rax+8], ecx
; Line 454
	mov	rax, QWORD PTR pProperties$[rsp]
	cmp	DWORD PTR [rax], 0
	jg	SHORT $LN5@DecideBuff
	mov	rax, QWORD PTR pProperties$[rsp]
	mov	DWORD PTR [rax], 1
$LN5@DecideBuff:
; Line 455
	mov	rax, QWORD PTR pProperties$[rsp]
	cmp	DWORD PTR [rax+4], 0
	jg	SHORT $LN4@DecideBuff
	mov	rax, QWORD PTR pProperties$[rsp]
	mov	DWORD PTR [rax+4], 1
$LN4@DecideBuff:
; Line 456
	mov	rax, QWORD PTR pAlloc$[rsp]
	mov	rax, QWORD PTR [rax]
	lea	r8, QWORD PTR Actual$[rsp]
	mov	rdx, QWORD PTR pProperties$[rsp]
	mov	rcx, QWORD PTR pAlloc$[rsp]
	call	QWORD PTR [rax+24]
	mov	DWORD PTR hr$[rsp], eax
; Line 458
	cmp	DWORD PTR hr$[rsp], 0
	jge	SHORT $LN3@DecideBuff
; Line 459
	mov	eax, DWORD PTR hr$[rsp]
	jmp	SHORT $LN9@DecideBuff
$LN3@DecideBuff:
; Line 462
	lea	r8, OFFSET FLAT:$SG82326
	mov	edx, 1
	mov	ecx, 4
	call	?DbgLogInfo@@YAXKKPEB_WZZ		; DbgLogInfo
; Line 464
	mov	eax, DWORD PTR Actual$[rsp+8]
	mov	DWORD PTR [rsp+40], eax
	mov	eax, DWORD PTR Actual$[rsp+4]
	mov	DWORD PTR [rsp+32], eax
	mov	r9d, DWORD PTR Actual$[rsp]
	lea	r8, OFFSET FLAT:$SG82327
	mov	edx, 1
	mov	ecx, 4
	call	?DbgLogInfo@@YAXKKPEB_WZZ		; DbgLogInfo
; Line 471
	mov	eax, DWORD PTR Actual$[rsp]
	cmp	DWORD PTR Request$[rsp], eax
	jg	SHORT $LN1@DecideBuff
	mov	eax, DWORD PTR Actual$[rsp+4]
	cmp	DWORD PTR Request$[rsp+4], eax
	jg	SHORT $LN1@DecideBuff
	mov	eax, DWORD PTR Actual$[rsp+8]
	cmp	DWORD PTR Request$[rsp+8], eax
	jle	SHORT $LN2@DecideBuff
$LN1@DecideBuff:
; Line 472
	mov	eax, -2147467259			; ffffffff80004005H
	jmp	SHORT $LN9@DecideBuff
$LN2@DecideBuff:
; Line 474
	xor	eax, eax
$LN9@DecideBuff:
; Line 476
	mov	rdi, rax
	mov	rcx, rsp
	lea	rdx, OFFSET FLAT:?DecideBufferSize@CTransInPlaceFilter@@UEAAJPEAUIMemAllocator@@PEAU_AllocatorProperties@@@Z$rtcFrameData
	call	_RTC_CheckStackVars
	mov	rax, rdi
	mov	rcx, QWORD PTR __$ArrayPad$[rsp]
	xor	rcx, rsp
	call	__security_check_cookie
	add	rsp, 160				; 000000a0H
	pop	rdi
	ret	0
?DecideBufferSize@CTransInPlaceFilter@@UEAAJPEAUIMemAllocator@@PEAU_AllocatorProperties@@@Z ENDP ; CTransInPlaceFilter::DecideBufferSize
_TEXT	ENDS
;	COMDAT pdata
; File c:\downloads\wpf mediakit - copy\src\filters\baseclasses\transip.h
pdata	SEGMENT
$pdata$?PeekAllocator@CTransInPlaceInputPin@@QEBAPEAUIMemAllocator@@XZ DD imagerel $LN3
	DD	imagerel $LN3+20
	DD	imagerel $unwind$?PeekAllocator@CTransInPlaceInputPin@@QEBAPEAUIMemAllocator@@XZ
pdata	ENDS
;	COMDAT xdata
xdata	SEGMENT
$unwind$?PeekAllocator@CTransInPlaceInputPin@@QEBAPEAUIMemAllocator@@XZ DD 010601H
	DD	07006H
; Function compile flags: /Odtp /RTCsu
xdata	ENDS
;	COMDAT ?PeekAllocator@CTransInPlaceInputPin@@QEBAPEAUIMemAllocator@@XZ
_TEXT	SEGMENT
this$ = 16
?PeekAllocator@CTransInPlaceInputPin@@QEBAPEAUIMemAllocator@@XZ PROC ; CTransInPlaceInputPin::PeekAllocator, COMDAT
; Line 76
$LN3:
	mov	QWORD PTR [rsp+8], rcx
	push	rdi
	mov	rax, QWORD PTR this$[rsp]
	mov	rax, QWORD PTR [rax+240]
	pop	rdi
	ret	0
?PeekAllocator@CTransInPlaceInputPin@@QEBAPEAUIMemAllocator@@XZ ENDP ; CTransInPlaceInputPin::PeekAllocator
_TEXT	ENDS
;	COMDAT pdata
pdata	SEGMENT
$pdata$?InputPin@CTransInPlaceFilter@@IEBAPEAVCTransInPlaceInputPin@@XZ DD imagerel $LN3
	DD	imagerel $LN3+20
	DD	imagerel $unwind$?InputPin@CTransInPlaceFilter@@IEBAPEAVCTransInPlaceInputPin@@XZ
pdata	ENDS
;	COMDAT xdata
xdata	SEGMENT
$unwind$?InputPin@CTransInPlaceFilter@@IEBAPEAVCTransInPlaceInputPin@@XZ DD 010601H
	DD	07006H
; Function compile flags: /Odtp /RTCsu
xdata	ENDS
;	COMDAT ?InputPin@CTransInPlaceFilter@@IEBAPEAVCTransInPlaceInputPin@@XZ
_TEXT	SEGMENT
this$ = 16
?InputPin@CTransInPlaceFilter@@IEBAPEAVCTransInPlaceInputPin@@XZ PROC ; CTransInPlaceFilter::InputPin, COMDAT
; Line 227
$LN3:
	mov	QWORD PTR [rsp+8], rcx
	push	rdi
; Line 228
	mov	rax, QWORD PTR this$[rsp]
	mov	rax, QWORD PTR [rax+256]
; Line 229
	pop	rdi
	ret	0
?InputPin@CTransInPlaceFilter@@IEBAPEAVCTransInPlaceInputPin@@XZ ENDP ; CTransInPlaceFilter::InputPin
_TEXT	ENDS
PUBLIC	?SampleProps@CBaseInputPin@@QEAAPEAUtagAM_SAMPLE2_PROPERTIES@@XZ ; CBaseInputPin::SampleProps
PUBLIC	?PeekAllocator@CTransInPlaceOutputPin@@QEBAPEAUIMemAllocator@@XZ ; CTransInPlaceOutputPin::PeekAllocator
PUBLIC	?OutputPin@CTransInPlaceFilter@@IEBAPEAVCTransInPlaceOutputPin@@XZ ; CTransInPlaceFilter::OutputPin
PUBLIC	?Copy@CTransInPlaceFilter@@IEAAPEAUIMediaSample@@PEAU2@@Z ; CTransInPlaceFilter::Copy
EXTRN	memcpy:PROC
EXTRN	?DeleteMediaType@@YAXPEAU_AMMediaType@@@Z:PROC	; DeleteMediaType
EXTRN	IID_IMediaSample2:BYTE
;	COMDAT pdata
; File c:\downloads\wpf mediakit - copy\src\filters\baseclasses\transip.cpp
pdata	SEGMENT
$pdata$?Copy@CTransInPlaceFilter@@IEAAPEAUIMediaSample@@PEAU2@@Z DD imagerel $LN27
	DD	imagerel $LN27+1243
	DD	imagerel $unwind$?Copy@CTransInPlaceFilter@@IEAAPEAUIMediaSample@@PEAU2@@Z
pdata	ENDS
;	COMDAT xdata
xdata	SEGMENT
$unwind$?Copy@CTransInPlaceFilter@@IEAAPEAUIMediaSample@@PEAU2@@Z DD 032901H
	DD	0300112H
	DD	0700bH
xdata	ENDS
;	COMDAT CONST
CONST	SEGMENT
?Copy@CTransInPlaceFilter@@IEAAPEAUIMediaSample@@PEAU2@@Z$rtcName$0 DB 070H ; CTransInPlaceFilter::Copy
	DB	044H
	DB	065H
	DB	073H
	DB	074H
	DB	00H
	ORG $+2
?Copy@CTransInPlaceFilter@@IEAAPEAUIMediaSample@@PEAU2@@Z$rtcName$1 DB 074H ; CTransInPlaceFilter::Copy
	DB	053H
	DB	074H
	DB	061H
	DB	072H
	DB	074H
	DB	00H
	ORG $+1
?Copy@CTransInPlaceFilter@@IEAAPEAUIMediaSample@@PEAU2@@Z$rtcName$2 DB 074H ; CTransInPlaceFilter::Copy
	DB	053H
	DB	074H
	DB	06fH
	DB	070H
	DB	00H
	ORG $+2
?Copy@CTransInPlaceFilter@@IEAAPEAUIMediaSample@@PEAU2@@Z$rtcName$3 DB 070H ; CTransInPlaceFilter::Copy
	DB	053H
	DB	061H
	DB	06dH
	DB	070H
	DB	06cH
	DB	065H
	DB	032H
	DB	00H
	ORG $+7
?Copy@CTransInPlaceFilter@@IEAAPEAUIMediaSample@@PEAU2@@Z$rtcName$4 DB 070H ; CTransInPlaceFilter::Copy
	DB	04dH
	DB	065H
	DB	064H
	DB	069H
	DB	061H
	DB	054H
	DB	079H
	DB	070H
	DB	065H
	DB	00H
	ORG $+5
?Copy@CTransInPlaceFilter@@IEAAPEAUIMediaSample@@PEAU2@@Z$rtcName$5 DB 054H ; CTransInPlaceFilter::Copy
	DB	069H
	DB	06dH
	DB	065H
	DB	053H
	DB	074H
	DB	061H
	DB	072H
	DB	074H
	DB	00H
	ORG $+6
?Copy@CTransInPlaceFilter@@IEAAPEAUIMediaSample@@PEAU2@@Z$rtcName$6 DB 054H ; CTransInPlaceFilter::Copy
	DB	069H
	DB	06dH
	DB	065H
	DB	045H
	DB	06eH
	DB	064H
	DB	00H
?Copy@CTransInPlaceFilter@@IEAAPEAUIMediaSample@@PEAU2@@Z$rtcName$7 DB 070H ; CTransInPlaceFilter::Copy
	DB	053H
	DB	06fH
	DB	075H
	DB	072H
	DB	063H
	DB	065H
	DB	042H
	DB	075H
	DB	066H
	DB	066H
	DB	065H
	DB	072H
	DB	00H
	ORG $+2
?Copy@CTransInPlaceFilter@@IEAAPEAUIMediaSample@@PEAU2@@Z$rtcName$8 DB 070H ; CTransInPlaceFilter::Copy
	DB	044H
	DB	065H
	DB	073H
	DB	074H
	DB	042H
	DB	075H
	DB	066H
	DB	066H
	DB	065H
	DB	072H
	DB	00H
	ORG $+4
?Copy@CTransInPlaceFilter@@IEAAPEAUIMediaSample@@PEAU2@@Z$rtcVarDesc DD 0138H ; CTransInPlaceFilter::Copy
	DD	08H
	DQ	FLAT:?Copy@CTransInPlaceFilter@@IEAAPEAUIMediaSample@@PEAU2@@Z$rtcName$8
	DD	0118H
	DD	08H
	DQ	FLAT:?Copy@CTransInPlaceFilter@@IEAAPEAUIMediaSample@@PEAU2@@Z$rtcName$7
	DD	0f8H
	DD	08H
	DQ	FLAT:?Copy@CTransInPlaceFilter@@IEAAPEAUIMediaSample@@PEAU2@@Z$rtcName$6
	DD	0d8H
	DD	08H
	DQ	FLAT:?Copy@CTransInPlaceFilter@@IEAAPEAUIMediaSample@@PEAU2@@Z$rtcName$5
	DD	0b8H
	DD	08H
	DQ	FLAT:?Copy@CTransInPlaceFilter@@IEAAPEAUIMediaSample@@PEAU2@@Z$rtcName$4
	DD	098H
	DD	08H
	DQ	FLAT:?Copy@CTransInPlaceFilter@@IEAAPEAUIMediaSample@@PEAU2@@Z$rtcName$3
	DD	078H
	DD	08H
	DQ	FLAT:?Copy@CTransInPlaceFilter@@IEAAPEAUIMediaSample@@PEAU2@@Z$rtcName$2
	DD	058H
	DD	08H
	DQ	FLAT:?Copy@CTransInPlaceFilter@@IEAAPEAUIMediaSample@@PEAU2@@Z$rtcName$1
	DD	038H
	DD	08H
	DQ	FLAT:?Copy@CTransInPlaceFilter@@IEAAPEAUIMediaSample@@PEAU2@@Z$rtcName$0
	ORG $+432
?Copy@CTransInPlaceFilter@@IEAAPEAUIMediaSample@@PEAU2@@Z$rtcFrameData DD 09H ; CTransInPlaceFilter::Copy
	DD	00H
	DQ	FLAT:?Copy@CTransInPlaceFilter@@IEAAPEAUIMediaSample@@PEAU2@@Z$rtcVarDesc
; Function compile flags: /Odtp /RTCsu
CONST	ENDS
;	COMDAT ?Copy@CTransInPlaceFilter@@IEAAPEAUIMediaSample@@PEAU2@@Z
_TEXT	SEGMENT
pDest$ = 56
hr$ = 68
tStart$ = 88
tStop$ = 120
bTime$ = 132
pSample2$ = 152
hr$82350 = 164
pMediaType$82366 = 184
TimeStart$ = 216
TimeEnd$ = 248
lDataLength$82372 = 260
pSourceBuffer$82373 = 280
pDestBuffer$82374 = 312
lSourceSize$82375 = 324
lDestSize$82376 = 328
tv71 = 332
tv87 = 336
tv90 = 344
tv93 = 352
tv77 = 360
tv301 = 368
this$ = 400
pSource$ = 408
?Copy@CTransInPlaceFilter@@IEAAPEAUIMediaSample@@PEAU2@@Z PROC ; CTransInPlaceFilter::Copy, COMDAT
; Line 483
$LN27:
	mov	QWORD PTR [rsp+16], rdx
	mov	QWORD PTR [rsp+8], rcx
	push	rdi
	sub	rsp, 384				; 00000180H
	mov	rdi, rsp
	mov	ecx, 96					; 00000060H
	mov	eax, -858993460				; ccccccccH
	rep stosd
	mov	rcx, QWORD PTR [rsp+400]
; Line 488
	mov	rax, QWORD PTR pSource$[rsp]
	mov	rax, QWORD PTR [rax]
	lea	r8, QWORD PTR tStop$[rsp]
	lea	rdx, QWORD PTR tStart$[rsp]
	mov	rcx, QWORD PTR pSource$[rsp]
	call	QWORD PTR [rax+40]
	test	eax, eax
	jne	SHORT $LN19@Copy
	mov	DWORD PTR tv71[rsp], 1
	jmp	SHORT $LN20@Copy
$LN19@Copy:
	mov	DWORD PTR tv71[rsp], 0
$LN20@Copy:
	mov	eax, DWORD PTR tv71[rsp]
	mov	DWORD PTR bTime$[rsp], eax
; Line 496
	mov	rax, QWORD PTR this$[rsp]
	cmp	DWORD PTR [rax+132], 0
	je	SHORT $LN21@Copy
	mov	DWORD PTR tv87[rsp], 1
	jmp	SHORT $LN22@Copy
$LN21@Copy:
	mov	DWORD PTR tv87[rsp], 0
$LN22@Copy:
	cmp	DWORD PTR bTime$[rsp], 0
	je	SHORT $LN23@Copy
	lea	rax, QWORD PTR tStop$[rsp]
	mov	QWORD PTR tv90[rsp], rax
	jmp	SHORT $LN24@Copy
$LN23@Copy:
	mov	QWORD PTR tv90[rsp], 0
$LN24@Copy:
	cmp	DWORD PTR bTime$[rsp], 0
	je	SHORT $LN25@Copy
	lea	rax, QWORD PTR tStart$[rsp]
	mov	QWORD PTR tv93[rsp], rax
	jmp	SHORT $LN26@Copy
$LN25@Copy:
	mov	QWORD PTR tv93[rsp], 0
$LN26@Copy:
	mov	rcx, QWORD PTR this$[rsp]
	call	?OutputPin@CTransInPlaceFilter@@IEBAPEAVCTransInPlaceOutputPin@@XZ ; CTransInPlaceFilter::OutputPin
	mov	rcx, rax
	call	?PeekAllocator@CTransInPlaceOutputPin@@QEBAPEAUIMemAllocator@@XZ ; CTransInPlaceOutputPin::PeekAllocator
	mov	QWORD PTR tv77[rsp], rax
	mov	rax, QWORD PTR tv77[rsp]
	mov	rax, QWORD PTR [rax]
	mov	ecx, DWORD PTR tv87[rsp]
	mov	DWORD PTR [rsp+32], ecx
	mov	r9, QWORD PTR tv90[rsp]
	mov	r8, QWORD PTR tv93[rsp]
	lea	rdx, QWORD PTR pDest$[rsp]
	mov	rcx, QWORD PTR tv77[rsp]
	call	QWORD PTR [rax+56]
	mov	DWORD PTR hr$[rsp], eax
; Line 498
	cmp	DWORD PTR hr$[rsp], 0
	jge	SHORT $LN16@Copy
; Line 499
	xor	eax, eax
	jmp	$LN17@Copy
$LN16@Copy:
; Line 502
	cmp	QWORD PTR pDest$[rsp], 0
	jne	SHORT $LN15@Copy
	mov	r8d, 502				; 000001f6H
	lea	rdx, OFFSET FLAT:$SG82344
	lea	rcx, OFFSET FLAT:$SG82345
	call	?DbgAssert@@YAXPEB_W0H@Z		; DbgAssert
$LN15@Copy:
; Line 504
	mov	rax, QWORD PTR pDest$[rsp]
	mov	rax, QWORD PTR [rax]
	lea	r8, QWORD PTR pSample2$[rsp]
	lea	rdx, OFFSET FLAT:IID_IMediaSample2
	mov	rcx, QWORD PTR pDest$[rsp]
	call	QWORD PTR [rax]
	test	eax, eax
	jl	$LN14@Copy
; Line 507
	mov	rax, QWORD PTR this$[rsp]
	mov	rcx, QWORD PTR [rax+256]
	call	?SampleProps@CBaseInputPin@@QEAAPEAUtagAM_SAMPLE2_PROPERTIES@@XZ ; CBaseInputPin::SampleProps
	mov	rcx, QWORD PTR pSample2$[rsp]
	mov	rcx, QWORD PTR [rcx]
	mov	QWORD PTR tv301[rsp], rcx
	mov	r8, rax
	mov	edx, 48					; 00000030H
	mov	rcx, QWORD PTR pSample2$[rsp]
	mov	rax, QWORD PTR tv301[rsp]
	call	QWORD PTR [rax+160]
	mov	DWORD PTR hr$82350[rsp], eax
; Line 508
	mov	rax, QWORD PTR pSample2$[rsp]
	mov	rax, QWORD PTR [rax]
	mov	rcx, QWORD PTR pSample2$[rsp]
	call	QWORD PTR [rax+16]
; Line 509
	cmp	DWORD PTR hr$82350[rsp], 0
	jge	SHORT $LN13@Copy
; Line 510
	mov	rax, QWORD PTR pDest$[rsp]
	mov	rax, QWORD PTR [rax]
	mov	rcx, QWORD PTR pDest$[rsp]
	call	QWORD PTR [rax+16]
; Line 511
	xor	eax, eax
	jmp	$LN17@Copy
$LN13@Copy:
; Line 513
	jmp	$LN12@Copy
$LN14@Copy:
; Line 514
	cmp	DWORD PTR bTime$[rsp], 0
	je	SHORT $LN11@Copy
; Line 515
	mov	rax, QWORD PTR pDest$[rsp]
	mov	rax, QWORD PTR [rax]
	lea	r8, QWORD PTR tStop$[rsp]
	lea	rdx, QWORD PTR tStart$[rsp]
	mov	rcx, QWORD PTR pDest$[rsp]
	call	QWORD PTR [rax+48]
$LN11@Copy:
; Line 518
	mov	rax, QWORD PTR pSource$[rsp]
	mov	rax, QWORD PTR [rax]
	mov	rcx, QWORD PTR pSource$[rsp]
	call	QWORD PTR [rax+56]
	test	eax, eax
	jne	SHORT $LN10@Copy
; Line 519
	mov	rax, QWORD PTR pDest$[rsp]
	mov	rax, QWORD PTR [rax]
	mov	edx, 1
	mov	rcx, QWORD PTR pDest$[rsp]
	call	QWORD PTR [rax+64]
$LN10@Copy:
; Line 521
	mov	rax, QWORD PTR pSource$[rsp]
	mov	rax, QWORD PTR [rax]
	mov	rcx, QWORD PTR pSource$[rsp]
	call	QWORD PTR [rax+120]
	test	eax, eax
	je	SHORT $LN8@Copy
	mov	rax, QWORD PTR this$[rsp]
	cmp	DWORD PTR [rax+132], 0
	je	SHORT $LN9@Copy
$LN8@Copy:
; Line 522
	mov	rax, QWORD PTR pDest$[rsp]
	mov	rax, QWORD PTR [rax]
	mov	edx, 1
	mov	rcx, QWORD PTR pDest$[rsp]
	call	QWORD PTR [rax+128]
$LN9@Copy:
; Line 524
	mov	rax, QWORD PTR pSource$[rsp]
	mov	rax, QWORD PTR [rax]
	mov	rcx, QWORD PTR pSource$[rsp]
	call	QWORD PTR [rax+72]
	test	eax, eax
	jne	SHORT $LN7@Copy
; Line 525
	mov	rax, QWORD PTR pDest$[rsp]
	mov	rax, QWORD PTR [rax]
	mov	edx, 1
	mov	rcx, QWORD PTR pDest$[rsp]
	call	QWORD PTR [rax+80]
$LN7@Copy:
; Line 530
	mov	rax, QWORD PTR pSource$[rsp]
	mov	rax, QWORD PTR [rax]
	lea	rdx, QWORD PTR pMediaType$82366[rsp]
	mov	rcx, QWORD PTR pSource$[rsp]
	call	QWORD PTR [rax+104]
	test	eax, eax
	jne	SHORT $LN6@Copy
; Line 531
	mov	rax, QWORD PTR pDest$[rsp]
	mov	rax, QWORD PTR [rax]
	mov	rdx, QWORD PTR pMediaType$82366[rsp]
	mov	rcx, QWORD PTR pDest$[rsp]
	call	QWORD PTR [rax+112]
; Line 532
	mov	rcx, QWORD PTR pMediaType$82366[rsp]
	call	?DeleteMediaType@@YAXPEAU_AMMediaType@@@Z ; DeleteMediaType
$LN6@Copy:
$LN12@Copy:
; Line 537
	mov	rax, QWORD PTR this$[rsp]
	mov	DWORD PTR [rax+132], 0
; Line 541
	mov	rax, QWORD PTR pSource$[rsp]
	mov	rax, QWORD PTR [rax]
	lea	r8, QWORD PTR TimeEnd$[rsp]
	lea	rdx, QWORD PTR TimeStart$[rsp]
	mov	rcx, QWORD PTR pSource$[rsp]
	call	QWORD PTR [rax+136]
	test	eax, eax
	jne	SHORT $LN5@Copy
; Line 542
	mov	rax, QWORD PTR pDest$[rsp]
	mov	rax, QWORD PTR [rax]
	lea	r8, QWORD PTR TimeEnd$[rsp]
	lea	rdx, QWORD PTR TimeStart$[rsp]
	mov	rcx, QWORD PTR pDest$[rsp]
	call	QWORD PTR [rax+144]
$LN5@Copy:
; Line 547
	mov	rax, QWORD PTR pSource$[rsp]
	mov	rax, QWORD PTR [rax]
	mov	rcx, QWORD PTR pSource$[rsp]
	call	QWORD PTR [rax+88]
	mov	DWORD PTR lDataLength$82372[rsp], eax
; Line 548
	mov	rax, QWORD PTR pDest$[rsp]
	mov	rax, QWORD PTR [rax]
	mov	edx, DWORD PTR lDataLength$82372[rsp]
	mov	rcx, QWORD PTR pDest$[rsp]
	call	QWORD PTR [rax+96]
; Line 553
	mov	rax, QWORD PTR pSource$[rsp]
	mov	rax, QWORD PTR [rax]
	mov	rcx, QWORD PTR pSource$[rsp]
	call	QWORD PTR [rax+32]
	mov	DWORD PTR lSourceSize$82375[rsp], eax
; Line 554
	mov	rax, QWORD PTR pDest$[rsp]
	mov	rax, QWORD PTR [rax]
	mov	rcx, QWORD PTR pDest$[rsp]
	call	QWORD PTR [rax+32]
	mov	DWORD PTR lDestSize$82376[rsp], eax
; Line 556
	mov	eax, DWORD PTR lSourceSize$82375[rsp]
	cmp	DWORD PTR lDestSize$82376[rsp], eax
	jl	SHORT $LN3@Copy
	mov	eax, DWORD PTR lDataLength$82372[rsp]
	cmp	DWORD PTR lDestSize$82376[rsp], eax
	jge	SHORT $LN4@Copy
$LN3@Copy:
	mov	r8d, 556				; 0000022cH
	lea	rdx, OFFSET FLAT:$SG82379
	lea	rcx, OFFSET FLAT:$SG82380
	call	?DbgAssert@@YAXPEB_W0H@Z		; DbgAssert
$LN4@Copy:
; Line 558
	mov	rax, QWORD PTR pSource$[rsp]
	mov	rax, QWORD PTR [rax]
	lea	rdx, QWORD PTR pSourceBuffer$82373[rsp]
	mov	rcx, QWORD PTR pSource$[rsp]
	call	QWORD PTR [rax+24]
; Line 559
	mov	rax, QWORD PTR pDest$[rsp]
	mov	rax, QWORD PTR [rax]
	lea	rdx, QWORD PTR pDestBuffer$82374[rsp]
	mov	rcx, QWORD PTR pDest$[rsp]
	call	QWORD PTR [rax+24]
; Line 560
	cmp	DWORD PTR lDestSize$82376[rsp], 0
	je	SHORT $LN2@Copy
	cmp	QWORD PTR pSourceBuffer$82373[rsp], 0
	je	SHORT $LN1@Copy
	cmp	QWORD PTR pDestBuffer$82374[rsp], 0
	jne	SHORT $LN2@Copy
$LN1@Copy:
	mov	r8d, 560				; 00000230H
	lea	rdx, OFFSET FLAT:$SG82383
	lea	rcx, OFFSET FLAT:$SG82384
	call	?DbgAssert@@YAXPEB_W0H@Z		; DbgAssert
$LN2@Copy:
; Line 562
	movsxd	rax, DWORD PTR lDataLength$82372[rsp]
	mov	r8, rax
	mov	rdx, QWORD PTR pSourceBuffer$82373[rsp]
	mov	rcx, QWORD PTR pDestBuffer$82374[rsp]
	call	memcpy
; Line 566
	mov	rax, QWORD PTR pDest$[rsp]
$LN17@Copy:
; Line 568
	mov	rdi, rax
	mov	rcx, rsp
	lea	rdx, OFFSET FLAT:?Copy@CTransInPlaceFilter@@IEAAPEAUIMediaSample@@PEAU2@@Z$rtcFrameData
	call	_RTC_CheckStackVars
	mov	rax, rdi
	add	rsp, 384				; 00000180H
	pop	rdi
	ret	0
?Copy@CTransInPlaceFilter@@IEAAPEAUIMediaSample@@PEAU2@@Z ENDP ; CTransInPlaceFilter::Copy
_TEXT	ENDS
PUBLIC	??_C@_1DE@JPFPKCAE@?$AAm?$AA_?$AAS?$AAa?$AAm?$AAp?$AAl?$AAe?$AAP?$AAr?$AAo?$AAp?$AAs?$AA?4?$AAc?$AAb?$AAD?$AAa?$AAt?$AAa?$AA?5?$AA?$CB?$AA?$DN?$AA?5?$AA0?$AA?$AA@ ; `string'
PUBLIC	??_C@_1II@PJBFDIOC@?$AAC?$AA?3?$AA?2?$AAD?$AAo?$AAw?$AAn?$AAl?$AAo?$AAa?$AAd?$AAs?$AA?2?$AAW?$AAP?$AAF?$AA?5?$AAM?$AAe?$AAd?$AAi?$AAa?$AAK?$AAi?$AAt?$AA?5?$AA?9?$AA?5?$AAC?$AAo?$AAp?$AAy@ ; `string'
;	COMDAT pdata
; File c:\downloads\wpf mediakit - copy\src\filters\baseclasses\amfilter.h
pdata	SEGMENT
$pdata$?SampleProps@CBaseInputPin@@QEAAPEAUtagAM_SAMPLE2_PROPERTIES@@XZ DD imagerel $LN4
	DD	imagerel $LN4+86
	DD	imagerel $unwind$?SampleProps@CBaseInputPin@@QEAAPEAUtagAM_SAMPLE2_PROPERTIES@@XZ
pdata	ENDS
;	COMDAT xdata
xdata	SEGMENT
$unwind$?SampleProps@CBaseInputPin@@QEAAPEAUtagAM_SAMPLE2_PROPERTIES@@XZ DD 021e01H
	DD	07006320aH
xdata	ENDS
;	COMDAT ??_C@_1DE@JPFPKCAE@?$AAm?$AA_?$AAS?$AAa?$AAm?$AAp?$AAl?$AAe?$AAP?$AAr?$AAo?$AAp?$AAs?$AA?4?$AAc?$AAb?$AAD?$AAa?$AAt?$AAa?$AA?5?$AA?$CB?$AA?$DN?$AA?5?$AA0?$AA?$AA@
CONST	SEGMENT
??_C@_1DE@JPFPKCAE@?$AAm?$AA_?$AAS?$AAa?$AAm?$AAp?$AAl?$AAe?$AAP?$AAr?$AAo?$AAp?$AAs?$AA?4?$AAc?$AAb?$AAD?$AAa?$AAt?$AAa?$AA?5?$AA?$CB?$AA?$DN?$AA?5?$AA0?$AA?$AA@ DB 'm'
	DB	00H, '_', 00H, 'S', 00H, 'a', 00H, 'm', 00H, 'p', 00H, 'l', 00H
	DB	'e', 00H, 'P', 00H, 'r', 00H, 'o', 00H, 'p', 00H, 's', 00H, '.'
	DB	00H, 'c', 00H, 'b', 00H, 'D', 00H, 'a', 00H, 't', 00H, 'a', 00H
	DB	' ', 00H, '!', 00H, '=', 00H, ' ', 00H, '0', 00H, 00H, 00H ; `string'
CONST	ENDS
;	COMDAT ??_C@_1II@PJBFDIOC@?$AAC?$AA?3?$AA?2?$AAD?$AAo?$AAw?$AAn?$AAl?$AAo?$AAa?$AAd?$AAs?$AA?2?$AAW?$AAP?$AAF?$AA?5?$AAM?$AAe?$AAd?$AAi?$AAa?$AAK?$AAi?$AAt?$AA?5?$AA?9?$AA?5?$AAC?$AAo?$AAp?$AAy@
CONST	SEGMENT
??_C@_1II@PJBFDIOC@?$AAC?$AA?3?$AA?2?$AAD?$AAo?$AAw?$AAn?$AAl?$AAo?$AAa?$AAd?$AAs?$AA?2?$AAW?$AAP?$AAF?$AA?5?$AAM?$AAe?$AAd?$AAi?$AAa?$AAK?$AAi?$AAt?$AA?5?$AA?9?$AA?5?$AAC?$AAo?$AAp?$AAy@ DB 'C'
	DB	00H, ':', 00H, '\', 00H, 'D', 00H, 'o', 00H, 'w', 00H, 'n', 00H
	DB	'l', 00H, 'o', 00H, 'a', 00H, 'd', 00H, 's', 00H, '\', 00H, 'W'
	DB	00H, 'P', 00H, 'F', 00H, ' ', 00H, 'M', 00H, 'e', 00H, 'd', 00H
	DB	'i', 00H, 'a', 00H, 'K', 00H, 'i', 00H, 't', 00H, ' ', 00H, '-'
	DB	00H, ' ', 00H, 'C', 00H, 'o', 00H, 'p', 00H, 'y', 00H, '\', 00H
	DB	's', 00H, 'r', 00H, 'c', 00H, '\', 00H, 'f', 00H, 'i', 00H, 'l'
	DB	00H, 't', 00H, 'e', 00H, 'r', 00H, 's', 00H, '\', 00H, 'B', 00H
	DB	'a', 00H, 's', 00H, 'e', 00H, 'C', 00H, 'l', 00H, 'a', 00H, 's'
	DB	00H, 's', 00H, 'e', 00H, 's', 00H, '\', 00H, 'a', 00H, 'm', 00H
	DB	'f', 00H, 'i', 00H, 'l', 00H, 't', 00H, 'e', 00H, 'r', 00H, '.'
	DB	00H, 'h', 00H, 00H, 00H			; `string'
; Function compile flags: /Odtp /RTCsu
CONST	ENDS
;	COMDAT ?SampleProps@CBaseInputPin@@QEAAPEAUtagAM_SAMPLE2_PROPERTIES@@XZ
_TEXT	SEGMENT
this$ = 48
?SampleProps@CBaseInputPin@@QEAAPEAUtagAM_SAMPLE2_PROPERTIES@@XZ PROC ; CBaseInputPin::SampleProps, COMDAT
; Line 938
$LN4:
	mov	QWORD PTR [rsp+8], rcx
	push	rdi
	sub	rsp, 32					; 00000020H
	mov	rdi, rsp
	mov	ecx, 8
	mov	eax, -858993460				; ccccccccH
	rep stosd
	mov	rcx, QWORD PTR [rsp+48]
; Line 939
	mov	rax, QWORD PTR this$[rsp]
	cmp	DWORD PTR [rax+256], 0
	jne	SHORT $LN1@SampleProp
	mov	r8d, 939				; 000003abH
	lea	rdx, OFFSET FLAT:??_C@_1II@PJBFDIOC@?$AAC?$AA?3?$AA?2?$AAD?$AAo?$AAw?$AAn?$AAl?$AAo?$AAa?$AAd?$AAs?$AA?2?$AAW?$AAP?$AAF?$AA?5?$AAM?$AAe?$AAd?$AAi?$AAa?$AAK?$AAi?$AAt?$AA?5?$AA?9?$AA?5?$AAC?$AAo?$AAp?$AAy@
	lea	rcx, OFFSET FLAT:??_C@_1DE@JPFPKCAE@?$AAm?$AA_?$AAS?$AAa?$AAm?$AAp?$AAl?$AAe?$AAP?$AAr?$AAo?$AAp?$AAs?$AA?4?$AAc?$AAb?$AAD?$AAa?$AAt?$AAa?$AA?5?$AA?$CB?$AA?$DN?$AA?5?$AA0?$AA?$AA@
	call	?DbgAssert@@YAXPEB_W0H@Z		; DbgAssert
$LN1@SampleProp:
; Line 940
	mov	rax, QWORD PTR this$[rsp]
	add	rax, 256				; 00000100H
; Line 941
	add	rsp, 32					; 00000020H
	pop	rdi
	ret	0
?SampleProps@CBaseInputPin@@QEAAPEAUtagAM_SAMPLE2_PROPERTIES@@XZ ENDP ; CBaseInputPin::SampleProps
_TEXT	ENDS
;	COMDAT pdata
; File c:\downloads\wpf mediakit - copy\src\filters\baseclasses\transip.h
pdata	SEGMENT
$pdata$?PeekAllocator@CTransInPlaceOutputPin@@QEBAPEAUIMemAllocator@@XZ DD imagerel $LN3
	DD	imagerel $LN3+20
	DD	imagerel $unwind$?PeekAllocator@CTransInPlaceOutputPin@@QEBAPEAUIMemAllocator@@XZ
pdata	ENDS
;	COMDAT xdata
xdata	SEGMENT
$unwind$?PeekAllocator@CTransInPlaceOutputPin@@QEBAPEAUIMemAllocator@@XZ DD 010601H
	DD	07006H
; Function compile flags: /Odtp /RTCsu
xdata	ENDS
;	COMDAT ?PeekAllocator@CTransInPlaceOutputPin@@QEBAPEAUIMemAllocator@@XZ
_TEXT	SEGMENT
this$ = 16
?PeekAllocator@CTransInPlaceOutputPin@@QEBAPEAUIMemAllocator@@XZ PROC ; CTransInPlaceOutputPin::PeekAllocator, COMDAT
; Line 131
$LN3:
	mov	QWORD PTR [rsp+8], rcx
	push	rdi
	mov	rax, QWORD PTR this$[rsp]
	mov	rax, QWORD PTR [rax+232]
	pop	rdi
	ret	0
?PeekAllocator@CTransInPlaceOutputPin@@QEBAPEAUIMemAllocator@@XZ ENDP ; CTransInPlaceOutputPin::PeekAllocator
_TEXT	ENDS
;	COMDAT pdata
pdata	SEGMENT
$pdata$?OutputPin@CTransInPlaceFilter@@IEBAPEAVCTransInPlaceOutputPin@@XZ DD imagerel $LN3
	DD	imagerel $LN3+20
	DD	imagerel $unwind$?OutputPin@CTransInPlaceFilter@@IEBAPEAVCTransInPlaceOutputPin@@XZ
pdata	ENDS
;	COMDAT xdata
xdata	SEGMENT
$unwind$?OutputPin@CTransInPlaceFilter@@IEBAPEAVCTransInPlaceOutputPin@@XZ DD 010601H
	DD	07006H
; Function compile flags: /Odtp /RTCsu
xdata	ENDS
;	COMDAT ?OutputPin@CTransInPlaceFilter@@IEBAPEAVCTransInPlaceOutputPin@@XZ
_TEXT	SEGMENT
this$ = 16
?OutputPin@CTransInPlaceFilter@@IEBAPEAVCTransInPlaceOutputPin@@XZ PROC ; CTransInPlaceFilter::OutputPin, COMDAT
; Line 231
$LN3:
	mov	QWORD PTR [rsp+8], rcx
	push	rdi
; Line 232
	mov	rax, QWORD PTR this$[rsp]
	mov	rax, QWORD PTR [rax+264]
; Line 233
	pop	rdi
	ret	0
?OutputPin@CTransInPlaceFilter@@IEBAPEAVCTransInPlaceOutputPin@@XZ ENDP ; CTransInPlaceFilter::OutputPin
_TEXT	ENDS
PUBLIC	?UsingDifferentAllocators@CTransInPlaceFilter@@IEBAHXZ ; CTransInPlaceFilter::UsingDifferentAllocators
PUBLIC	?Receive@CTransInPlaceFilter@@UEAAJPEAUIMediaSample@@@Z ; CTransInPlaceFilter::Receive
EXTRN	?NotifyEvent@CBaseFilter@@QEAAJJ_J0@Z:PROC	; CBaseFilter::NotifyEvent
;	COMDAT pdata
; File c:\downloads\wpf mediakit - copy\src\filters\baseclasses\transip.cpp
pdata	SEGMENT
$pdata$?Receive@CTransInPlaceFilter@@UEAAJPEAUIMediaSample@@@Z DD imagerel $LN13
	DD	imagerel $LN13+430
	DD	imagerel $unwind$?Receive@CTransInPlaceFilter@@UEAAJPEAUIMediaSample@@@Z
pdata	ENDS
;	COMDAT xdata
xdata	SEGMENT
$unwind$?Receive@CTransInPlaceFilter@@UEAAJPEAUIMediaSample@@@Z DD 022301H
	DD	0700b520fH
; Function compile flags: /Odtp /RTCsu
xdata	ENDS
;	COMDAT ?Receive@CTransInPlaceFilter@@UEAAJPEAUIMediaSample@@@Z
_TEXT	SEGMENT
pProps$ = 32
hr$ = 40
this$ = 64
pSample$ = 72
?Receive@CTransInPlaceFilter@@UEAAJPEAUIMediaSample@@@Z PROC ; CTransInPlaceFilter::Receive, COMDAT
; Line 575
$LN13:
	mov	QWORD PTR [rsp+16], rdx
	mov	QWORD PTR [rsp+8], rcx
	push	rdi
	sub	rsp, 48					; 00000030H
	mov	rdi, rsp
	mov	ecx, 12
	mov	eax, -858993460				; ccccccccH
	rep stosd
	mov	rcx, QWORD PTR [rsp+64]
; Line 577
	mov	rax, QWORD PTR this$[rsp]
	mov	rcx, QWORD PTR [rax+256]
	call	?SampleProps@CBaseInputPin@@QEAAPEAUtagAM_SAMPLE2_PROPERTIES@@XZ ; CBaseInputPin::SampleProps
	mov	QWORD PTR pProps$[rsp], rax
; Line 578
	mov	rax, QWORD PTR pProps$[rsp]
	cmp	DWORD PTR [rax+32], 0
	je	SHORT $LN10@Receive
; Line 579
	mov	rax, QWORD PTR this$[rsp]
	mov	rax, QWORD PTR [rax+264]
	mov	rcx, QWORD PTR this$[rsp]
	mov	rcx, QWORD PTR [rcx+264]
	mov	rax, QWORD PTR [rax]
	mov	rdx, QWORD PTR pSample$[rsp]
	call	QWORD PTR [rax+136]
	jmp	$LN11@Receive
$LN10@Receive:
; Line 586
	mov	rcx, QWORD PTR this$[rsp]
	call	?UsingDifferentAllocators@CTransInPlaceFilter@@IEBAHXZ ; CTransInPlaceFilter::UsingDifferentAllocators
	test	eax, eax
	je	SHORT $LN9@Receive
; Line 590
	mov	rdx, QWORD PTR pSample$[rsp]
	mov	rcx, QWORD PTR this$[rsp]
	call	?Copy@CTransInPlaceFilter@@IEAAPEAUIMediaSample@@PEAU2@@Z ; CTransInPlaceFilter::Copy
	mov	QWORD PTR pSample$[rsp], rax
; Line 592
	cmp	QWORD PTR pSample$[rsp], 0
	jne	SHORT $LN8@Receive
; Line 594
	mov	eax, -2147418113			; ffffffff8000ffffH
	jmp	$LN11@Receive
$LN8@Receive:
$LN9@Receive:
; Line 599
	mov	rax, QWORD PTR this$[rsp]
	mov	rax, QWORD PTR [rax]
	mov	rdx, QWORD PTR pSample$[rsp]
	mov	rcx, QWORD PTR this$[rsp]
	call	QWORD PTR [rax+208]
	mov	DWORD PTR hr$[rsp], eax
; Line 604
	cmp	DWORD PTR hr$[rsp], 0
	jge	SHORT $LN7@Receive
; Line 605
	lea	r8, OFFSET FLAT:$SG82402
	mov	edx, 1
	mov	ecx, 2
	call	?DbgLogInfo@@YAXKKPEB_WZZ		; DbgLogInfo
; Line 606
	mov	rcx, QWORD PTR this$[rsp]
	call	?UsingDifferentAllocators@CTransInPlaceFilter@@IEBAHXZ ; CTransInPlaceFilter::UsingDifferentAllocators
	test	eax, eax
	je	SHORT $LN6@Receive
; Line 607
	mov	rax, QWORD PTR pSample$[rsp]
	mov	rax, QWORD PTR [rax]
	mov	rcx, QWORD PTR pSample$[rsp]
	call	QWORD PTR [rax+16]
$LN6@Receive:
; Line 609
	mov	eax, DWORD PTR hr$[rsp]
	jmp	$LN11@Receive
$LN7@Receive:
; Line 615
	cmp	DWORD PTR hr$[rsp], 0
	jne	SHORT $LN5@Receive
; Line 616
	mov	rax, QWORD PTR this$[rsp]
	mov	rax, QWORD PTR [rax+264]
	mov	rcx, QWORD PTR this$[rsp]
	mov	rcx, QWORD PTR [rcx+264]
	mov	rax, QWORD PTR [rax]
	mov	rdx, QWORD PTR pSample$[rsp]
	call	QWORD PTR [rax+136]
	mov	DWORD PTR hr$[rsp], eax
; Line 617
	jmp	SHORT $LN4@Receive
$LN5@Receive:
; Line 620
	cmp	DWORD PTR hr$[rsp], 1
	jne	SHORT $LN3@Receive
; Line 625
	mov	rax, QWORD PTR this$[rsp]
	mov	DWORD PTR [rax+132], 1
; Line 626
	mov	rax, QWORD PTR this$[rsp]
	cmp	DWORD PTR [rax+136], 0
	jne	SHORT $LN2@Receive
; Line 627
	xor	r9d, r9d
	xor	r8d, r8d
	mov	edx, 11
	mov	rcx, QWORD PTR this$[rsp]
	call	?NotifyEvent@CBaseFilter@@QEAAJJ_J0@Z	; CBaseFilter::NotifyEvent
; Line 628
	mov	rax, QWORD PTR this$[rsp]
	mov	DWORD PTR [rax+136], 1
$LN2@Receive:
; Line 630
	mov	DWORD PTR hr$[rsp], 0
$LN3@Receive:
$LN4@Receive:
; Line 636
	mov	rcx, QWORD PTR this$[rsp]
	call	?UsingDifferentAllocators@CTransInPlaceFilter@@IEBAHXZ ; CTransInPlaceFilter::UsingDifferentAllocators
	test	eax, eax
	je	SHORT $LN1@Receive
; Line 637
	mov	rax, QWORD PTR pSample$[rsp]
	mov	rax, QWORD PTR [rax]
	mov	rcx, QWORD PTR pSample$[rsp]
	call	QWORD PTR [rax+16]
$LN1@Receive:
; Line 640
	mov	eax, DWORD PTR hr$[rsp]
$LN11@Receive:
; Line 642
	add	rsp, 48					; 00000030H
	pop	rdi
	ret	0
?Receive@CTransInPlaceFilter@@UEAAJPEAUIMediaSample@@@Z ENDP ; CTransInPlaceFilter::Receive
_TEXT	ENDS
;	COMDAT pdata
; File c:\downloads\wpf mediakit - copy\src\filters\baseclasses\transip.h
pdata	SEGMENT
$pdata$?UsingDifferentAllocators@CTransInPlaceFilter@@IEBAHXZ DD imagerel $LN5
	DD	imagerel $LN5+109
	DD	imagerel $unwind$?UsingDifferentAllocators@CTransInPlaceFilter@@IEBAHXZ
pdata	ENDS
;	COMDAT xdata
xdata	SEGMENT
$unwind$?UsingDifferentAllocators@CTransInPlaceFilter@@IEBAHXZ DD 021e01H
	DD	07006520aH
; Function compile flags: /Odtp /RTCsu
xdata	ENDS
;	COMDAT ?UsingDifferentAllocators@CTransInPlaceFilter@@IEBAHXZ
_TEXT	SEGMENT
tv67 = 32
tv73 = 40
this$ = 64
?UsingDifferentAllocators@CTransInPlaceFilter@@IEBAHXZ PROC ; CTransInPlaceFilter::UsingDifferentAllocators, COMDAT
; Line 244
$LN5:
	mov	QWORD PTR [rsp+8], rcx
	push	rdi
	sub	rsp, 48					; 00000030H
	mov	rdi, rsp
	mov	ecx, 12
	mov	eax, -858993460				; ccccccccH
	rep stosd
	mov	rcx, QWORD PTR [rsp+64]
; Line 245
	mov	rcx, QWORD PTR this$[rsp]
	call	?InputPin@CTransInPlaceFilter@@IEBAPEAVCTransInPlaceInputPin@@XZ ; CTransInPlaceFilter::InputPin
	mov	rcx, rax
	call	?PeekAllocator@CTransInPlaceInputPin@@QEBAPEAUIMemAllocator@@XZ ; CTransInPlaceInputPin::PeekAllocator
	mov	QWORD PTR tv67[rsp], rax
	mov	rcx, QWORD PTR this$[rsp]
	call	?OutputPin@CTransInPlaceFilter@@IEBAPEAVCTransInPlaceOutputPin@@XZ ; CTransInPlaceFilter::OutputPin
	mov	rcx, rax
	call	?PeekAllocator@CTransInPlaceOutputPin@@QEBAPEAUIMemAllocator@@XZ ; CTransInPlaceOutputPin::PeekAllocator
	mov	rcx, QWORD PTR tv67[rsp]
	cmp	rcx, rax
	je	SHORT $LN3@UsingDiffe
	mov	DWORD PTR tv73[rsp], 1
	jmp	SHORT $LN4@UsingDiffe
$LN3@UsingDiffe:
	mov	DWORD PTR tv73[rsp], 0
$LN4@UsingDiffe:
	mov	eax, DWORD PTR tv73[rsp]
; Line 246
	add	rsp, 48					; 00000030H
	pop	rdi
	ret	0
?UsingDifferentAllocators@CTransInPlaceFilter@@IEBAHXZ ENDP ; CTransInPlaceFilter::UsingDifferentAllocators
_TEXT	ENDS
PUBLIC	??1CTransformInputPin@@UEAA@XZ			; CTransformInputPin::~CTransformInputPin
PUBLIC	??_7CTransInPlaceInputPin@@6B@			; CTransInPlaceInputPin::`vftable'
PUBLIC	??_7CTransInPlaceInputPin@@6BIQualityControl@@@	; CTransInPlaceInputPin::`vftable'
PUBLIC	??_7CTransInPlaceInputPin@@6BIPin@@@		; CTransInPlaceInputPin::`vftable'
PUBLIC	??_7CTransInPlaceInputPin@@6BCUnknown@@@	; CTransInPlaceInputPin::`vftable'
PUBLIC	??_R4CTransInPlaceInputPin@@6BCUnknown@@@	; CTransInPlaceInputPin::`RTTI Complete Object Locator'
PUBLIC	??_R0?AVCTransInPlaceInputPin@@@8		; CTransInPlaceInputPin `RTTI Type Descriptor'
PUBLIC	??_R3CTransInPlaceInputPin@@8			; CTransInPlaceInputPin::`RTTI Class Hierarchy Descriptor'
PUBLIC	??_R2CTransInPlaceInputPin@@8			; CTransInPlaceInputPin::`RTTI Base Class Array'
PUBLIC	??_R1A@?0A@EA@CTransInPlaceInputPin@@8		; CTransInPlaceInputPin::`RTTI Base Class Descriptor at (0,-1,0,64)'
PUBLIC	??_R1A@?0A@EA@CTransformInputPin@@8		; CTransformInputPin::`RTTI Base Class Descriptor at (0,-1,0,64)'
PUBLIC	??_R0?AVCTransformInputPin@@@8			; CTransformInputPin `RTTI Type Descriptor'
PUBLIC	??_R3CTransformInputPin@@8			; CTransformInputPin::`RTTI Class Hierarchy Descriptor'
PUBLIC	??_R2CTransformInputPin@@8			; CTransformInputPin::`RTTI Base Class Array'
PUBLIC	??_R1A@?0A@EA@CBaseInputPin@@8			; CBaseInputPin::`RTTI Base Class Descriptor at (0,-1,0,64)'
PUBLIC	??_R0?AVCBaseInputPin@@@8			; CBaseInputPin `RTTI Type Descriptor'
PUBLIC	??_R3CBaseInputPin@@8				; CBaseInputPin::`RTTI Class Hierarchy Descriptor'
PUBLIC	??_R2CBaseInputPin@@8				; CBaseInputPin::`RTTI Base Class Array'
PUBLIC	??_R1A@?0A@EA@CBasePin@@8			; CBasePin::`RTTI Base Class Descriptor at (0,-1,0,64)'
PUBLIC	??_R0?AVCBasePin@@@8				; CBasePin `RTTI Type Descriptor'
PUBLIC	??_R3CBasePin@@8				; CBasePin::`RTTI Class Hierarchy Descriptor'
PUBLIC	??_R2CBasePin@@8				; CBasePin::`RTTI Base Class Array'
PUBLIC	??_R1A@?0A@EA@CUnknown@@8			; CUnknown::`RTTI Base Class Descriptor at (0,-1,0,64)'
PUBLIC	??_R0?AVCUnknown@@@8				; CUnknown `RTTI Type Descriptor'
PUBLIC	??_R3CUnknown@@8				; CUnknown::`RTTI Class Hierarchy Descriptor'
PUBLIC	??_R2CUnknown@@8				; CUnknown::`RTTI Base Class Array'
PUBLIC	??_R1A@?0A@EA@INonDelegatingUnknown@@8		; INonDelegatingUnknown::`RTTI Base Class Descriptor at (0,-1,0,64)'
PUBLIC	??_R0?AUINonDelegatingUnknown@@@8		; INonDelegatingUnknown `RTTI Type Descriptor'
PUBLIC	??_R3INonDelegatingUnknown@@8			; INonDelegatingUnknown::`RTTI Class Hierarchy Descriptor'
PUBLIC	??_R2INonDelegatingUnknown@@8			; INonDelegatingUnknown::`RTTI Base Class Array'
PUBLIC	??_R17?0A@EA@CBaseObject@@8			; CBaseObject::`RTTI Base Class Descriptor at (8,-1,0,64)'
PUBLIC	??_R0?AVCBaseObject@@@8				; CBaseObject `RTTI Type Descriptor'
PUBLIC	??_R3CBaseObject@@8				; CBaseObject::`RTTI Class Hierarchy Descriptor'
PUBLIC	??_R2CBaseObject@@8				; CBaseObject::`RTTI Base Class Array'
PUBLIC	??_R1A@?0A@EA@CBaseObject@@8			; CBaseObject::`RTTI Base Class Descriptor at (0,-1,0,64)'
PUBLIC	??_R1CA@?0A@EA@IPin@@8				; IPin::`RTTI Base Class Descriptor at (32,-1,0,64)'
PUBLIC	??_R0?AUIPin@@@8				; IPin `RTTI Type Descriptor'
PUBLIC	??_R3IPin@@8					; IPin::`RTTI Class Hierarchy Descriptor'
PUBLIC	??_R2IPin@@8					; IPin::`RTTI Base Class Array'
PUBLIC	??_R1A@?0A@EA@IPin@@8				; IPin::`RTTI Base Class Descriptor at (0,-1,0,64)'
PUBLIC	??_R1A@?0A@EA@IUnknown@@8			; IUnknown::`RTTI Base Class Descriptor at (0,-1,0,64)'
PUBLIC	??_R0?AUIUnknown@@@8				; IUnknown `RTTI Type Descriptor'
PUBLIC	??_R3IUnknown@@8				; IUnknown::`RTTI Class Hierarchy Descriptor'
PUBLIC	??_R2IUnknown@@8				; IUnknown::`RTTI Base Class Array'
PUBLIC	??_R1CA@?0A@EC@IUnknown@@8			; IUnknown::`RTTI Base Class Descriptor at (32,-1,0,66)'
PUBLIC	??_R1CI@?0A@EA@IQualityControl@@8		; IQualityControl::`RTTI Base Class Descriptor at (40,-1,0,64)'
PUBLIC	??_R0?AUIQualityControl@@@8			; IQualityControl `RTTI Type Descriptor'
PUBLIC	??_R3IQualityControl@@8				; IQualityControl::`RTTI Class Hierarchy Descriptor'
PUBLIC	??_R2IQualityControl@@8				; IQualityControl::`RTTI Base Class Array'
PUBLIC	??_R1A@?0A@EA@IQualityControl@@8		; IQualityControl::`RTTI Base Class Descriptor at (0,-1,0,64)'
PUBLIC	??_R1CI@?0A@EC@IUnknown@@8			; IUnknown::`RTTI Base Class Descriptor at (40,-1,0,66)'
PUBLIC	??_R1OI@?0A@EA@IMemInputPin@@8			; IMemInputPin::`RTTI Base Class Descriptor at (232,-1,0,64)'
PUBLIC	??_R0?AUIMemInputPin@@@8			; IMemInputPin `RTTI Type Descriptor'
PUBLIC	??_R3IMemInputPin@@8				; IMemInputPin::`RTTI Class Hierarchy Descriptor'
PUBLIC	??_R2IMemInputPin@@8				; IMemInputPin::`RTTI Base Class Array'
PUBLIC	??_R1A@?0A@EA@IMemInputPin@@8			; IMemInputPin::`RTTI Base Class Descriptor at (0,-1,0,64)'
PUBLIC	??_R1OI@?0A@EC@IUnknown@@8			; IUnknown::`RTTI Base Class Descriptor at (232,-1,0,66)'
PUBLIC	?CheckMediaType@CTransInPlaceInputPin@@UEAAJPEBVCMediaType@@@Z ; CTransInPlaceInputPin::CheckMediaType
PUBLIC	?CompleteConnect@CTransInPlaceInputPin@@UEAAJPEAUIPin@@@Z ; CTransInPlaceInputPin::CompleteConnect
PUBLIC	??_R4CTransInPlaceInputPin@@6BIPin@@@		; CTransInPlaceInputPin::`RTTI Complete Object Locator'
PUBLIC	?QueryInterface@CBaseInputPin@@UEAAJAEBU_GUID@@PEAPEAX@Z ; CBaseInputPin::QueryInterface
PUBLIC	?AddRef@CBaseInputPin@@UEAAKXZ			; CBaseInputPin::AddRef
PUBLIC	?Release@CBaseInputPin@@UEAAKXZ			; CBaseInputPin::Release
PUBLIC	?QueryId@CTransformInputPin@@UEAAJPEAPEA_W@Z	; CTransformInputPin::QueryId
PUBLIC	?EnumMediaTypes@CTransInPlaceInputPin@@UEAAJPEAPEAUIEnumMediaTypes@@@Z ; CTransInPlaceInputPin::EnumMediaTypes
PUBLIC	?QueryInternalConnections@CBasePin@@UEAAJPEAPEAUIPin@@PEAK@Z ; CBasePin::QueryInternalConnections
PUBLIC	??_R4CTransInPlaceInputPin@@6BIQualityControl@@@ ; CTransInPlaceInputPin::`RTTI Complete Object Locator'
PUBLIC	?QueryInterface@CBaseInputPin@@W7EAAJAEBU_GUID@@PEAPEAX@Z ; [thunk]:CBaseInputPin::QueryInterface`adjustor{8}'
PUBLIC	?AddRef@CBaseInputPin@@W7EAAKXZ			; [thunk]:CBaseInputPin::AddRef`adjustor{8}'
PUBLIC	?Release@CBaseInputPin@@W7EAAKXZ		; [thunk]:CBaseInputPin::Release`adjustor{8}'
PUBLIC	??_R4CTransInPlaceInputPin@@6B@			; CTransInPlaceInputPin::`RTTI Complete Object Locator'
PUBLIC	?QueryInterface@CBaseInputPin@@WMI@EAAJAEBU_GUID@@PEAPEAX@Z ; [thunk]:CBaseInputPin::QueryInterface`adjustor{200}'
PUBLIC	?AddRef@CBaseInputPin@@WMI@EAAKXZ		; [thunk]:CBaseInputPin::AddRef`adjustor{200}'
PUBLIC	?Release@CBaseInputPin@@WMI@EAAKXZ		; [thunk]:CBaseInputPin::Release`adjustor{200}'
PUBLIC	?GetAllocator@CTransInPlaceInputPin@@UEAAJPEAPEAUIMemAllocator@@@Z ; CTransInPlaceInputPin::GetAllocator
PUBLIC	?NotifyAllocator@CTransInPlaceInputPin@@UEAAJPEAUIMemAllocator@@H@Z ; CTransInPlaceInputPin::NotifyAllocator
PUBLIC	?GetAllocatorRequirements@CTransInPlaceInputPin@@UEAAJPEAU_AllocatorProperties@@@Z ; CTransInPlaceInputPin::GetAllocatorRequirements
EXTRN	??0CTransformInputPin@@QEAA@PEA_WPEAVCTransformFilter@@PEAJPEB_W@Z:PROC ; CTransformInputPin::CTransformInputPin
EXTRN	??_7type_info@@6B@:BYTE				; type_info::`vftable'
EXTRN	?NonDelegatingQueryInterface@CBaseInputPin@@UEAAJAEBU_GUID@@PEAPEAX@Z:PROC ; CBaseInputPin::NonDelegatingQueryInterface
EXTRN	?NonDelegatingAddRef@CBasePin@@UEAAKXZ:PROC	; CBasePin::NonDelegatingAddRef
EXTRN	?NonDelegatingRelease@CBasePin@@UEAAKXZ:PROC	; CBasePin::NonDelegatingRelease
EXTRN	??_ECTransInPlaceInputPin@@UEAAPEAXI@Z:PROC	; CTransInPlaceInputPin::`vector deleting destructor'
EXTRN	?GetMediaTypeVersion@CBasePin@@UEAAJXZ:PROC	; CBasePin::GetMediaTypeVersion
EXTRN	?Active@CBasePin@@UEAAJXZ:PROC			; CBasePin::Active
EXTRN	?Inactive@CBaseInputPin@@UEAAJXZ:PROC		; CBaseInputPin::Inactive
EXTRN	?Run@CBasePin@@UEAAJ_J@Z:PROC			; CBasePin::Run
EXTRN	?SetMediaType@CTransformInputPin@@UEAAJPEBVCMediaType@@@Z:PROC ; CTransformInputPin::SetMediaType
EXTRN	?CheckConnect@CTransformInputPin@@UEAAJPEAUIPin@@@Z:PROC ; CTransformInputPin::CheckConnect
EXTRN	?BreakConnect@CTransformInputPin@@UEAAJXZ:PROC	; CTransformInputPin::BreakConnect
EXTRN	?GetMediaType@CBasePin@@UEAAJHPEAVCMediaType@@@Z:PROC ; CBasePin::GetMediaType
EXTRN	?CheckStreaming@CTransformInputPin@@UEAAJXZ:PROC ; CTransformInputPin::CheckStreaming
EXTRN	?Connect@CBasePin@@UEAAJPEAUIPin@@PEBU_AMMediaType@@@Z:PROC ; CBasePin::Connect
EXTRN	?ReceiveConnection@CBasePin@@UEAAJPEAUIPin@@PEBU_AMMediaType@@@Z:PROC ; CBasePin::ReceiveConnection
EXTRN	?Disconnect@CBasePin@@UEAAJXZ:PROC		; CBasePin::Disconnect
EXTRN	?ConnectedTo@CBasePin@@UEAAJPEAPEAUIPin@@@Z:PROC ; CBasePin::ConnectedTo
EXTRN	?ConnectionMediaType@CBasePin@@UEAAJPEAU_AMMediaType@@@Z:PROC ; CBasePin::ConnectionMediaType
EXTRN	?QueryPinInfo@CBasePin@@UEAAJPEAU_PinInfo@@@Z:PROC ; CBasePin::QueryPinInfo
EXTRN	?QueryDirection@CBasePin@@UEAAJPEAW4_PinDirection@@@Z:PROC ; CBasePin::QueryDirection
EXTRN	?QueryAccept@CBasePin@@UEAAJPEBU_AMMediaType@@@Z:PROC ; CBasePin::QueryAccept
EXTRN	?EndOfStream@CTransformInputPin@@UEAAJXZ:PROC	; CTransformInputPin::EndOfStream
EXTRN	?BeginFlush@CTransformInputPin@@UEAAJXZ:PROC	; CTransformInputPin::BeginFlush
EXTRN	?EndFlush@CTransformInputPin@@UEAAJXZ:PROC	; CTransformInputPin::EndFlush
EXTRN	?NewSegment@CTransformInputPin@@UEAAJ_J0N@Z:PROC ; CTransformInputPin::NewSegment
EXTRN	?Notify@CBaseInputPin@@UEAAJPEAUIBaseFilter@@UtagQuality@@@Z:PROC ; CBaseInputPin::Notify
EXTRN	?SetSink@CBasePin@@UEAAJPEAUIQualityControl@@@Z:PROC ; CBasePin::SetSink
EXTRN	?Receive@CTransformInputPin@@UEAAJPEAUIMediaSample@@@Z:PROC ; CTransformInputPin::Receive
EXTRN	?ReceiveMultiple@CBaseInputPin@@UEAAJPEAPEAUIMediaSample@@JPEAJ@Z:PROC ; CBaseInputPin::ReceiveMultiple
EXTRN	?ReceiveCanBlock@CBaseInputPin@@UEAAJXZ:PROC	; CBaseInputPin::ReceiveCanBlock
;	COMDAT pdata
; File c:\downloads\wpf mediakit - copy\src\filters\baseclasses\transip.cpp
pdata	SEGMENT
$pdata$??0CTransInPlaceInputPin@@QEAA@PEA_WPEAVCTransInPlaceFilter@@PEAJPEB_W@Z DD imagerel $LN4
	DD	imagerel $LN4+222
	DD	imagerel $unwind$??0CTransInPlaceInputPin@@QEAA@PEA_WPEAVCTransInPlaceFilter@@PEAJPEB_W@Z
pdata	ENDS
;	COMDAT pdata
pdata	SEGMENT
$pdata$?dtor$0@?0???0CTransInPlaceInputPin@@QEAA@PEA_WPEAVCTransInPlaceFilter@@PEAJPEB_W@Z@4HA DD imagerel ?dtor$0@?0???0CTransInPlaceInputPin@@QEAA@PEA_WPEAVCTransInPlaceFilter@@PEAJPEB_W@Z@4HA
	DD	imagerel ?dtor$0@?0???0CTransInPlaceInputPin@@QEAA@PEA_WPEAVCTransInPlaceFilter@@PEAJPEB_W@Z@4HA+35
	DD	imagerel $unwind$?dtor$0@?0???0CTransInPlaceInputPin@@QEAA@PEA_WPEAVCTransInPlaceFilter@@PEAJPEB_W@Z@4HA
pdata	ENDS
;	COMDAT xdata
xdata	SEGMENT
$ip2state$??0CTransInPlaceInputPin@@QEAA@PEA_WPEAVCTransInPlaceFilter@@PEAJPEB_W@Z DD imagerel ??0CTransInPlaceInputPin@@QEAA@PEA_WPEAVCTransInPlaceFilter@@PEAJPEB_W@Z
	DD	0ffffffffH
	DD	imagerel ??0CTransInPlaceInputPin@@QEAA@PEA_WPEAVCTransInPlaceFilter@@PEAJPEB_W@Z+90
	DD	00H
	DD	imagerel ??0CTransInPlaceInputPin@@QEAA@PEA_WPEAVCTransInPlaceFilter@@PEAJPEB_W@Z+211
	DD	0ffffffffH
xdata	ENDS
;	COMDAT ??_R4CTransInPlaceInputPin@@6B@
rdata$r	SEGMENT
??_R4CTransInPlaceInputPin@@6B@ DD 01H			; CTransInPlaceInputPin::`RTTI Complete Object Locator'
	DD	0e8H
	DD	00H
	DD	imagerel ??_R0?AVCTransInPlaceInputPin@@@8
	DD	imagerel ??_R3CTransInPlaceInputPin@@8
	DD	imagerel ??_R4CTransInPlaceInputPin@@6B@
rdata$r	ENDS
;	COMDAT ??_R4CTransInPlaceInputPin@@6BIQualityControl@@@
rdata$r	SEGMENT
??_R4CTransInPlaceInputPin@@6BIQualityControl@@@ DD 01H	; CTransInPlaceInputPin::`RTTI Complete Object Locator'
	DD	028H
	DD	00H
	DD	imagerel ??_R0?AVCTransInPlaceInputPin@@@8
	DD	imagerel ??_R3CTransInPlaceInputPin@@8
	DD	imagerel ??_R4CTransInPlaceInputPin@@6BIQualityControl@@@
rdata$r	ENDS
;	COMDAT ??_R4CTransInPlaceInputPin@@6BIPin@@@
rdata$r	SEGMENT
??_R4CTransInPlaceInputPin@@6BIPin@@@ DD 01H		; CTransInPlaceInputPin::`RTTI Complete Object Locator'
	DD	020H
	DD	00H
	DD	imagerel ??_R0?AVCTransInPlaceInputPin@@@8
	DD	imagerel ??_R3CTransInPlaceInputPin@@8
	DD	imagerel ??_R4CTransInPlaceInputPin@@6BIPin@@@
rdata$r	ENDS
;	COMDAT ??_R1OI@?0A@EC@IUnknown@@8
rdata$r	SEGMENT
??_R1OI@?0A@EC@IUnknown@@8 DD imagerel ??_R0?AUIUnknown@@@8 ; IUnknown::`RTTI Base Class Descriptor at (232,-1,0,66)'
	DD	00H
	DD	0e8H
	DD	0ffffffffH
	DD	00H
	DD	042H
	DD	imagerel ??_R3IUnknown@@8
rdata$r	ENDS
;	COMDAT ??_R1A@?0A@EA@IMemInputPin@@8
rdata$r	SEGMENT
??_R1A@?0A@EA@IMemInputPin@@8 DD imagerel ??_R0?AUIMemInputPin@@@8 ; IMemInputPin::`RTTI Base Class Descriptor at (0,-1,0,64)'
	DD	01H
	DD	00H
	DD	0ffffffffH
	DD	00H
	DD	040H
	DD	imagerel ??_R3IMemInputPin@@8
rdata$r	ENDS
;	COMDAT ??_R2IMemInputPin@@8
rdata$r	SEGMENT
??_R2IMemInputPin@@8 DD imagerel ??_R1A@?0A@EA@IMemInputPin@@8 ; IMemInputPin::`RTTI Base Class Array'
	DD	imagerel ??_R1A@?0A@EA@IUnknown@@8
	ORG $+3
rdata$r	ENDS
;	COMDAT ??_R3IMemInputPin@@8
rdata$r	SEGMENT
??_R3IMemInputPin@@8 DD 00H				; IMemInputPin::`RTTI Class Hierarchy Descriptor'
	DD	00H
	DD	02H
	DD	imagerel ??_R2IMemInputPin@@8
rdata$r	ENDS
;	COMDAT ??_R0?AUIMemInputPin@@@8
_DATA	SEGMENT
??_R0?AUIMemInputPin@@@8 DQ FLAT:??_7type_info@@6B@	; IMemInputPin `RTTI Type Descriptor'
	DQ	0000000000000000H
	DB	'.?AUIMemInputPin@@', 00H
_DATA	ENDS
;	COMDAT ??_R1OI@?0A@EA@IMemInputPin@@8
rdata$r	SEGMENT
??_R1OI@?0A@EA@IMemInputPin@@8 DD imagerel ??_R0?AUIMemInputPin@@@8 ; IMemInputPin::`RTTI Base Class Descriptor at (232,-1,0,64)'
	DD	01H
	DD	0e8H
	DD	0ffffffffH
	DD	00H
	DD	040H
	DD	imagerel ??_R3IMemInputPin@@8
rdata$r	ENDS
;	COMDAT ??_R1CI@?0A@EC@IUnknown@@8
rdata$r	SEGMENT
??_R1CI@?0A@EC@IUnknown@@8 DD imagerel ??_R0?AUIUnknown@@@8 ; IUnknown::`RTTI Base Class Descriptor at (40,-1,0,66)'
	DD	00H
	DD	028H
	DD	0ffffffffH
	DD	00H
	DD	042H
	DD	imagerel ??_R3IUnknown@@8
rdata$r	ENDS
;	COMDAT ??_R1A@?0A@EA@IQualityControl@@8
rdata$r	SEGMENT
??_R1A@?0A@EA@IQualityControl@@8 DD imagerel ??_R0?AUIQualityControl@@@8 ; IQualityControl::`RTTI Base Class Descriptor at (0,-1,0,64)'
	DD	01H
	DD	00H
	DD	0ffffffffH
	DD	00H
	DD	040H
	DD	imagerel ??_R3IQualityControl@@8
rdata$r	ENDS
;	COMDAT ??_R2IQualityControl@@8
rdata$r	SEGMENT
??_R2IQualityControl@@8 DD imagerel ??_R1A@?0A@EA@IQualityControl@@8 ; IQualityControl::`RTTI Base Class Array'
	DD	imagerel ??_R1A@?0A@EA@IUnknown@@8
	ORG $+3
rdata$r	ENDS
;	COMDAT ??_R3IQualityControl@@8
rdata$r	SEGMENT
??_R3IQualityControl@@8 DD 00H				; IQualityControl::`RTTI Class Hierarchy Descriptor'
	DD	00H
	DD	02H
	DD	imagerel ??_R2IQualityControl@@8
rdata$r	ENDS
;	COMDAT ??_R0?AUIQualityControl@@@8
_DATA	SEGMENT
??_R0?AUIQualityControl@@@8 DQ FLAT:??_7type_info@@6B@	; IQualityControl `RTTI Type Descriptor'
	DQ	0000000000000000H
	DB	'.?AUIQualityControl@@', 00H
_DATA	ENDS
;	COMDAT ??_R1CI@?0A@EA@IQualityControl@@8
rdata$r	SEGMENT
??_R1CI@?0A@EA@IQualityControl@@8 DD imagerel ??_R0?AUIQualityControl@@@8 ; IQualityControl::`RTTI Base Class Descriptor at (40,-1,0,64)'
	DD	01H
	DD	028H
	DD	0ffffffffH
	DD	00H
	DD	040H
	DD	imagerel ??_R3IQualityControl@@8
rdata$r	ENDS
;	COMDAT ??_R1CA@?0A@EC@IUnknown@@8
rdata$r	SEGMENT
??_R1CA@?0A@EC@IUnknown@@8 DD imagerel ??_R0?AUIUnknown@@@8 ; IUnknown::`RTTI Base Class Descriptor at (32,-1,0,66)'
	DD	00H
	DD	020H
	DD	0ffffffffH
	DD	00H
	DD	042H
	DD	imagerel ??_R3IUnknown@@8
rdata$r	ENDS
;	COMDAT ??_R2IUnknown@@8
rdata$r	SEGMENT
??_R2IUnknown@@8 DD imagerel ??_R1A@?0A@EA@IUnknown@@8	; IUnknown::`RTTI Base Class Array'
	ORG $+3
rdata$r	ENDS
;	COMDAT ??_R3IUnknown@@8
rdata$r	SEGMENT
??_R3IUnknown@@8 DD 00H					; IUnknown::`RTTI Class Hierarchy Descriptor'
	DD	00H
	DD	01H
	DD	imagerel ??_R2IUnknown@@8
rdata$r	ENDS
;	COMDAT ??_R0?AUIUnknown@@@8
_DATA	SEGMENT
??_R0?AUIUnknown@@@8 DQ FLAT:??_7type_info@@6B@		; IUnknown `RTTI Type Descriptor'
	DQ	0000000000000000H
	DB	'.?AUIUnknown@@', 00H
_DATA	ENDS
;	COMDAT ??_R1A@?0A@EA@IUnknown@@8
rdata$r	SEGMENT
??_R1A@?0A@EA@IUnknown@@8 DD imagerel ??_R0?AUIUnknown@@@8 ; IUnknown::`RTTI Base Class Descriptor at (0,-1,0,64)'
	DD	00H
	DD	00H
	DD	0ffffffffH
	DD	00H
	DD	040H
	DD	imagerel ??_R3IUnknown@@8
rdata$r	ENDS
;	COMDAT ??_R1A@?0A@EA@IPin@@8
rdata$r	SEGMENT
??_R1A@?0A@EA@IPin@@8 DD imagerel ??_R0?AUIPin@@@8	; IPin::`RTTI Base Class Descriptor at (0,-1,0,64)'
	DD	01H
	DD	00H
	DD	0ffffffffH
	DD	00H
	DD	040H
	DD	imagerel ??_R3IPin@@8
rdata$r	ENDS
;	COMDAT ??_R2IPin@@8
rdata$r	SEGMENT
??_R2IPin@@8 DD	imagerel ??_R1A@?0A@EA@IPin@@8		; IPin::`RTTI Base Class Array'
	DD	imagerel ??_R1A@?0A@EA@IUnknown@@8
	ORG $+3
rdata$r	ENDS
;	COMDAT ??_R3IPin@@8
rdata$r	SEGMENT
??_R3IPin@@8 DD	00H					; IPin::`RTTI Class Hierarchy Descriptor'
	DD	00H
	DD	02H
	DD	imagerel ??_R2IPin@@8
rdata$r	ENDS
;	COMDAT ??_R0?AUIPin@@@8
_DATA	SEGMENT
??_R0?AUIPin@@@8 DQ FLAT:??_7type_info@@6B@		; IPin `RTTI Type Descriptor'
	DQ	0000000000000000H
	DB	'.?AUIPin@@', 00H
_DATA	ENDS
;	COMDAT ??_R1CA@?0A@EA@IPin@@8
rdata$r	SEGMENT
??_R1CA@?0A@EA@IPin@@8 DD imagerel ??_R0?AUIPin@@@8	; IPin::`RTTI Base Class Descriptor at (32,-1,0,64)'
	DD	01H
	DD	020H
	DD	0ffffffffH
	DD	00H
	DD	040H
	DD	imagerel ??_R3IPin@@8
rdata$r	ENDS
;	COMDAT ??_R1A@?0A@EA@CBaseObject@@8
rdata$r	SEGMENT
??_R1A@?0A@EA@CBaseObject@@8 DD imagerel ??_R0?AVCBaseObject@@@8 ; CBaseObject::`RTTI Base Class Descriptor at (0,-1,0,64)'
	DD	00H
	DD	00H
	DD	0ffffffffH
	DD	00H
	DD	040H
	DD	imagerel ??_R3CBaseObject@@8
rdata$r	ENDS
;	COMDAT ??_R2CBaseObject@@8
rdata$r	SEGMENT
??_R2CBaseObject@@8 DD imagerel ??_R1A@?0A@EA@CBaseObject@@8 ; CBaseObject::`RTTI Base Class Array'
	ORG $+3
rdata$r	ENDS
;	COMDAT ??_R3CBaseObject@@8
rdata$r	SEGMENT
??_R3CBaseObject@@8 DD 00H				; CBaseObject::`RTTI Class Hierarchy Descriptor'
	DD	00H
	DD	01H
	DD	imagerel ??_R2CBaseObject@@8
rdata$r	ENDS
;	COMDAT ??_R0?AVCBaseObject@@@8
_DATA	SEGMENT
??_R0?AVCBaseObject@@@8 DQ FLAT:??_7type_info@@6B@	; CBaseObject `RTTI Type Descriptor'
	DQ	0000000000000000H
	DB	'.?AVCBaseObject@@', 00H
_DATA	ENDS
;	COMDAT ??_R17?0A@EA@CBaseObject@@8
rdata$r	SEGMENT
??_R17?0A@EA@CBaseObject@@8 DD imagerel ??_R0?AVCBaseObject@@@8 ; CBaseObject::`RTTI Base Class Descriptor at (8,-1,0,64)'
	DD	00H
	DD	08H
	DD	0ffffffffH
	DD	00H
	DD	040H
	DD	imagerel ??_R3CBaseObject@@8
rdata$r	ENDS
;	COMDAT ??_R2INonDelegatingUnknown@@8
rdata$r	SEGMENT
??_R2INonDelegatingUnknown@@8 DD imagerel ??_R1A@?0A@EA@INonDelegatingUnknown@@8 ; INonDelegatingUnknown::`RTTI Base Class Array'
	ORG $+3
rdata$r	ENDS
;	COMDAT ??_R3INonDelegatingUnknown@@8
rdata$r	SEGMENT
??_R3INonDelegatingUnknown@@8 DD 00H			; INonDelegatingUnknown::`RTTI Class Hierarchy Descriptor'
	DD	00H
	DD	01H
	DD	imagerel ??_R2INonDelegatingUnknown@@8
rdata$r	ENDS
;	COMDAT ??_R0?AUINonDelegatingUnknown@@@8
_DATA	SEGMENT
??_R0?AUINonDelegatingUnknown@@@8 DQ FLAT:??_7type_info@@6B@ ; INonDelegatingUnknown `RTTI Type Descriptor'
	DQ	0000000000000000H
	DB	'.?AUINonDelegatingUnknown@@', 00H
_DATA	ENDS
;	COMDAT ??_R1A@?0A@EA@INonDelegatingUnknown@@8
rdata$r	SEGMENT
??_R1A@?0A@EA@INonDelegatingUnknown@@8 DD imagerel ??_R0?AUINonDelegatingUnknown@@@8 ; INonDelegatingUnknown::`RTTI Base Class Descriptor at (0,-1,0,64)'
	DD	00H
	DD	00H
	DD	0ffffffffH
	DD	00H
	DD	040H
	DD	imagerel ??_R3INonDelegatingUnknown@@8
rdata$r	ENDS
;	COMDAT ??_R2CUnknown@@8
rdata$r	SEGMENT
??_R2CUnknown@@8 DD imagerel ??_R1A@?0A@EA@CUnknown@@8	; CUnknown::`RTTI Base Class Array'
	DD	imagerel ??_R1A@?0A@EA@INonDelegatingUnknown@@8
	DD	imagerel ??_R17?0A@EA@CBaseObject@@8
	ORG $+3
rdata$r	ENDS
;	COMDAT ??_R3CUnknown@@8
rdata$r	SEGMENT
??_R3CUnknown@@8 DD 00H					; CUnknown::`RTTI Class Hierarchy Descriptor'
	DD	01H
	DD	03H
	DD	imagerel ??_R2CUnknown@@8
rdata$r	ENDS
;	COMDAT ??_R0?AVCUnknown@@@8
_DATA	SEGMENT
??_R0?AVCUnknown@@@8 DQ FLAT:??_7type_info@@6B@		; CUnknown `RTTI Type Descriptor'
	DQ	0000000000000000H
	DB	'.?AVCUnknown@@', 00H
_DATA	ENDS
;	COMDAT ??_R1A@?0A@EA@CUnknown@@8
rdata$r	SEGMENT
??_R1A@?0A@EA@CUnknown@@8 DD imagerel ??_R0?AVCUnknown@@@8 ; CUnknown::`RTTI Base Class Descriptor at (0,-1,0,64)'
	DD	02H
	DD	00H
	DD	0ffffffffH
	DD	00H
	DD	040H
	DD	imagerel ??_R3CUnknown@@8
rdata$r	ENDS
;	COMDAT ??_R2CBasePin@@8
rdata$r	SEGMENT
??_R2CBasePin@@8 DD imagerel ??_R1A@?0A@EA@CBasePin@@8	; CBasePin::`RTTI Base Class Array'
	DD	imagerel ??_R1A@?0A@EA@CUnknown@@8
	DD	imagerel ??_R1A@?0A@EA@INonDelegatingUnknown@@8
	DD	imagerel ??_R17?0A@EA@CBaseObject@@8
	DD	imagerel ??_R1CA@?0A@EA@IPin@@8
	DD	imagerel ??_R1CA@?0A@EC@IUnknown@@8
	DD	imagerel ??_R1CI@?0A@EA@IQualityControl@@8
	DD	imagerel ??_R1CI@?0A@EC@IUnknown@@8
	ORG $+3
rdata$r	ENDS
;	COMDAT ??_R3CBasePin@@8
rdata$r	SEGMENT
??_R3CBasePin@@8 DD 00H					; CBasePin::`RTTI Class Hierarchy Descriptor'
	DD	01H
	DD	08H
	DD	imagerel ??_R2CBasePin@@8
rdata$r	ENDS
;	COMDAT ??_R0?AVCBasePin@@@8
_DATA	SEGMENT
??_R0?AVCBasePin@@@8 DQ FLAT:??_7type_info@@6B@		; CBasePin `RTTI Type Descriptor'
	DQ	0000000000000000H
	DB	'.?AVCBasePin@@', 00H
_DATA	ENDS
;	COMDAT ??_R1A@?0A@EA@CBasePin@@8
rdata$r	SEGMENT
??_R1A@?0A@EA@CBasePin@@8 DD imagerel ??_R0?AVCBasePin@@@8 ; CBasePin::`RTTI Base Class Descriptor at (0,-1,0,64)'
	DD	07H
	DD	00H
	DD	0ffffffffH
	DD	00H
	DD	040H
	DD	imagerel ??_R3CBasePin@@8
rdata$r	ENDS
;	COMDAT ??_R2CBaseInputPin@@8
rdata$r	SEGMENT
??_R2CBaseInputPin@@8 DD imagerel ??_R1A@?0A@EA@CBaseInputPin@@8 ; CBaseInputPin::`RTTI Base Class Array'
	DD	imagerel ??_R1A@?0A@EA@CBasePin@@8
	DD	imagerel ??_R1A@?0A@EA@CUnknown@@8
	DD	imagerel ??_R1A@?0A@EA@INonDelegatingUnknown@@8
	DD	imagerel ??_R17?0A@EA@CBaseObject@@8
	DD	imagerel ??_R1CA@?0A@EA@IPin@@8
	DD	imagerel ??_R1CA@?0A@EC@IUnknown@@8
	DD	imagerel ??_R1CI@?0A@EA@IQualityControl@@8
	DD	imagerel ??_R1CI@?0A@EC@IUnknown@@8
	DD	imagerel ??_R1OI@?0A@EA@IMemInputPin@@8
	DD	imagerel ??_R1OI@?0A@EC@IUnknown@@8
	ORG $+3
rdata$r	ENDS
;	COMDAT ??_R3CBaseInputPin@@8
rdata$r	SEGMENT
??_R3CBaseInputPin@@8 DD 00H				; CBaseInputPin::`RTTI Class Hierarchy Descriptor'
	DD	05H
	DD	0bH
	DD	imagerel ??_R2CBaseInputPin@@8
rdata$r	ENDS
;	COMDAT ??_R0?AVCBaseInputPin@@@8
_DATA	SEGMENT
??_R0?AVCBaseInputPin@@@8 DQ FLAT:??_7type_info@@6B@	; CBaseInputPin `RTTI Type Descriptor'
	DQ	0000000000000000H
	DB	'.?AVCBaseInputPin@@', 00H
_DATA	ENDS
;	COMDAT ??_R1A@?0A@EA@CBaseInputPin@@8
rdata$r	SEGMENT
??_R1A@?0A@EA@CBaseInputPin@@8 DD imagerel ??_R0?AVCBaseInputPin@@@8 ; CBaseInputPin::`RTTI Base Class Descriptor at (0,-1,0,64)'
	DD	0aH
	DD	00H
	DD	0ffffffffH
	DD	00H
	DD	040H
	DD	imagerel ??_R3CBaseInputPin@@8
rdata$r	ENDS
;	COMDAT ??_R2CTransformInputPin@@8
rdata$r	SEGMENT
??_R2CTransformInputPin@@8 DD imagerel ??_R1A@?0A@EA@CTransformInputPin@@8 ; CTransformInputPin::`RTTI Base Class Array'
	DD	imagerel ??_R1A@?0A@EA@CBaseInputPin@@8
	DD	imagerel ??_R1A@?0A@EA@CBasePin@@8
	DD	imagerel ??_R1A@?0A@EA@CUnknown@@8
	DD	imagerel ??_R1A@?0A@EA@INonDelegatingUnknown@@8
	DD	imagerel ??_R17?0A@EA@CBaseObject@@8
	DD	imagerel ??_R1CA@?0A@EA@IPin@@8
	DD	imagerel ??_R1CA@?0A@EC@IUnknown@@8
	DD	imagerel ??_R1CI@?0A@EA@IQualityControl@@8
	DD	imagerel ??_R1CI@?0A@EC@IUnknown@@8
	DD	imagerel ??_R1OI@?0A@EA@IMemInputPin@@8
	DD	imagerel ??_R1OI@?0A@EC@IUnknown@@8
	ORG $+3
rdata$r	ENDS
;	COMDAT ??_R3CTransformInputPin@@8
rdata$r	SEGMENT
??_R3CTransformInputPin@@8 DD 00H			; CTransformInputPin::`RTTI Class Hierarchy Descriptor'
	DD	01H
	DD	0cH
	DD	imagerel ??_R2CTransformInputPin@@8
rdata$r	ENDS
;	COMDAT ??_R0?AVCTransformInputPin@@@8
_DATA	SEGMENT
??_R0?AVCTransformInputPin@@@8 DQ FLAT:??_7type_info@@6B@ ; CTransformInputPin `RTTI Type Descriptor'
	DQ	0000000000000000H
	DB	'.?AVCTransformInputPin@@', 00H
_DATA	ENDS
;	COMDAT ??_R1A@?0A@EA@CTransformInputPin@@8
rdata$r	SEGMENT
??_R1A@?0A@EA@CTransformInputPin@@8 DD imagerel ??_R0?AVCTransformInputPin@@@8 ; CTransformInputPin::`RTTI Base Class Descriptor at (0,-1,0,64)'
	DD	0bH
	DD	00H
	DD	0ffffffffH
	DD	00H
	DD	040H
	DD	imagerel ??_R3CTransformInputPin@@8
rdata$r	ENDS
;	COMDAT ??_R1A@?0A@EA@CTransInPlaceInputPin@@8
rdata$r	SEGMENT
??_R1A@?0A@EA@CTransInPlaceInputPin@@8 DD imagerel ??_R0?AVCTransInPlaceInputPin@@@8 ; CTransInPlaceInputPin::`RTTI Base Class Descriptor at (0,-1,0,64)'
	DD	0cH
	DD	00H
	DD	0ffffffffH
	DD	00H
	DD	040H
	DD	imagerel ??_R3CTransInPlaceInputPin@@8
rdata$r	ENDS
;	COMDAT ??_R2CTransInPlaceInputPin@@8
rdata$r	SEGMENT
??_R2CTransInPlaceInputPin@@8 DD imagerel ??_R1A@?0A@EA@CTransInPlaceInputPin@@8 ; CTransInPlaceInputPin::`RTTI Base Class Array'
	DD	imagerel ??_R1A@?0A@EA@CTransformInputPin@@8
	DD	imagerel ??_R1A@?0A@EA@CBaseInputPin@@8
	DD	imagerel ??_R1A@?0A@EA@CBasePin@@8
	DD	imagerel ??_R1A@?0A@EA@CUnknown@@8
	DD	imagerel ??_R1A@?0A@EA@INonDelegatingUnknown@@8
	DD	imagerel ??_R17?0A@EA@CBaseObject@@8
	DD	imagerel ??_R1CA@?0A@EA@IPin@@8
	DD	imagerel ??_R1CA@?0A@EC@IUnknown@@8
	DD	imagerel ??_R1CI@?0A@EA@IQualityControl@@8
	DD	imagerel ??_R1CI@?0A@EC@IUnknown@@8
	DD	imagerel ??_R1OI@?0A@EA@IMemInputPin@@8
	DD	imagerel ??_R1OI@?0A@EC@IUnknown@@8
	ORG $+3
rdata$r	ENDS
;	COMDAT ??_R3CTransInPlaceInputPin@@8
rdata$r	SEGMENT
??_R3CTransInPlaceInputPin@@8 DD 00H			; CTransInPlaceInputPin::`RTTI Class Hierarchy Descriptor'
	DD	01H
	DD	0dH
	DD	imagerel ??_R2CTransInPlaceInputPin@@8
rdata$r	ENDS
;	COMDAT ??_R0?AVCTransInPlaceInputPin@@@8
_DATA	SEGMENT
??_R0?AVCTransInPlaceInputPin@@@8 DQ FLAT:??_7type_info@@6B@ ; CTransInPlaceInputPin `RTTI Type Descriptor'
	DQ	0000000000000000H
	DB	'.?AVCTransInPlaceInputPin@@', 00H
_DATA	ENDS
;	COMDAT ??_R4CTransInPlaceInputPin@@6BCUnknown@@@
rdata$r	SEGMENT
??_R4CTransInPlaceInputPin@@6BCUnknown@@@ DD 01H	; CTransInPlaceInputPin::`RTTI Complete Object Locator'
	DD	00H
	DD	00H
	DD	imagerel ??_R0?AVCTransInPlaceInputPin@@@8
	DD	imagerel ??_R3CTransInPlaceInputPin@@8
	DD	imagerel ??_R4CTransInPlaceInputPin@@6BCUnknown@@@
rdata$r	ENDS
;	COMDAT xdata
xdata	SEGMENT
$unwind$?dtor$0@?0???0CTransInPlaceInputPin@@QEAA@PEA_WPEAVCTransInPlaceFilter@@PEAJPEB_W@Z@4HA DD 031001H
	DD	0700c4210H
	DD	0500bH
xdata	ENDS
;	COMDAT xdata
xdata	SEGMENT
$unwind$??0CTransInPlaceInputPin@@QEAA@PEA_WPEAVCTransInPlaceFilter@@PEAJPEB_W@Z DD 023611H
	DD	070157219H
	DD	imagerel __CxxFrameHandler3
	DD	imagerel $cppxdata$??0CTransInPlaceInputPin@@QEAA@PEA_WPEAVCTransInPlaceFilter@@PEAJPEB_W@Z
xdata	ENDS
;	COMDAT CONST
CONST	SEGMENT
$cppxdata$??0CTransInPlaceInputPin@@QEAA@PEA_WPEAVCTransInPlaceFilter@@PEAJPEB_W@Z DD 019930522H
	DD	01H
	DD	imagerel $stateUnwindMap$??0CTransInPlaceInputPin@@QEAA@PEA_WPEAVCTransInPlaceFilter@@PEAJPEB_W@Z
	DD	00H
	DD	00H
	DD	03H
	DD	imagerel $ip2state$??0CTransInPlaceInputPin@@QEAA@PEA_WPEAVCTransInPlaceFilter@@PEAJPEB_W@Z
	DD	030H
	DD	00H
	DD	01H
CONST	ENDS
;	COMDAT xdata
xdata	SEGMENT
$stateUnwindMap$??0CTransInPlaceInputPin@@QEAA@PEA_WPEAVCTransInPlaceFilter@@PEAJPEB_W@Z DD 0ffffffffH
	DD	imagerel ?dtor$0@?0???0CTransInPlaceInputPin@@QEAA@PEA_WPEAVCTransInPlaceFilter@@PEAJPEB_W@Z@4HA
xdata	ENDS
;	COMDAT ??_7CTransInPlaceInputPin@@6B@
CONST	SEGMENT
??_7CTransInPlaceInputPin@@6B@ DQ FLAT:??_R4CTransInPlaceInputPin@@6B@ ; CTransInPlaceInputPin::`vftable'
	DQ	FLAT:?QueryInterface@CBaseInputPin@@WMI@EAAJAEBU_GUID@@PEAPEAX@Z
	DQ	FLAT:?AddRef@CBaseInputPin@@WMI@EAAKXZ
	DQ	FLAT:?Release@CBaseInputPin@@WMI@EAAKXZ
	DQ	FLAT:?GetAllocator@CTransInPlaceInputPin@@UEAAJPEAPEAUIMemAllocator@@@Z
	DQ	FLAT:?NotifyAllocator@CTransInPlaceInputPin@@UEAAJPEAUIMemAllocator@@H@Z
	DQ	FLAT:?GetAllocatorRequirements@CTransInPlaceInputPin@@UEAAJPEAU_AllocatorProperties@@@Z
	DQ	FLAT:?Receive@CTransformInputPin@@UEAAJPEAUIMediaSample@@@Z
	DQ	FLAT:?ReceiveMultiple@CBaseInputPin@@UEAAJPEAPEAUIMediaSample@@JPEAJ@Z
	DQ	FLAT:?ReceiveCanBlock@CBaseInputPin@@UEAAJXZ
CONST	ENDS
;	COMDAT ??_7CTransInPlaceInputPin@@6BIQualityControl@@@
CONST	SEGMENT
??_7CTransInPlaceInputPin@@6BIQualityControl@@@ DQ FLAT:??_R4CTransInPlaceInputPin@@6BIQualityControl@@@ ; CTransInPlaceInputPin::`vftable'
	DQ	FLAT:?QueryInterface@CBaseInputPin@@W7EAAJAEBU_GUID@@PEAPEAX@Z
	DQ	FLAT:?AddRef@CBaseInputPin@@W7EAAKXZ
	DQ	FLAT:?Release@CBaseInputPin@@W7EAAKXZ
	DQ	FLAT:?Notify@CBaseInputPin@@UEAAJPEAUIBaseFilter@@UtagQuality@@@Z
	DQ	FLAT:?SetSink@CBasePin@@UEAAJPEAUIQualityControl@@@Z
CONST	ENDS
;	COMDAT ??_7CTransInPlaceInputPin@@6BIPin@@@
CONST	SEGMENT
??_7CTransInPlaceInputPin@@6BIPin@@@ DQ FLAT:??_R4CTransInPlaceInputPin@@6BIPin@@@ ; CTransInPlaceInputPin::`vftable'
	DQ	FLAT:?QueryInterface@CBaseInputPin@@UEAAJAEBU_GUID@@PEAPEAX@Z
	DQ	FLAT:?AddRef@CBaseInputPin@@UEAAKXZ
	DQ	FLAT:?Release@CBaseInputPin@@UEAAKXZ
	DQ	FLAT:?Connect@CBasePin@@UEAAJPEAUIPin@@PEBU_AMMediaType@@@Z
	DQ	FLAT:?ReceiveConnection@CBasePin@@UEAAJPEAUIPin@@PEBU_AMMediaType@@@Z
	DQ	FLAT:?Disconnect@CBasePin@@UEAAJXZ
	DQ	FLAT:?ConnectedTo@CBasePin@@UEAAJPEAPEAUIPin@@@Z
	DQ	FLAT:?ConnectionMediaType@CBasePin@@UEAAJPEAU_AMMediaType@@@Z
	DQ	FLAT:?QueryPinInfo@CBasePin@@UEAAJPEAU_PinInfo@@@Z
	DQ	FLAT:?QueryDirection@CBasePin@@UEAAJPEAW4_PinDirection@@@Z
	DQ	FLAT:?QueryId@CTransformInputPin@@UEAAJPEAPEA_W@Z
	DQ	FLAT:?QueryAccept@CBasePin@@UEAAJPEBU_AMMediaType@@@Z
	DQ	FLAT:?EnumMediaTypes@CTransInPlaceInputPin@@UEAAJPEAPEAUIEnumMediaTypes@@@Z
	DQ	FLAT:?QueryInternalConnections@CBasePin@@UEAAJPEAPEAUIPin@@PEAK@Z
	DQ	FLAT:?EndOfStream@CTransformInputPin@@UEAAJXZ
	DQ	FLAT:?BeginFlush@CTransformInputPin@@UEAAJXZ
	DQ	FLAT:?EndFlush@CTransformInputPin@@UEAAJXZ
	DQ	FLAT:?NewSegment@CTransformInputPin@@UEAAJ_J0N@Z
CONST	ENDS
;	COMDAT ??_7CTransInPlaceInputPin@@6BCUnknown@@@
CONST	SEGMENT
??_7CTransInPlaceInputPin@@6BCUnknown@@@ DQ FLAT:??_R4CTransInPlaceInputPin@@6BCUnknown@@@ ; CTransInPlaceInputPin::`vftable'
	DQ	FLAT:?NonDelegatingQueryInterface@CBaseInputPin@@UEAAJAEBU_GUID@@PEAPEAX@Z
	DQ	FLAT:?NonDelegatingAddRef@CBasePin@@UEAAKXZ
	DQ	FLAT:?NonDelegatingRelease@CBasePin@@UEAAKXZ
	DQ	FLAT:??_ECTransInPlaceInputPin@@UEAAPEAXI@Z
	DQ	FLAT:?GetMediaTypeVersion@CBasePin@@UEAAJXZ
	DQ	FLAT:?Active@CBasePin@@UEAAJXZ
	DQ	FLAT:?Inactive@CBaseInputPin@@UEAAJXZ
	DQ	FLAT:?Run@CBasePin@@UEAAJ_J@Z
	DQ	FLAT:?CheckMediaType@CTransInPlaceInputPin@@UEAAJPEBVCMediaType@@@Z
	DQ	FLAT:?SetMediaType@CTransformInputPin@@UEAAJPEBVCMediaType@@@Z
	DQ	FLAT:?CheckConnect@CTransformInputPin@@UEAAJPEAUIPin@@@Z
	DQ	FLAT:?BreakConnect@CTransformInputPin@@UEAAJXZ
	DQ	FLAT:?CompleteConnect@CTransInPlaceInputPin@@UEAAJPEAUIPin@@@Z
	DQ	FLAT:?GetMediaType@CBasePin@@UEAAJHPEAVCMediaType@@@Z
	DQ	FLAT:?CheckStreaming@CTransformInputPin@@UEAAJXZ
; Function compile flags: /Odtp /RTCsu
CONST	ENDS
;	COMDAT ??0CTransInPlaceInputPin@@QEAA@PEA_WPEAVCTransInPlaceFilter@@PEAJPEB_W@Z
_TEXT	SEGMENT
$T83582 = 48
this$ = 80
pObjectName$ = 88
pFilter$ = 96
phr$ = 104
pName$ = 112
??0CTransInPlaceInputPin@@QEAA@PEA_WPEAVCTransInPlaceFilter@@PEAJPEB_W@Z PROC ; CTransInPlaceInputPin::CTransInPlaceInputPin, COMDAT
; Line 665
$LN4:
	mov	QWORD PTR [rsp+32], r9
	mov	QWORD PTR [rsp+24], r8
	mov	QWORD PTR [rsp+16], rdx
	mov	QWORD PTR [rsp+8], rcx
	push	rdi
	sub	rsp, 64					; 00000040H
	mov	rdi, rsp
	mov	ecx, 16
	mov	eax, -858993460				; ccccccccH
	rep stosd
	mov	rcx, QWORD PTR [rsp+80]
	mov	QWORD PTR $T83582[rsp], -2
	mov	rax, QWORD PTR pName$[rsp]
	mov	QWORD PTR [rsp+32], rax
	mov	r9, QWORD PTR phr$[rsp]
	mov	r8, QWORD PTR pFilter$[rsp]
	mov	rdx, QWORD PTR pObjectName$[rsp]
	mov	rcx, QWORD PTR this$[rsp]
	call	??0CTransformInputPin@@QEAA@PEA_WPEAVCTransformFilter@@PEAJPEB_W@Z ; CTransformInputPin::CTransformInputPin
	npad	1
	mov	rax, QWORD PTR this$[rsp]
	lea	rcx, OFFSET FLAT:??_7CTransInPlaceInputPin@@6BCUnknown@@@
	mov	QWORD PTR [rax], rcx
	mov	rax, QWORD PTR this$[rsp]
	lea	rcx, OFFSET FLAT:??_7CTransInPlaceInputPin@@6BIPin@@@
	mov	QWORD PTR [rax+32], rcx
	mov	rax, QWORD PTR this$[rsp]
	lea	rcx, OFFSET FLAT:??_7CTransInPlaceInputPin@@6BIQualityControl@@@
	mov	QWORD PTR [rax+40], rcx
	mov	rax, QWORD PTR this$[rsp]
	lea	rcx, OFFSET FLAT:??_7CTransInPlaceInputPin@@6B@
	mov	QWORD PTR [rax+232], rcx
	mov	rax, QWORD PTR this$[rsp]
	mov	rcx, QWORD PTR pFilter$[rsp]
	mov	QWORD PTR [rax+328], rcx
	mov	rax, QWORD PTR this$[rsp]
	mov	DWORD PTR [rax+336], 0
; Line 667
	lea	r8, OFFSET FLAT:$SG82417
	mov	edx, 2
	mov	ecx, 2
	call	?DbgLogInfo@@YAXKKPEB_WZZ		; DbgLogInfo
	npad	1
; Line 669
	mov	rax, QWORD PTR this$[rsp]
	add	rsp, 64					; 00000040H
	pop	rdi
	ret	0
??0CTransInPlaceInputPin@@QEAA@PEA_WPEAVCTransInPlaceFilter@@PEAJPEB_W@Z ENDP ; CTransInPlaceInputPin::CTransInPlaceInputPin
; Function compile flags: /Odtp /RTCsu
_TEXT	ENDS
;	COMDAT text$x
text$x	SEGMENT
$T83582 = 48
this$ = 80
pObjectName$ = 88
pFilter$ = 96
phr$ = 104
pName$ = 112
?dtor$0@?0???0CTransInPlaceInputPin@@QEAA@PEA_WPEAVCTransInPlaceFilter@@PEAJPEB_W@Z@4HA PROC ; `CTransInPlaceInputPin::CTransInPlaceInputPin'::`1'::dtor$0
	mov	QWORD PTR [rsp+8], rcx
	mov	QWORD PTR [rsp+16], rdx
	push	rbp
	push	rdi
	sub	rsp, 40					; 00000028H
	mov	rbp, rdx
	mov	rcx, QWORD PTR this$[rbp]
	call	??1CTransformInputPin@@UEAA@XZ
	add	rsp, 40					; 00000028H
	pop	rdi
	pop	rbp
	ret	0
?dtor$0@?0???0CTransInPlaceInputPin@@QEAA@PEA_WPEAVCTransInPlaceFilter@@PEAJPEB_W@Z@4HA ENDP ; `CTransInPlaceInputPin::CTransInPlaceInputPin'::`1'::dtor$0
text$x	ENDS
;	COMDAT pdata
; File c:\downloads\wpf mediakit - copy\src\filters\baseclasses\amfilter.h
pdata	SEGMENT
$pdata$?QueryInternalConnections@CBasePin@@UEAAJPEAPEAUIPin@@PEAK@Z DD imagerel $LN3
	DD	imagerel $LN3+23
	DD	imagerel $unwind$?QueryInternalConnections@CBasePin@@UEAAJPEAPEAUIPin@@PEAK@Z
pdata	ENDS
;	COMDAT xdata
xdata	SEGMENT
$unwind$?QueryInternalConnections@CBasePin@@UEAAJPEAPEAUIPin@@PEAK@Z DD 011001H
	DD	07010H
; Function compile flags: /Odtp /RTCsu
xdata	ENDS
;	COMDAT ?QueryInternalConnections@CBasePin@@UEAAJPEAPEAUIPin@@PEAK@Z
_TEXT	SEGMENT
this$ = 16
apPin$ = 24
nPin$ = 32
?QueryInternalConnections@CBasePin@@UEAAJPEAPEAUIPin@@PEAK@Z PROC ; CBasePin::QueryInternalConnections, COMDAT
; Line 472
$LN3:
	mov	QWORD PTR [rsp+24], r8
	mov	QWORD PTR [rsp+16], rdx
	mov	QWORD PTR [rsp+8], rcx
	push	rdi
	mov	eax, -2147467263			; ffffffff80004001H
	pop	rdi
	ret	0
?QueryInternalConnections@CBasePin@@UEAAJPEAPEAUIPin@@PEAK@Z ENDP ; CBasePin::QueryInternalConnections
_TEXT	ENDS
PUBLIC	?GetOwner@CUnknown@@QEBAPEAUIUnknown@@XZ	; CUnknown::GetOwner
;	COMDAT pdata
pdata	SEGMENT
$pdata$?QueryInterface@CBaseInputPin@@UEAAJAEBU_GUID@@PEAPEAX@Z DD imagerel $LN3
	DD	imagerel $LN3+93
	DD	imagerel $unwind$?QueryInterface@CBaseInputPin@@UEAAJAEBU_GUID@@PEAPEAX@Z
pdata	ENDS
;	COMDAT xdata
xdata	SEGMENT
$unwind$?QueryInterface@CBaseInputPin@@UEAAJAEBU_GUID@@PEAPEAX@Z DD 022801H
	DD	070105214H
; Function compile flags: /Odtp /RTCsu
xdata	ENDS
;	COMDAT ?QueryInterface@CBaseInputPin@@UEAAJAEBU_GUID@@PEAPEAX@Z
_TEXT	SEGMENT
tv72 = 32
this$ = 64
riid$ = 72
ppv$ = 80
?QueryInterface@CBaseInputPin@@UEAAJAEBU_GUID@@PEAPEAX@Z PROC ; CBaseInputPin::QueryInterface, COMDAT
; Line 857
$LN3:
	mov	QWORD PTR [rsp+24], r8
	mov	QWORD PTR [rsp+16], rdx
	mov	QWORD PTR [rsp+8], rcx
	push	rdi
	sub	rsp, 48					; 00000030H
	mov	rdi, rsp
	mov	ecx, 12
	mov	eax, -858993460				; ccccccccH
	rep stosd
	mov	rcx, QWORD PTR [rsp+64]
	mov	rax, QWORD PTR this$[rsp]
	sub	rax, 32					; 00000020H
	mov	rcx, rax
	call	?GetOwner@CUnknown@@QEBAPEAUIUnknown@@XZ ; CUnknown::GetOwner
	mov	QWORD PTR tv72[rsp], rax
	mov	rax, QWORD PTR tv72[rsp]
	mov	rax, QWORD PTR [rax]
	mov	r8, QWORD PTR ppv$[rsp]
	mov	rdx, QWORD PTR riid$[rsp]
	mov	rcx, QWORD PTR tv72[rsp]
	call	QWORD PTR [rax]
	add	rsp, 48					; 00000030H
	pop	rdi
	ret	0
?QueryInterface@CBaseInputPin@@UEAAJAEBU_GUID@@PEAPEAX@Z ENDP ; CBaseInputPin::QueryInterface
_TEXT	ENDS
;	COMDAT pdata
; File c:\downloads\wpf mediakit - copy\src\filters\baseclasses\combase.h
pdata	SEGMENT
$pdata$?GetOwner@CUnknown@@QEBAPEAUIUnknown@@XZ DD imagerel $LN3
	DD	imagerel $LN3+17
	DD	imagerel $unwind$?GetOwner@CUnknown@@QEBAPEAUIUnknown@@XZ
pdata	ENDS
;	COMDAT xdata
xdata	SEGMENT
$unwind$?GetOwner@CUnknown@@QEBAPEAUIUnknown@@XZ DD 010601H
	DD	07006H
; Function compile flags: /Odtp /RTCsu
xdata	ENDS
;	COMDAT ?GetOwner@CUnknown@@QEBAPEAUIUnknown@@XZ
_TEXT	SEGMENT
this$ = 16
?GetOwner@CUnknown@@QEBAPEAUIUnknown@@XZ PROC		; CUnknown::GetOwner, COMDAT
; Line 224
$LN3:
	mov	QWORD PTR [rsp+8], rcx
	push	rdi
; Line 225
	mov	rax, QWORD PTR this$[rsp]
	mov	rax, QWORD PTR [rax+16]
; Line 226
	pop	rdi
	ret	0
?GetOwner@CUnknown@@QEBAPEAUIUnknown@@XZ ENDP		; CUnknown::GetOwner
_TEXT	ENDS
;	COMDAT pdata
; File c:\downloads\wpf mediakit - copy\src\filters\baseclasses\amfilter.h
pdata	SEGMENT
$pdata$?AddRef@CBaseInputPin@@UEAAKXZ DD imagerel $LN3
	DD	imagerel $LN3+74
	DD	imagerel $unwind$?AddRef@CBaseInputPin@@UEAAKXZ
pdata	ENDS
;	COMDAT xdata
xdata	SEGMENT
$unwind$?AddRef@CBaseInputPin@@UEAAKXZ DD 021e01H
	DD	07006520aH
; Function compile flags: /Odtp /RTCsu
xdata	ENDS
;	COMDAT ?AddRef@CBaseInputPin@@UEAAKXZ
_TEXT	SEGMENT
tv72 = 32
this$ = 64
?AddRef@CBaseInputPin@@UEAAKXZ PROC			; CBaseInputPin::AddRef, COMDAT
; Line 857
$LN3:
	mov	QWORD PTR [rsp+8], rcx
	push	rdi
	sub	rsp, 48					; 00000030H
	mov	rdi, rsp
	mov	ecx, 12
	mov	eax, -858993460				; ccccccccH
	rep stosd
	mov	rcx, QWORD PTR [rsp+64]
	mov	rax, QWORD PTR this$[rsp]
	sub	rax, 32					; 00000020H
	mov	rcx, rax
	call	?GetOwner@CUnknown@@QEBAPEAUIUnknown@@XZ ; CUnknown::GetOwner
	mov	QWORD PTR tv72[rsp], rax
	mov	rax, QWORD PTR tv72[rsp]
	mov	rax, QWORD PTR [rax]
	mov	rcx, QWORD PTR tv72[rsp]
	call	QWORD PTR [rax+8]
	add	rsp, 48					; 00000030H
	pop	rdi
	ret	0
?AddRef@CBaseInputPin@@UEAAKXZ ENDP			; CBaseInputPin::AddRef
_TEXT	ENDS
;	COMDAT pdata
pdata	SEGMENT
$pdata$?Release@CBaseInputPin@@UEAAKXZ DD imagerel $LN3
	DD	imagerel $LN3+74
	DD	imagerel $unwind$?Release@CBaseInputPin@@UEAAKXZ
pdata	ENDS
;	COMDAT xdata
xdata	SEGMENT
$unwind$?Release@CBaseInputPin@@UEAAKXZ DD 021e01H
	DD	07006520aH
; Function compile flags: /Odtp /RTCsu
xdata	ENDS
;	COMDAT ?Release@CBaseInputPin@@UEAAKXZ
_TEXT	SEGMENT
tv72 = 32
this$ = 64
?Release@CBaseInputPin@@UEAAKXZ PROC			; CBaseInputPin::Release, COMDAT
; Line 857
$LN3:
	mov	QWORD PTR [rsp+8], rcx
	push	rdi
	sub	rsp, 48					; 00000030H
	mov	rdi, rsp
	mov	ecx, 12
	mov	eax, -858993460				; ccccccccH
	rep stosd
	mov	rcx, QWORD PTR [rsp+64]
	mov	rax, QWORD PTR this$[rsp]
	sub	rax, 32					; 00000020H
	mov	rcx, rax
	call	?GetOwner@CUnknown@@QEBAPEAUIUnknown@@XZ ; CUnknown::GetOwner
	mov	QWORD PTR tv72[rsp], rax
	mov	rax, QWORD PTR tv72[rsp]
	mov	rax, QWORD PTR [rax]
	mov	rcx, QWORD PTR tv72[rsp]
	call	QWORD PTR [rax+16]
	add	rsp, 48					; 00000030H
	pop	rdi
	ret	0
?Release@CBaseInputPin@@UEAAKXZ ENDP			; CBaseInputPin::Release
_TEXT	ENDS
PUBLIC	??_C@_15LNJDIFMI@?$AAI?$AAn?$AA?$AA@		; `string'
EXTRN	AMGetWideString:PROC
;	COMDAT pdata
; File c:\downloads\wpf mediakit - copy\src\filters\baseclasses\transfrm.h
pdata	SEGMENT
$pdata$?QueryId@CTransformInputPin@@UEAAJPEAPEA_W@Z DD imagerel $LN3
	DD	imagerel $LN3+58
	DD	imagerel $unwind$?QueryId@CTransformInputPin@@UEAAJPEAPEA_W@Z
pdata	ENDS
;	COMDAT xdata
xdata	SEGMENT
$unwind$?QueryId@CTransformInputPin@@UEAAJPEAPEA_W@Z DD 022301H
	DD	0700b320fH
xdata	ENDS
;	COMDAT ??_C@_15LNJDIFMI@?$AAI?$AAn?$AA?$AA@
CONST	SEGMENT
??_C@_15LNJDIFMI@?$AAI?$AAn?$AA?$AA@ DB 'I', 00H, 'n', 00H, 00H, 00H ; `string'
; Function compile flags: /Odtp /RTCsu
CONST	ENDS
;	COMDAT ?QueryId@CTransformInputPin@@UEAAJPEAPEA_W@Z
_TEXT	SEGMENT
this$ = 48
Id$ = 56
?QueryId@CTransformInputPin@@UEAAJPEAPEA_W@Z PROC	; CTransformInputPin::QueryId, COMDAT
; Line 57
$LN3:
	mov	QWORD PTR [rsp+16], rdx
	mov	QWORD PTR [rsp+8], rcx
	push	rdi
	sub	rsp, 32					; 00000020H
	mov	rdi, rsp
	mov	ecx, 8
	mov	eax, -858993460				; ccccccccH
	rep stosd
	mov	rcx, QWORD PTR [rsp+48]
; Line 58
	mov	rdx, QWORD PTR Id$[rsp]
	lea	rcx, OFFSET FLAT:??_C@_15LNJDIFMI@?$AAI?$AAn?$AA?$AA@
	call	AMGetWideString
; Line 59
	add	rsp, 32					; 00000020H
	pop	rdi
	ret	0
?QueryId@CTransformInputPin@@UEAAJPEAPEA_W@Z ENDP	; CTransformInputPin::QueryId
_TEXT	ENDS
PUBLIC	??1CTransInPlaceInputPin@@UEAA@XZ		; CTransInPlaceInputPin::~CTransInPlaceInputPin
;	COMDAT pdata
pdata	SEGMENT
$pdata$??_GCTransInPlaceInputPin@@UEAAPEAXI@Z DD imagerel $LN4
	DD	imagerel $LN4+76
	DD	imagerel $unwind$??_GCTransInPlaceInputPin@@UEAAPEAXI@Z
pdata	ENDS
;	COMDAT xdata
xdata	SEGMENT
$unwind$??_GCTransInPlaceInputPin@@UEAAPEAXI@Z DD 022201H
	DD	0700a320eH
; Function compile flags: /Odtp /RTCsu
xdata	ENDS
;	COMDAT ??_GCTransInPlaceInputPin@@UEAAPEAXI@Z
_TEXT	SEGMENT
this$ = 48
__flags$ = 56
??_GCTransInPlaceInputPin@@UEAAPEAXI@Z PROC		; CTransInPlaceInputPin::`scalar deleting destructor', COMDAT
$LN4:
	mov	DWORD PTR [rsp+16], edx
	mov	QWORD PTR [rsp+8], rcx
	push	rdi
	sub	rsp, 32					; 00000020H
	mov	rdi, rsp
	mov	ecx, 8
	mov	eax, -858993460				; ccccccccH
	rep stosd
	mov	rcx, QWORD PTR [rsp+48]
	mov	rcx, QWORD PTR this$[rsp]
	call	??1CTransInPlaceInputPin@@UEAA@XZ
	mov	eax, DWORD PTR __flags$[rsp]
	and	eax, 1
	test	eax, eax
	je	SHORT $LN1@scalar
	mov	rcx, QWORD PTR this$[rsp]
	call	??3@YAXPEAX@Z				; operator delete
$LN1@scalar:
	mov	rax, QWORD PTR this$[rsp]
	add	rsp, 32					; 00000020H
	pop	rdi
	ret	0
??_GCTransInPlaceInputPin@@UEAAPEAXI@Z ENDP		; CTransInPlaceInputPin::`scalar deleting destructor'
_TEXT	ENDS
EXTRN	??1CBaseInputPin@@UEAA@XZ:PROC			; CBaseInputPin::~CBaseInputPin
;	COMDAT pdata
pdata	SEGMENT
$pdata$??1CTransformInputPin@@UEAA@XZ DD imagerel $LN4
	DD	imagerel $LN4+46
	DD	imagerel $unwind$??1CTransformInputPin@@UEAA@XZ
pdata	ENDS
;	COMDAT xdata
xdata	SEGMENT
$unwind$??1CTransformInputPin@@UEAA@XZ DD 021e01H
	DD	07006320aH
; Function compile flags: /Odtp /RTCsu
xdata	ENDS
;	COMDAT ??1CTransformInputPin@@UEAA@XZ
_TEXT	SEGMENT
this$ = 48
??1CTransformInputPin@@UEAA@XZ PROC			; CTransformInputPin::~CTransformInputPin, COMDAT
$LN4:
	mov	QWORD PTR [rsp+8], rcx
	push	rdi
	sub	rsp, 32					; 00000020H
	mov	rdi, rsp
	mov	ecx, 8
	mov	eax, -858993460				; ccccccccH
	rep stosd
	mov	rcx, QWORD PTR [rsp+48]
	mov	rcx, QWORD PTR this$[rsp]
	call	??1CBaseInputPin@@UEAA@XZ		; CBaseInputPin::~CBaseInputPin
	add	rsp, 32					; 00000020H
	pop	rdi
	ret	0
??1CTransformInputPin@@UEAA@XZ ENDP			; CTransformInputPin::~CTransformInputPin
_TEXT	ENDS
;	COMDAT pdata
pdata	SEGMENT
$pdata$??1CTransInPlaceInputPin@@UEAA@XZ DD imagerel $LN4
	DD	imagerel $LN4+46
	DD	imagerel $unwind$??1CTransInPlaceInputPin@@UEAA@XZ
pdata	ENDS
;	COMDAT xdata
xdata	SEGMENT
$unwind$??1CTransInPlaceInputPin@@UEAA@XZ DD 021e01H
	DD	07006320aH
; Function compile flags: /Odtp /RTCsu
xdata	ENDS
;	COMDAT ??1CTransInPlaceInputPin@@UEAA@XZ
_TEXT	SEGMENT
this$ = 48
??1CTransInPlaceInputPin@@UEAA@XZ PROC			; CTransInPlaceInputPin::~CTransInPlaceInputPin, COMDAT
$LN4:
	mov	QWORD PTR [rsp+8], rcx
	push	rdi
	sub	rsp, 32					; 00000020H
	mov	rdi, rsp
	mov	ecx, 8
	mov	eax, -858993460				; ccccccccH
	rep stosd
	mov	rcx, QWORD PTR [rsp+48]
	mov	rcx, QWORD PTR this$[rsp]
	call	??1CTransformInputPin@@UEAA@XZ
	add	rsp, 32					; 00000020H
	pop	rdi
	ret	0
??1CTransInPlaceInputPin@@UEAA@XZ ENDP			; CTransInPlaceInputPin::~CTransInPlaceInputPin
_TEXT	ENDS
PUBLIC	??1CAutoLock@@QEAA@XZ				; CAutoLock::~CAutoLock
PUBLIC	?SetAllocator@CTransInPlaceOutputPin@@QEAAXPEAUIMemAllocator@@@Z ; CTransInPlaceOutputPin::SetAllocator
PUBLIC	?ConnectedIMemInputPin@CTransInPlaceOutputPin@@QEAAPEAUIMemInputPin@@XZ ; CTransInPlaceOutputPin::ConnectedIMemInputPin
PUBLIC	??0CAutoLock@@QEAA@PEAVCCritSec@@@Z		; CAutoLock::CAutoLock
EXTRN	?GetAllocator@CBaseInputPin@@UEAAJPEAPEAUIMemAllocator@@@Z:PROC ; CBaseInputPin::GetAllocator
EXTRN	__imp_IsBadWritePtr:PROC
EXTRN	?DbgBreakPoint@@YAXPEB_W0H@Z:PROC		; DbgBreakPoint
EXTRN	__imp_IsBadReadPtr:PROC
;	COMDAT pdata
; File c:\downloads\wpf mediakit - copy\src\filters\baseclasses\transip.cpp
pdata	SEGMENT
$pdata$?GetAllocator@CTransInPlaceInputPin@@UEAAJPEAPEAUIMemAllocator@@@Z DD imagerel $LN10
	DD	imagerel $LN10+364
	DD	imagerel $unwind$?GetAllocator@CTransInPlaceInputPin@@UEAAJPEAPEAUIMemAllocator@@@Z
pdata	ENDS
;	COMDAT pdata
pdata	SEGMENT
$pdata$?dtor$0@?0??GetAllocator@CTransInPlaceInputPin@@UEAAJPEAPEAUIMemAllocator@@@Z@4HA DD imagerel ?dtor$0@?0??GetAllocator@CTransInPlaceInputPin@@UEAAJPEAPEAUIMemAllocator@@@Z@4HA
	DD	imagerel ?dtor$0@?0??GetAllocator@CTransInPlaceInputPin@@UEAAJPEAPEAUIMemAllocator@@@Z@4HA+35
	DD	imagerel $unwind$?dtor$0@?0??GetAllocator@CTransInPlaceInputPin@@UEAAJPEAPEAUIMemAllocator@@@Z@4HA
pdata	ENDS
;	COMDAT xdata
xdata	SEGMENT
$ip2state$?GetAllocator@CTransInPlaceInputPin@@UEAAJPEAPEAUIMemAllocator@@@Z DD imagerel ?GetAllocator@CTransInPlaceInputPin@@UEAAJPEAPEAUIMemAllocator@@@Z
	DD	0ffffffffH
	DD	imagerel ?GetAllocator@CTransInPlaceInputPin@@UEAAJPEAPEAUIMemAllocator@@@Z+177
	DD	00H
	DD	imagerel ?GetAllocator@CTransInPlaceInputPin@@UEAAJPEAPEAUIMemAllocator@@@Z+323
	DD	0ffffffffH
xdata	ENDS
;	COMDAT xdata
xdata	SEGMENT
$unwind$?dtor$0@?0??GetAllocator@CTransInPlaceInputPin@@UEAAJPEAPEAUIMemAllocator@@@Z@4HA DD 031001H
	DD	0700c4210H
	DD	0500bH
xdata	ENDS
;	COMDAT xdata
xdata	SEGMENT
$unwind$?GetAllocator@CTransInPlaceInputPin@@UEAAJPEAPEAUIMemAllocator@@@Z DD 022c11H
	DD	0700b920fH
	DD	imagerel __CxxFrameHandler3
	DD	imagerel $cppxdata$?GetAllocator@CTransInPlaceInputPin@@UEAAJPEAPEAUIMemAllocator@@@Z
xdata	ENDS
;	COMDAT xdata
xdata	SEGMENT
$stateUnwindMap$?GetAllocator@CTransInPlaceInputPin@@UEAAJPEAPEAUIMemAllocator@@@Z DD 0ffffffffH
	DD	imagerel ?dtor$0@?0??GetAllocator@CTransInPlaceInputPin@@UEAAJPEAPEAUIMemAllocator@@@Z@4HA
xdata	ENDS
;	COMDAT CONST
CONST	SEGMENT
?GetAllocator@CTransInPlaceInputPin@@UEAAJPEAPEAUIMemAllocator@@@Z$rtcName$0 DB 063H ; CTransInPlaceInputPin::GetAllocator
	DB	04fH
	DB	062H
	DB	06aH
	DB	065H
	DB	063H
	DB	074H
	DB	04cH
	DB	06fH
	DB	063H
	DB	06bH
	DB	00H
	ORG $+4
?GetAllocator@CTransInPlaceInputPin@@UEAAJPEAPEAUIMemAllocator@@@Z$rtcVarDesc DD 028H ; CTransInPlaceInputPin::GetAllocator
	DD	08H
	DQ	FLAT:?GetAllocator@CTransInPlaceInputPin@@UEAAJPEAPEAUIMemAllocator@@@Z$rtcName$0
	ORG $+48
?GetAllocator@CTransInPlaceInputPin@@UEAAJPEAPEAUIMemAllocator@@@Z$rtcFrameData DD 01H ; CTransInPlaceInputPin::GetAllocator
	DD	00H
	DQ	FLAT:?GetAllocator@CTransInPlaceInputPin@@UEAAJPEAPEAUIMemAllocator@@@Z$rtcVarDesc
$cppxdata$?GetAllocator@CTransInPlaceInputPin@@UEAAJPEAPEAUIMemAllocator@@@Z DD 019930522H
	DD	01H
	DD	imagerel $stateUnwindMap$?GetAllocator@CTransInPlaceInputPin@@UEAAJPEAPEAUIMemAllocator@@@Z
	DD	00H
	DD	00H
	DD	03H
	DD	imagerel $ip2state$?GetAllocator@CTransInPlaceInputPin@@UEAAJPEAPEAUIMemAllocator@@@Z
	DD	040H
	DD	00H
	DD	01H
; Function compile flags: /Odtp /RTCsu
CONST	ENDS
;	COMDAT ?GetAllocator@CTransInPlaceInputPin@@UEAAJPEAPEAUIMemAllocator@@@Z
_TEXT	SEGMENT
cObjectLock$ = 40
hr$ = 52
$T83671 = 56
$T83677 = 64
tv142 = 72
this$ = 96
ppAllocator$ = 104
?GetAllocator@CTransInPlaceInputPin@@UEAAJPEAPEAUIMemAllocator@@@Z PROC ; CTransInPlaceInputPin::GetAllocator, COMDAT
; Line 687
$LN10:
	mov	QWORD PTR [rsp+16], rdx
	mov	QWORD PTR [rsp+8], rcx
	push	rdi
	sub	rsp, 80					; 00000050H
	mov	rdi, rsp
	mov	ecx, 20
	mov	eax, -858993460				; ccccccccH
	rep stosd
	mov	rcx, QWORD PTR [rsp+96]
	mov	QWORD PTR $T83677[rsp], -2
; Line 688
	cmp	QWORD PTR ppAllocator$[rsp], 0
	jne	SHORT $LN6@GetAllocat
	mov	eax, -2147467261			; ffffffff80004003H
	jmp	$LN7@GetAllocat
$LN6@GetAllocat:
; Line 689
	mov	edx, 8
	mov	rcx, QWORD PTR ppAllocator$[rsp]
	call	QWORD PTR __imp_IsBadReadPtr
	cmp	eax, 1
	jne	SHORT $LN5@GetAllocat
	mov	r8d, 689				; 000002b1H
	lea	rdx, OFFSET FLAT:$SG82435
	lea	rcx, OFFSET FLAT:$SG82436
	call	?DbgBreakPoint@@YAXPEB_W0H@Z		; DbgBreakPoint
$LN5@GetAllocat:
	mov	edx, 8
	mov	rcx, QWORD PTR ppAllocator$[rsp]
	call	QWORD PTR __imp_IsBadWritePtr
	cmp	eax, 1
	jne	SHORT $LN4@GetAllocat
	mov	r8d, 689				; 000002b1H
	lea	rdx, OFFSET FLAT:$SG82440
	lea	rcx, OFFSET FLAT:$SG82441
	call	?DbgBreakPoint@@YAXPEB_W0H@Z		; DbgBreakPoint
$LN4@GetAllocat:
; Line 690
	mov	rax, QWORD PTR this$[rsp]
	mov	rdx, QWORD PTR [rax-160]
	lea	rcx, QWORD PTR cObjectLock$[rsp]
	call	??0CAutoLock@@QEAA@PEAVCCritSec@@@Z	; CAutoLock::CAutoLock
	npad	1
; Line 694
	mov	rax, QWORD PTR this$[rsp]
	mov	rax, QWORD PTR [rax+96]
	mov	rcx, QWORD PTR [rax+264]
	call	?IsConnected@CBasePin@@QEAAHXZ		; CBasePin::IsConnected
	test	eax, eax
	je	SHORT $LN3@GetAllocat
; Line 697
	mov	rax, QWORD PTR this$[rsp]
	mov	rcx, QWORD PTR [rax+96]
	call	?OutputPin@CTransInPlaceFilter@@IEBAPEAVCTransInPlaceOutputPin@@XZ ; CTransInPlaceFilter::OutputPin
	mov	rcx, rax
	call	?ConnectedIMemInputPin@CTransInPlaceOutputPin@@QEAAPEAUIMemInputPin@@XZ ; CTransInPlaceOutputPin::ConnectedIMemInputPin
	mov	QWORD PTR tv142[rsp], rax
	mov	rax, QWORD PTR tv142[rsp]
	mov	rax, QWORD PTR [rax]
	mov	rdx, QWORD PTR ppAllocator$[rsp]
	mov	rcx, QWORD PTR tv142[rsp]
	call	QWORD PTR [rax+24]
	mov	DWORD PTR hr$[rsp], eax
; Line 698
	cmp	DWORD PTR hr$[rsp], 0
	jl	SHORT $LN2@GetAllocat
; Line 699
	mov	rax, QWORD PTR this$[rsp]
	mov	rcx, QWORD PTR [rax+96]
	call	?OutputPin@CTransInPlaceFilter@@IEBAPEAVCTransInPlaceOutputPin@@XZ ; CTransInPlaceFilter::OutputPin
	mov	rcx, QWORD PTR ppAllocator$[rsp]
	mov	rdx, QWORD PTR [rcx]
	mov	rcx, rax
	call	?SetAllocator@CTransInPlaceOutputPin@@QEAAXPEAUIMemAllocator@@@Z ; CTransInPlaceOutputPin::SetAllocator
$LN2@GetAllocat:
; Line 702
	jmp	SHORT $LN1@GetAllocat
$LN3@GetAllocat:
; Line 707
	mov	rax, QWORD PTR this$[rsp]
	mov	rdx, QWORD PTR ppAllocator$[rsp]
	mov	rcx, rax
	call	?GetAllocator@CBaseInputPin@@UEAAJPEAPEAUIMemAllocator@@@Z ; CBaseInputPin::GetAllocator
	mov	DWORD PTR hr$[rsp], eax
$LN1@GetAllocat:
; Line 709
	mov	eax, DWORD PTR hr$[rsp]
	mov	DWORD PTR $T83671[rsp], eax
	lea	rcx, QWORD PTR cObjectLock$[rsp]
	call	??1CAutoLock@@QEAA@XZ			; CAutoLock::~CAutoLock
	mov	eax, DWORD PTR $T83671[rsp]
$LN7@GetAllocat:
; Line 711
	mov	rdi, rax
	mov	rcx, rsp
	lea	rdx, OFFSET FLAT:?GetAllocator@CTransInPlaceInputPin@@UEAAJPEAPEAUIMemAllocator@@@Z$rtcFrameData
	call	_RTC_CheckStackVars
	mov	rax, rdi
	add	rsp, 80					; 00000050H
	pop	rdi
	ret	0
?GetAllocator@CTransInPlaceInputPin@@UEAAJPEAPEAUIMemAllocator@@@Z ENDP ; CTransInPlaceInputPin::GetAllocator
; Function compile flags: /Odtp /RTCsu
_TEXT	ENDS
;	COMDAT text$x
text$x	SEGMENT
cObjectLock$ = 40
hr$ = 52
$T83671 = 56
$T83677 = 64
tv142 = 72
this$ = 96
ppAllocator$ = 104
?dtor$0@?0??GetAllocator@CTransInPlaceInputPin@@UEAAJPEAPEAUIMemAllocator@@@Z@4HA PROC ; `CTransInPlaceInputPin::GetAllocator'::`1'::dtor$0
	mov	QWORD PTR [rsp+8], rcx
	mov	QWORD PTR [rsp+16], rdx
	push	rbp
	push	rdi
	sub	rsp, 40					; 00000028H
	mov	rbp, rdx
	lea	rcx, QWORD PTR cObjectLock$[rbp]
	call	??1CAutoLock@@QEAA@XZ			; CAutoLock::~CAutoLock
	add	rsp, 40					; 00000028H
	pop	rdi
	pop	rbp
	ret	0
?dtor$0@?0??GetAllocator@CTransInPlaceInputPin@@UEAAJPEAPEAUIMemAllocator@@@Z@4HA ENDP ; `CTransInPlaceInputPin::GetAllocator'::`1'::dtor$0
text$x	ENDS
EXTRN	?Lock@CCritSec@@QEAAXXZ:PROC			; CCritSec::Lock
;	COMDAT pdata
; File c:\downloads\wpf mediakit - copy\src\filters\baseclasses\wxutil.h
pdata	SEGMENT
$pdata$??0CAutoLock@@QEAA@PEAVCCritSec@@@Z DD imagerel $LN3
	DD	imagerel $LN3+72
	DD	imagerel $unwind$??0CAutoLock@@QEAA@PEAVCCritSec@@@Z
pdata	ENDS
;	COMDAT xdata
xdata	SEGMENT
$unwind$??0CAutoLock@@QEAA@PEAVCCritSec@@@Z DD 022301H
	DD	0700b320fH
; Function compile flags: /Odtp /RTCsu
xdata	ENDS
;	COMDAT ??0CAutoLock@@QEAA@PEAVCCritSec@@@Z
_TEXT	SEGMENT
this$ = 48
plock$ = 56
??0CAutoLock@@QEAA@PEAVCCritSec@@@Z PROC		; CAutoLock::CAutoLock, COMDAT
; Line 94
$LN3:
	mov	QWORD PTR [rsp+16], rdx
	mov	QWORD PTR [rsp+8], rcx
	push	rdi
	sub	rsp, 32					; 00000020H
	mov	rdi, rsp
	mov	ecx, 8
	mov	eax, -858993460				; ccccccccH
	rep stosd
	mov	rcx, QWORD PTR [rsp+48]
; Line 96
	mov	rax, QWORD PTR this$[rsp]
	mov	rcx, QWORD PTR plock$[rsp]
	mov	QWORD PTR [rax], rcx
; Line 97
	mov	rax, QWORD PTR this$[rsp]
	mov	rcx, QWORD PTR [rax]
	call	?Lock@CCritSec@@QEAAXXZ			; CCritSec::Lock
; Line 98
	mov	rax, QWORD PTR this$[rsp]
	add	rsp, 32					; 00000020H
	pop	rdi
	ret	0
??0CAutoLock@@QEAA@PEAVCCritSec@@@Z ENDP		; CAutoLock::CAutoLock
_TEXT	ENDS
EXTRN	?Unlock@CCritSec@@QEAAXXZ:PROC			; CCritSec::Unlock
;	COMDAT pdata
pdata	SEGMENT
$pdata$??1CAutoLock@@QEAA@XZ DD imagerel $LN3
	DD	imagerel $LN3+49
	DD	imagerel $unwind$??1CAutoLock@@QEAA@XZ
pdata	ENDS
;	COMDAT xdata
xdata	SEGMENT
$unwind$??1CAutoLock@@QEAA@XZ DD 021e01H
	DD	07006320aH
; Function compile flags: /Odtp /RTCsu
xdata	ENDS
;	COMDAT ??1CAutoLock@@QEAA@XZ
_TEXT	SEGMENT
this$ = 48
??1CAutoLock@@QEAA@XZ PROC				; CAutoLock::~CAutoLock, COMDAT
; Line 100
$LN3:
	mov	QWORD PTR [rsp+8], rcx
	push	rdi
	sub	rsp, 32					; 00000020H
	mov	rdi, rsp
	mov	ecx, 8
	mov	eax, -858993460				; ccccccccH
	rep stosd
	mov	rcx, QWORD PTR [rsp+48]
; Line 101
	mov	rax, QWORD PTR this$[rsp]
	mov	rcx, QWORD PTR [rax]
	call	?Unlock@CCritSec@@QEAAXXZ		; CCritSec::Unlock
; Line 102
	add	rsp, 32					; 00000020H
	pop	rdi
	ret	0
??1CAutoLock@@QEAA@XZ ENDP				; CAutoLock::~CAutoLock
_TEXT	ENDS
;	COMDAT pdata
; File c:\downloads\wpf mediakit - copy\src\filters\baseclasses\transip.h
pdata	SEGMENT
$pdata$?ConnectedIMemInputPin@CTransInPlaceOutputPin@@QEAAPEAUIMemInputPin@@XZ DD imagerel $LN3
	DD	imagerel $LN3+20
	DD	imagerel $unwind$?ConnectedIMemInputPin@CTransInPlaceOutputPin@@QEAAPEAUIMemInputPin@@XZ
pdata	ENDS
;	COMDAT xdata
xdata	SEGMENT
$unwind$?ConnectedIMemInputPin@CTransInPlaceOutputPin@@QEAAPEAUIMemInputPin@@XZ DD 010601H
	DD	07006H
; Function compile flags: /Odtp /RTCsu
xdata	ENDS
;	COMDAT ?ConnectedIMemInputPin@CTransInPlaceOutputPin@@QEAAPEAUIMemInputPin@@XZ
_TEXT	SEGMENT
this$ = 16
?ConnectedIMemInputPin@CTransInPlaceOutputPin@@QEAAPEAUIMemInputPin@@XZ PROC ; CTransInPlaceOutputPin::ConnectedIMemInputPin, COMDAT
; Line 126
$LN3:
	mov	QWORD PTR [rsp+8], rcx
	push	rdi
	mov	rax, QWORD PTR this$[rsp]
	mov	rax, QWORD PTR [rax+240]
	pop	rdi
	ret	0
?ConnectedIMemInputPin@CTransInPlaceOutputPin@@QEAAPEAUIMemInputPin@@XZ ENDP ; CTransInPlaceOutputPin::ConnectedIMemInputPin
_TEXT	ENDS
PUBLIC	__$ArrayPad$
EXTRN	__GSHandlerCheck_EH:PROC
EXTRN	CreateMemoryAllocator:PROC
EXTRN	?NotifyAllocator@CBaseInputPin@@UEAAJPEAUIMemAllocator@@H@Z:PROC ; CBaseInputPin::NotifyAllocator
EXTRN	_RTC_UninitUse:PROC
;	COMDAT pdata
; File c:\downloads\wpf mediakit - copy\src\filters\baseclasses\transip.cpp
pdata	SEGMENT
$pdata$?NotifyAllocator@CTransInPlaceInputPin@@UEAAJPEAUIMemAllocator@@H@Z DD imagerel $LN24
	DD	imagerel $LN24+1073
	DD	imagerel $unwind$?NotifyAllocator@CTransInPlaceInputPin@@UEAAJPEAUIMemAllocator@@H@Z
pdata	ENDS
;	COMDAT pdata
pdata	SEGMENT
$pdata$?dtor$0@?0??NotifyAllocator@CTransInPlaceInputPin@@UEAAJPEAUIMemAllocator@@H@Z@4HA DD imagerel ?dtor$0@?0??NotifyAllocator@CTransInPlaceInputPin@@UEAAJPEAUIMemAllocator@@H@Z@4HA
	DD	imagerel ?dtor$0@?0??NotifyAllocator@CTransInPlaceInputPin@@UEAAJPEAUIMemAllocator@@H@Z@4HA+35
	DD	imagerel $unwind$?dtor$0@?0??NotifyAllocator@CTransInPlaceInputPin@@UEAAJPEAUIMemAllocator@@H@Z@4HA
pdata	ENDS
;	COMDAT xdata
xdata	SEGMENT
$ip2state$?NotifyAllocator@CTransInPlaceInputPin@@UEAAJPEAUIMemAllocator@@H@Z DD imagerel ?NotifyAllocator@CTransInPlaceInputPin@@UEAAJPEAUIMemAllocator@@H@Z
	DD	0ffffffffH
	DD	imagerel ?NotifyAllocator@CTransInPlaceInputPin@@UEAAJPEAUIMemAllocator@@H@Z+180
	DD	00H
	DD	imagerel ?NotifyAllocator@CTransInPlaceInputPin@@UEAAJPEAUIMemAllocator@@H@Z+266
	DD	0ffffffffH
	DD	imagerel ?NotifyAllocator@CTransInPlaceInputPin@@UEAAJPEAUIMemAllocator@@H@Z+288
	DD	00H
	DD	imagerel ?NotifyAllocator@CTransInPlaceInputPin@@UEAAJPEAUIMemAllocator@@H@Z+1010
	DD	0ffffffffH
xdata	ENDS
;	COMDAT xdata
xdata	SEGMENT
$unwind$?dtor$0@?0??NotifyAllocator@CTransInPlaceInputPin@@UEAAJPEAUIMemAllocator@@H@Z@4HA DD 031001H
	DD	0700c4210H
	DD	0500bH
xdata	ENDS
;	COMDAT xdata
xdata	SEGMENT
$unwind$?NotifyAllocator@CTransInPlaceInputPin@@UEAAJPEAUIMemAllocator@@H@Z DD 034c19H
	DD	0220117H
	DD	07010H
	DD	imagerel __GSHandlerCheck_EH
	DD	imagerel $cppxdata$?NotifyAllocator@CTransInPlaceInputPin@@UEAAJPEAUIMemAllocator@@H@Z
	DD	0102H
xdata	ENDS
;	COMDAT xdata
xdata	SEGMENT
$stateUnwindMap$?NotifyAllocator@CTransInPlaceInputPin@@UEAAJPEAUIMemAllocator@@H@Z DD 0ffffffffH
	DD	imagerel ?dtor$0@?0??NotifyAllocator@CTransInPlaceInputPin@@UEAAJPEAUIMemAllocator@@H@Z@4HA
xdata	ENDS
;	COMDAT CONST
CONST	SEGMENT
?NotifyAllocator@CTransInPlaceInputPin@@UEAAJPEAUIMemAllocator@@H@Z$rtcName$0 DB 041H ; CTransInPlaceInputPin::NotifyAllocator
	DB	063H
	DB	074H
	DB	075H
	DB	061H
	DB	06cH
	DB	00H
	ORG $+1
?NotifyAllocator@CTransInPlaceInputPin@@UEAAJPEAUIMemAllocator@@H@Z$rtcName$1 DB 063H ; CTransInPlaceInputPin::NotifyAllocator
	DB	04fH
	DB	062H
	DB	06aH
	DB	065H
	DB	063H
	DB	074H
	DB	04cH
	DB	06fH
	DB	063H
	DB	06bH
	DB	00H
	ORG $+4
?NotifyAllocator@CTransInPlaceInputPin@@UEAAJPEAUIMemAllocator@@H@Z$rtcName$2 DB 070H ; CTransInPlaceInputPin::NotifyAllocator
	DB	04fH
	DB	075H
	DB	074H
	DB	070H
	DB	075H
	DB	074H
	DB	041H
	DB	06cH
	DB	06cH
	DB	06fH
	DB	063H
	DB	061H
	DB	074H
	DB	06fH
	DB	072H
	DB	00H
	ORG $+3
?NotifyAllocator@CTransInPlaceInputPin@@UEAAJPEAUIMemAllocator@@H@Z$rtcName$3 DB 050H ; CTransInPlaceInputPin::NotifyAllocator
	DB	072H
	DB	06fH
	DB	070H
	DB	073H
	DB	00H
	ORG $+6
?NotifyAllocator@CTransInPlaceInputPin@@UEAAJPEAUIMemAllocator@@H@Z$rtcFrameData DD 04H ; CTransInPlaceInputPin::NotifyAllocator
	DD	00H
	DQ	FLAT:?NotifyAllocator@CTransInPlaceInputPin@@UEAAJPEAUIMemAllocator@@H@Z$rtcVarDesc
$cppxdata$?NotifyAllocator@CTransInPlaceInputPin@@UEAAJPEAUIMemAllocator@@H@Z DD 019930522H
	DD	01H
	DD	imagerel $stateUnwindMap$?NotifyAllocator@CTransInPlaceInputPin@@UEAAJPEAUIMemAllocator@@H@Z
	DD	00H
	DD	00H
	DD	05H
	DD	imagerel $ip2state$?NotifyAllocator@CTransInPlaceInputPin@@UEAAJPEAUIMemAllocator@@H@Z
	DD	0e0H
	DD	00H
	DD	01H
?NotifyAllocator@CTransInPlaceInputPin@@UEAAJPEAUIMemAllocator@@H@Z$rtcVarDesc DD 078H ; CTransInPlaceInputPin::NotifyAllocator
	DD	010H
	DQ	FLAT:?NotifyAllocator@CTransInPlaceInputPin@@UEAAJPEAUIMemAllocator@@H@Z$rtcName$3
	DD	058H
	DD	08H
	DQ	FLAT:?NotifyAllocator@CTransInPlaceInputPin@@UEAAJPEAUIMemAllocator@@H@Z$rtcName$2
	DD	038H
	DD	08H
	DQ	FLAT:?NotifyAllocator@CTransInPlaceInputPin@@UEAAJPEAUIMemAllocator@@H@Z$rtcName$1
	DD	0a8H
	DD	010H
	DQ	FLAT:?NotifyAllocator@CTransInPlaceInputPin@@UEAAJPEAUIMemAllocator@@H@Z$rtcName$0
; Function compile flags: /Odtp /RTCsu
CONST	ENDS
;	COMDAT ?NotifyAllocator@CTransInPlaceInputPin@@UEAAJPEAUIMemAllocator@@H@Z
_TEXT	SEGMENT
hr$ = 32
cObjectLock$ = 56
pOutputAllocator$82467 = 88
Props$82478 = 120
Actual$82479 = 168
$T83720 = 208
$T83721 = 212
$T83727 = 216
$T83731 = 224
tv157 = 232
tv205 = 240
tv218 = 248
__$ArrayPad$ = 256
this$ = 288
pAllocator$ = 296
bReadOnly$ = 304
?NotifyAllocator@CTransInPlaceInputPin@@UEAAJPEAUIMemAllocator@@H@Z PROC ; CTransInPlaceInputPin::NotifyAllocator, COMDAT
; Line 722
$LN24:
	mov	DWORD PTR [rsp+24], r8d
	mov	QWORD PTR [rsp+16], rdx
	mov	QWORD PTR [rsp+8], rcx
	push	rdi
	sub	rsp, 272				; 00000110H
	mov	rdi, rsp
	mov	ecx, 68					; 00000044H
	mov	eax, -858993460				; ccccccccH
	rep stosd
	mov	rcx, QWORD PTR [rsp+288]
	mov	QWORD PTR $T83731[rsp], -2
	mov	rax, QWORD PTR __security_cookie
	xor	rax, rsp
	mov	QWORD PTR __$ArrayPad$[rsp], rax
; Line 723
	mov	DWORD PTR hr$[rsp], 0
; Line 724
	cmp	QWORD PTR pAllocator$[rsp], 0
	jne	SHORT $LN19@NotifyAllo
	mov	eax, -2147467261			; ffffffff80004003H
	jmp	$LN20@NotifyAllo
$LN19@NotifyAllo:
; Line 725
	mov	edx, 8
	mov	rcx, QWORD PTR pAllocator$[rsp]
	call	QWORD PTR __imp_IsBadReadPtr
	cmp	eax, 1
	jne	SHORT $LN18@NotifyAllo
	mov	r8d, 725				; 000002d5H
	lea	rdx, OFFSET FLAT:$SG82461
	lea	rcx, OFFSET FLAT:$SG82462
	call	?DbgBreakPoint@@YAXPEB_W0H@Z		; DbgBreakPoint
$LN18@NotifyAllo:
; Line 727
	mov	rax, QWORD PTR this$[rsp]
	mov	rdx, QWORD PTR [rax-160]
	lea	rcx, QWORD PTR cObjectLock$[rsp]
	call	??0CAutoLock@@QEAA@PEAVCCritSec@@@Z	; CAutoLock::CAutoLock
	npad	1
; Line 729
	mov	rax, QWORD PTR this$[rsp]
	mov	ecx, DWORD PTR bReadOnly$[rsp]
	mov	DWORD PTR [rax+104], ecx
; Line 736
	mov	rax, QWORD PTR this$[rsp]
	mov	rcx, QWORD PTR [rax+96]
	call	?OutputPin@CTransInPlaceFilter@@IEBAPEAVCTransInPlaceOutputPin@@XZ ; CTransInPlaceFilter::OutputPin
	mov	rcx, rax
	call	?IsConnected@CBasePin@@QEAAHXZ		; CBasePin::IsConnected
	test	eax, eax
	jne	SHORT $LN17@NotifyAllo
; Line 737
	mov	rax, QWORD PTR this$[rsp]
	mov	r8d, DWORD PTR bReadOnly$[rsp]
	mov	rdx, QWORD PTR pAllocator$[rsp]
	mov	rcx, rax
	call	?NotifyAllocator@CBaseInputPin@@UEAAJPEAUIMemAllocator@@H@Z ; CBaseInputPin::NotifyAllocator
	mov	DWORD PTR $T83720[rsp], eax
	lea	rcx, QWORD PTR cObjectLock$[rsp]
	call	??1CAutoLock@@QEAA@XZ			; CAutoLock::~CAutoLock
	mov	eax, DWORD PTR $T83720[rsp]
	jmp	$LN20@NotifyAllo
$LN17@NotifyAllo:
; Line 743
	cmp	DWORD PTR bReadOnly$[rsp], 0
	je	$LN16@NotifyAllo
	mov	rax, QWORD PTR this$[rsp]
	mov	rax, QWORD PTR [rax+96]
	movzx	eax, BYTE PTR [rax+272]
	test	eax, eax
	je	$LN16@NotifyAllo
; Line 745
	mov	rax, QWORD PTR this$[rsp]
	mov	rcx, QWORD PTR [rax+96]
	call	?OutputPin@CTransInPlaceFilter@@IEBAPEAVCTransInPlaceOutputPin@@XZ ; CTransInPlaceFilter::OutputPin
	mov	rcx, rax
	call	?PeekAllocator@CTransInPlaceOutputPin@@QEBAPEAUIMemAllocator@@XZ ; CTransInPlaceOutputPin::PeekAllocator
	mov	QWORD PTR pOutputAllocator$82467[rsp], rax
; Line 748
	cmp	QWORD PTR pOutputAllocator$82467[rsp], 0
	jne	$LN15@NotifyAllo
; Line 750
	mov	rax, QWORD PTR this$[rsp]
	mov	rcx, QWORD PTR [rax+96]
	call	?OutputPin@CTransInPlaceFilter@@IEBAPEAVCTransInPlaceOutputPin@@XZ ; CTransInPlaceFilter::OutputPin
	mov	rcx, rax
	call	?ConnectedIMemInputPin@CTransInPlaceOutputPin@@QEAAPEAUIMemInputPin@@XZ ; CTransInPlaceOutputPin::ConnectedIMemInputPin
	mov	QWORD PTR tv157[rsp], rax
	mov	rax, QWORD PTR tv157[rsp]
	mov	rax, QWORD PTR [rax]
	lea	rdx, QWORD PTR pOutputAllocator$82467[rsp]
	mov	rcx, QWORD PTR tv157[rsp]
	call	QWORD PTR [rax+24]
	mov	DWORD PTR hr$[rsp], eax
; Line 751
	cmp	DWORD PTR hr$[rsp], 0
	jge	SHORT $LN14@NotifyAllo
; Line 752
	lea	rcx, QWORD PTR pOutputAllocator$82467[rsp]
	call	CreateMemoryAllocator
	mov	DWORD PTR hr$[rsp], eax
$LN14@NotifyAllo:
; Line 754
	cmp	DWORD PTR hr$[rsp], 0
	jl	SHORT $LN15@NotifyAllo
; Line 755
	mov	rax, QWORD PTR this$[rsp]
	mov	rcx, QWORD PTR [rax+96]
	call	?OutputPin@CTransInPlaceFilter@@IEBAPEAVCTransInPlaceOutputPin@@XZ ; CTransInPlaceFilter::OutputPin
	mov	rdx, QWORD PTR pOutputAllocator$82467[rsp]
	mov	rcx, rax
	call	?SetAllocator@CTransInPlaceOutputPin@@QEAAXPEAUIMemAllocator@@@Z ; CTransInPlaceOutputPin::SetAllocator
; Line 756
	mov	rax, QWORD PTR pOutputAllocator$82467[rsp]
	mov	rax, QWORD PTR [rax]
	mov	rcx, QWORD PTR pOutputAllocator$82467[rsp]
	call	QWORD PTR [rax+16]
$LN15@NotifyAllo:
; Line 759
	mov	rax, QWORD PTR pOutputAllocator$82467[rsp]
	cmp	QWORD PTR pAllocator$[rsp], rax
	jne	SHORT $LN12@NotifyAllo
; Line 760
	mov	DWORD PTR hr$[rsp], -2147467259		; ffffffff80004005H
	jmp	$LN11@NotifyAllo
$LN12@NotifyAllo:
; Line 761
	cmp	DWORD PTR hr$[rsp], 0
	jl	$LN11@NotifyAllo
	mov	BYTE PTR $T83727[rsp], 0
; Line 764
	mov	rax, QWORD PTR pAllocator$[rsp]
	mov	rax, QWORD PTR [rax]
	lea	rdx, QWORD PTR Props$82478[rsp]
	mov	rcx, QWORD PTR pAllocator$[rsp]
	call	QWORD PTR [rax+32]
	mov	DWORD PTR hr$[rsp], eax
; Line 765
	cmp	DWORD PTR hr$[rsp], 0
	jl	SHORT $LN9@NotifyAllo
; Line 766
	mov	BYTE PTR $T83727[rsp], 1
	mov	rax, QWORD PTR pOutputAllocator$82467[rsp]
	mov	rax, QWORD PTR [rax]
	lea	r8, QWORD PTR Actual$82479[rsp]
	lea	rdx, QWORD PTR Props$82478[rsp]
	mov	rcx, QWORD PTR pOutputAllocator$82467[rsp]
	call	QWORD PTR [rax+24]
	mov	DWORD PTR hr$[rsp], eax
$LN9@NotifyAllo:
; Line 768
	cmp	DWORD PTR hr$[rsp], 0
	jl	SHORT $LN8@NotifyAllo
; Line 772
	cmp	BYTE PTR $T83727[rsp], 0
	jne	SHORT $LN23@NotifyAllo
	lea	rcx, OFFSET FLAT:?NotifyAllocator@CTransInPlaceInputPin@@UEAAJPEAUIMemAllocator@@H@Z$rtcName$0
	call	_RTC_UninitUse
$LN23@NotifyAllo:
	mov	eax, DWORD PTR Actual$82479[rsp]
	cmp	DWORD PTR Props$82478[rsp], eax
	jg	SHORT $LN6@NotifyAllo
	mov	eax, DWORD PTR Actual$82479[rsp+4]
	cmp	DWORD PTR Props$82478[rsp+4], eax
	jg	SHORT $LN6@NotifyAllo
	mov	eax, DWORD PTR Actual$82479[rsp+8]
	cmp	DWORD PTR Props$82478[rsp+8], eax
	jle	SHORT $LN8@NotifyAllo
$LN6@NotifyAllo:
; Line 773
	mov	DWORD PTR hr$[rsp], -2147467259		; ffffffff80004005H
$LN8@NotifyAllo:
; Line 778
	cmp	DWORD PTR hr$[rsp], 0
	jl	SHORT $LN11@NotifyAllo
; Line 780
	mov	rax, QWORD PTR this$[rsp]
	mov	rcx, QWORD PTR [rax+96]
	call	?OutputPin@CTransInPlaceFilter@@IEBAPEAVCTransInPlaceOutputPin@@XZ ; CTransInPlaceFilter::OutputPin
	mov	rcx, rax
	call	?ConnectedIMemInputPin@CTransInPlaceOutputPin@@QEAAPEAUIMemInputPin@@XZ ; CTransInPlaceOutputPin::ConnectedIMemInputPin
	mov	QWORD PTR tv205[rsp], rax
	mov	rax, QWORD PTR tv205[rsp]
	mov	rax, QWORD PTR [rax]
	xor	r8d, r8d
	mov	rdx, QWORD PTR pOutputAllocator$82467[rsp]
	mov	rcx, QWORD PTR tv205[rsp]
	call	QWORD PTR [rax+32]
	mov	DWORD PTR hr$[rsp], eax
$LN11@NotifyAllo:
; Line 783
	jmp	SHORT $LN4@NotifyAllo
$LN16@NotifyAllo:
; Line 785
	mov	rax, QWORD PTR this$[rsp]
	mov	rcx, QWORD PTR [rax+96]
	call	?OutputPin@CTransInPlaceFilter@@IEBAPEAVCTransInPlaceOutputPin@@XZ ; CTransInPlaceFilter::OutputPin
	mov	rcx, rax
	call	?ConnectedIMemInputPin@CTransInPlaceOutputPin@@QEAAPEAUIMemInputPin@@XZ ; CTransInPlaceOutputPin::ConnectedIMemInputPin
	mov	QWORD PTR tv218[rsp], rax
	mov	rax, QWORD PTR tv218[rsp]
	mov	rax, QWORD PTR [rax]
	mov	r8d, DWORD PTR bReadOnly$[rsp]
	mov	rdx, QWORD PTR pAllocator$[rsp]
	mov	rcx, QWORD PTR tv218[rsp]
	call	QWORD PTR [rax+32]
	mov	DWORD PTR hr$[rsp], eax
; Line 786
	cmp	DWORD PTR hr$[rsp], 0
	jl	SHORT $LN4@NotifyAllo
; Line 787
	mov	rax, QWORD PTR this$[rsp]
	mov	rcx, QWORD PTR [rax+96]
	call	?OutputPin@CTransInPlaceFilter@@IEBAPEAVCTransInPlaceOutputPin@@XZ ; CTransInPlaceFilter::OutputPin
	mov	rdx, QWORD PTR pAllocator$[rsp]
	mov	rcx, rax
	call	?SetAllocator@CTransInPlaceOutputPin@@QEAAXPEAUIMemAllocator@@@Z ; CTransInPlaceOutputPin::SetAllocator
$LN4@NotifyAllo:
; Line 791
	cmp	DWORD PTR hr$[rsp], 0
	jl	SHORT $LN2@NotifyAllo
; Line 795
	mov	rax, QWORD PTR pAllocator$[rsp]
	mov	rax, QWORD PTR [rax]
	mov	rcx, QWORD PTR pAllocator$[rsp]
	call	QWORD PTR [rax+8]
; Line 797
	mov	rax, QWORD PTR this$[rsp]
	cmp	QWORD PTR [rax+8], 0
	je	SHORT $LN1@NotifyAllo
; Line 798
	mov	rax, QWORD PTR this$[rsp]
	mov	rax, QWORD PTR [rax+8]
	mov	rcx, QWORD PTR this$[rsp]
	mov	rcx, QWORD PTR [rcx+8]
	mov	rax, QWORD PTR [rax]
	call	QWORD PTR [rax+16]
$LN1@NotifyAllo:
; Line 800
	mov	rax, QWORD PTR this$[rsp]
	mov	rcx, QWORD PTR pAllocator$[rsp]
	mov	QWORD PTR [rax+8], rcx
$LN2@NotifyAllo:
; Line 803
	mov	eax, DWORD PTR hr$[rsp]
	mov	DWORD PTR $T83721[rsp], eax
	lea	rcx, QWORD PTR cObjectLock$[rsp]
	call	??1CAutoLock@@QEAA@XZ			; CAutoLock::~CAutoLock
	mov	eax, DWORD PTR $T83721[rsp]
$LN20@NotifyAllo:
; Line 805
	mov	rdi, rax
	mov	rcx, rsp
	lea	rdx, OFFSET FLAT:?NotifyAllocator@CTransInPlaceInputPin@@UEAAJPEAUIMemAllocator@@H@Z$rtcFrameData
	call	_RTC_CheckStackVars
	mov	rax, rdi
	mov	rcx, QWORD PTR __$ArrayPad$[rsp]
	xor	rcx, rsp
	call	__security_check_cookie
	add	rsp, 272				; 00000110H
	pop	rdi
	ret	0
?NotifyAllocator@CTransInPlaceInputPin@@UEAAJPEAUIMemAllocator@@H@Z ENDP ; CTransInPlaceInputPin::NotifyAllocator
; Function compile flags: /Odtp /RTCsu
_TEXT	ENDS
;	COMDAT text$x
text$x	SEGMENT
hr$ = 32
cObjectLock$ = 56
pOutputAllocator$82467 = 88
Props$82478 = 120
Actual$82479 = 168
$T83720 = 208
$T83721 = 212
$T83727 = 216
$T83731 = 224
tv157 = 232
tv205 = 240
tv218 = 248
__$ArrayPad$ = 256
this$ = 288
pAllocator$ = 296
bReadOnly$ = 304
?dtor$0@?0??NotifyAllocator@CTransInPlaceInputPin@@UEAAJPEAUIMemAllocator@@H@Z@4HA PROC ; `CTransInPlaceInputPin::NotifyAllocator'::`1'::dtor$0
	mov	QWORD PTR [rsp+8], rcx
	mov	QWORD PTR [rsp+16], rdx
	push	rbp
	push	rdi
	sub	rsp, 40					; 00000028H
	mov	rbp, rdx
	lea	rcx, QWORD PTR cObjectLock$[rbp]
	call	??1CAutoLock@@QEAA@XZ			; CAutoLock::~CAutoLock
	add	rsp, 40					; 00000028H
	pop	rdi
	pop	rbp
	ret	0
?dtor$0@?0??NotifyAllocator@CTransInPlaceInputPin@@UEAAJPEAUIMemAllocator@@H@Z@4HA ENDP ; `CTransInPlaceInputPin::NotifyAllocator'::`1'::dtor$0
text$x	ENDS
PUBLIC	?GetConnected@CBasePin@@QEAAPEAUIPin@@XZ	; CBasePin::GetConnected
;	COMDAT pdata
pdata	SEGMENT
$pdata$?EnumMediaTypes@CTransInPlaceInputPin@@UEAAJPEAPEAUIEnumMediaTypes@@@Z DD imagerel $LN4
	DD	imagerel $LN4+126
	DD	imagerel $unwind$?EnumMediaTypes@CTransInPlaceInputPin@@UEAAJPEAPEAUIEnumMediaTypes@@@Z
pdata	ENDS
;	COMDAT xdata
xdata	SEGMENT
$unwind$?EnumMediaTypes@CTransInPlaceInputPin@@UEAAJPEAPEAUIEnumMediaTypes@@@Z DD 022301H
	DD	0700b520fH
; Function compile flags: /Odtp /RTCsu
xdata	ENDS
;	COMDAT ?EnumMediaTypes@CTransInPlaceInputPin@@UEAAJPEAPEAUIEnumMediaTypes@@@Z
_TEXT	SEGMENT
tv92 = 32
this$ = 64
ppEnum$ = 72
?EnumMediaTypes@CTransInPlaceInputPin@@UEAAJPEAPEAUIEnumMediaTypes@@@Z PROC ; CTransInPlaceInputPin::EnumMediaTypes, COMDAT
; Line 811
$LN4:
	mov	QWORD PTR [rsp+16], rdx
	mov	QWORD PTR [rsp+8], rcx
	push	rdi
	sub	rsp, 48					; 00000030H
	mov	rdi, rsp
	mov	ecx, 12
	mov	eax, -858993460				; ccccccccH
	rep stosd
	mov	rcx, QWORD PTR [rsp+64]
; Line 813
	mov	rax, QWORD PTR this$[rsp]
	mov	rax, QWORD PTR [rax+296]
	mov	rcx, QWORD PTR [rax+264]
	call	?IsConnected@CBasePin@@QEAAHXZ		; CBasePin::IsConnected
	test	eax, eax
	jne	SHORT $LN1@EnumMediaT
; Line 814
	mov	eax, -2147220983			; ffffffff80040209H
	jmp	SHORT $LN2@EnumMediaT
$LN1@EnumMediaT:
; Line 816
	mov	rax, QWORD PTR this$[rsp]
	mov	rax, QWORD PTR [rax+296]
	mov	rcx, QWORD PTR [rax+264]
	call	?GetConnected@CBasePin@@QEAAPEAUIPin@@XZ ; CBasePin::GetConnected
	mov	QWORD PTR tv92[rsp], rax
	mov	rax, QWORD PTR tv92[rsp]
	mov	rax, QWORD PTR [rax]
	mov	rdx, QWORD PTR ppEnum$[rsp]
	mov	rcx, QWORD PTR tv92[rsp]
	call	QWORD PTR [rax+96]
$LN2@EnumMediaT:
; Line 818
	add	rsp, 48					; 00000030H
	pop	rdi
	ret	0
?EnumMediaTypes@CTransInPlaceInputPin@@UEAAJPEAPEAUIEnumMediaTypes@@@Z ENDP ; CTransInPlaceInputPin::EnumMediaTypes
_TEXT	ENDS
;	COMDAT pdata
; File c:\downloads\wpf mediakit - copy\src\filters\baseclasses\amfilter.h
pdata	SEGMENT
$pdata$?GetConnected@CBasePin@@QEAAPEAUIPin@@XZ DD imagerel $LN3
	DD	imagerel $LN3+17
	DD	imagerel $unwind$?GetConnected@CBasePin@@QEAAPEAUIPin@@XZ
pdata	ENDS
;	COMDAT xdata
xdata	SEGMENT
$unwind$?GetConnected@CBasePin@@QEAAPEAUIPin@@XZ DD 010601H
	DD	07006H
; Function compile flags: /Odtp /RTCsu
xdata	ENDS
;	COMDAT ?GetConnected@CBasePin@@QEAAPEAUIPin@@XZ
_TEXT	SEGMENT
this$ = 16
?GetConnected@CBasePin@@QEAAPEAUIPin@@XZ PROC		; CBasePin::GetConnected, COMDAT
; Line 501
$LN3:
	mov	QWORD PTR [rsp+8], rcx
	push	rdi
	mov	rax, QWORD PTR this$[rsp]
	mov	rax, QWORD PTR [rax+56]
	pop	rdi
	ret	0
?GetConnected@CBasePin@@QEAAPEAUIPin@@XZ ENDP		; CBasePin::GetConnected
_TEXT	ENDS
;	COMDAT pdata
; File c:\downloads\wpf mediakit - copy\src\filters\baseclasses\transip.cpp
pdata	SEGMENT
$pdata$?CheckMediaType@CTransInPlaceInputPin@@UEAAJPEBVCMediaType@@@Z DD imagerel $LN6
	DD	imagerel $LN6+177
	DD	imagerel $unwind$?CheckMediaType@CTransInPlaceInputPin@@UEAAJPEBVCMediaType@@@Z
pdata	ENDS
;	COMDAT xdata
xdata	SEGMENT
$unwind$?CheckMediaType@CTransInPlaceInputPin@@UEAAJPEBVCMediaType@@@Z DD 022301H
	DD	0700b520fH
; Function compile flags: /Odtp /RTCsu
xdata	ENDS
;	COMDAT ?CheckMediaType@CTransInPlaceInputPin@@UEAAJPEBVCMediaType@@@Z
_TEXT	SEGMENT
hr$ = 32
tv136 = 40
this$ = 64
pmt$ = 72
?CheckMediaType@CTransInPlaceInputPin@@UEAAJPEBVCMediaType@@@Z PROC ; CTransInPlaceInputPin::CheckMediaType, COMDAT
; Line 827
$LN6:
	mov	QWORD PTR [rsp+16], rdx
	mov	QWORD PTR [rsp+8], rcx
	push	rdi
	sub	rsp, 48					; 00000030H
	mov	rdi, rsp
	mov	ecx, 12
	mov	eax, -858993460				; ccccccccH
	rep stosd
	mov	rcx, QWORD PTR [rsp+64]
; Line 828
	mov	rax, QWORD PTR this$[rsp]
	mov	rax, QWORD PTR [rax+328]
	mov	rcx, QWORD PTR this$[rsp]
	mov	rcx, QWORD PTR [rcx+328]
	mov	rax, QWORD PTR [rax]
	mov	rdx, QWORD PTR pmt$[rsp]
	call	QWORD PTR [rax+80]
	mov	DWORD PTR hr$[rsp], eax
; Line 829
	cmp	DWORD PTR hr$[rsp], 0
	je	SHORT $LN3@CheckMedia
	mov	eax, DWORD PTR hr$[rsp]
	jmp	SHORT $LN4@CheckMedia
$LN3@CheckMedia:
; Line 831
	mov	rax, QWORD PTR this$[rsp]
	mov	rax, QWORD PTR [rax+328]
	mov	rcx, QWORD PTR [rax+264]
	call	?IsConnected@CBasePin@@QEAAHXZ		; CBasePin::IsConnected
	test	eax, eax
	je	SHORT $LN2@CheckMedia
; Line 832
	mov	rax, QWORD PTR this$[rsp]
	mov	rax, QWORD PTR [rax+328]
	mov	rcx, QWORD PTR [rax+264]
	call	?GetConnected@CBasePin@@QEAAPEAUIPin@@XZ ; CBasePin::GetConnected
	mov	QWORD PTR tv136[rsp], rax
	mov	rax, QWORD PTR tv136[rsp]
	mov	rax, QWORD PTR [rax]
	mov	rdx, QWORD PTR pmt$[rsp]
	mov	rcx, QWORD PTR tv136[rsp]
	call	QWORD PTR [rax+88]
	jmp	SHORT $LN4@CheckMedia
; Line 833
	jmp	SHORT $LN1@CheckMedia
$LN2@CheckMedia:
; Line 834
	xor	eax, eax
$LN1@CheckMedia:
$LN4@CheckMedia:
; Line 836
	add	rsp, 48					; 00000030H
	pop	rdi
	ret	0
?CheckMediaType@CTransInPlaceInputPin@@UEAAJPEBVCMediaType@@@Z ENDP ; CTransInPlaceInputPin::CheckMediaType
_TEXT	ENDS
;	COMDAT pdata
pdata	SEGMENT
$pdata$?GetAllocatorRequirements@CTransInPlaceInputPin@@UEAAJPEAU_AllocatorProperties@@@Z DD imagerel $LN5
	DD	imagerel $LN5+123
	DD	imagerel $unwind$?GetAllocatorRequirements@CTransInPlaceInputPin@@UEAAJPEAU_AllocatorProperties@@@Z
pdata	ENDS
;	COMDAT xdata
xdata	SEGMENT
$unwind$?GetAllocatorRequirements@CTransInPlaceInputPin@@UEAAJPEAU_AllocatorProperties@@@Z DD 022301H
	DD	0700b520fH
; Function compile flags: /Odtp /RTCsu
xdata	ENDS
;	COMDAT ?GetAllocatorRequirements@CTransInPlaceInputPin@@UEAAJPEAU_AllocatorProperties@@@Z
_TEXT	SEGMENT
tv85 = 32
this$ = 64
pProps$ = 72
?GetAllocatorRequirements@CTransInPlaceInputPin@@UEAAJPEAU_AllocatorProperties@@@Z PROC ; CTransInPlaceInputPin::GetAllocatorRequirements, COMDAT
; Line 843
$LN5:
	mov	QWORD PTR [rsp+16], rdx
	mov	QWORD PTR [rsp+8], rcx
	push	rdi
	sub	rsp, 48					; 00000030H
	mov	rdi, rsp
	mov	ecx, 12
	mov	eax, -858993460				; ccccccccH
	rep stosd
	mov	rcx, QWORD PTR [rsp+64]
; Line 845
	mov	rax, QWORD PTR this$[rsp]
	mov	rax, QWORD PTR [rax+96]
	mov	rcx, QWORD PTR [rax+264]
	call	?IsConnected@CBasePin@@QEAAHXZ		; CBasePin::IsConnected
	test	eax, eax
	je	SHORT $LN2@GetAllocat@2
; Line 847
	mov	rax, QWORD PTR this$[rsp]
	mov	rcx, QWORD PTR [rax+96]
	call	?OutputPin@CTransInPlaceFilter@@IEBAPEAVCTransInPlaceOutputPin@@XZ ; CTransInPlaceFilter::OutputPin
	mov	rcx, rax
	call	?ConnectedIMemInputPin@CTransInPlaceOutputPin@@QEAAPEAUIMemInputPin@@XZ ; CTransInPlaceOutputPin::ConnectedIMemInputPin
	mov	QWORD PTR tv85[rsp], rax
	mov	rax, QWORD PTR tv85[rsp]
	mov	rax, QWORD PTR [rax]
	mov	rdx, QWORD PTR pProps$[rsp]
	mov	rcx, QWORD PTR tv85[rsp]
	call	QWORD PTR [rax+40]
	jmp	SHORT $LN3@GetAllocat@2
; Line 848
	jmp	SHORT $LN1@GetAllocat@2
$LN2@GetAllocat@2:
; Line 849
	mov	eax, -2147467263			; ffffffff80004001H
$LN1@GetAllocat@2:
$LN3@GetAllocat@2:
; Line 851
	add	rsp, 48					; 00000030H
	pop	rdi
	ret	0
?GetAllocatorRequirements@CTransInPlaceInputPin@@UEAAJPEAU_AllocatorProperties@@@Z ENDP ; CTransInPlaceInputPin::GetAllocatorRequirements
_TEXT	ENDS
EXTRN	?CompleteConnect@CBasePin@@UEAAJPEAUIPin@@@Z:PROC ; CBasePin::CompleteConnect
;	COMDAT pdata
pdata	SEGMENT
$pdata$?CompleteConnect@CTransInPlaceInputPin@@UEAAJPEAUIPin@@@Z DD imagerel $LN4
	DD	imagerel $LN4+113
	DD	imagerel $unwind$?CompleteConnect@CTransInPlaceInputPin@@UEAAJPEAUIPin@@@Z
pdata	ENDS
;	COMDAT xdata
xdata	SEGMENT
$unwind$?CompleteConnect@CTransInPlaceInputPin@@UEAAJPEAUIPin@@@Z DD 022301H
	DD	0700b520fH
; Function compile flags: /Odtp /RTCsu
xdata	ENDS
;	COMDAT ?CompleteConnect@CTransInPlaceInputPin@@UEAAJPEAUIPin@@@Z
_TEXT	SEGMENT
hr$ = 32
this$ = 64
pReceivePin$ = 72
?CompleteConnect@CTransInPlaceInputPin@@UEAAJPEAUIPin@@@Z PROC ; CTransInPlaceInputPin::CompleteConnect, COMDAT
; Line 860
$LN4:
	mov	QWORD PTR [rsp+16], rdx
	mov	QWORD PTR [rsp+8], rcx
	push	rdi
	sub	rsp, 48					; 00000030H
	mov	rdi, rsp
	mov	ecx, 12
	mov	eax, -858993460				; ccccccccH
	rep stosd
	mov	rcx, QWORD PTR [rsp+64]
; Line 861
	mov	rdx, QWORD PTR pReceivePin$[rsp]
	mov	rcx, QWORD PTR this$[rsp]
	call	?CompleteConnect@CBasePin@@UEAAJPEAUIPin@@@Z ; CBasePin::CompleteConnect
	mov	DWORD PTR hr$[rsp], eax
; Line 862
	cmp	DWORD PTR hr$[rsp], 0
	jge	SHORT $LN1@CompleteCo@2
; Line 863
	mov	eax, DWORD PTR hr$[rsp]
	jmp	SHORT $LN2@CompleteCo@2
$LN1@CompleteCo@2:
; Line 866
	mov	rax, QWORD PTR this$[rsp]
	mov	rax, QWORD PTR [rax+320]
	mov	rcx, QWORD PTR this$[rsp]
	mov	rcx, QWORD PTR [rcx+320]
	mov	rax, QWORD PTR [rax]
	mov	r8, QWORD PTR pReceivePin$[rsp]
	xor	edx, edx
	call	QWORD PTR [rax+160]
$LN2@CompleteCo@2:
; Line 867
	add	rsp, 48					; 00000030H
	pop	rdi
	ret	0
?CompleteConnect@CTransInPlaceInputPin@@UEAAJPEAUIPin@@@Z ENDP ; CTransInPlaceInputPin::CompleteConnect
_TEXT	ENDS
PUBLIC	??_7CTransInPlaceOutputPin@@6BIQualityControl@@@ ; CTransInPlaceOutputPin::`vftable'
PUBLIC	??_7CTransInPlaceOutputPin@@6BIPin@@@		; CTransInPlaceOutputPin::`vftable'
PUBLIC	??_7CTransInPlaceOutputPin@@6BCUnknown@@@	; CTransInPlaceOutputPin::`vftable'
PUBLIC	??_R4CTransInPlaceOutputPin@@6BCUnknown@@@	; CTransInPlaceOutputPin::`RTTI Complete Object Locator'
PUBLIC	??_R0?AVCTransInPlaceOutputPin@@@8		; CTransInPlaceOutputPin `RTTI Type Descriptor'
PUBLIC	??_R3CTransInPlaceOutputPin@@8			; CTransInPlaceOutputPin::`RTTI Class Hierarchy Descriptor'
PUBLIC	??_R2CTransInPlaceOutputPin@@8			; CTransInPlaceOutputPin::`RTTI Base Class Array'
PUBLIC	??_R1A@?0A@EA@CTransInPlaceOutputPin@@8		; CTransInPlaceOutputPin::`RTTI Base Class Descriptor at (0,-1,0,64)'
PUBLIC	??_R1A@?0A@EA@CTransformOutputPin@@8		; CTransformOutputPin::`RTTI Base Class Descriptor at (0,-1,0,64)'
PUBLIC	??_R0?AVCTransformOutputPin@@@8			; CTransformOutputPin `RTTI Type Descriptor'
PUBLIC	??_R3CTransformOutputPin@@8			; CTransformOutputPin::`RTTI Class Hierarchy Descriptor'
PUBLIC	??_R2CTransformOutputPin@@8			; CTransformOutputPin::`RTTI Base Class Array'
PUBLIC	??_R1A@?0A@EA@CBaseOutputPin@@8			; CBaseOutputPin::`RTTI Base Class Descriptor at (0,-1,0,64)'
PUBLIC	??_R0?AVCBaseOutputPin@@@8			; CBaseOutputPin `RTTI Type Descriptor'
PUBLIC	??_R3CBaseOutputPin@@8				; CBaseOutputPin::`RTTI Class Hierarchy Descriptor'
PUBLIC	??_R2CBaseOutputPin@@8				; CBaseOutputPin::`RTTI Base Class Array'
PUBLIC	?CheckMediaType@CTransInPlaceOutputPin@@UEAAJPEBVCMediaType@@@Z ; CTransInPlaceOutputPin::CheckMediaType
PUBLIC	?CompleteConnect@CTransInPlaceOutputPin@@UEAAJPEAUIPin@@@Z ; CTransInPlaceOutputPin::CompleteConnect
PUBLIC	??_R4CTransInPlaceOutputPin@@6BIPin@@@		; CTransInPlaceOutputPin::`RTTI Complete Object Locator'
PUBLIC	?QueryInterface@CBasePin@@UEAAJAEBU_GUID@@PEAPEAX@Z ; CBasePin::QueryInterface
PUBLIC	?AddRef@CBasePin@@UEAAKXZ			; CBasePin::AddRef
PUBLIC	?Release@CBasePin@@UEAAKXZ			; CBasePin::Release
PUBLIC	?QueryId@CTransformOutputPin@@UEAAJPEAPEA_W@Z	; CTransformOutputPin::QueryId
PUBLIC	?EnumMediaTypes@CTransInPlaceOutputPin@@UEAAJPEAPEAUIEnumMediaTypes@@@Z ; CTransInPlaceOutputPin::EnumMediaTypes
PUBLIC	??_R4CTransInPlaceOutputPin@@6BIQualityControl@@@ ; CTransInPlaceOutputPin::`RTTI Complete Object Locator'
PUBLIC	?QueryInterface@CBasePin@@W7EAAJAEBU_GUID@@PEAPEAX@Z ; [thunk]:CBasePin::QueryInterface`adjustor{8}'
PUBLIC	?AddRef@CBasePin@@W7EAAKXZ			; [thunk]:CBasePin::AddRef`adjustor{8}'
PUBLIC	?Release@CBasePin@@W7EAAKXZ			; [thunk]:CBasePin::Release`adjustor{8}'
EXTRN	??1CTransformOutputPin@@UEAA@XZ:PROC		; CTransformOutputPin::~CTransformOutputPin
EXTRN	??0CTransformOutputPin@@QEAA@PEA_WPEAVCTransformFilter@@PEAJPEB_W@Z:PROC ; CTransformOutputPin::CTransformOutputPin
EXTRN	?NonDelegatingQueryInterface@CTransformOutputPin@@UEAAJAEBU_GUID@@PEAPEAX@Z:PROC ; CTransformOutputPin::NonDelegatingQueryInterface
EXTRN	??_ECTransInPlaceOutputPin@@UEAAPEAXI@Z:PROC	; CTransInPlaceOutputPin::`vector deleting destructor'
EXTRN	?Active@CBaseOutputPin@@UEAAJXZ:PROC		; CBaseOutputPin::Active
EXTRN	?Inactive@CBaseOutputPin@@UEAAJXZ:PROC		; CBaseOutputPin::Inactive
EXTRN	?SetMediaType@CTransformOutputPin@@UEAAJPEBVCMediaType@@@Z:PROC ; CTransformOutputPin::SetMediaType
EXTRN	?CheckConnect@CTransformOutputPin@@UEAAJPEAUIPin@@@Z:PROC ; CTransformOutputPin::CheckConnect
EXTRN	?BreakConnect@CTransformOutputPin@@UEAAJXZ:PROC	; CTransformOutputPin::BreakConnect
EXTRN	?GetMediaType@CTransformOutputPin@@UEAAJHPEAVCMediaType@@@Z:PROC ; CTransformOutputPin::GetMediaType
EXTRN	?DecideAllocator@CBaseOutputPin@@UEAAJPEAUIMemInputPin@@PEAPEAUIMemAllocator@@@Z:PROC ; CBaseOutputPin::DecideAllocator
EXTRN	?DecideBufferSize@CTransformOutputPin@@UEAAJPEAUIMemAllocator@@PEAU_AllocatorProperties@@@Z:PROC ; CTransformOutputPin::DecideBufferSize
EXTRN	?GetDeliveryBuffer@CBaseOutputPin@@UEAAJPEAPEAUIMediaSample@@PEA_J1K@Z:PROC ; CBaseOutputPin::GetDeliveryBuffer
EXTRN	?Deliver@CBaseOutputPin@@UEAAJPEAUIMediaSample@@@Z:PROC ; CBaseOutputPin::Deliver
EXTRN	?InitAllocator@CBaseOutputPin@@UEAAJPEAPEAUIMemAllocator@@@Z:PROC ; CBaseOutputPin::InitAllocator
EXTRN	?DeliverEndOfStream@CBaseOutputPin@@UEAAJXZ:PROC ; CBaseOutputPin::DeliverEndOfStream
EXTRN	?DeliverBeginFlush@CBaseOutputPin@@UEAAJXZ:PROC	; CBaseOutputPin::DeliverBeginFlush
EXTRN	?DeliverEndFlush@CBaseOutputPin@@UEAAJXZ:PROC	; CBaseOutputPin::DeliverEndFlush
EXTRN	?DeliverNewSegment@CBaseOutputPin@@UEAAJ_J0N@Z:PROC ; CBaseOutputPin::DeliverNewSegment
EXTRN	?EndOfStream@CBaseOutputPin@@UEAAJXZ:PROC	; CBaseOutputPin::EndOfStream
EXTRN	?BeginFlush@CBaseOutputPin@@UEAAJXZ:PROC	; CBaseOutputPin::BeginFlush
EXTRN	?EndFlush@CBaseOutputPin@@UEAAJXZ:PROC		; CBaseOutputPin::EndFlush
EXTRN	?NewSegment@CBasePin@@UEAAJ_J0N@Z:PROC		; CBasePin::NewSegment
EXTRN	?Notify@CTransformOutputPin@@UEAAJPEAUIBaseFilter@@UtagQuality@@@Z:PROC ; CTransformOutputPin::Notify
;	COMDAT pdata
pdata	SEGMENT
$pdata$??0CTransInPlaceOutputPin@@QEAA@PEA_WPEAVCTransInPlaceFilter@@PEAJPEB_W@Z DD imagerel $LN4
	DD	imagerel $LN4+188
	DD	imagerel $unwind$??0CTransInPlaceOutputPin@@QEAA@PEA_WPEAVCTransInPlaceFilter@@PEAJPEB_W@Z
pdata	ENDS
;	COMDAT pdata
pdata	SEGMENT
$pdata$?dtor$0@?0???0CTransInPlaceOutputPin@@QEAA@PEA_WPEAVCTransInPlaceFilter@@PEAJPEB_W@Z@4HA DD imagerel ?dtor$0@?0???0CTransInPlaceOutputPin@@QEAA@PEA_WPEAVCTransInPlaceFilter@@PEAJPEB_W@Z@4HA
	DD	imagerel ?dtor$0@?0???0CTransInPlaceOutputPin@@QEAA@PEA_WPEAVCTransInPlaceFilter@@PEAJPEB_W@Z@4HA+35
	DD	imagerel $unwind$?dtor$0@?0???0CTransInPlaceOutputPin@@QEAA@PEA_WPEAVCTransInPlaceFilter@@PEAJPEB_W@Z@4HA
pdata	ENDS
;	COMDAT xdata
xdata	SEGMENT
$ip2state$??0CTransInPlaceOutputPin@@QEAA@PEA_WPEAVCTransInPlaceFilter@@PEAJPEB_W@Z DD imagerel ??0CTransInPlaceOutputPin@@QEAA@PEA_WPEAVCTransInPlaceFilter@@PEAJPEB_W@Z
	DD	0ffffffffH
	DD	imagerel ??0CTransInPlaceOutputPin@@QEAA@PEA_WPEAVCTransInPlaceFilter@@PEAJPEB_W@Z+90
	DD	00H
	DD	imagerel ??0CTransInPlaceOutputPin@@QEAA@PEA_WPEAVCTransInPlaceFilter@@PEAJPEB_W@Z+177
	DD	0ffffffffH
xdata	ENDS
;	COMDAT ??_R4CTransInPlaceOutputPin@@6BIQualityControl@@@
rdata$r	SEGMENT
??_R4CTransInPlaceOutputPin@@6BIQualityControl@@@ DD 01H ; CTransInPlaceOutputPin::`RTTI Complete Object Locator'
	DD	028H
	DD	00H
	DD	imagerel ??_R0?AVCTransInPlaceOutputPin@@@8
	DD	imagerel ??_R3CTransInPlaceOutputPin@@8
	DD	imagerel ??_R4CTransInPlaceOutputPin@@6BIQualityControl@@@
rdata$r	ENDS
;	COMDAT ??_R4CTransInPlaceOutputPin@@6BIPin@@@
rdata$r	SEGMENT
??_R4CTransInPlaceOutputPin@@6BIPin@@@ DD 01H		; CTransInPlaceOutputPin::`RTTI Complete Object Locator'
	DD	020H
	DD	00H
	DD	imagerel ??_R0?AVCTransInPlaceOutputPin@@@8
	DD	imagerel ??_R3CTransInPlaceOutputPin@@8
	DD	imagerel ??_R4CTransInPlaceOutputPin@@6BIPin@@@
rdata$r	ENDS
;	COMDAT ??_R2CBaseOutputPin@@8
rdata$r	SEGMENT
??_R2CBaseOutputPin@@8 DD imagerel ??_R1A@?0A@EA@CBaseOutputPin@@8 ; CBaseOutputPin::`RTTI Base Class Array'
	DD	imagerel ??_R1A@?0A@EA@CBasePin@@8
	DD	imagerel ??_R1A@?0A@EA@CUnknown@@8
	DD	imagerel ??_R1A@?0A@EA@INonDelegatingUnknown@@8
	DD	imagerel ??_R17?0A@EA@CBaseObject@@8
	DD	imagerel ??_R1CA@?0A@EA@IPin@@8
	DD	imagerel ??_R1CA@?0A@EC@IUnknown@@8
	DD	imagerel ??_R1CI@?0A@EA@IQualityControl@@8
	DD	imagerel ??_R1CI@?0A@EC@IUnknown@@8
	ORG $+3
rdata$r	ENDS
;	COMDAT ??_R3CBaseOutputPin@@8
rdata$r	SEGMENT
??_R3CBaseOutputPin@@8 DD 00H				; CBaseOutputPin::`RTTI Class Hierarchy Descriptor'
	DD	01H
	DD	09H
	DD	imagerel ??_R2CBaseOutputPin@@8
rdata$r	ENDS
;	COMDAT ??_R0?AVCBaseOutputPin@@@8
_DATA	SEGMENT
??_R0?AVCBaseOutputPin@@@8 DQ FLAT:??_7type_info@@6B@	; CBaseOutputPin `RTTI Type Descriptor'
	DQ	0000000000000000H
	DB	'.?AVCBaseOutputPin@@', 00H
_DATA	ENDS
;	COMDAT ??_R1A@?0A@EA@CBaseOutputPin@@8
rdata$r	SEGMENT
??_R1A@?0A@EA@CBaseOutputPin@@8 DD imagerel ??_R0?AVCBaseOutputPin@@@8 ; CBaseOutputPin::`RTTI Base Class Descriptor at (0,-1,0,64)'
	DD	08H
	DD	00H
	DD	0ffffffffH
	DD	00H
	DD	040H
	DD	imagerel ??_R3CBaseOutputPin@@8
rdata$r	ENDS
;	COMDAT ??_R2CTransformOutputPin@@8
rdata$r	SEGMENT
??_R2CTransformOutputPin@@8 DD imagerel ??_R1A@?0A@EA@CTransformOutputPin@@8 ; CTransformOutputPin::`RTTI Base Class Array'
	DD	imagerel ??_R1A@?0A@EA@CBaseOutputPin@@8
	DD	imagerel ??_R1A@?0A@EA@CBasePin@@8
	DD	imagerel ??_R1A@?0A@EA@CUnknown@@8
	DD	imagerel ??_R1A@?0A@EA@INonDelegatingUnknown@@8
	DD	imagerel ??_R17?0A@EA@CBaseObject@@8
	DD	imagerel ??_R1CA@?0A@EA@IPin@@8
	DD	imagerel ??_R1CA@?0A@EC@IUnknown@@8
	DD	imagerel ??_R1CI@?0A@EA@IQualityControl@@8
	DD	imagerel ??_R1CI@?0A@EC@IUnknown@@8
	ORG $+3
rdata$r	ENDS
;	COMDAT ??_R3CTransformOutputPin@@8
rdata$r	SEGMENT
??_R3CTransformOutputPin@@8 DD 00H			; CTransformOutputPin::`RTTI Class Hierarchy Descriptor'
	DD	01H
	DD	0aH
	DD	imagerel ??_R2CTransformOutputPin@@8
rdata$r	ENDS
;	COMDAT ??_R0?AVCTransformOutputPin@@@8
_DATA	SEGMENT
??_R0?AVCTransformOutputPin@@@8 DQ FLAT:??_7type_info@@6B@ ; CTransformOutputPin `RTTI Type Descriptor'
	DQ	0000000000000000H
	DB	'.?AVCTransformOutputPin@@', 00H
_DATA	ENDS
;	COMDAT ??_R1A@?0A@EA@CTransformOutputPin@@8
rdata$r	SEGMENT
??_R1A@?0A@EA@CTransformOutputPin@@8 DD imagerel ??_R0?AVCTransformOutputPin@@@8 ; CTransformOutputPin::`RTTI Base Class Descriptor at (0,-1,0,64)'
	DD	09H
	DD	00H
	DD	0ffffffffH
	DD	00H
	DD	040H
	DD	imagerel ??_R3CTransformOutputPin@@8
rdata$r	ENDS
;	COMDAT ??_R1A@?0A@EA@CTransInPlaceOutputPin@@8
rdata$r	SEGMENT
??_R1A@?0A@EA@CTransInPlaceOutputPin@@8 DD imagerel ??_R0?AVCTransInPlaceOutputPin@@@8 ; CTransInPlaceOutputPin::`RTTI Base Class Descriptor at (0,-1,0,64)'
	DD	0aH
	DD	00H
	DD	0ffffffffH
	DD	00H
	DD	040H
	DD	imagerel ??_R3CTransInPlaceOutputPin@@8
rdata$r	ENDS
;	COMDAT ??_R2CTransInPlaceOutputPin@@8
rdata$r	SEGMENT
??_R2CTransInPlaceOutputPin@@8 DD imagerel ??_R1A@?0A@EA@CTransInPlaceOutputPin@@8 ; CTransInPlaceOutputPin::`RTTI Base Class Array'
	DD	imagerel ??_R1A@?0A@EA@CTransformOutputPin@@8
	DD	imagerel ??_R1A@?0A@EA@CBaseOutputPin@@8
	DD	imagerel ??_R1A@?0A@EA@CBasePin@@8
	DD	imagerel ??_R1A@?0A@EA@CUnknown@@8
	DD	imagerel ??_R1A@?0A@EA@INonDelegatingUnknown@@8
	DD	imagerel ??_R17?0A@EA@CBaseObject@@8
	DD	imagerel ??_R1CA@?0A@EA@IPin@@8
	DD	imagerel ??_R1CA@?0A@EC@IUnknown@@8
	DD	imagerel ??_R1CI@?0A@EA@IQualityControl@@8
	DD	imagerel ??_R1CI@?0A@EC@IUnknown@@8
	ORG $+3
rdata$r	ENDS
;	COMDAT ??_R3CTransInPlaceOutputPin@@8
rdata$r	SEGMENT
??_R3CTransInPlaceOutputPin@@8 DD 00H			; CTransInPlaceOutputPin::`RTTI Class Hierarchy Descriptor'
	DD	01H
	DD	0bH
	DD	imagerel ??_R2CTransInPlaceOutputPin@@8
rdata$r	ENDS
;	COMDAT ??_R0?AVCTransInPlaceOutputPin@@@8
_DATA	SEGMENT
??_R0?AVCTransInPlaceOutputPin@@@8 DQ FLAT:??_7type_info@@6B@ ; CTransInPlaceOutputPin `RTTI Type Descriptor'
	DQ	0000000000000000H
	DB	'.?AVCTransInPlaceOutputPin@@', 00H
_DATA	ENDS
;	COMDAT ??_R4CTransInPlaceOutputPin@@6BCUnknown@@@
rdata$r	SEGMENT
??_R4CTransInPlaceOutputPin@@6BCUnknown@@@ DD 01H	; CTransInPlaceOutputPin::`RTTI Complete Object Locator'
	DD	00H
	DD	00H
	DD	imagerel ??_R0?AVCTransInPlaceOutputPin@@@8
	DD	imagerel ??_R3CTransInPlaceOutputPin@@8
	DD	imagerel ??_R4CTransInPlaceOutputPin@@6BCUnknown@@@
rdata$r	ENDS
;	COMDAT xdata
xdata	SEGMENT
$unwind$?dtor$0@?0???0CTransInPlaceOutputPin@@QEAA@PEA_WPEAVCTransInPlaceFilter@@PEAJPEB_W@Z@4HA DD 031001H
	DD	0700c4210H
	DD	0500bH
xdata	ENDS
;	COMDAT xdata
xdata	SEGMENT
$unwind$??0CTransInPlaceOutputPin@@QEAA@PEA_WPEAVCTransInPlaceFilter@@PEAJPEB_W@Z DD 023611H
	DD	070157219H
	DD	imagerel __CxxFrameHandler3
	DD	imagerel $cppxdata$??0CTransInPlaceOutputPin@@QEAA@PEA_WPEAVCTransInPlaceFilter@@PEAJPEB_W@Z
xdata	ENDS
;	COMDAT CONST
CONST	SEGMENT
$cppxdata$??0CTransInPlaceOutputPin@@QEAA@PEA_WPEAVCTransInPlaceFilter@@PEAJPEB_W@Z DD 019930522H
	DD	01H
	DD	imagerel $stateUnwindMap$??0CTransInPlaceOutputPin@@QEAA@PEA_WPEAVCTransInPlaceFilter@@PEAJPEB_W@Z
	DD	00H
	DD	00H
	DD	03H
	DD	imagerel $ip2state$??0CTransInPlaceOutputPin@@QEAA@PEA_WPEAVCTransInPlaceFilter@@PEAJPEB_W@Z
	DD	030H
	DD	00H
	DD	01H
CONST	ENDS
;	COMDAT xdata
xdata	SEGMENT
$stateUnwindMap$??0CTransInPlaceOutputPin@@QEAA@PEA_WPEAVCTransInPlaceFilter@@PEAJPEB_W@Z DD 0ffffffffH
	DD	imagerel ?dtor$0@?0???0CTransInPlaceOutputPin@@QEAA@PEA_WPEAVCTransInPlaceFilter@@PEAJPEB_W@Z@4HA
xdata	ENDS
;	COMDAT ??_7CTransInPlaceOutputPin@@6BIQualityControl@@@
CONST	SEGMENT
??_7CTransInPlaceOutputPin@@6BIQualityControl@@@ DQ FLAT:??_R4CTransInPlaceOutputPin@@6BIQualityControl@@@ ; CTransInPlaceOutputPin::`vftable'
	DQ	FLAT:?QueryInterface@CBasePin@@W7EAAJAEBU_GUID@@PEAPEAX@Z
	DQ	FLAT:?AddRef@CBasePin@@W7EAAKXZ
	DQ	FLAT:?Release@CBasePin@@W7EAAKXZ
	DQ	FLAT:?Notify@CTransformOutputPin@@UEAAJPEAUIBaseFilter@@UtagQuality@@@Z
	DQ	FLAT:?SetSink@CBasePin@@UEAAJPEAUIQualityControl@@@Z
CONST	ENDS
;	COMDAT ??_7CTransInPlaceOutputPin@@6BIPin@@@
CONST	SEGMENT
??_7CTransInPlaceOutputPin@@6BIPin@@@ DQ FLAT:??_R4CTransInPlaceOutputPin@@6BIPin@@@ ; CTransInPlaceOutputPin::`vftable'
	DQ	FLAT:?QueryInterface@CBasePin@@UEAAJAEBU_GUID@@PEAPEAX@Z
	DQ	FLAT:?AddRef@CBasePin@@UEAAKXZ
	DQ	FLAT:?Release@CBasePin@@UEAAKXZ
	DQ	FLAT:?Connect@CBasePin@@UEAAJPEAUIPin@@PEBU_AMMediaType@@@Z
	DQ	FLAT:?ReceiveConnection@CBasePin@@UEAAJPEAUIPin@@PEBU_AMMediaType@@@Z
	DQ	FLAT:?Disconnect@CBasePin@@UEAAJXZ
	DQ	FLAT:?ConnectedTo@CBasePin@@UEAAJPEAPEAUIPin@@@Z
	DQ	FLAT:?ConnectionMediaType@CBasePin@@UEAAJPEAU_AMMediaType@@@Z
	DQ	FLAT:?QueryPinInfo@CBasePin@@UEAAJPEAU_PinInfo@@@Z
	DQ	FLAT:?QueryDirection@CBasePin@@UEAAJPEAW4_PinDirection@@@Z
	DQ	FLAT:?QueryId@CTransformOutputPin@@UEAAJPEAPEA_W@Z
	DQ	FLAT:?QueryAccept@CBasePin@@UEAAJPEBU_AMMediaType@@@Z
	DQ	FLAT:?EnumMediaTypes@CTransInPlaceOutputPin@@UEAAJPEAPEAUIEnumMediaTypes@@@Z
	DQ	FLAT:?QueryInternalConnections@CBasePin@@UEAAJPEAPEAUIPin@@PEAK@Z
	DQ	FLAT:?EndOfStream@CBaseOutputPin@@UEAAJXZ
	DQ	FLAT:?BeginFlush@CBaseOutputPin@@UEAAJXZ
	DQ	FLAT:?EndFlush@CBaseOutputPin@@UEAAJXZ
	DQ	FLAT:?NewSegment@CBasePin@@UEAAJ_J0N@Z
CONST	ENDS
;	COMDAT ??_7CTransInPlaceOutputPin@@6BCUnknown@@@
CONST	SEGMENT
??_7CTransInPlaceOutputPin@@6BCUnknown@@@ DQ FLAT:??_R4CTransInPlaceOutputPin@@6BCUnknown@@@ ; CTransInPlaceOutputPin::`vftable'
	DQ	FLAT:?NonDelegatingQueryInterface@CTransformOutputPin@@UEAAJAEBU_GUID@@PEAPEAX@Z
	DQ	FLAT:?NonDelegatingAddRef@CBasePin@@UEAAKXZ
	DQ	FLAT:?NonDelegatingRelease@CBasePin@@UEAAKXZ
	DQ	FLAT:??_ECTransInPlaceOutputPin@@UEAAPEAXI@Z
	DQ	FLAT:?GetMediaTypeVersion@CBasePin@@UEAAJXZ
	DQ	FLAT:?Active@CBaseOutputPin@@UEAAJXZ
	DQ	FLAT:?Inactive@CBaseOutputPin@@UEAAJXZ
	DQ	FLAT:?Run@CBasePin@@UEAAJ_J@Z
	DQ	FLAT:?CheckMediaType@CTransInPlaceOutputPin@@UEAAJPEBVCMediaType@@@Z
	DQ	FLAT:?SetMediaType@CTransformOutputPin@@UEAAJPEBVCMediaType@@@Z
	DQ	FLAT:?CheckConnect@CTransformOutputPin@@UEAAJPEAUIPin@@@Z
	DQ	FLAT:?BreakConnect@CTransformOutputPin@@UEAAJXZ
	DQ	FLAT:?CompleteConnect@CTransInPlaceOutputPin@@UEAAJPEAUIPin@@@Z
	DQ	FLAT:?GetMediaType@CTransformOutputPin@@UEAAJHPEAVCMediaType@@@Z
	DQ	FLAT:?DecideAllocator@CBaseOutputPin@@UEAAJPEAUIMemInputPin@@PEAPEAUIMemAllocator@@@Z
	DQ	FLAT:?DecideBufferSize@CTransformOutputPin@@UEAAJPEAUIMemAllocator@@PEAU_AllocatorProperties@@@Z
	DQ	FLAT:?GetDeliveryBuffer@CBaseOutputPin@@UEAAJPEAPEAUIMediaSample@@PEA_J1K@Z
	DQ	FLAT:?Deliver@CBaseOutputPin@@UEAAJPEAUIMediaSample@@@Z
	DQ	FLAT:?InitAllocator@CBaseOutputPin@@UEAAJPEAPEAUIMemAllocator@@@Z
	DQ	FLAT:?DeliverEndOfStream@CBaseOutputPin@@UEAAJXZ
	DQ	FLAT:?DeliverBeginFlush@CBaseOutputPin@@UEAAJXZ
	DQ	FLAT:?DeliverEndFlush@CBaseOutputPin@@UEAAJXZ
	DQ	FLAT:?DeliverNewSegment@CBaseOutputPin@@UEAAJ_J0N@Z
; Function compile flags: /Odtp /RTCsu
CONST	ENDS
;	COMDAT ??0CTransInPlaceOutputPin@@QEAA@PEA_WPEAVCTransInPlaceFilter@@PEAJPEB_W@Z
_TEXT	SEGMENT
$T83795 = 48
this$ = 80
pObjectName$ = 88
pFilter$ = 96
phr$ = 104
pPinName$ = 112
??0CTransInPlaceOutputPin@@QEAA@PEA_WPEAVCTransInPlaceFilter@@PEAJPEB_W@Z PROC ; CTransInPlaceOutputPin::CTransInPlaceOutputPin, COMDAT
; Line 887
$LN4:
	mov	QWORD PTR [rsp+32], r9
	mov	QWORD PTR [rsp+24], r8
	mov	QWORD PTR [rsp+16], rdx
	mov	QWORD PTR [rsp+8], rcx
	push	rdi
	sub	rsp, 64					; 00000040H
	mov	rdi, rsp
	mov	ecx, 16
	mov	eax, -858993460				; ccccccccH
	rep stosd
	mov	rcx, QWORD PTR [rsp+80]
	mov	QWORD PTR $T83795[rsp], -2
	mov	rax, QWORD PTR pPinName$[rsp]
	mov	QWORD PTR [rsp+32], rax
	mov	r9, QWORD PTR phr$[rsp]
	mov	r8, QWORD PTR pFilter$[rsp]
	mov	rdx, QWORD PTR pObjectName$[rsp]
	mov	rcx, QWORD PTR this$[rsp]
	call	??0CTransformOutputPin@@QEAA@PEA_WPEAVCTransformFilter@@PEAJPEB_W@Z ; CTransformOutputPin::CTransformOutputPin
	npad	1
	mov	rax, QWORD PTR this$[rsp]
	lea	rcx, OFFSET FLAT:??_7CTransInPlaceOutputPin@@6BCUnknown@@@
	mov	QWORD PTR [rax], rcx
	mov	rax, QWORD PTR this$[rsp]
	lea	rcx, OFFSET FLAT:??_7CTransInPlaceOutputPin@@6BIPin@@@
	mov	QWORD PTR [rax+32], rcx
	mov	rax, QWORD PTR this$[rsp]
	lea	rcx, OFFSET FLAT:??_7CTransInPlaceOutputPin@@6BIQualityControl@@@
	mov	QWORD PTR [rax+40], rcx
	mov	rax, QWORD PTR this$[rsp]
	mov	rcx, QWORD PTR pFilter$[rsp]
	mov	QWORD PTR [rax+264], rcx
; Line 889
	lea	r8, OFFSET FLAT:$SG82533
	mov	edx, 2
	mov	ecx, 2
	call	?DbgLogInfo@@YAXKKPEB_WZZ		; DbgLogInfo
	npad	1
; Line 891
	mov	rax, QWORD PTR this$[rsp]
	add	rsp, 64					; 00000040H
	pop	rdi
	ret	0
??0CTransInPlaceOutputPin@@QEAA@PEA_WPEAVCTransInPlaceFilter@@PEAJPEB_W@Z ENDP ; CTransInPlaceOutputPin::CTransInPlaceOutputPin
; Function compile flags: /Odtp /RTCsu
_TEXT	ENDS
;	COMDAT text$x
text$x	SEGMENT
$T83795 = 48
this$ = 80
pObjectName$ = 88
pFilter$ = 96
phr$ = 104
pPinName$ = 112
?dtor$0@?0???0CTransInPlaceOutputPin@@QEAA@PEA_WPEAVCTransInPlaceFilter@@PEAJPEB_W@Z@4HA PROC ; `CTransInPlaceOutputPin::CTransInPlaceOutputPin'::`1'::dtor$0
	mov	QWORD PTR [rsp+8], rcx
	mov	QWORD PTR [rsp+16], rdx
	push	rbp
	push	rdi
	sub	rsp, 40					; 00000028H
	mov	rbp, rdx
	mov	rcx, QWORD PTR this$[rbp]
	call	??1CTransformOutputPin@@UEAA@XZ		; CTransformOutputPin::~CTransformOutputPin
	add	rsp, 40					; 00000028H
	pop	rdi
	pop	rbp
	ret	0
?dtor$0@?0???0CTransInPlaceOutputPin@@QEAA@PEA_WPEAVCTransInPlaceFilter@@PEAJPEB_W@Z@4HA ENDP ; `CTransInPlaceOutputPin::CTransInPlaceOutputPin'::`1'::dtor$0
text$x	ENDS
;	COMDAT pdata
; File c:\downloads\wpf mediakit - copy\src\filters\baseclasses\amfilter.h
pdata	SEGMENT
$pdata$?QueryInterface@CBasePin@@UEAAJAEBU_GUID@@PEAPEAX@Z DD imagerel $LN3
	DD	imagerel $LN3+93
	DD	imagerel $unwind$?QueryInterface@CBasePin@@UEAAJAEBU_GUID@@PEAPEAX@Z
pdata	ENDS
;	COMDAT xdata
xdata	SEGMENT
$unwind$?QueryInterface@CBasePin@@UEAAJAEBU_GUID@@PEAPEAX@Z DD 022801H
	DD	070105214H
; Function compile flags: /Odtp /RTCsu
xdata	ENDS
;	COMDAT ?QueryInterface@CBasePin@@UEAAJAEBU_GUID@@PEAPEAX@Z
_TEXT	SEGMENT
tv72 = 32
this$ = 64
riid$ = 72
ppv$ = 80
?QueryInterface@CBasePin@@UEAAJAEBU_GUID@@PEAPEAX@Z PROC ; CBasePin::QueryInterface, COMDAT
; Line 411
$LN3:
	mov	QWORD PTR [rsp+24], r8
	mov	QWORD PTR [rsp+16], rdx
	mov	QWORD PTR [rsp+8], rcx
	push	rdi
	sub	rsp, 48					; 00000030H
	mov	rdi, rsp
	mov	ecx, 12
	mov	eax, -858993460				; ccccccccH
	rep stosd
	mov	rcx, QWORD PTR [rsp+64]
	mov	rax, QWORD PTR this$[rsp]
	sub	rax, 32					; 00000020H
	mov	rcx, rax
	call	?GetOwner@CUnknown@@QEBAPEAUIUnknown@@XZ ; CUnknown::GetOwner
	mov	QWORD PTR tv72[rsp], rax
	mov	rax, QWORD PTR tv72[rsp]
	mov	rax, QWORD PTR [rax]
	mov	r8, QWORD PTR ppv$[rsp]
	mov	rdx, QWORD PTR riid$[rsp]
	mov	rcx, QWORD PTR tv72[rsp]
	call	QWORD PTR [rax]
	add	rsp, 48					; 00000030H
	pop	rdi
	ret	0
?QueryInterface@CBasePin@@UEAAJAEBU_GUID@@PEAPEAX@Z ENDP ; CBasePin::QueryInterface
_TEXT	ENDS
;	COMDAT pdata
pdata	SEGMENT
$pdata$?AddRef@CBasePin@@UEAAKXZ DD imagerel $LN3
	DD	imagerel $LN3+74
	DD	imagerel $unwind$?AddRef@CBasePin@@UEAAKXZ
pdata	ENDS
;	COMDAT xdata
xdata	SEGMENT
$unwind$?AddRef@CBasePin@@UEAAKXZ DD 021e01H
	DD	07006520aH
; Function compile flags: /Odtp /RTCsu
xdata	ENDS
;	COMDAT ?AddRef@CBasePin@@UEAAKXZ
_TEXT	SEGMENT
tv72 = 32
this$ = 64
?AddRef@CBasePin@@UEAAKXZ PROC				; CBasePin::AddRef, COMDAT
; Line 411
$LN3:
	mov	QWORD PTR [rsp+8], rcx
	push	rdi
	sub	rsp, 48					; 00000030H
	mov	rdi, rsp
	mov	ecx, 12
	mov	eax, -858993460				; ccccccccH
	rep stosd
	mov	rcx, QWORD PTR [rsp+64]
	mov	rax, QWORD PTR this$[rsp]
	sub	rax, 32					; 00000020H
	mov	rcx, rax
	call	?GetOwner@CUnknown@@QEBAPEAUIUnknown@@XZ ; CUnknown::GetOwner
	mov	QWORD PTR tv72[rsp], rax
	mov	rax, QWORD PTR tv72[rsp]
	mov	rax, QWORD PTR [rax]
	mov	rcx, QWORD PTR tv72[rsp]
	call	QWORD PTR [rax+8]
	add	rsp, 48					; 00000030H
	pop	rdi
	ret	0
?AddRef@CBasePin@@UEAAKXZ ENDP				; CBasePin::AddRef
_TEXT	ENDS
;	COMDAT pdata
pdata	SEGMENT
$pdata$?Release@CBasePin@@UEAAKXZ DD imagerel $LN3
	DD	imagerel $LN3+74
	DD	imagerel $unwind$?Release@CBasePin@@UEAAKXZ
pdata	ENDS
;	COMDAT xdata
xdata	SEGMENT
$unwind$?Release@CBasePin@@UEAAKXZ DD 021e01H
	DD	07006520aH
; Function compile flags: /Odtp /RTCsu
xdata	ENDS
;	COMDAT ?Release@CBasePin@@UEAAKXZ
_TEXT	SEGMENT
tv72 = 32
this$ = 64
?Release@CBasePin@@UEAAKXZ PROC				; CBasePin::Release, COMDAT
; Line 411
$LN3:
	mov	QWORD PTR [rsp+8], rcx
	push	rdi
	sub	rsp, 48					; 00000030H
	mov	rdi, rsp
	mov	ecx, 12
	mov	eax, -858993460				; ccccccccH
	rep stosd
	mov	rcx, QWORD PTR [rsp+64]
	mov	rax, QWORD PTR this$[rsp]
	sub	rax, 32					; 00000020H
	mov	rcx, rax
	call	?GetOwner@CUnknown@@QEBAPEAUIUnknown@@XZ ; CUnknown::GetOwner
	mov	QWORD PTR tv72[rsp], rax
	mov	rax, QWORD PTR tv72[rsp]
	mov	rax, QWORD PTR [rax]
	mov	rcx, QWORD PTR tv72[rsp]
	call	QWORD PTR [rax+16]
	add	rsp, 48					; 00000030H
	pop	rdi
	ret	0
?Release@CBasePin@@UEAAKXZ ENDP				; CBasePin::Release
_TEXT	ENDS
PUBLIC	??_C@_17NFNCFLGO@?$AAO?$AAu?$AAt?$AA?$AA@	; `string'
;	COMDAT pdata
; File c:\downloads\wpf mediakit - copy\src\filters\baseclasses\transfrm.h
pdata	SEGMENT
$pdata$?QueryId@CTransformOutputPin@@UEAAJPEAPEA_W@Z DD imagerel $LN3
	DD	imagerel $LN3+58
	DD	imagerel $unwind$?QueryId@CTransformOutputPin@@UEAAJPEAPEA_W@Z
pdata	ENDS
;	COMDAT xdata
xdata	SEGMENT
$unwind$?QueryId@CTransformOutputPin@@UEAAJPEAPEA_W@Z DD 022301H
	DD	0700b320fH
xdata	ENDS
;	COMDAT ??_C@_17NFNCFLGO@?$AAO?$AAu?$AAt?$AA?$AA@
CONST	SEGMENT
??_C@_17NFNCFLGO@?$AAO?$AAu?$AAt?$AA?$AA@ DB 'O', 00H, 'u', 00H, 't', 00H
	DB	00H, 00H					; `string'
; Function compile flags: /Odtp /RTCsu
CONST	ENDS
;	COMDAT ?QueryId@CTransformOutputPin@@UEAAJPEAPEA_W@Z
_TEXT	SEGMENT
this$ = 48
Id$ = 56
?QueryId@CTransformOutputPin@@UEAAJPEAPEA_W@Z PROC	; CTransformOutputPin::QueryId, COMDAT
; Line 140
$LN3:
	mov	QWORD PTR [rsp+16], rdx
	mov	QWORD PTR [rsp+8], rcx
	push	rdi
	sub	rsp, 32					; 00000020H
	mov	rdi, rsp
	mov	ecx, 8
	mov	eax, -858993460				; ccccccccH
	rep stosd
	mov	rcx, QWORD PTR [rsp+48]
; Line 141
	mov	rdx, QWORD PTR Id$[rsp]
	lea	rcx, OFFSET FLAT:??_C@_17NFNCFLGO@?$AAO?$AAu?$AAt?$AA?$AA@
	call	AMGetWideString
; Line 142
	add	rsp, 32					; 00000020H
	pop	rdi
	ret	0
?QueryId@CTransformOutputPin@@UEAAJPEAPEA_W@Z ENDP	; CTransformOutputPin::QueryId
_TEXT	ENDS
PUBLIC	??1CTransInPlaceOutputPin@@UEAA@XZ		; CTransInPlaceOutputPin::~CTransInPlaceOutputPin
;	COMDAT pdata
pdata	SEGMENT
$pdata$??_GCTransInPlaceOutputPin@@UEAAPEAXI@Z DD imagerel $LN4
	DD	imagerel $LN4+76
	DD	imagerel $unwind$??_GCTransInPlaceOutputPin@@UEAAPEAXI@Z
pdata	ENDS
;	COMDAT xdata
xdata	SEGMENT
$unwind$??_GCTransInPlaceOutputPin@@UEAAPEAXI@Z DD 022201H
	DD	0700a320eH
; Function compile flags: /Odtp /RTCsu
xdata	ENDS
;	COMDAT ??_GCTransInPlaceOutputPin@@UEAAPEAXI@Z
_TEXT	SEGMENT
this$ = 48
__flags$ = 56
??_GCTransInPlaceOutputPin@@UEAAPEAXI@Z PROC		; CTransInPlaceOutputPin::`scalar deleting destructor', COMDAT
$LN4:
	mov	DWORD PTR [rsp+16], edx
	mov	QWORD PTR [rsp+8], rcx
	push	rdi
	sub	rsp, 32					; 00000020H
	mov	rdi, rsp
	mov	ecx, 8
	mov	eax, -858993460				; ccccccccH
	rep stosd
	mov	rcx, QWORD PTR [rsp+48]
	mov	rcx, QWORD PTR this$[rsp]
	call	??1CTransInPlaceOutputPin@@UEAA@XZ
	mov	eax, DWORD PTR __flags$[rsp]
	and	eax, 1
	test	eax, eax
	je	SHORT $LN1@scalar@2
	mov	rcx, QWORD PTR this$[rsp]
	call	??3@YAXPEAX@Z				; operator delete
$LN1@scalar@2:
	mov	rax, QWORD PTR this$[rsp]
	add	rsp, 32					; 00000020H
	pop	rdi
	ret	0
??_GCTransInPlaceOutputPin@@UEAAPEAXI@Z ENDP		; CTransInPlaceOutputPin::`scalar deleting destructor'
_TEXT	ENDS
;	COMDAT pdata
pdata	SEGMENT
$pdata$??1CTransInPlaceOutputPin@@UEAA@XZ DD imagerel $LN4
	DD	imagerel $LN4+46
	DD	imagerel $unwind$??1CTransInPlaceOutputPin@@UEAA@XZ
pdata	ENDS
;	COMDAT xdata
xdata	SEGMENT
$unwind$??1CTransInPlaceOutputPin@@UEAA@XZ DD 021e01H
	DD	07006320aH
; Function compile flags: /Odtp /RTCsu
xdata	ENDS
;	COMDAT ??1CTransInPlaceOutputPin@@UEAA@XZ
_TEXT	SEGMENT
this$ = 48
??1CTransInPlaceOutputPin@@UEAA@XZ PROC			; CTransInPlaceOutputPin::~CTransInPlaceOutputPin, COMDAT
$LN4:
	mov	QWORD PTR [rsp+8], rcx
	push	rdi
	sub	rsp, 32					; 00000020H
	mov	rdi, rsp
	mov	ecx, 8
	mov	eax, -858993460				; ccccccccH
	rep stosd
	mov	rcx, QWORD PTR [rsp+48]
	mov	rcx, QWORD PTR this$[rsp]
	call	??1CTransformOutputPin@@UEAA@XZ		; CTransformOutputPin::~CTransformOutputPin
	add	rsp, 32					; 00000020H
	pop	rdi
	ret	0
??1CTransInPlaceOutputPin@@UEAA@XZ ENDP			; CTransInPlaceOutputPin::~CTransInPlaceOutputPin
_TEXT	ENDS
;	COMDAT pdata
; File c:\downloads\wpf mediakit - copy\src\filters\baseclasses\transip.cpp
pdata	SEGMENT
$pdata$?EnumMediaTypes@CTransInPlaceOutputPin@@UEAAJPEAPEAUIEnumMediaTypes@@@Z DD imagerel $LN4
	DD	imagerel $LN4+126
	DD	imagerel $unwind$?EnumMediaTypes@CTransInPlaceOutputPin@@UEAAJPEAPEAUIEnumMediaTypes@@@Z
pdata	ENDS
;	COMDAT xdata
xdata	SEGMENT
$unwind$?EnumMediaTypes@CTransInPlaceOutputPin@@UEAAJPEAPEAUIEnumMediaTypes@@@Z DD 022301H
	DD	0700b520fH
; Function compile flags: /Odtp /RTCsu
xdata	ENDS
;	COMDAT ?EnumMediaTypes@CTransInPlaceOutputPin@@UEAAJPEAPEAUIEnumMediaTypes@@@Z
_TEXT	SEGMENT
tv92 = 32
this$ = 64
ppEnum$ = 72
?EnumMediaTypes@CTransInPlaceOutputPin@@UEAAJPEAPEAUIEnumMediaTypes@@@Z PROC ; CTransInPlaceOutputPin::EnumMediaTypes, COMDAT
; Line 897
$LN4:
	mov	QWORD PTR [rsp+16], rdx
	mov	QWORD PTR [rsp+8], rcx
	push	rdi
	sub	rsp, 48					; 00000030H
	mov	rdi, rsp
	mov	ecx, 12
	mov	eax, -858993460				; ccccccccH
	rep stosd
	mov	rcx, QWORD PTR [rsp+64]
; Line 899
	mov	rax, QWORD PTR this$[rsp]
	mov	rax, QWORD PTR [rax+232]
	mov	rcx, QWORD PTR [rax+256]
	call	?IsConnected@CBasePin@@QEAAHXZ		; CBasePin::IsConnected
	test	eax, eax
	jne	SHORT $LN1@EnumMediaT@2
; Line 900
	mov	eax, -2147220983			; ffffffff80040209H
	jmp	SHORT $LN2@EnumMediaT@2
$LN1@EnumMediaT@2:
; Line 902
	mov	rax, QWORD PTR this$[rsp]
	mov	rax, QWORD PTR [rax+232]
	mov	rcx, QWORD PTR [rax+256]
	call	?GetConnected@CBasePin@@QEAAPEAUIPin@@XZ ; CBasePin::GetConnected
	mov	QWORD PTR tv92[rsp], rax
	mov	rax, QWORD PTR tv92[rsp]
	mov	rax, QWORD PTR [rax]
	mov	rdx, QWORD PTR ppEnum$[rsp]
	mov	rcx, QWORD PTR tv92[rsp]
	call	QWORD PTR [rax+96]
$LN2@EnumMediaT@2:
; Line 904
	add	rsp, 48					; 00000030H
	pop	rdi
	ret	0
?EnumMediaTypes@CTransInPlaceOutputPin@@UEAAJPEAPEAUIEnumMediaTypes@@@Z ENDP ; CTransInPlaceOutputPin::EnumMediaTypes
_TEXT	ENDS
PUBLIC	?IsStopped@CBaseFilter@@QEAAHXZ			; CBaseFilter::IsStopped
EXTRN	??8CMediaType@@QEBAHAEBV0@@Z:PROC		; CMediaType::operator==
;	COMDAT pdata
pdata	SEGMENT
$pdata$?CheckMediaType@CTransInPlaceOutputPin@@UEAAJPEBVCMediaType@@@Z DD imagerel $LN9
	DD	imagerel $LN9+261
	DD	imagerel $unwind$?CheckMediaType@CTransInPlaceOutputPin@@UEAAJPEBVCMediaType@@@Z
pdata	ENDS
;	COMDAT xdata
xdata	SEGMENT
$unwind$?CheckMediaType@CTransInPlaceOutputPin@@UEAAJPEBVCMediaType@@@Z DD 022301H
	DD	0700b520fH
; Function compile flags: /Odtp /RTCsu
xdata	ENDS
;	COMDAT ?CheckMediaType@CTransInPlaceOutputPin@@UEAAJPEBVCMediaType@@@Z
_TEXT	SEGMENT
hr$ = 32
tv157 = 40
this$ = 64
pmt$ = 72
?CheckMediaType@CTransInPlaceOutputPin@@UEAAJPEBVCMediaType@@@Z PROC ; CTransInPlaceOutputPin::CheckMediaType, COMDAT
; Line 913
$LN9:
	mov	QWORD PTR [rsp+16], rdx
	mov	QWORD PTR [rsp+8], rcx
	push	rdi
	sub	rsp, 48					; 00000030H
	mov	rdi, rsp
	mov	ecx, 12
	mov	eax, -858993460				; ccccccccH
	rep stosd
	mov	rcx, QWORD PTR [rsp+64]
; Line 917
	mov	rax, QWORD PTR this$[rsp]
	mov	rcx, QWORD PTR [rax+264]
	call	?UsingDifferentAllocators@CTransInPlaceFilter@@IEBAHXZ ; CTransInPlaceFilter::UsingDifferentAllocators
	test	eax, eax
	je	SHORT $LN6@CheckMedia@2
	mov	rax, QWORD PTR this$[rsp]
	mov	rcx, QWORD PTR [rax+88]
	call	?IsStopped@CBaseFilter@@QEAAHXZ		; CBaseFilter::IsStopped
	test	eax, eax
	jne	SHORT $LN6@CheckMedia@2
; Line 918
	mov	rax, QWORD PTR this$[rsp]
	add	rax, 112				; 00000070H
	mov	rdx, rax
	mov	rcx, QWORD PTR pmt$[rsp]
	call	??8CMediaType@@QEBAHAEBV0@@Z		; CMediaType::operator==
	test	eax, eax
	je	SHORT $LN5@CheckMedia@2
; Line 919
	xor	eax, eax
	jmp	$LN7@CheckMedia@2
; Line 920
	jmp	SHORT $LN4@CheckMedia@2
$LN5@CheckMedia@2:
; Line 921
	mov	eax, -2147220950			; ffffffff8004022aH
	jmp	$LN7@CheckMedia@2
$LN4@CheckMedia@2:
$LN6@CheckMedia@2:
; Line 927
	mov	rax, QWORD PTR this$[rsp]
	mov	rax, QWORD PTR [rax+264]
	mov	rcx, QWORD PTR this$[rsp]
	mov	rcx, QWORD PTR [rcx+264]
	mov	rax, QWORD PTR [rax]
	mov	rdx, QWORD PTR pmt$[rsp]
	call	QWORD PTR [rax+80]
	mov	DWORD PTR hr$[rsp], eax
; Line 928
	cmp	DWORD PTR hr$[rsp], 0
	je	SHORT $LN3@CheckMedia@2
	mov	eax, DWORD PTR hr$[rsp]
	jmp	SHORT $LN7@CheckMedia@2
$LN3@CheckMedia@2:
; Line 930
	mov	rax, QWORD PTR this$[rsp]
	mov	rax, QWORD PTR [rax+264]
	mov	rcx, QWORD PTR [rax+256]
	call	?IsConnected@CBasePin@@QEAAHXZ		; CBasePin::IsConnected
	test	eax, eax
	je	SHORT $LN2@CheckMedia@2
; Line 931
	mov	rax, QWORD PTR this$[rsp]
	mov	rax, QWORD PTR [rax+264]
	mov	rcx, QWORD PTR [rax+256]
	call	?GetConnected@CBasePin@@QEAAPEAUIPin@@XZ ; CBasePin::GetConnected
	mov	QWORD PTR tv157[rsp], rax
	mov	rax, QWORD PTR tv157[rsp]
	mov	rax, QWORD PTR [rax]
	mov	rdx, QWORD PTR pmt$[rsp]
	mov	rcx, QWORD PTR tv157[rsp]
	call	QWORD PTR [rax+88]
	jmp	SHORT $LN7@CheckMedia@2
; Line 932
	jmp	SHORT $LN1@CheckMedia@2
$LN2@CheckMedia@2:
; Line 933
	xor	eax, eax
$LN1@CheckMedia@2:
$LN7@CheckMedia@2:
; Line 935
	add	rsp, 48					; 00000030H
	pop	rdi
	ret	0
?CheckMediaType@CTransInPlaceOutputPin@@UEAAJPEBVCMediaType@@@Z ENDP ; CTransInPlaceOutputPin::CheckMediaType
_TEXT	ENDS
;	COMDAT pdata
; File c:\downloads\wpf mediakit - copy\src\filters\baseclasses\amfilter.h
pdata	SEGMENT
$pdata$?IsStopped@CBaseFilter@@QEAAHXZ DD imagerel $LN5
	DD	imagerel $LN5+66
	DD	imagerel $unwind$?IsStopped@CBaseFilter@@QEAAHXZ
pdata	ENDS
;	COMDAT xdata
xdata	SEGMENT
$unwind$?IsStopped@CBaseFilter@@QEAAHXZ DD 021e01H
	DD	07006120aH
; Function compile flags: /Odtp /RTCsu
xdata	ENDS
;	COMDAT ?IsStopped@CBaseFilter@@QEAAHXZ
_TEXT	SEGMENT
tv66 = 0
this$ = 32
?IsStopped@CBaseFilter@@QEAAHXZ PROC			; CBaseFilter::IsStopped, COMDAT
; Line 246
$LN5:
	mov	QWORD PTR [rsp+8], rcx
	push	rdi
	sub	rsp, 16
	mov	rdi, rsp
	mov	ecx, 4
	mov	eax, -858993460				; ccccccccH
	rep stosd
	mov	rcx, QWORD PTR [rsp+32]
; Line 247
	mov	rax, QWORD PTR this$[rsp]
	cmp	DWORD PTR [rax+48], 0
	jne	SHORT $LN3@IsStopped
	mov	DWORD PTR tv66[rsp], 1
	jmp	SHORT $LN4@IsStopped
$LN3@IsStopped:
	mov	DWORD PTR tv66[rsp], 0
$LN4@IsStopped:
	mov	eax, DWORD PTR tv66[rsp]
; Line 248
	add	rsp, 16
	pop	rdi
	ret	0
?IsStopped@CBaseFilter@@QEAAHXZ ENDP			; CBaseFilter::IsStopped
_TEXT	ENDS
;	COMDAT pdata
; File c:\downloads\wpf mediakit - copy\src\filters\baseclasses\transip.cpp
pdata	SEGMENT
$pdata$?SetAllocator@CTransInPlaceOutputPin@@QEAAXPEAUIMemAllocator@@@Z DD imagerel $LN4
	DD	imagerel $LN4+119
	DD	imagerel $unwind$?SetAllocator@CTransInPlaceOutputPin@@QEAAXPEAUIMemAllocator@@@Z
pdata	ENDS
;	COMDAT xdata
xdata	SEGMENT
$unwind$?SetAllocator@CTransInPlaceOutputPin@@QEAAXPEAUIMemAllocator@@@Z DD 022301H
	DD	0700b320fH
; Function compile flags: /Odtp /RTCsu
xdata	ENDS
;	COMDAT ?SetAllocator@CTransInPlaceOutputPin@@QEAAXPEAUIMemAllocator@@@Z
_TEXT	SEGMENT
this$ = 48
pAllocator$ = 56
?SetAllocator@CTransInPlaceOutputPin@@QEAAXPEAUIMemAllocator@@@Z PROC ; CTransInPlaceOutputPin::SetAllocator, COMDAT
; Line 942
$LN4:
	mov	QWORD PTR [rsp+16], rdx
	mov	QWORD PTR [rsp+8], rcx
	push	rdi
	sub	rsp, 32					; 00000020H
	mov	rdi, rsp
	mov	ecx, 8
	mov	eax, -858993460				; ccccccccH
	rep stosd
	mov	rcx, QWORD PTR [rsp+48]
; Line 943
	mov	rax, QWORD PTR pAllocator$[rsp]
	mov	rax, QWORD PTR [rax]
	mov	rcx, QWORD PTR pAllocator$[rsp]
	call	QWORD PTR [rax+8]
; Line 944
	mov	rax, QWORD PTR this$[rsp]
	cmp	QWORD PTR [rax+232], 0
	je	SHORT $LN1@SetAllocat
; Line 945
	mov	rax, QWORD PTR this$[rsp]
	mov	rax, QWORD PTR [rax+232]
	mov	rcx, QWORD PTR this$[rsp]
	mov	rcx, QWORD PTR [rcx+232]
	mov	rax, QWORD PTR [rax]
	call	QWORD PTR [rax+16]
$LN1@SetAllocat:
; Line 947
	mov	rax, QWORD PTR this$[rsp]
	mov	rcx, QWORD PTR pAllocator$[rsp]
	mov	QWORD PTR [rax+232], rcx
; Line 948
	add	rsp, 32					; 00000020H
	pop	rdi
	ret	0
?SetAllocator@CTransInPlaceOutputPin@@QEAAXPEAUIMemAllocator@@@Z ENDP ; CTransInPlaceOutputPin::SetAllocator
_TEXT	ENDS
EXTRN	?CompleteConnect@CBaseOutputPin@@UEAAJPEAUIPin@@@Z:PROC ; CBaseOutputPin::CompleteConnect
;	COMDAT pdata
pdata	SEGMENT
$pdata$?CompleteConnect@CTransInPlaceOutputPin@@UEAAJPEAUIPin@@@Z DD imagerel $LN4
	DD	imagerel $LN4+116
	DD	imagerel $unwind$?CompleteConnect@CTransInPlaceOutputPin@@UEAAJPEAUIPin@@@Z
pdata	ENDS
;	COMDAT xdata
xdata	SEGMENT
$unwind$?CompleteConnect@CTransInPlaceOutputPin@@UEAAJPEAUIPin@@@Z DD 022301H
	DD	0700b520fH
; Function compile flags: /Odtp /RTCsu
xdata	ENDS
;	COMDAT ?CompleteConnect@CTransInPlaceOutputPin@@UEAAJPEAUIPin@@@Z
_TEXT	SEGMENT
hr$ = 32
this$ = 64
pReceivePin$ = 72
?CompleteConnect@CTransInPlaceOutputPin@@UEAAJPEAUIPin@@@Z PROC ; CTransInPlaceOutputPin::CompleteConnect, COMDAT
; Line 959
$LN4:
	mov	QWORD PTR [rsp+16], rdx
	mov	QWORD PTR [rsp+8], rcx
	push	rdi
	sub	rsp, 48					; 00000030H
	mov	rdi, rsp
	mov	ecx, 12
	mov	eax, -858993460				; ccccccccH
	rep stosd
	mov	rcx, QWORD PTR [rsp+64]
; Line 960
	mov	rdx, QWORD PTR pReceivePin$[rsp]
	mov	rcx, QWORD PTR this$[rsp]
	call	?CompleteConnect@CBaseOutputPin@@UEAAJPEAUIPin@@@Z ; CBaseOutputPin::CompleteConnect
	mov	DWORD PTR hr$[rsp], eax
; Line 961
	cmp	DWORD PTR hr$[rsp], 0
	jge	SHORT $LN1@CompleteCo@3
; Line 962
	mov	eax, DWORD PTR hr$[rsp]
	jmp	SHORT $LN2@CompleteCo@3
$LN1@CompleteCo@3:
; Line 965
	mov	rax, QWORD PTR this$[rsp]
	mov	rax, QWORD PTR [rax+248]
	mov	rcx, QWORD PTR this$[rsp]
	mov	rcx, QWORD PTR [rcx+248]
	mov	rax, QWORD PTR [rax]
	mov	r8, QWORD PTR pReceivePin$[rsp]
	mov	edx, 1
	call	QWORD PTR [rax+160]
$LN2@CompleteCo@3:
; Line 966
	add	rsp, 48					; 00000030H
	pop	rdi
	ret	0
?CompleteConnect@CTransInPlaceOutputPin@@UEAAJPEAUIPin@@@Z ENDP ; CTransInPlaceOutputPin::CompleteConnect
; Function compile flags: /Odtp /RTCsu
_TEXT	ENDS
;	COMDAT ?Release@CBasePin@@W7EAAKXZ
_TEXT	SEGMENT
?Release@CBasePin@@W7EAAKXZ PROC			; [thunk]:CBasePin::Release`adjustor{8}', COMDAT
	sub	rcx, 8
	jmp	?Release@CBasePin@@UEAAKXZ		; CBasePin::Release
?Release@CBasePin@@W7EAAKXZ ENDP			; [thunk]:CBasePin::Release`adjustor{8}'
; Function compile flags: /Odtp /RTCsu
_TEXT	ENDS
;	COMDAT ?QueryInterface@CBaseInputPin@@WMI@EAAJAEBU_GUID@@PEAPEAX@Z
_TEXT	SEGMENT
?QueryInterface@CBaseInputPin@@WMI@EAAJAEBU_GUID@@PEAPEAX@Z PROC ; [thunk]:CBaseInputPin::QueryInterface`adjustor{200}', COMDAT
	sub	rcx, 200				; 000000c8H
	jmp	?QueryInterface@CBaseInputPin@@UEAAJAEBU_GUID@@PEAPEAX@Z ; CBaseInputPin::QueryInterface
?QueryInterface@CBaseInputPin@@WMI@EAAJAEBU_GUID@@PEAPEAX@Z ENDP ; [thunk]:CBaseInputPin::QueryInterface`adjustor{200}'
; Function compile flags: /Odtp /RTCsu
_TEXT	ENDS
;	COMDAT ?AddRef@CBasePin@@W7EAAKXZ
_TEXT	SEGMENT
?AddRef@CBasePin@@W7EAAKXZ PROC				; [thunk]:CBasePin::AddRef`adjustor{8}', COMDAT
	sub	rcx, 8
	jmp	?AddRef@CBasePin@@UEAAKXZ		; CBasePin::AddRef
?AddRef@CBasePin@@W7EAAKXZ ENDP				; [thunk]:CBasePin::AddRef`adjustor{8}'
; Function compile flags: /Odtp /RTCsu
_TEXT	ENDS
;	COMDAT ?Release@CBaseInputPin@@W7EAAKXZ
_TEXT	SEGMENT
?Release@CBaseInputPin@@W7EAAKXZ PROC			; [thunk]:CBaseInputPin::Release`adjustor{8}', COMDAT
	sub	rcx, 8
	jmp	?Release@CBaseInputPin@@UEAAKXZ		; CBaseInputPin::Release
?Release@CBaseInputPin@@W7EAAKXZ ENDP			; [thunk]:CBaseInputPin::Release`adjustor{8}'
; Function compile flags: /Odtp /RTCsu
_TEXT	ENDS
;	COMDAT ?QueryInterface@CBasePin@@W7EAAJAEBU_GUID@@PEAPEAX@Z
_TEXT	SEGMENT
?QueryInterface@CBasePin@@W7EAAJAEBU_GUID@@PEAPEAX@Z PROC ; [thunk]:CBasePin::QueryInterface`adjustor{8}', COMDAT
	sub	rcx, 8
	jmp	?QueryInterface@CBasePin@@UEAAJAEBU_GUID@@PEAPEAX@Z ; CBasePin::QueryInterface
?QueryInterface@CBasePin@@W7EAAJAEBU_GUID@@PEAPEAX@Z ENDP ; [thunk]:CBasePin::QueryInterface`adjustor{8}'
; Function compile flags: /Odtp /RTCsu
_TEXT	ENDS
;	COMDAT ?Release@CBaseInputPin@@WMI@EAAKXZ
_TEXT	SEGMENT
?Release@CBaseInputPin@@WMI@EAAKXZ PROC			; [thunk]:CBaseInputPin::Release`adjustor{200}', COMDAT
	sub	rcx, 200				; 000000c8H
	jmp	?Release@CBaseInputPin@@UEAAKXZ		; CBaseInputPin::Release
?Release@CBaseInputPin@@WMI@EAAKXZ ENDP			; [thunk]:CBaseInputPin::Release`adjustor{200}'
; Function compile flags: /Odtp /RTCsu
_TEXT	ENDS
;	COMDAT ?AddRef@CBaseInputPin@@W7EAAKXZ
_TEXT	SEGMENT
?AddRef@CBaseInputPin@@W7EAAKXZ PROC			; [thunk]:CBaseInputPin::AddRef`adjustor{8}', COMDAT
	sub	rcx, 8
	jmp	?AddRef@CBaseInputPin@@UEAAKXZ		; CBaseInputPin::AddRef
?AddRef@CBaseInputPin@@W7EAAKXZ ENDP			; [thunk]:CBaseInputPin::AddRef`adjustor{8}'
; Function compile flags: /Odtp /RTCsu
_TEXT	ENDS
;	COMDAT ?AddRef@CBaseInputPin@@WMI@EAAKXZ
_TEXT	SEGMENT
?AddRef@CBaseInputPin@@WMI@EAAKXZ PROC			; [thunk]:CBaseInputPin::AddRef`adjustor{200}', COMDAT
	sub	rcx, 200				; 000000c8H
	jmp	?AddRef@CBaseInputPin@@UEAAKXZ		; CBaseInputPin::AddRef
?AddRef@CBaseInputPin@@WMI@EAAKXZ ENDP			; [thunk]:CBaseInputPin::AddRef`adjustor{200}'
; Function compile flags: /Odtp /RTCsu
_TEXT	ENDS
;	COMDAT ?QueryInterface@CBaseInputPin@@W7EAAJAEBU_GUID@@PEAPEAX@Z
_TEXT	SEGMENT
?QueryInterface@CBaseInputPin@@W7EAAJAEBU_GUID@@PEAPEAX@Z PROC ; [thunk]:CBaseInputPin::QueryInterface`adjustor{8}', COMDAT
	sub	rcx, 8
	jmp	?QueryInterface@CBaseInputPin@@UEAAJAEBU_GUID@@PEAPEAX@Z ; CBaseInputPin::QueryInterface
?QueryInterface@CBaseInputPin@@W7EAAJAEBU_GUID@@PEAPEAX@Z ENDP ; [thunk]:CBaseInputPin::QueryInterface`adjustor{8}'
_TEXT	ENDS
END
