; Listing generated by Microsoft (R) Optimizing Compiler Version 16.00.30319.01 

	TITLE	C:\Downloads\MediaPoint\src\filters\BaseClasses\vtrans.cpp
	.686P
	.XMM
	include listing.inc
	.model	flat

INCLUDELIB LIBCMTD
INCLUDELIB OLDNAMES

PUBLIC	_IID_IAMFilterGraphCallback
CONST	SEGMENT
$SG81584 DB	'.', 00H, '.', 00H, '\', 00H, 'v', 00H, 't', 00H, 'r', 00H
	DB	'a', 00H, 'n', 00H, 's', 00H, '.', 00H, 'c', 00H, 'p', 00H, 'p'
	DB	00H, 00H, 00H
$SG81585 DB	'C', 00H, 'r', 00H, 'i', 00H, 't', 00H, 'C', 00H, 'h', 00H
	DB	'e', 00H, 'c', 00H, 'k', 00H, 'I', 00H, 'n', 00H, '(', 00H, '&'
	DB	00H, 'm', 00H, '_', 00H, 'c', 00H, 's', 00H, 'R', 00H, 'e', 00H
	DB	'c', 00H, 'e', 00H, 'i', 00H, 'v', 00H, 'e', 00H, ')', 00H, 00H
	DB	00H
$SG81591 DB	'.', 00H, '.', 00H, '\', 00H, 'v', 00H, 't', 00H, 'r', 00H
	DB	'a', 00H, 'n', 00H, 's', 00H, '.', 00H, 'c', 00H, 'p', 00H, 'p'
	DB	00H, 00H, 00H
$SG81592 DB	'p', 00H, 'S', 00H, 'a', 00H, 'm', 00H, 'p', 00H, 'l', 00H
	DB	'e', 00H, 00H, 00H
$SG81595 DB	'.', 00H, '.', 00H, '\', 00H, 'v', 00H, 't', 00H, 'r', 00H
	DB	'a', 00H, 'n', 00H, 's', 00H, '.', 00H, 'c', 00H, 'p', 00H, 'p'
	DB	00H, 00H, 00H
$SG81596 DB	'm', 00H, '_', 00H, 'p', 00H, 'O', 00H, 'u', 00H, 't', 00H
	DB	'p', 00H, 'u', 00H, 't', 00H, ' ', 00H, '!', 00H, '=', 00H, ' '
	DB	00H, 'N', 00H, 'U', 00H, 'L', 00H, 'L', 00H, 00H, 00H
$SG81599 DB	'.', 00H, '.', 00H, '\', 00H, 'v', 00H, 't', 00H, 'r', 00H
	DB	'a', 00H, 'n', 00H, 's', 00H, '.', 00H, 'c', 00H, 'p', 00H, 'p'
	DB	00H, 00H, 00H
$SG81600 DB	'!', 00H, 'I', 00H, 's', 00H, 'E', 00H, 'q', 00H, 'u', 00H
	DB	'a', 00H, 'l', 00H, 'G', 00H, 'U', 00H, 'I', 00H, 'D', 00H, '('
	DB	00H, 'p', 00H, 'm', 00H, 't', 00H, '-', 00H, '>', 00H, 'm', 00H
	DB	'a', 00H, 'j', 00H, 'o', 00H, 'r', 00H, 't', 00H, 'y', 00H, 'p'
	DB	00H, 'e', 00H, ',', 00H, ' ', 00H, 'G', 00H, 'U', 00H, 'I', 00H
	DB	'D', 00H, '_', 00H, 'N', 00H, 'U', 00H, 'L', 00H, 'L', 00H, ')'
	DB	00H, 00H, 00H
$SG81607 DB	'*', 00H, 'C', 00H, 'h', 00H, 'a', 00H, 'n', 00H, 'g', 00H
	DB	'i', 00H, 'n', 00H, 'g', 00H, ' ', 00H, 'i', 00H, 'n', 00H, 'p'
	DB	00H, 'u', 00H, 't', 00H, ' ', 00H, 't', 00H, 'y', 00H, 'p', 00H
	DB	'e', 00H, ' ', 00H, 'o', 00H, 'n', 00H, ' ', 00H, 't', 00H, 'h'
	DB	00H, 'e', 00H, ' ', 00H, 'f', 00H, 'l', 00H, 'y', 00H, ' ', 00H
	DB	't', 00H, 'o', 00H, 00H, 00H
	ORG $+2
$SG81608 DB	'F', 00H, 'o', 00H, 'u', 00H, 'r', 00H, 'C', 00H, 'C', 00H
	DB	':', 00H, ' ', 00H, '%', 00H, 'l', 00H, 'x', 00H, ' ', 00H, 'C'
	DB	00H, 'o', 00H, 'm', 00H, 'p', 00H, 'r', 00H, 'e', 00H, 's', 00H
	DB	's', 00H, 'i', 00H, 'o', 00H, 'n', 00H, ':', 00H, ' ', 00H, '%'
	DB	00H, 'l', 00H, 'x', 00H, ' ', 00H, 'B', 00H, 'i', 00H, 't', 00H
	DB	'C', 00H, 'o', 00H, 'u', 00H, 'n', 00H, 't', 00H, ':', 00H, ' '
	DB	00H, '%', 00H, 'l', 00H, 'd', 00H, 00H, 00H
	ORG $+2
$SG81614 DB	'b', 00H, 'i', 00H, 'H', 00H, 'e', 00H, 'i', 00H, 'g', 00H
	DB	'h', 00H, 't', 00H, ':', 00H, ' ', 00H, '%', 00H, 'l', 00H, 'd'
	DB	00H, ' ', 00H, 'r', 00H, 'c', 00H, 'D', 00H, 's', 00H, 't', 00H
	DB	':', 00H, ' ', 00H, '(', 00H, '%', 00H, 'l', 00H, 'd', 00H, ','
	DB	00H, ' ', 00H, '%', 00H, 'l', 00H, 'd', 00H, ',', 00H, ' ', 00H
	DB	'%', 00H, 'l', 00H, 'd', 00H, ',', 00H, ' ', 00H, '%', 00H, 'l'
	DB	00H, 'd', 00H, ')', 00H, 00H, 00H
	ORG $+4
$SG81619 DB	'r', 00H, 'c', 00H, 'S', 00H, 'r', 00H, 'c', 00H, ':', 00H
	DB	' ', 00H, '(', 00H, '%', 00H, 'l', 00H, 'd', 00H, ',', 00H, ' '
	DB	00H, '%', 00H, 'l', 00H, 'd', 00H, ',', 00H, ' ', 00H, '%', 00H
	DB	'l', 00H, 'd', 00H, ',', 00H, ' ', 00H, '%', 00H, 'l', 00H, 'd'
	DB	00H, ')', 00H, ' ', 00H, 'S', 00H, 't', 00H, 'r', 00H, 'i', 00H
	DB	'd', 00H, 'e', 00H, ':', 00H, ' ', 00H, '%', 00H, 'l', 00H, 'd'
	DB	00H, 00H, 00H
$SG81628 DB	'.', 00H, '.', 00H, '\', 00H, 'v', 00H, 't', 00H, 'r', 00H
	DB	'a', 00H, 'n', 00H, 's', 00H, '.', 00H, 'c', 00H, 'p', 00H, 'p'
	DB	00H, 00H, 00H
	ORG $+4
$SG81629 DB	'!', 00H, 'I', 00H, 's', 00H, 'E', 00H, 'q', 00H, 'u', 00H
	DB	'a', 00H, 'l', 00H, 'G', 00H, 'U', 00H, 'I', 00H, 'D', 00H, '('
	DB	00H, 'p', 00H, 'm', 00H, 't', 00H, 'O', 00H, 'u', 00H, 't', 00H
	DB	'-', 00H, '>', 00H, 'm', 00H, 'a', 00H, 'j', 00H, 'o', 00H, 'r'
	DB	00H, 't', 00H, 'y', 00H, 'p', 00H, 'e', 00H, ',', 00H, ' ', 00H
	DB	'G', 00H, 'U', 00H, 'I', 00H, 'D', 00H, '_', 00H, 'N', 00H, 'U'
	DB	00H, 'L', 00H, 'L', 00H, ')', 00H, 00H, 00H
	ORG $+2
$SG81636 DB	'*', 00H, 'C', 00H, 'h', 00H, 'a', 00H, 'n', 00H, 'g', 00H
	DB	'i', 00H, 'n', 00H, 'g', 00H, ' ', 00H, 'o', 00H, 'u', 00H, 't'
	DB	00H, 'p', 00H, 'u', 00H, 't', 00H, ' ', 00H, 't', 00H, 'y', 00H
	DB	'p', 00H, 'e', 00H, ' ', 00H, 'o', 00H, 'n', 00H, ' ', 00H, 't'
	DB	00H, 'h', 00H, 'e', 00H, ' ', 00H, 'f', 00H, 'l', 00H, 'y', 00H
	DB	' ', 00H, 't', 00H, 'o', 00H, 00H, 00H
$SG81637 DB	'F', 00H, 'o', 00H, 'u', 00H, 'r', 00H, 'C', 00H, 'C', 00H
	DB	':', 00H, ' ', 00H, '%', 00H, 'l', 00H, 'x', 00H, ' ', 00H, 'C'
	DB	00H, 'o', 00H, 'm', 00H, 'p', 00H, 'r', 00H, 'e', 00H, 's', 00H
	DB	's', 00H, 'i', 00H, 'o', 00H, 'n', 00H, ':', 00H, ' ', 00H, '%'
	DB	00H, 'l', 00H, 'x', 00H, ' ', 00H, 'B', 00H, 'i', 00H, 't', 00H
	DB	'C', 00H, 'o', 00H, 'u', 00H, 'n', 00H, 't', 00H, ':', 00H, ' '
	DB	00H, '%', 00H, 'l', 00H, 'd', 00H, 00H, 00H
	ORG $+2
$SG81643 DB	'b', 00H, 'i', 00H, 'H', 00H, 'e', 00H, 'i', 00H, 'g', 00H
	DB	'h', 00H, 't', 00H, ':', 00H, ' ', 00H, '%', 00H, 'l', 00H, 'd'
	DB	00H, ' ', 00H, 'r', 00H, 'c', 00H, 'D', 00H, 's', 00H, 't', 00H
	DB	':', 00H, ' ', 00H, '(', 00H, '%', 00H, 'l', 00H, 'd', 00H, ','
	DB	00H, ' ', 00H, '%', 00H, 'l', 00H, 'd', 00H, ',', 00H, ' ', 00H
	DB	'%', 00H, 'l', 00H, 'd', 00H, ',', 00H, ' ', 00H, '%', 00H, 'l'
	DB	00H, 'd', 00H, ')', 00H, 00H, 00H
	ORG $+4
$SG81648 DB	'r', 00H, 'c', 00H, 'S', 00H, 'r', 00H, 'c', 00H, ':', 00H
	DB	' ', 00H, '(', 00H, '%', 00H, 'l', 00H, 'd', 00H, ',', 00H, ' '
	DB	00H, '%', 00H, 'l', 00H, 'd', 00H, ',', 00H, ' ', 00H, '%', 00H
	DB	'l', 00H, 'd', 00H, ',', 00H, ' ', 00H, '%', 00H, 'l', 00H, 'd'
	DB	00H, ')', 00H, ' ', 00H, 'S', 00H, 't', 00H, 'r', 00H, 'i', 00H
	DB	'd', 00H, 'e', 00H, ':', 00H, ' ', 00H, '%', 00H, 'l', 00H, 'd'
	DB	00H, 00H, 00H
$SG81651 DB	'O', 00H, 'u', 00H, 't', 00H, 'p', 00H, 'u', 00H, 't', 00H
	DB	' ', 00H, 'f', 00H, 'o', 00H, 'r', 00H, 'm', 00H, 'a', 00H, 't'
	DB	00H, ' ', 00H, 'c', 00H, 'h', 00H, 'a', 00H, 'n', 00H, 'g', 00H
	DB	'e', 00H, ' ', 00H, 'm', 00H, 'e', 00H, 'a', 00H, 'n', 00H, 's'
	DB	00H, ' ', 00H, 'w', 00H, 'e', 00H, ' ', 00H, 'm', 00H, 'u', 00H
	DB	's', 00H, 't', 00H, ' ', 00H, 'w', 00H, 'a', 00H, 'i', 00H, 't'
	DB	00H, ' ', 00H, 'f', 00H, 'o', 00H, 'r', 00H, ' ', 00H, 'a', 00H
	DB	' ', 00H, 'k', 00H, 'e', 00H, 'y', 00H, 'f', 00H, 'r', 00H, 'a'
	DB	00H, 'm', 00H, 'e', 00H, 00H, 00H
	ORG $+2
$SG81655 DB	'N', 00H, 'o', 00H, 'n', 00H, '-', 00H, 'k', 00H, 'e', 00H
	DB	'y', 00H, ' ', 00H, 'd', 00H, 'i', 00H, 's', 00H, 'c', 00H, 'o'
	DB	00H, 'n', 00H, 't', 00H, 'i', 00H, 'n', 00H, 'u', 00H, 'i', 00H
	DB	't', 00H, 'y', 00H, ' ', 00H, '-', 00H, ' ', 00H, 'w', 00H, 'a'
	DB	00H, 'i', 00H, 't', 00H, ' ', 00H, 'f', 00H, 'o', 00H, 'r', 00H
	DB	' ', 00H, 'k', 00H, 'e', 00H, 'y', 00H, 'f', 00H, 'r', 00H, 'a'
	DB	00H, 'm', 00H, 'e', 00H, 00H, 00H
$SG81664 DB	's', 00H, 't', 00H, 'i', 00H, 'l', 00H, 'l', 00H, ' ', 00H
	DB	'w', 00H, 'a', 00H, 'i', 00H, 't', 00H, 'i', 00H, 'n', 00H, 'g'
	DB	00H, ' ', 00H, 'f', 00H, 'o', 00H, 'r', 00H, ' ', 00H, 'a', 00H
	DB	' ', 00H, 'k', 00H, 'e', 00H, 'y', 00H, 'f', 00H, 'r', 00H, 'a'
	DB	00H, 'm', 00H, 'e', 00H, 00H, 00H
	ORG $+2
$SG81668 DB	'E', 00H, 'r', 00H, 'r', 00H, 'o', 00H, 'r', 00H, ' ', 00H
	DB	'f', 00H, 'r', 00H, 'o', 00H, 'm', 00H, ' ', 00H, 'v', 00H, 'i'
	DB	00H, 'd', 00H, 'e', 00H, 'o', 00H, ' ', 00H, 't', 00H, 'r', 00H
	DB	'a', 00H, 'n', 00H, 's', 00H, 'f', 00H, 'o', 00H, 'r', 00H, 'm'
	DB	00H, 00H, 00H
	ORG $+2
$SG81676 DB	'.', 00H, '.', 00H, '\', 00H, 'v', 00H, 't', 00H, 'r', 00H
	DB	'a', 00H, 'n', 00H, 's', 00H, '.', 00H, 'c', 00H, 'p', 00H, 'p'
	DB	00H, 00H, 00H
$SG81677 DB	'C', 00H, 'r', 00H, 'i', 00H, 't', 00H, 'C', 00H, 'h', 00H
	DB	'e', 00H, 'c', 00H, 'k', 00H, 'I', 00H, 'n', 00H, '(', 00H, '&'
	DB	00H, 'm', 00H, '_', 00H, 'c', 00H, 's', 00H, 'R', 00H, 'e', 00H
	DB	'c', 00H, 'e', 00H, 'i', 00H, 'v', 00H, 'e', 00H, ')', 00H, 00H
	DB	00H
CONST	ENDS
;	COMDAT _IID_IAMFilterGraphCallback
CONST	SEGMENT
_IID_IAMFilterGraphCallback DD 056a868fdH
	DW	0ad4H
	DW	011ceH
	DB	0b0H
	DB	0a3H
	DB	00H
	DB	020H
	DB	0afH
	DB	0bH
	DB	0a7H
	DB	070H
CONST	ENDS
PUBLIC	??_7CVideoTransformFilter@@6BIAMovieSetup@@@	; CVideoTransformFilter::`vftable'
PUBLIC	??_7CVideoTransformFilter@@6BIBaseFilter@@@	; CVideoTransformFilter::`vftable'
PUBLIC	??_7CVideoTransformFilter@@6BCUnknown@@@	; CVideoTransformFilter::`vftable'
PUBLIC	??0CVideoTransformFilter@@QAE@PA_WPAUIUnknown@@ABU_GUID@@@Z ; CVideoTransformFilter::CVideoTransformFilter
PUBLIC	??_R4CVideoTransformFilter@@6BCUnknown@@@	; CVideoTransformFilter::`RTTI Complete Object Locator'
PUBLIC	??_R0?AVCVideoTransformFilter@@@8		; CVideoTransformFilter `RTTI Type Descriptor'
PUBLIC	??_R3CVideoTransformFilter@@8			; CVideoTransformFilter::`RTTI Class Hierarchy Descriptor'
PUBLIC	??_R2CVideoTransformFilter@@8			; CVideoTransformFilter::`RTTI Base Class Array'
PUBLIC	??_R1A@?0A@EA@CVideoTransformFilter@@8		; CVideoTransformFilter::`RTTI Base Class Descriptor at (0,-1,0,64)'
PUBLIC	??_R1A@?0A@EA@CTransformFilter@@8		; CTransformFilter::`RTTI Base Class Descriptor at (0,-1,0,64)'
PUBLIC	??_R0?AVCTransformFilter@@@8			; CTransformFilter `RTTI Type Descriptor'
PUBLIC	??_R3CTransformFilter@@8			; CTransformFilter::`RTTI Class Hierarchy Descriptor'
PUBLIC	??_R2CTransformFilter@@8			; CTransformFilter::`RTTI Base Class Array'
PUBLIC	??_R1A@?0A@EA@CBaseFilter@@8			; CBaseFilter::`RTTI Base Class Descriptor at (0,-1,0,64)'
PUBLIC	??_R0?AVCBaseFilter@@@8				; CBaseFilter `RTTI Type Descriptor'
PUBLIC	??_R3CBaseFilter@@8				; CBaseFilter::`RTTI Class Hierarchy Descriptor'
PUBLIC	??_R2CBaseFilter@@8				; CBaseFilter::`RTTI Base Class Array'
PUBLIC	??_R1A@?0A@EA@CUnknown@@8			; CUnknown::`RTTI Base Class Descriptor at (0,-1,0,64)'
PUBLIC	??_R0?AVCUnknown@@@8				; CUnknown `RTTI Type Descriptor'
PUBLIC	??_R3CUnknown@@8				; CUnknown::`RTTI Class Hierarchy Descriptor'
PUBLIC	??_R2CUnknown@@8				; CUnknown::`RTTI Base Class Array'
PUBLIC	??_R1A@?0A@EA@INonDelegatingUnknown@@8		; INonDelegatingUnknown::`RTTI Base Class Descriptor at (0,-1,0,64)'
PUBLIC	??_R0?AUINonDelegatingUnknown@@@8		; INonDelegatingUnknown `RTTI Type Descriptor'
PUBLIC	??_R3INonDelegatingUnknown@@8			; INonDelegatingUnknown::`RTTI Class Hierarchy Descriptor'
PUBLIC	??_R2INonDelegatingUnknown@@8			; INonDelegatingUnknown::`RTTI Base Class Array'
PUBLIC	??_R13?0A@EA@CBaseObject@@8			; CBaseObject::`RTTI Base Class Descriptor at (4,-1,0,64)'
PUBLIC	??_R0?AVCBaseObject@@@8				; CBaseObject `RTTI Type Descriptor'
PUBLIC	??_R3CBaseObject@@8				; CBaseObject::`RTTI Class Hierarchy Descriptor'
PUBLIC	??_R2CBaseObject@@8				; CBaseObject::`RTTI Base Class Array'
PUBLIC	??_R1A@?0A@EA@CBaseObject@@8			; CBaseObject::`RTTI Base Class Descriptor at (0,-1,0,64)'
PUBLIC	??_R1BA@?0A@EA@IBaseFilter@@8			; IBaseFilter::`RTTI Base Class Descriptor at (16,-1,0,64)'
PUBLIC	??_R0?AUIBaseFilter@@@8				; IBaseFilter `RTTI Type Descriptor'
PUBLIC	??_R3IBaseFilter@@8				; IBaseFilter::`RTTI Class Hierarchy Descriptor'
PUBLIC	??_R2IBaseFilter@@8				; IBaseFilter::`RTTI Base Class Array'
PUBLIC	??_R1A@?0A@EA@IBaseFilter@@8			; IBaseFilter::`RTTI Base Class Descriptor at (0,-1,0,64)'
PUBLIC	??_R1A@?0A@EA@IMediaFilter@@8			; IMediaFilter::`RTTI Base Class Descriptor at (0,-1,0,64)'
PUBLIC	??_R0?AUIMediaFilter@@@8			; IMediaFilter `RTTI Type Descriptor'
PUBLIC	??_R3IMediaFilter@@8				; IMediaFilter::`RTTI Class Hierarchy Descriptor'
PUBLIC	??_R2IMediaFilter@@8				; IMediaFilter::`RTTI Base Class Array'
PUBLIC	??_R1A@?0A@EA@IPersist@@8			; IPersist::`RTTI Base Class Descriptor at (0,-1,0,64)'
PUBLIC	??_R0?AUIPersist@@@8				; IPersist `RTTI Type Descriptor'
PUBLIC	??_R3IPersist@@8				; IPersist::`RTTI Class Hierarchy Descriptor'
PUBLIC	??_R2IPersist@@8				; IPersist::`RTTI Base Class Array'
PUBLIC	??_R1A@?0A@EA@IUnknown@@8			; IUnknown::`RTTI Base Class Descriptor at (0,-1,0,64)'
PUBLIC	??_R0?AUIUnknown@@@8				; IUnknown `RTTI Type Descriptor'
PUBLIC	??_R3IUnknown@@8				; IUnknown::`RTTI Class Hierarchy Descriptor'
PUBLIC	??_R2IUnknown@@8				; IUnknown::`RTTI Base Class Array'
PUBLIC	??_R1BA@?0A@EA@IMediaFilter@@8			; IMediaFilter::`RTTI Base Class Descriptor at (16,-1,0,64)'
PUBLIC	??_R1BA@?0A@EA@IPersist@@8			; IPersist::`RTTI Base Class Descriptor at (16,-1,0,64)'
PUBLIC	??_R1BA@?0A@EC@IUnknown@@8			; IUnknown::`RTTI Base Class Descriptor at (16,-1,0,66)'
PUBLIC	??_R1BE@?0A@EA@IAMovieSetup@@8			; IAMovieSetup::`RTTI Base Class Descriptor at (20,-1,0,64)'
PUBLIC	??_R0?AUIAMovieSetup@@@8			; IAMovieSetup `RTTI Type Descriptor'
PUBLIC	??_R3IAMovieSetup@@8				; IAMovieSetup::`RTTI Class Hierarchy Descriptor'
PUBLIC	??_R2IAMovieSetup@@8				; IAMovieSetup::`RTTI Base Class Array'
PUBLIC	??_R1A@?0A@EA@IAMovieSetup@@8			; IAMovieSetup::`RTTI Base Class Descriptor at (0,-1,0,64)'
PUBLIC	??_R1BE@?0A@EC@IUnknown@@8			; IUnknown::`RTTI Base Class Descriptor at (20,-1,0,66)'
PUBLIC	?GetSetupData@CBaseFilter@@UAEPAU_AMOVIESETUP_FILTER@@XZ ; CBaseFilter::GetSetupData
PUBLIC	?StartStreaming@CVideoTransformFilter@@MAEJXZ	; CVideoTransformFilter::StartStreaming
PUBLIC	?AlterQuality@CVideoTransformFilter@@MAEJUtagQuality@@@Z ; CVideoTransformFilter::AlterQuality
PUBLIC	?Receive@CVideoTransformFilter@@MAEJPAUIMediaSample@@@Z ; CVideoTransformFilter::Receive
PUBLIC	?EndFlush@CVideoTransformFilter@@UAEJXZ		; CVideoTransformFilter::EndFlush
PUBLIC	??_R4CVideoTransformFilter@@6BIBaseFilter@@@	; CVideoTransformFilter::`RTTI Complete Object Locator'
PUBLIC	?QueryInterface@CBaseFilter@@UAGJABU_GUID@@PAPAX@Z ; CBaseFilter::QueryInterface
PUBLIC	?AddRef@CBaseFilter@@UAGKXZ			; CBaseFilter::AddRef
PUBLIC	?Release@CBaseFilter@@UAGKXZ			; CBaseFilter::Release
PUBLIC	??_R4CVideoTransformFilter@@6BIAMovieSetup@@@	; CVideoTransformFilter::`RTTI Complete Object Locator'
PUBLIC	?QueryInterface@CBaseFilter@@W3AGJABU_GUID@@PAPAX@Z ; [thunk]:CBaseFilter::QueryInterface`adjustor{4}'
PUBLIC	?AddRef@CBaseFilter@@W3AGKXZ			; [thunk]:CBaseFilter::AddRef`adjustor{4}'
PUBLIC	?Release@CBaseFilter@@W3AGKXZ			; [thunk]:CBaseFilter::Release`adjustor{4}'
EXTRN	??0CTransformFilter@@QAE@PA_WPAUIUnknown@@ABU_GUID@@@Z:PROC ; CTransformFilter::CTransformFilter
EXTRN	__RTC_CheckEsp:PROC
EXTRN	__RTC_Shutdown:PROC
EXTRN	__RTC_InitBase:PROC
EXTRN	??_7type_info@@6B@:QWORD			; type_info::`vftable'
EXTRN	?NonDelegatingQueryInterface@CBaseFilter@@UAGJABU_GUID@@PAPAX@Z:PROC ; CBaseFilter::NonDelegatingQueryInterface
EXTRN	?NonDelegatingAddRef@CUnknown@@UAGKXZ:PROC	; CUnknown::NonDelegatingAddRef
EXTRN	?NonDelegatingRelease@CBaseFilter@@UAGKXZ:PROC	; CBaseFilter::NonDelegatingRelease
EXTRN	??_ECVideoTransformFilter@@UAEPAXI@Z:PROC	; CVideoTransformFilter::`vector deleting destructor'
EXTRN	?StreamTime@CBaseFilter@@UAEJAAVCRefTime@@@Z:PROC ; CBaseFilter::StreamTime
EXTRN	?GetPinVersion@CBaseFilter@@UAEJXZ:PROC		; CBaseFilter::GetPinVersion
EXTRN	?GetPinCount@CTransformFilter@@UAEHXZ:PROC	; CTransformFilter::GetPinCount
EXTRN	?GetPin@CTransformFilter@@UAEPAVCBasePin@@H@Z:PROC ; CTransformFilter::GetPin
EXTRN	?Transform@CTransformFilter@@UAEJPAUIMediaSample@@0@Z:PROC ; CTransformFilter::Transform
EXTRN	__purecall:PROC
EXTRN	?StopStreaming@CTransformFilter@@UAEJXZ:PROC	; CTransformFilter::StopStreaming
EXTRN	?SetMediaType@CTransformFilter@@UAEJW4_PinDirection@@PBVCMediaType@@@Z:PROC ; CTransformFilter::SetMediaType
EXTRN	?CheckConnect@CTransformFilter@@UAEJW4_PinDirection@@PAUIPin@@@Z:PROC ; CTransformFilter::CheckConnect
EXTRN	?BreakConnect@CTransformFilter@@UAEJW4_PinDirection@@@Z:PROC ; CTransformFilter::BreakConnect
EXTRN	?CompleteConnect@CTransformFilter@@UAEJW4_PinDirection@@PAUIPin@@@Z:PROC ; CTransformFilter::CompleteConnect
EXTRN	?EndOfStream@CTransformFilter@@UAEJXZ:PROC	; CTransformFilter::EndOfStream
EXTRN	?BeginFlush@CTransformFilter@@UAEJXZ:PROC	; CTransformFilter::BeginFlush
EXTRN	?NewSegment@CTransformFilter@@UAEJ_J0N@Z:PROC	; CTransformFilter::NewSegment
EXTRN	?GetClassID@CBaseFilter@@UAGJPAU_GUID@@@Z:PROC	; CBaseFilter::GetClassID
EXTRN	?Stop@CTransformFilter@@UAGJXZ:PROC		; CTransformFilter::Stop
EXTRN	?Pause@CTransformFilter@@UAGJXZ:PROC		; CTransformFilter::Pause
EXTRN	?Run@CBaseFilter@@UAGJ_J@Z:PROC			; CBaseFilter::Run
EXTRN	?GetState@CBaseFilter@@UAGJKPAW4_FilterState@@@Z:PROC ; CBaseFilter::GetState
EXTRN	?SetSyncSource@CBaseFilter@@UAGJPAUIReferenceClock@@@Z:PROC ; CBaseFilter::SetSyncSource
EXTRN	?GetSyncSource@CBaseFilter@@UAGJPAPAUIReferenceClock@@@Z:PROC ; CBaseFilter::GetSyncSource
EXTRN	?EnumPins@CBaseFilter@@UAGJPAPAUIEnumPins@@@Z:PROC ; CBaseFilter::EnumPins
EXTRN	?FindPin@CTransformFilter@@UAGJPB_WPAPAUIPin@@@Z:PROC ; CTransformFilter::FindPin
EXTRN	?QueryFilterInfo@CBaseFilter@@UAGJPAU_FilterInfo@@@Z:PROC ; CBaseFilter::QueryFilterInfo
EXTRN	?JoinFilterGraph@CBaseFilter@@UAGJPAUIFilterGraph@@PB_W@Z:PROC ; CBaseFilter::JoinFilterGraph
EXTRN	?QueryVendorInfo@CBaseFilter@@UAGJPAPA_W@Z:PROC	; CBaseFilter::QueryVendorInfo
EXTRN	?Register@CBaseFilter@@UAGJXZ:PROC		; CBaseFilter::Register
EXTRN	?Unregister@CBaseFilter@@UAGJXZ:PROC		; CBaseFilter::Unregister
;	COMDAT ??_R4CVideoTransformFilter@@6BIAMovieSetup@@@
; File c:\downloads\mediapoint\src\filters\baseclasses\vtrans.cpp
rdata$r	SEGMENT
??_R4CVideoTransformFilter@@6BIAMovieSetup@@@ DD 00H	; CVideoTransformFilter::`RTTI Complete Object Locator'
	DD	014H
	DD	00H
	DD	FLAT:??_R0?AVCVideoTransformFilter@@@8
	DD	FLAT:??_R3CVideoTransformFilter@@8
rdata$r	ENDS
;	COMDAT ??_R4CVideoTransformFilter@@6BIBaseFilter@@@
rdata$r	SEGMENT
??_R4CVideoTransformFilter@@6BIBaseFilter@@@ DD 00H	; CVideoTransformFilter::`RTTI Complete Object Locator'
	DD	010H
	DD	00H
	DD	FLAT:??_R0?AVCVideoTransformFilter@@@8
	DD	FLAT:??_R3CVideoTransformFilter@@8
rdata$r	ENDS
;	COMDAT ??_R1BE@?0A@EC@IUnknown@@8
rdata$r	SEGMENT
??_R1BE@?0A@EC@IUnknown@@8 DD FLAT:??_R0?AUIUnknown@@@8	; IUnknown::`RTTI Base Class Descriptor at (20,-1,0,66)'
	DD	00H
	DD	014H
	DD	0ffffffffH
	DD	00H
	DD	042H
	DD	FLAT:??_R3IUnknown@@8
rdata$r	ENDS
;	COMDAT ??_R1A@?0A@EA@IAMovieSetup@@8
rdata$r	SEGMENT
??_R1A@?0A@EA@IAMovieSetup@@8 DD FLAT:??_R0?AUIAMovieSetup@@@8 ; IAMovieSetup::`RTTI Base Class Descriptor at (0,-1,0,64)'
	DD	01H
	DD	00H
	DD	0ffffffffH
	DD	00H
	DD	040H
	DD	FLAT:??_R3IAMovieSetup@@8
rdata$r	ENDS
;	COMDAT ??_R2IAMovieSetup@@8
rdata$r	SEGMENT
??_R2IAMovieSetup@@8 DD FLAT:??_R1A@?0A@EA@IAMovieSetup@@8 ; IAMovieSetup::`RTTI Base Class Array'
	DD	FLAT:??_R1A@?0A@EA@IUnknown@@8
rdata$r	ENDS
;	COMDAT ??_R3IAMovieSetup@@8
rdata$r	SEGMENT
??_R3IAMovieSetup@@8 DD 00H				; IAMovieSetup::`RTTI Class Hierarchy Descriptor'
	DD	00H
	DD	02H
	DD	FLAT:??_R2IAMovieSetup@@8
rdata$r	ENDS
;	COMDAT ??_R0?AUIAMovieSetup@@@8
_DATA	SEGMENT
??_R0?AUIAMovieSetup@@@8 DD FLAT:??_7type_info@@6B@	; IAMovieSetup `RTTI Type Descriptor'
	DD	00H
	DB	'.?AUIAMovieSetup@@', 00H
_DATA	ENDS
;	COMDAT ??_R1BE@?0A@EA@IAMovieSetup@@8
rdata$r	SEGMENT
??_R1BE@?0A@EA@IAMovieSetup@@8 DD FLAT:??_R0?AUIAMovieSetup@@@8 ; IAMovieSetup::`RTTI Base Class Descriptor at (20,-1,0,64)'
	DD	01H
	DD	014H
	DD	0ffffffffH
	DD	00H
	DD	040H
	DD	FLAT:??_R3IAMovieSetup@@8
rdata$r	ENDS
;	COMDAT ??_R1BA@?0A@EC@IUnknown@@8
rdata$r	SEGMENT
??_R1BA@?0A@EC@IUnknown@@8 DD FLAT:??_R0?AUIUnknown@@@8	; IUnknown::`RTTI Base Class Descriptor at (16,-1,0,66)'
	DD	00H
	DD	010H
	DD	0ffffffffH
	DD	00H
	DD	042H
	DD	FLAT:??_R3IUnknown@@8
rdata$r	ENDS
;	COMDAT ??_R1BA@?0A@EA@IPersist@@8
rdata$r	SEGMENT
??_R1BA@?0A@EA@IPersist@@8 DD FLAT:??_R0?AUIPersist@@@8	; IPersist::`RTTI Base Class Descriptor at (16,-1,0,64)'
	DD	01H
	DD	010H
	DD	0ffffffffH
	DD	00H
	DD	040H
	DD	FLAT:??_R3IPersist@@8
rdata$r	ENDS
;	COMDAT ??_R1BA@?0A@EA@IMediaFilter@@8
rdata$r	SEGMENT
??_R1BA@?0A@EA@IMediaFilter@@8 DD FLAT:??_R0?AUIMediaFilter@@@8 ; IMediaFilter::`RTTI Base Class Descriptor at (16,-1,0,64)'
	DD	02H
	DD	010H
	DD	0ffffffffH
	DD	00H
	DD	040H
	DD	FLAT:??_R3IMediaFilter@@8
rdata$r	ENDS
;	COMDAT ??_R2IUnknown@@8
rdata$r	SEGMENT
??_R2IUnknown@@8 DD FLAT:??_R1A@?0A@EA@IUnknown@@8	; IUnknown::`RTTI Base Class Array'
rdata$r	ENDS
;	COMDAT ??_R3IUnknown@@8
rdata$r	SEGMENT
??_R3IUnknown@@8 DD 00H					; IUnknown::`RTTI Class Hierarchy Descriptor'
	DD	00H
	DD	01H
	DD	FLAT:??_R2IUnknown@@8
rdata$r	ENDS
;	COMDAT ??_R0?AUIUnknown@@@8
_DATA	SEGMENT
??_R0?AUIUnknown@@@8 DD FLAT:??_7type_info@@6B@		; IUnknown `RTTI Type Descriptor'
	DD	00H
	DB	'.?AUIUnknown@@', 00H
_DATA	ENDS
;	COMDAT ??_R1A@?0A@EA@IUnknown@@8
rdata$r	SEGMENT
??_R1A@?0A@EA@IUnknown@@8 DD FLAT:??_R0?AUIUnknown@@@8	; IUnknown::`RTTI Base Class Descriptor at (0,-1,0,64)'
	DD	00H
	DD	00H
	DD	0ffffffffH
	DD	00H
	DD	040H
	DD	FLAT:??_R3IUnknown@@8
rdata$r	ENDS
;	COMDAT ??_R2IPersist@@8
rdata$r	SEGMENT
??_R2IPersist@@8 DD FLAT:??_R1A@?0A@EA@IPersist@@8	; IPersist::`RTTI Base Class Array'
	DD	FLAT:??_R1A@?0A@EA@IUnknown@@8
rdata$r	ENDS
;	COMDAT ??_R3IPersist@@8
rdata$r	SEGMENT
??_R3IPersist@@8 DD 00H					; IPersist::`RTTI Class Hierarchy Descriptor'
	DD	00H
	DD	02H
	DD	FLAT:??_R2IPersist@@8
rdata$r	ENDS
;	COMDAT ??_R0?AUIPersist@@@8
_DATA	SEGMENT
??_R0?AUIPersist@@@8 DD FLAT:??_7type_info@@6B@		; IPersist `RTTI Type Descriptor'
	DD	00H
	DB	'.?AUIPersist@@', 00H
_DATA	ENDS
;	COMDAT ??_R1A@?0A@EA@IPersist@@8
rdata$r	SEGMENT
??_R1A@?0A@EA@IPersist@@8 DD FLAT:??_R0?AUIPersist@@@8	; IPersist::`RTTI Base Class Descriptor at (0,-1,0,64)'
	DD	01H
	DD	00H
	DD	0ffffffffH
	DD	00H
	DD	040H
	DD	FLAT:??_R3IPersist@@8
rdata$r	ENDS
;	COMDAT ??_R2IMediaFilter@@8
rdata$r	SEGMENT
??_R2IMediaFilter@@8 DD FLAT:??_R1A@?0A@EA@IMediaFilter@@8 ; IMediaFilter::`RTTI Base Class Array'
	DD	FLAT:??_R1A@?0A@EA@IPersist@@8
	DD	FLAT:??_R1A@?0A@EA@IUnknown@@8
rdata$r	ENDS
;	COMDAT ??_R3IMediaFilter@@8
rdata$r	SEGMENT
??_R3IMediaFilter@@8 DD 00H				; IMediaFilter::`RTTI Class Hierarchy Descriptor'
	DD	00H
	DD	03H
	DD	FLAT:??_R2IMediaFilter@@8
rdata$r	ENDS
;	COMDAT ??_R0?AUIMediaFilter@@@8
_DATA	SEGMENT
??_R0?AUIMediaFilter@@@8 DD FLAT:??_7type_info@@6B@	; IMediaFilter `RTTI Type Descriptor'
	DD	00H
	DB	'.?AUIMediaFilter@@', 00H
_DATA	ENDS
;	COMDAT ??_R1A@?0A@EA@IMediaFilter@@8
rdata$r	SEGMENT
??_R1A@?0A@EA@IMediaFilter@@8 DD FLAT:??_R0?AUIMediaFilter@@@8 ; IMediaFilter::`RTTI Base Class Descriptor at (0,-1,0,64)'
	DD	02H
	DD	00H
	DD	0ffffffffH
	DD	00H
	DD	040H
	DD	FLAT:??_R3IMediaFilter@@8
rdata$r	ENDS
;	COMDAT ??_R1A@?0A@EA@IBaseFilter@@8
rdata$r	SEGMENT
??_R1A@?0A@EA@IBaseFilter@@8 DD FLAT:??_R0?AUIBaseFilter@@@8 ; IBaseFilter::`RTTI Base Class Descriptor at (0,-1,0,64)'
	DD	03H
	DD	00H
	DD	0ffffffffH
	DD	00H
	DD	040H
	DD	FLAT:??_R3IBaseFilter@@8
rdata$r	ENDS
;	COMDAT ??_R2IBaseFilter@@8
rdata$r	SEGMENT
??_R2IBaseFilter@@8 DD FLAT:??_R1A@?0A@EA@IBaseFilter@@8 ; IBaseFilter::`RTTI Base Class Array'
	DD	FLAT:??_R1A@?0A@EA@IMediaFilter@@8
	DD	FLAT:??_R1A@?0A@EA@IPersist@@8
	DD	FLAT:??_R1A@?0A@EA@IUnknown@@8
rdata$r	ENDS
;	COMDAT ??_R3IBaseFilter@@8
rdata$r	SEGMENT
??_R3IBaseFilter@@8 DD 00H				; IBaseFilter::`RTTI Class Hierarchy Descriptor'
	DD	00H
	DD	04H
	DD	FLAT:??_R2IBaseFilter@@8
rdata$r	ENDS
;	COMDAT ??_R0?AUIBaseFilter@@@8
_DATA	SEGMENT
??_R0?AUIBaseFilter@@@8 DD FLAT:??_7type_info@@6B@	; IBaseFilter `RTTI Type Descriptor'
	DD	00H
	DB	'.?AUIBaseFilter@@', 00H
_DATA	ENDS
;	COMDAT ??_R1BA@?0A@EA@IBaseFilter@@8
rdata$r	SEGMENT
??_R1BA@?0A@EA@IBaseFilter@@8 DD FLAT:??_R0?AUIBaseFilter@@@8 ; IBaseFilter::`RTTI Base Class Descriptor at (16,-1,0,64)'
	DD	03H
	DD	010H
	DD	0ffffffffH
	DD	00H
	DD	040H
	DD	FLAT:??_R3IBaseFilter@@8
rdata$r	ENDS
;	COMDAT ??_R1A@?0A@EA@CBaseObject@@8
rdata$r	SEGMENT
??_R1A@?0A@EA@CBaseObject@@8 DD FLAT:??_R0?AVCBaseObject@@@8 ; CBaseObject::`RTTI Base Class Descriptor at (0,-1,0,64)'
	DD	00H
	DD	00H
	DD	0ffffffffH
	DD	00H
	DD	040H
	DD	FLAT:??_R3CBaseObject@@8
rdata$r	ENDS
;	COMDAT ??_R2CBaseObject@@8
rdata$r	SEGMENT
??_R2CBaseObject@@8 DD FLAT:??_R1A@?0A@EA@CBaseObject@@8 ; CBaseObject::`RTTI Base Class Array'
rdata$r	ENDS
;	COMDAT ??_R3CBaseObject@@8
rdata$r	SEGMENT
??_R3CBaseObject@@8 DD 00H				; CBaseObject::`RTTI Class Hierarchy Descriptor'
	DD	00H
	DD	01H
	DD	FLAT:??_R2CBaseObject@@8
rdata$r	ENDS
;	COMDAT ??_R0?AVCBaseObject@@@8
_DATA	SEGMENT
??_R0?AVCBaseObject@@@8 DD FLAT:??_7type_info@@6B@	; CBaseObject `RTTI Type Descriptor'
	DD	00H
	DB	'.?AVCBaseObject@@', 00H
_DATA	ENDS
;	COMDAT ??_R13?0A@EA@CBaseObject@@8
rdata$r	SEGMENT
??_R13?0A@EA@CBaseObject@@8 DD FLAT:??_R0?AVCBaseObject@@@8 ; CBaseObject::`RTTI Base Class Descriptor at (4,-1,0,64)'
	DD	00H
	DD	04H
	DD	0ffffffffH
	DD	00H
	DD	040H
	DD	FLAT:??_R3CBaseObject@@8
rdata$r	ENDS
;	COMDAT ??_R2INonDelegatingUnknown@@8
rdata$r	SEGMENT
??_R2INonDelegatingUnknown@@8 DD FLAT:??_R1A@?0A@EA@INonDelegatingUnknown@@8 ; INonDelegatingUnknown::`RTTI Base Class Array'
rdata$r	ENDS
;	COMDAT ??_R3INonDelegatingUnknown@@8
rdata$r	SEGMENT
??_R3INonDelegatingUnknown@@8 DD 00H			; INonDelegatingUnknown::`RTTI Class Hierarchy Descriptor'
	DD	00H
	DD	01H
	DD	FLAT:??_R2INonDelegatingUnknown@@8
rdata$r	ENDS
;	COMDAT ??_R0?AUINonDelegatingUnknown@@@8
_DATA	SEGMENT
??_R0?AUINonDelegatingUnknown@@@8 DD FLAT:??_7type_info@@6B@ ; INonDelegatingUnknown `RTTI Type Descriptor'
	DD	00H
	DB	'.?AUINonDelegatingUnknown@@', 00H
_DATA	ENDS
;	COMDAT ??_R1A@?0A@EA@INonDelegatingUnknown@@8
rdata$r	SEGMENT
??_R1A@?0A@EA@INonDelegatingUnknown@@8 DD FLAT:??_R0?AUINonDelegatingUnknown@@@8 ; INonDelegatingUnknown::`RTTI Base Class Descriptor at (0,-1,0,64)'
	DD	00H
	DD	00H
	DD	0ffffffffH
	DD	00H
	DD	040H
	DD	FLAT:??_R3INonDelegatingUnknown@@8
rdata$r	ENDS
;	COMDAT ??_R2CUnknown@@8
rdata$r	SEGMENT
??_R2CUnknown@@8 DD FLAT:??_R1A@?0A@EA@CUnknown@@8	; CUnknown::`RTTI Base Class Array'
	DD	FLAT:??_R1A@?0A@EA@INonDelegatingUnknown@@8
	DD	FLAT:??_R13?0A@EA@CBaseObject@@8
rdata$r	ENDS
;	COMDAT ??_R3CUnknown@@8
rdata$r	SEGMENT
??_R3CUnknown@@8 DD 00H					; CUnknown::`RTTI Class Hierarchy Descriptor'
	DD	01H
	DD	03H
	DD	FLAT:??_R2CUnknown@@8
rdata$r	ENDS
;	COMDAT ??_R0?AVCUnknown@@@8
_DATA	SEGMENT
??_R0?AVCUnknown@@@8 DD FLAT:??_7type_info@@6B@		; CUnknown `RTTI Type Descriptor'
	DD	00H
	DB	'.?AVCUnknown@@', 00H
_DATA	ENDS
;	COMDAT ??_R1A@?0A@EA@CUnknown@@8
rdata$r	SEGMENT
??_R1A@?0A@EA@CUnknown@@8 DD FLAT:??_R0?AVCUnknown@@@8	; CUnknown::`RTTI Base Class Descriptor at (0,-1,0,64)'
	DD	02H
	DD	00H
	DD	0ffffffffH
	DD	00H
	DD	040H
	DD	FLAT:??_R3CUnknown@@8
rdata$r	ENDS
;	COMDAT ??_R2CBaseFilter@@8
rdata$r	SEGMENT
??_R2CBaseFilter@@8 DD FLAT:??_R1A@?0A@EA@CBaseFilter@@8 ; CBaseFilter::`RTTI Base Class Array'
	DD	FLAT:??_R1A@?0A@EA@CUnknown@@8
	DD	FLAT:??_R1A@?0A@EA@INonDelegatingUnknown@@8
	DD	FLAT:??_R13?0A@EA@CBaseObject@@8
	DD	FLAT:??_R1BA@?0A@EA@IBaseFilter@@8
	DD	FLAT:??_R1BA@?0A@EA@IMediaFilter@@8
	DD	FLAT:??_R1BA@?0A@EA@IPersist@@8
	DD	FLAT:??_R1BA@?0A@EC@IUnknown@@8
	DD	FLAT:??_R1BE@?0A@EA@IAMovieSetup@@8
	DD	FLAT:??_R1BE@?0A@EC@IUnknown@@8
rdata$r	ENDS
;	COMDAT ??_R3CBaseFilter@@8
rdata$r	SEGMENT
??_R3CBaseFilter@@8 DD 00H				; CBaseFilter::`RTTI Class Hierarchy Descriptor'
	DD	05H
	DD	0aH
	DD	FLAT:??_R2CBaseFilter@@8
rdata$r	ENDS
;	COMDAT ??_R0?AVCBaseFilter@@@8
_DATA	SEGMENT
??_R0?AVCBaseFilter@@@8 DD FLAT:??_7type_info@@6B@	; CBaseFilter `RTTI Type Descriptor'
	DD	00H
	DB	'.?AVCBaseFilter@@', 00H
_DATA	ENDS
;	COMDAT ??_R1A@?0A@EA@CBaseFilter@@8
rdata$r	SEGMENT
??_R1A@?0A@EA@CBaseFilter@@8 DD FLAT:??_R0?AVCBaseFilter@@@8 ; CBaseFilter::`RTTI Base Class Descriptor at (0,-1,0,64)'
	DD	09H
	DD	00H
	DD	0ffffffffH
	DD	00H
	DD	040H
	DD	FLAT:??_R3CBaseFilter@@8
rdata$r	ENDS
;	COMDAT ??_R2CTransformFilter@@8
rdata$r	SEGMENT
??_R2CTransformFilter@@8 DD FLAT:??_R1A@?0A@EA@CTransformFilter@@8 ; CTransformFilter::`RTTI Base Class Array'
	DD	FLAT:??_R1A@?0A@EA@CBaseFilter@@8
	DD	FLAT:??_R1A@?0A@EA@CUnknown@@8
	DD	FLAT:??_R1A@?0A@EA@INonDelegatingUnknown@@8
	DD	FLAT:??_R13?0A@EA@CBaseObject@@8
	DD	FLAT:??_R1BA@?0A@EA@IBaseFilter@@8
	DD	FLAT:??_R1BA@?0A@EA@IMediaFilter@@8
	DD	FLAT:??_R1BA@?0A@EA@IPersist@@8
	DD	FLAT:??_R1BA@?0A@EC@IUnknown@@8
	DD	FLAT:??_R1BE@?0A@EA@IAMovieSetup@@8
	DD	FLAT:??_R1BE@?0A@EC@IUnknown@@8
rdata$r	ENDS
;	COMDAT ??_R3CTransformFilter@@8
rdata$r	SEGMENT
??_R3CTransformFilter@@8 DD 00H				; CTransformFilter::`RTTI Class Hierarchy Descriptor'
	DD	01H
	DD	0bH
	DD	FLAT:??_R2CTransformFilter@@8
rdata$r	ENDS
;	COMDAT ??_R0?AVCTransformFilter@@@8
_DATA	SEGMENT
??_R0?AVCTransformFilter@@@8 DD FLAT:??_7type_info@@6B@	; CTransformFilter `RTTI Type Descriptor'
	DD	00H
	DB	'.?AVCTransformFilter@@', 00H
_DATA	ENDS
;	COMDAT ??_R1A@?0A@EA@CTransformFilter@@8
rdata$r	SEGMENT
??_R1A@?0A@EA@CTransformFilter@@8 DD FLAT:??_R0?AVCTransformFilter@@@8 ; CTransformFilter::`RTTI Base Class Descriptor at (0,-1,0,64)'
	DD	0aH
	DD	00H
	DD	0ffffffffH
	DD	00H
	DD	040H
	DD	FLAT:??_R3CTransformFilter@@8
rdata$r	ENDS
;	COMDAT ??_R1A@?0A@EA@CVideoTransformFilter@@8
rdata$r	SEGMENT
??_R1A@?0A@EA@CVideoTransformFilter@@8 DD FLAT:??_R0?AVCVideoTransformFilter@@@8 ; CVideoTransformFilter::`RTTI Base Class Descriptor at (0,-1,0,64)'
	DD	0bH
	DD	00H
	DD	0ffffffffH
	DD	00H
	DD	040H
	DD	FLAT:??_R3CVideoTransformFilter@@8
rdata$r	ENDS
;	COMDAT ??_R2CVideoTransformFilter@@8
rdata$r	SEGMENT
??_R2CVideoTransformFilter@@8 DD FLAT:??_R1A@?0A@EA@CVideoTransformFilter@@8 ; CVideoTransformFilter::`RTTI Base Class Array'
	DD	FLAT:??_R1A@?0A@EA@CTransformFilter@@8
	DD	FLAT:??_R1A@?0A@EA@CBaseFilter@@8
	DD	FLAT:??_R1A@?0A@EA@CUnknown@@8
	DD	FLAT:??_R1A@?0A@EA@INonDelegatingUnknown@@8
	DD	FLAT:??_R13?0A@EA@CBaseObject@@8
	DD	FLAT:??_R1BA@?0A@EA@IBaseFilter@@8
	DD	FLAT:??_R1BA@?0A@EA@IMediaFilter@@8
	DD	FLAT:??_R1BA@?0A@EA@IPersist@@8
	DD	FLAT:??_R1BA@?0A@EC@IUnknown@@8
	DD	FLAT:??_R1BE@?0A@EA@IAMovieSetup@@8
	DD	FLAT:??_R1BE@?0A@EC@IUnknown@@8
rdata$r	ENDS
;	COMDAT ??_R3CVideoTransformFilter@@8
rdata$r	SEGMENT
??_R3CVideoTransformFilter@@8 DD 00H			; CVideoTransformFilter::`RTTI Class Hierarchy Descriptor'
	DD	01H
	DD	0cH
	DD	FLAT:??_R2CVideoTransformFilter@@8
rdata$r	ENDS
;	COMDAT ??_R0?AVCVideoTransformFilter@@@8
_DATA	SEGMENT
??_R0?AVCVideoTransformFilter@@@8 DD FLAT:??_7type_info@@6B@ ; CVideoTransformFilter `RTTI Type Descriptor'
	DD	00H
	DB	'.?AVCVideoTransformFilter@@', 00H
_DATA	ENDS
;	COMDAT ??_R4CVideoTransformFilter@@6BCUnknown@@@
rdata$r	SEGMENT
??_R4CVideoTransformFilter@@6BCUnknown@@@ DD 00H	; CVideoTransformFilter::`RTTI Complete Object Locator'
	DD	00H
	DD	00H
	DD	FLAT:??_R0?AVCVideoTransformFilter@@@8
	DD	FLAT:??_R3CVideoTransformFilter@@8
rdata$r	ENDS
;	COMDAT ??_7CVideoTransformFilter@@6BIAMovieSetup@@@
CONST	SEGMENT
??_7CVideoTransformFilter@@6BIAMovieSetup@@@ DD FLAT:??_R4CVideoTransformFilter@@6BIAMovieSetup@@@ ; CVideoTransformFilter::`vftable'
	DD	FLAT:?QueryInterface@CBaseFilter@@W3AGJABU_GUID@@PAPAX@Z
	DD	FLAT:?AddRef@CBaseFilter@@W3AGKXZ
	DD	FLAT:?Release@CBaseFilter@@W3AGKXZ
	DD	FLAT:?Register@CBaseFilter@@UAGJXZ
	DD	FLAT:?Unregister@CBaseFilter@@UAGJXZ
CONST	ENDS
;	COMDAT ??_7CVideoTransformFilter@@6BIBaseFilter@@@
CONST	SEGMENT
??_7CVideoTransformFilter@@6BIBaseFilter@@@ DD FLAT:??_R4CVideoTransformFilter@@6BIBaseFilter@@@ ; CVideoTransformFilter::`vftable'
	DD	FLAT:?QueryInterface@CBaseFilter@@UAGJABU_GUID@@PAPAX@Z
	DD	FLAT:?AddRef@CBaseFilter@@UAGKXZ
	DD	FLAT:?Release@CBaseFilter@@UAGKXZ
	DD	FLAT:?GetClassID@CBaseFilter@@UAGJPAU_GUID@@@Z
	DD	FLAT:?Stop@CTransformFilter@@UAGJXZ
	DD	FLAT:?Pause@CTransformFilter@@UAGJXZ
	DD	FLAT:?Run@CBaseFilter@@UAGJ_J@Z
	DD	FLAT:?GetState@CBaseFilter@@UAGJKPAW4_FilterState@@@Z
	DD	FLAT:?SetSyncSource@CBaseFilter@@UAGJPAUIReferenceClock@@@Z
	DD	FLAT:?GetSyncSource@CBaseFilter@@UAGJPAPAUIReferenceClock@@@Z
	DD	FLAT:?EnumPins@CBaseFilter@@UAGJPAPAUIEnumPins@@@Z
	DD	FLAT:?FindPin@CTransformFilter@@UAGJPB_WPAPAUIPin@@@Z
	DD	FLAT:?QueryFilterInfo@CBaseFilter@@UAGJPAU_FilterInfo@@@Z
	DD	FLAT:?JoinFilterGraph@CBaseFilter@@UAGJPAUIFilterGraph@@PB_W@Z
	DD	FLAT:?QueryVendorInfo@CBaseFilter@@UAGJPAPA_W@Z
CONST	ENDS
;	COMDAT ??_7CVideoTransformFilter@@6BCUnknown@@@
CONST	SEGMENT
??_7CVideoTransformFilter@@6BCUnknown@@@ DD FLAT:??_R4CVideoTransformFilter@@6BCUnknown@@@ ; CVideoTransformFilter::`vftable'
	DD	FLAT:?NonDelegatingQueryInterface@CBaseFilter@@UAGJABU_GUID@@PAPAX@Z
	DD	FLAT:?NonDelegatingAddRef@CUnknown@@UAGKXZ
	DD	FLAT:?NonDelegatingRelease@CBaseFilter@@UAGKXZ
	DD	FLAT:??_ECVideoTransformFilter@@UAEPAXI@Z
	DD	FLAT:?StreamTime@CBaseFilter@@UAEJAAVCRefTime@@@Z
	DD	FLAT:?GetPinVersion@CBaseFilter@@UAEJXZ
	DD	FLAT:?GetPinCount@CTransformFilter@@UAEHXZ
	DD	FLAT:?GetPin@CTransformFilter@@UAEPAVCBasePin@@H@Z
	DD	FLAT:?GetSetupData@CBaseFilter@@UAEPAU_AMOVIESETUP_FILTER@@XZ
	DD	FLAT:?Transform@CTransformFilter@@UAEJPAUIMediaSample@@0@Z
	DD	FLAT:__purecall
	DD	FLAT:__purecall
	DD	FLAT:__purecall
	DD	FLAT:__purecall
	DD	FLAT:?StartStreaming@CVideoTransformFilter@@MAEJXZ
	DD	FLAT:?StopStreaming@CTransformFilter@@UAEJXZ
	DD	FLAT:?AlterQuality@CVideoTransformFilter@@MAEJUtagQuality@@@Z
	DD	FLAT:?SetMediaType@CTransformFilter@@UAEJW4_PinDirection@@PBVCMediaType@@@Z
	DD	FLAT:?CheckConnect@CTransformFilter@@UAEJW4_PinDirection@@PAUIPin@@@Z
	DD	FLAT:?BreakConnect@CTransformFilter@@UAEJW4_PinDirection@@@Z
	DD	FLAT:?CompleteConnect@CTransformFilter@@UAEJW4_PinDirection@@PAUIPin@@@Z
	DD	FLAT:?Receive@CVideoTransformFilter@@MAEJPAUIMediaSample@@@Z
	DD	FLAT:?EndOfStream@CTransformFilter@@UAEJXZ
	DD	FLAT:?BeginFlush@CTransformFilter@@UAEJXZ
	DD	FLAT:?EndFlush@CVideoTransformFilter@@UAEJXZ
	DD	FLAT:?NewSegment@CTransformFilter@@UAEJ_J0N@Z
CONST	ENDS
;	COMDAT rtc$TMZ
rtc$TMZ	SEGMENT
__RTC_Shutdown.rtc$TMZ DD FLAT:__RTC_Shutdown
rtc$TMZ	ENDS
;	COMDAT rtc$IMZ
rtc$IMZ	SEGMENT
__RTC_InitBase.rtc$IMZ DD FLAT:__RTC_InitBase
; Function compile flags: /Odtp /RTCsu
rtc$IMZ	ENDS
;	COMDAT ??0CVideoTransformFilter@@QAE@PA_WPAUIUnknown@@ABU_GUID@@@Z
_TEXT	SEGMENT
_this$ = -4						; size = 4
_pName$ = 8						; size = 4
_pUnk$ = 12						; size = 4
_clsid$ = 16						; size = 4
??0CVideoTransformFilter@@QAE@PA_WPAUIUnknown@@ABU_GUID@@@Z PROC ; CVideoTransformFilter::CVideoTransformFilter, COMDAT
; _this$ = ecx
; Line 24
	push	ebp
	mov	ebp, esp
	push	ecx
	mov	DWORD PTR [ebp-4], -858993460		; ccccccccH
	mov	DWORD PTR _this$[ebp], ecx
	mov	eax, DWORD PTR _clsid$[ebp]
	push	eax
	mov	ecx, DWORD PTR _pUnk$[ebp]
	push	ecx
	mov	edx, DWORD PTR _pName$[ebp]
	push	edx
	mov	ecx, DWORD PTR _this$[ebp]
	call	??0CTransformFilter@@QAE@PA_WPAUIUnknown@@ABU_GUID@@@Z ; CTransformFilter::CTransformFilter
	mov	eax, DWORD PTR _this$[ebp]
	mov	DWORD PTR [eax], OFFSET ??_7CVideoTransformFilter@@6BCUnknown@@@
	mov	ecx, DWORD PTR _this$[ebp]
	mov	DWORD PTR [ecx+16], OFFSET ??_7CVideoTransformFilter@@6BIBaseFilter@@@
	mov	edx, DWORD PTR _this$[ebp]
	mov	DWORD PTR [edx+20], OFFSET ??_7CVideoTransformFilter@@6BIAMovieSetup@@@
	mov	eax, DWORD PTR _this$[ebp]
	mov	DWORD PTR [eax+176], 0
	mov	ecx, DWORD PTR _this$[ebp]
	mov	DWORD PTR [ecx+180], 0
	mov	edx, DWORD PTR _this$[ebp]
	mov	DWORD PTR [edx+184], 0
	mov	eax, DWORD PTR _this$[ebp]
	mov	DWORD PTR [eax+188], 0
	mov	ecx, DWORD PTR _this$[ebp]
	mov	DWORD PTR [ecx+192], 0
	mov	edx, DWORD PTR _this$[ebp]
	mov	DWORD PTR [edx+196], 300000		; 000493e0H
	mov	eax, DWORD PTR _this$[ebp]
	mov	DWORD PTR [eax+204], 0
; Line 28
	mov	eax, DWORD PTR _this$[ebp]
	add	esp, 4
	cmp	ebp, esp
	call	__RTC_CheckEsp
	mov	esp, ebp
	pop	ebp
	ret	12					; 0000000cH
??0CVideoTransformFilter@@QAE@PA_WPAUIUnknown@@ABU_GUID@@@Z ENDP ; CVideoTransformFilter::CVideoTransformFilter
_TEXT	ENDS
PUBLIC	?GetOwner@CUnknown@@QBEPAUIUnknown@@XZ		; CUnknown::GetOwner
; Function compile flags: /Odtp /RTCsu
;	COMDAT ?QueryInterface@CBaseFilter@@UAGJABU_GUID@@PAPAX@Z
_TEXT	SEGMENT
tv72 = -4						; size = 4
_this$ = 8						; size = 4
_riid$ = 12						; size = 4
_ppv$ = 16						; size = 4
?QueryInterface@CBaseFilter@@UAGJABU_GUID@@PAPAX@Z PROC	; CBaseFilter::QueryInterface, COMDAT
; File c:\downloads\mediapoint\src\filters\baseclasses\amfilter.h
; Line 198
	push	ebp
	mov	ebp, esp
	push	ecx
	push	esi
	mov	DWORD PTR [ebp-4], -858993460		; ccccccccH
	mov	ecx, DWORD PTR _this$[ebp]
	sub	ecx, 16					; 00000010H
	call	?GetOwner@CUnknown@@QBEPAUIUnknown@@XZ	; CUnknown::GetOwner
	mov	DWORD PTR tv72[ebp], eax
	mov	esi, esp
	mov	eax, DWORD PTR _ppv$[ebp]
	push	eax
	mov	ecx, DWORD PTR _riid$[ebp]
	push	ecx
	mov	edx, DWORD PTR tv72[ebp]
	push	edx
	mov	eax, DWORD PTR tv72[ebp]
	mov	ecx, DWORD PTR [eax]
	mov	edx, DWORD PTR [ecx]
	call	edx
	cmp	esi, esp
	call	__RTC_CheckEsp
	pop	esi
	add	esp, 4
	cmp	ebp, esp
	call	__RTC_CheckEsp
	mov	esp, ebp
	pop	ebp
	ret	12					; 0000000cH
?QueryInterface@CBaseFilter@@UAGJABU_GUID@@PAPAX@Z ENDP	; CBaseFilter::QueryInterface
; Function compile flags: /Odtp /RTCsu
_TEXT	ENDS
;	COMDAT ?GetOwner@CUnknown@@QBEPAUIUnknown@@XZ
_TEXT	SEGMENT
_this$ = -4						; size = 4
?GetOwner@CUnknown@@QBEPAUIUnknown@@XZ PROC		; CUnknown::GetOwner, COMDAT
; _this$ = ecx
; File c:\downloads\mediapoint\src\filters\baseclasses\combase.h
; Line 224
	push	ebp
	mov	ebp, esp
	push	ecx
	mov	DWORD PTR [ebp-4], -858993460		; ccccccccH
	mov	DWORD PTR _this$[ebp], ecx
; Line 225
	mov	eax, DWORD PTR _this$[ebp]
	mov	eax, DWORD PTR [eax+8]
; Line 226
	mov	esp, ebp
	pop	ebp
	ret	0
?GetOwner@CUnknown@@QBEPAUIUnknown@@XZ ENDP		; CUnknown::GetOwner
; Function compile flags: /Odtp /RTCsu
_TEXT	ENDS
;	COMDAT ?AddRef@CBaseFilter@@UAGKXZ
_TEXT	SEGMENT
tv72 = -4						; size = 4
_this$ = 8						; size = 4
?AddRef@CBaseFilter@@UAGKXZ PROC			; CBaseFilter::AddRef, COMDAT
; File c:\downloads\mediapoint\src\filters\baseclasses\amfilter.h
; Line 198
	push	ebp
	mov	ebp, esp
	push	ecx
	push	esi
	mov	DWORD PTR [ebp-4], -858993460		; ccccccccH
	mov	ecx, DWORD PTR _this$[ebp]
	sub	ecx, 16					; 00000010H
	call	?GetOwner@CUnknown@@QBEPAUIUnknown@@XZ	; CUnknown::GetOwner
	mov	DWORD PTR tv72[ebp], eax
	mov	eax, DWORD PTR tv72[ebp]
	mov	ecx, DWORD PTR [eax]
	mov	esi, esp
	mov	edx, DWORD PTR tv72[ebp]
	push	edx
	mov	eax, DWORD PTR [ecx+4]
	call	eax
	cmp	esi, esp
	call	__RTC_CheckEsp
	pop	esi
	add	esp, 4
	cmp	ebp, esp
	call	__RTC_CheckEsp
	mov	esp, ebp
	pop	ebp
	ret	4
?AddRef@CBaseFilter@@UAGKXZ ENDP			; CBaseFilter::AddRef
; Function compile flags: /Odtp /RTCsu
_TEXT	ENDS
;	COMDAT ?Release@CBaseFilter@@UAGKXZ
_TEXT	SEGMENT
tv72 = -4						; size = 4
_this$ = 8						; size = 4
?Release@CBaseFilter@@UAGKXZ PROC			; CBaseFilter::Release, COMDAT
; Line 198
	push	ebp
	mov	ebp, esp
	push	ecx
	push	esi
	mov	DWORD PTR [ebp-4], -858993460		; ccccccccH
	mov	ecx, DWORD PTR _this$[ebp]
	sub	ecx, 16					; 00000010H
	call	?GetOwner@CUnknown@@QBEPAUIUnknown@@XZ	; CUnknown::GetOwner
	mov	DWORD PTR tv72[ebp], eax
	mov	eax, DWORD PTR tv72[ebp]
	mov	ecx, DWORD PTR [eax]
	mov	esi, esp
	mov	edx, DWORD PTR tv72[ebp]
	push	edx
	mov	eax, DWORD PTR [ecx+8]
	call	eax
	cmp	esi, esp
	call	__RTC_CheckEsp
	pop	esi
	add	esp, 4
	cmp	ebp, esp
	call	__RTC_CheckEsp
	mov	esp, ebp
	pop	ebp
	ret	4
?Release@CBaseFilter@@UAGKXZ ENDP			; CBaseFilter::Release
; Function compile flags: /Odtp /RTCsu
_TEXT	ENDS
;	COMDAT ?GetSetupData@CBaseFilter@@UAEPAU_AMOVIESETUP_FILTER@@XZ
_TEXT	SEGMENT
_this$ = -4						; size = 4
?GetSetupData@CBaseFilter@@UAEPAU_AMOVIESETUP_FILTER@@XZ PROC ; CBaseFilter::GetSetupData, COMDAT
; _this$ = ecx
; Line 317
	push	ebp
	mov	ebp, esp
	push	ecx
	mov	DWORD PTR [ebp-4], -858993460		; ccccccccH
	mov	DWORD PTR _this$[ebp], ecx
	xor	eax, eax
	mov	esp, ebp
	pop	ebp
	ret	0
?GetSetupData@CBaseFilter@@UAEPAU_AMOVIESETUP_FILTER@@XZ ENDP ; CBaseFilter::GetSetupData
_TEXT	ENDS
PUBLIC	??1CVideoTransformFilter@@UAE@XZ		; CVideoTransformFilter::~CVideoTransformFilter
EXTRN	??3@YAXPAX@Z:PROC				; operator delete
; Function compile flags: /Odtp /RTCsu
;	COMDAT ??_GCVideoTransformFilter@@UAEPAXI@Z
_TEXT	SEGMENT
_this$ = -4						; size = 4
___flags$ = 8						; size = 4
??_GCVideoTransformFilter@@UAEPAXI@Z PROC		; CVideoTransformFilter::`scalar deleting destructor', COMDAT
; _this$ = ecx
	push	ebp
	mov	ebp, esp
	push	ecx
	mov	DWORD PTR [ebp-4], -858993460		; ccccccccH
	mov	DWORD PTR _this$[ebp], ecx
	mov	ecx, DWORD PTR _this$[ebp]
	call	??1CVideoTransformFilter@@UAE@XZ	; CVideoTransformFilter::~CVideoTransformFilter
	mov	eax, DWORD PTR ___flags$[ebp]
	and	eax, 1
	je	SHORT $LN1@scalar
	mov	ecx, DWORD PTR _this$[ebp]
	push	ecx
	call	??3@YAXPAX@Z				; operator delete
	add	esp, 4
$LN1@scalar:
	mov	eax, DWORD PTR _this$[ebp]
	add	esp, 4
	cmp	ebp, esp
	call	__RTC_CheckEsp
	mov	esp, ebp
	pop	ebp
	ret	4
??_GCVideoTransformFilter@@UAEPAXI@Z ENDP		; CVideoTransformFilter::`scalar deleting destructor'
_TEXT	ENDS
EXTRN	??1CTransformFilter@@UAE@XZ:PROC		; CTransformFilter::~CTransformFilter
; Function compile flags: /Odtp /RTCsu
;	COMDAT ??1CVideoTransformFilter@@UAE@XZ
_TEXT	SEGMENT
_this$ = -4						; size = 4
??1CVideoTransformFilter@@UAE@XZ PROC			; CVideoTransformFilter::~CVideoTransformFilter, COMDAT
; _this$ = ecx
; File c:\downloads\mediapoint\src\filters\baseclasses\vtrans.cpp
; Line 32
	push	ebp
	mov	ebp, esp
	push	ecx
	mov	DWORD PTR [ebp-4], -858993460		; ccccccccH
	mov	DWORD PTR _this$[ebp], ecx
	mov	eax, DWORD PTR _this$[ebp]
	mov	DWORD PTR [eax], OFFSET ??_7CVideoTransformFilter@@6BCUnknown@@@
	mov	ecx, DWORD PTR _this$[ebp]
	mov	DWORD PTR [ecx+16], OFFSET ??_7CVideoTransformFilter@@6BIBaseFilter@@@
	mov	edx, DWORD PTR _this$[ebp]
	mov	DWORD PTR [edx+20], OFFSET ??_7CVideoTransformFilter@@6BIAMovieSetup@@@
; Line 34
	mov	ecx, DWORD PTR _this$[ebp]
	call	??1CTransformFilter@@UAE@XZ		; CTransformFilter::~CTransformFilter
	add	esp, 4
	cmp	ebp, esp
	call	__RTC_CheckEsp
	mov	esp, ebp
	pop	ebp
	ret	0
??1CVideoTransformFilter@@UAE@XZ ENDP			; CVideoTransformFilter::~CVideoTransformFilter
; Function compile flags: /Odtp /RTCsu
_TEXT	ENDS
;	COMDAT ?StartStreaming@CVideoTransformFilter@@MAEJXZ
_TEXT	SEGMENT
_this$ = -4						; size = 4
?StartStreaming@CVideoTransformFilter@@MAEJXZ PROC	; CVideoTransformFilter::StartStreaming, COMDAT
; _this$ = ecx
; Line 40
	push	ebp
	mov	ebp, esp
	push	ecx
	mov	DWORD PTR [ebp-4], -858993460		; ccccccccH
	mov	DWORD PTR _this$[ebp], ecx
; Line 41
	mov	eax, DWORD PTR _this$[ebp]
	mov	DWORD PTR [eax+188], 0
; Line 42
	mov	ecx, DWORD PTR _this$[ebp]
	mov	DWORD PTR [ecx+176], 0
; Line 43
	mov	edx, DWORD PTR _this$[ebp]
	mov	DWORD PTR [edx+180], 0
; Line 44
	mov	eax, DWORD PTR _this$[ebp]
	mov	DWORD PTR [eax+184], 0
; Line 45
	mov	ecx, DWORD PTR _this$[ebp]
	mov	DWORD PTR [ecx+192], 0
; Line 46
	mov	edx, DWORD PTR _this$[ebp]
	mov	DWORD PTR [edx+196], 300000		; 000493e0H
; Line 47
	mov	eax, DWORD PTR _this$[ebp]
	mov	DWORD PTR [eax+204], 0
; Line 48
	mov	ecx, DWORD PTR _this$[ebp]
	mov	DWORD PTR [ecx+84], 0
; Line 49
	xor	eax, eax
; Line 50
	mov	esp, ebp
	pop	ebp
	ret	0
?StartStreaming@CVideoTransformFilter@@MAEJXZ ENDP	; CVideoTransformFilter::StartStreaming
_TEXT	ENDS
PUBLIC	??1CAutoLock@@QAE@XZ				; CAutoLock::~CAutoLock
PUBLIC	??0CAutoLock@@QAE@PAVCCritSec@@@Z		; CAutoLock::CAutoLock
EXTRN	?EndFlush@CTransformFilter@@UAEJXZ:PROC		; CTransformFilter::EndFlush
EXTRN	___security_cookie:DWORD
EXTRN	___CxxFrameHandler3:PROC
EXTRN	@__security_check_cookie@4:PROC
EXTRN	@_RTC_CheckStackVars@8:PROC
;	COMDAT xdata$x
xdata$x	SEGMENT
__unwindtable$?EndFlush@CVideoTransformFilter@@UAEJXZ DD 0ffffffffH
	DD	FLAT:__unwindfunclet$?EndFlush@CVideoTransformFilter@@UAEJXZ$0
__ehfuncinfo$?EndFlush@CVideoTransformFilter@@UAEJXZ DD 019930522H
	DD	01H
	DD	FLAT:__unwindtable$?EndFlush@CVideoTransformFilter@@UAEJXZ
	DD	2 DUP(00H)
	DD	2 DUP(00H)
	DD	00H
	DD	01H
; Function compile flags: /Odtp /RTCsu
xdata$x	ENDS
;	COMDAT ?EndFlush@CVideoTransformFilter@@UAEJXZ
_TEXT	SEGMENT
_lck$81574 = -24					; size = 4
_this$ = -16						; size = 4
__$EHRec$ = -12						; size = 12
?EndFlush@CVideoTransformFilter@@UAEJXZ PROC		; CVideoTransformFilter::EndFlush, COMDAT
; _this$ = ecx
; Line 56
	push	ebp
	mov	ebp, esp
	push	-1
	push	__ehhandler$?EndFlush@CVideoTransformFilter@@UAEJXZ
	mov	eax, DWORD PTR fs:0
	push	eax
	sub	esp, 16					; 00000010H
	mov	eax, -858993460				; ccccccccH
	mov	DWORD PTR [ebp-28], eax
	mov	DWORD PTR [ebp-24], eax
	mov	DWORD PTR [ebp-20], eax
	mov	DWORD PTR [ebp-16], eax
	mov	eax, DWORD PTR ___security_cookie
	xor	eax, ebp
	push	eax
	lea	eax, DWORD PTR __$EHRec$[ebp]
	mov	DWORD PTR fs:0, eax
	mov	DWORD PTR _this$[ebp], ecx
; Line 59
	mov	eax, DWORD PTR _this$[ebp]
	add	eax, 128				; 00000080H
	push	eax
	lea	ecx, DWORD PTR _lck$81574[ebp]
	call	??0CAutoLock@@QAE@PAVCCritSec@@@Z	; CAutoLock::CAutoLock
	mov	DWORD PTR __$EHRec$[ebp+8], 0
; Line 66
	mov	ecx, DWORD PTR _this$[ebp]
	call	?StartStreaming@CVideoTransformFilter@@MAEJXZ ; CVideoTransformFilter::StartStreaming
; Line 67
	mov	DWORD PTR __$EHRec$[ebp+8], -1
	lea	ecx, DWORD PTR _lck$81574[ebp]
	call	??1CAutoLock@@QAE@XZ			; CAutoLock::~CAutoLock
; Line 68
	mov	ecx, DWORD PTR _this$[ebp]
	call	?EndFlush@CTransformFilter@@UAEJXZ	; CTransformFilter::EndFlush
; Line 69
	push	edx
	mov	ecx, ebp
	push	eax
	lea	edx, DWORD PTR $LN7@EndFlush
	call	@_RTC_CheckStackVars@8
	pop	eax
	pop	edx
	mov	ecx, DWORD PTR __$EHRec$[ebp]
	mov	DWORD PTR fs:0, ecx
	pop	ecx
	add	esp, 28					; 0000001cH
	cmp	ebp, esp
	call	__RTC_CheckEsp
	mov	esp, ebp
	pop	ebp
	ret	0
	npad	2
$LN7@EndFlush:
	DD	1
	DD	$LN6@EndFlush
$LN6@EndFlush:
	DD	-24					; ffffffe8H
	DD	4
	DD	$LN4@EndFlush
$LN4@EndFlush:
	DB	108					; 0000006cH
	DB	99					; 00000063H
	DB	107					; 0000006bH
	DB	0
_TEXT	ENDS
;	COMDAT text$x
text$x	SEGMENT
__unwindfunclet$?EndFlush@CVideoTransformFilter@@UAEJXZ$0:
	lea	ecx, DWORD PTR _lck$81574[ebp]
	jmp	??1CAutoLock@@QAE@XZ			; CAutoLock::~CAutoLock
__ehhandler$?EndFlush@CVideoTransformFilter@@UAEJXZ:
	mov	edx, DWORD PTR [esp+8]
	lea	eax, DWORD PTR [edx+12]
	mov	ecx, DWORD PTR [edx-20]
	xor	ecx, eax
	call	@__security_check_cookie@4
	mov	eax, OFFSET __ehfuncinfo$?EndFlush@CVideoTransformFilter@@UAEJXZ
	jmp	___CxxFrameHandler3
text$x	ENDS
?EndFlush@CVideoTransformFilter@@UAEJXZ ENDP		; CVideoTransformFilter::EndFlush
EXTRN	?Lock@CCritSec@@QAEXXZ:PROC			; CCritSec::Lock
; Function compile flags: /Odtp /RTCsu
;	COMDAT ??0CAutoLock@@QAE@PAVCCritSec@@@Z
_TEXT	SEGMENT
_this$ = -4						; size = 4
_plock$ = 8						; size = 4
??0CAutoLock@@QAE@PAVCCritSec@@@Z PROC			; CAutoLock::CAutoLock, COMDAT
; _this$ = ecx
; File c:\downloads\mediapoint\src\filters\baseclasses\wxutil.h
; Line 94
	push	ebp
	mov	ebp, esp
	push	ecx
	mov	DWORD PTR [ebp-4], -858993460		; ccccccccH
	mov	DWORD PTR _this$[ebp], ecx
; Line 96
	mov	eax, DWORD PTR _this$[ebp]
	mov	ecx, DWORD PTR _plock$[ebp]
	mov	DWORD PTR [eax], ecx
; Line 97
	mov	edx, DWORD PTR _this$[ebp]
	mov	ecx, DWORD PTR [edx]
	call	?Lock@CCritSec@@QAEXXZ			; CCritSec::Lock
; Line 98
	mov	eax, DWORD PTR _this$[ebp]
	add	esp, 4
	cmp	ebp, esp
	call	__RTC_CheckEsp
	mov	esp, ebp
	pop	ebp
	ret	4
??0CAutoLock@@QAE@PAVCCritSec@@@Z ENDP			; CAutoLock::CAutoLock
_TEXT	ENDS
EXTRN	?Unlock@CCritSec@@QAEXXZ:PROC			; CCritSec::Unlock
; Function compile flags: /Odtp /RTCsu
;	COMDAT ??1CAutoLock@@QAE@XZ
_TEXT	SEGMENT
_this$ = -4						; size = 4
??1CAutoLock@@QAE@XZ PROC				; CAutoLock::~CAutoLock, COMDAT
; _this$ = ecx
; Line 100
	push	ebp
	mov	ebp, esp
	push	ecx
	mov	DWORD PTR [ebp-4], -858993460		; ccccccccH
	mov	DWORD PTR _this$[ebp], ecx
; Line 101
	mov	eax, DWORD PTR _this$[ebp]
	mov	ecx, DWORD PTR [eax]
	call	?Unlock@CCritSec@@QAEXXZ		; CCritSec::Unlock
; Line 102
	add	esp, 4
	cmp	ebp, esp
	call	__RTC_CheckEsp
	mov	esp, ebp
	pop	ebp
	ret	0
??1CAutoLock@@QAE@XZ ENDP				; CAutoLock::~CAutoLock
_TEXT	ENDS
PUBLIC	?AbortPlayback@CVideoTransformFilter@@IAEJJ@Z	; CVideoTransformFilter::AbortPlayback
EXTRN	?NotifyEvent@CBaseFilter@@QAEJJJJ@Z:PROC	; CBaseFilter::NotifyEvent
; Function compile flags: /Odtp /RTCsu
;	COMDAT ?AbortPlayback@CVideoTransformFilter@@IAEJJ@Z
_TEXT	SEGMENT
_this$ = -4						; size = 4
_hr$ = 8						; size = 4
?AbortPlayback@CVideoTransformFilter@@IAEJJ@Z PROC	; CVideoTransformFilter::AbortPlayback, COMDAT
; _this$ = ecx
; File c:\downloads\mediapoint\src\filters\baseclasses\vtrans.cpp
; Line 73
	push	ebp
	mov	ebp, esp
	push	ecx
	push	esi
	mov	DWORD PTR [ebp-4], -858993460		; ccccccccH
	mov	DWORD PTR _this$[ebp], ecx
; Line 74
	push	0
	mov	eax, DWORD PTR _hr$[ebp]
	push	eax
	push	3
	mov	ecx, DWORD PTR _this$[ebp]
	call	?NotifyEvent@CBaseFilter@@QAEJJJJ@Z	; CBaseFilter::NotifyEvent
; Line 75
	mov	ecx, DWORD PTR _this$[ebp]
	mov	edx, DWORD PTR [ecx+168]
	mov	eax, DWORD PTR _this$[ebp]
	mov	ecx, DWORD PTR [eax+168]
	mov	edx, DWORD PTR [edx]
	mov	esi, esp
	mov	eax, DWORD PTR [edx+76]
	call	eax
	cmp	esi, esp
	call	__RTC_CheckEsp
; Line 76
	mov	eax, DWORD PTR _hr$[ebp]
; Line 77
	pop	esi
	add	esp, 4
	cmp	ebp, esp
	call	__RTC_CheckEsp
	mov	esp, ebp
	pop	ebp
	ret	4
?AbortPlayback@CVideoTransformFilter@@IAEJJ@Z ENDP	; CVideoTransformFilter::AbortPlayback
_TEXT	ENDS
PUBLIC	?CurrentMediaType@CTransformOutputPin@@QAEAAVCMediaType@@XZ ; CTransformOutputPin::CurrentMediaType
PUBLIC	?ShouldSkipFrame@CVideoTransformFilter@@IAEHPAUIMediaSample@@@Z ; CVideoTransformFilter::ShouldSkipFrame
PUBLIC	?CurrentMediaType@CTransformInputPin@@QAEAAVCMediaType@@XZ ; CTransformInputPin::CurrentMediaType
PUBLIC	?GetFOURCC@FOURCCMap@@QAEKXZ			; FOURCCMap::GetFOURCC
PUBLIC	?SetFOURCC@FOURCCMap@@QAEXPBU_GUID@@@Z		; FOURCCMap::SetFOURCC
PUBLIC	_IsEqualGUID@8
PUBLIC	??0FOURCCMap@@QAE@XZ				; FOURCCMap::FOURCCMap
PUBLIC	__$ArrayPad$
EXTRN	__imp__timeGetTime@0:PROC
EXTRN	?InitializeOutputSample@CTransformFilter@@QAEJPAUIMediaSample@@PAPAU2@@Z:PROC ; CTransformFilter::InitializeOutputSample
EXTRN	?DeleteMediaType@@YGXPAU_AMMediaType@@@Z:PROC	; DeleteMediaType
EXTRN	??4CMediaType@@QAEAAV0@ABU_AMMediaType@@@Z:PROC	; CMediaType::operator=
EXTRN	?DbgLogInfo@@YAXKKPB_WZZ:PROC			; DbgLogInfo
EXTRN	_GUID_NULL:BYTE
EXTRN	?DbgAssert@@YGXPB_W0H@Z:PROC			; DbgAssert
EXTRN	?CritCheckIn@@YGHPAVCCritSec@@@Z:PROC		; CritCheckIn
; Function compile flags: /Odtp /RTCsu
;	COMDAT ?Receive@CVideoTransformFilter@@MAEJPAUIMediaSample@@@Z
_TEXT	SEGMENT
_lStride$81634 = -96					; size = 4
_lBitCount$81632 = -92					; size = 4
_lCompression$81630 = -88				; size = 4
_lStride$81605 = -84					; size = 4
_lBitCount$81603 = -80					; size = 4
_lCompression$81601 = -76				; size = 4
_pOutSample$ = -68					; size = 4
_hr$ = -60						; size = 4
_fccOut$ = -52						; size = 16
_pmt$ = -28						; size = 4
_pmtOut$ = -16						; size = 4
_this$ = -8						; size = 4
__$ArrayPad$ = -4					; size = 4
_pSample$ = 8						; size = 4
?Receive@CVideoTransformFilter@@MAEJPAUIMediaSample@@@Z PROC ; CVideoTransformFilter::Receive, COMDAT
; _this$ = ecx
; Line 99
	push	ebp
	mov	ebp, esp
	sub	esp, 96					; 00000060H
	push	esi
	push	edi
	push	ecx
	lea	edi, DWORD PTR [ebp-96]
	mov	ecx, 24					; 00000018H
	mov	eax, -858993460				; ccccccccH
	rep stosd
	pop	ecx
	mov	eax, DWORD PTR ___security_cookie
	xor	eax, ebp
	mov	DWORD PTR __$ArrayPad$[ebp], eax
	mov	DWORD PTR _this$[ebp], ecx
; Line 111
	mov	eax, DWORD PTR _this$[ebp]
	add	eax, 128				; 00000080H
	push	eax
	call	?CritCheckIn@@YGHPAVCCritSec@@@Z	; CritCheckIn
	test	eax, eax
	jne	SHORT $LN24@Receive
	push	111					; 0000006fH
	push	OFFSET $SG81584
	push	OFFSET $SG81585
	call	?DbgAssert@@YGXPB_W0H@Z			; DbgAssert
$LN24@Receive:
; Line 114
	lea	ecx, DWORD PTR _fccOut$[ebp]
	call	??0FOURCCMap@@QAE@XZ			; FOURCCMap::FOURCCMap
; Line 117
	cmp	DWORD PTR _pSample$[ebp], 0
	jne	SHORT $LN23@Receive
	push	117					; 00000075H
	push	OFFSET $SG81591
	push	OFFSET $SG81592
	call	?DbgAssert@@YGXPB_W0H@Z			; DbgAssert
$LN23@Receive:
; Line 121
	mov	ecx, DWORD PTR _this$[ebp]
	cmp	DWORD PTR [ecx+168], 0
	jne	SHORT $LN22@Receive
	push	121					; 00000079H
	push	OFFSET $SG81595
	push	OFFSET $SG81596
	call	?DbgAssert@@YGXPB_W0H@Z			; DbgAssert
$LN22@Receive:
; Line 132
	mov	esi, esp
	lea	edx, DWORD PTR _pmt$[ebp]
	push	edx
	mov	eax, DWORD PTR _pSample$[ebp]
	mov	ecx, DWORD PTR [eax]
	mov	edx, DWORD PTR _pSample$[ebp]
	push	edx
	mov	eax, DWORD PTR [ecx+52]
	call	eax
	cmp	esi, esp
	call	__RTC_CheckEsp
; Line 133
	cmp	DWORD PTR _pmt$[ebp], 0
	je	$LN21@Receive
	mov	ecx, DWORD PTR _pmt$[ebp]
	cmp	DWORD PTR [ecx+68], 0
	je	$LN21@Receive
; Line 136
	push	OFFSET _GUID_NULL
	mov	edx, DWORD PTR _pmt$[ebp]
	push	edx
	call	_IsEqualGUID@8
	test	eax, eax
	je	SHORT $LN20@Receive
	push	136					; 00000088H
	push	OFFSET $SG81599
	push	OFFSET $SG81600
	call	?DbgAssert@@YGXPB_W0H@Z			; DbgAssert
$LN20@Receive:
; Line 138
	mov	eax, DWORD PTR _pmt$[ebp]
	add	eax, 16					; 00000010H
	push	eax
	lea	ecx, DWORD PTR _fccOut$[ebp]
	call	?SetFOURCC@FOURCCMap@@QAEXPBU_GUID@@@Z	; FOURCCMap::SetFOURCC
; Line 139
	mov	ecx, DWORD PTR _pmt$[ebp]
	mov	edx, DWORD PTR [ecx+68]
	mov	eax, DWORD PTR [edx+64]
	mov	DWORD PTR _lCompression$81601[ebp], eax
; Line 140
	mov	ecx, DWORD PTR _pmt$[ebp]
	mov	edx, DWORD PTR [ecx+68]
	movzx	eax, WORD PTR [edx+62]
	mov	DWORD PTR _lBitCount$81603[ebp], eax
; Line 141
	mov	ecx, DWORD PTR _pmt$[ebp]
	mov	edx, DWORD PTR [ecx+68]
	mov	eax, DWORD PTR [edx+52]
	imul	eax, DWORD PTR _lBitCount$81603[ebp]
	add	eax, 7
	cdq
	and	edx, 7
	add	eax, edx
	sar	eax, 3
	mov	DWORD PTR _lStride$81605[ebp], eax
; Line 142
	mov	eax, DWORD PTR _lStride$81605[ebp]
	add	eax, 3
	and	eax, -4					; fffffffcH
	mov	DWORD PTR _lStride$81605[ebp], eax
; Line 143
	push	OFFSET $SG81607
	push	3
	push	2
	call	?DbgLogInfo@@YAXKKPB_WZZ		; DbgLogInfo
	add	esp, 12					; 0000000cH
; Line 145
	mov	ecx, DWORD PTR _lBitCount$81603[ebp]
	push	ecx
	mov	edx, DWORD PTR _lCompression$81601[ebp]
	push	edx
	lea	ecx, DWORD PTR _fccOut$[ebp]
	call	?GetFOURCC@FOURCCMap@@QAEKXZ		; FOURCCMap::GetFOURCC
	push	eax
	push	OFFSET $SG81608
	push	3
	push	2
	call	?DbgLogInfo@@YAXKKPB_WZZ		; DbgLogInfo
	add	esp, 24					; 00000018H
; Line 148
	mov	eax, DWORD PTR _pmt$[ebp]
	mov	ecx, DWORD PTR [eax+68]
	mov	edx, DWORD PTR [ecx+28]
	push	edx
	mov	eax, DWORD PTR _pmt$[ebp]
	mov	ecx, DWORD PTR [eax+68]
	mov	edx, DWORD PTR [ecx+24]
	push	edx
	mov	eax, DWORD PTR _pmt$[ebp]
	mov	ecx, DWORD PTR [eax+68]
	mov	edx, DWORD PTR [ecx+20]
	push	edx
	mov	eax, DWORD PTR _pmt$[ebp]
	mov	ecx, DWORD PTR [eax+68]
	mov	edx, DWORD PTR [ecx+16]
	push	edx
	mov	eax, DWORD PTR _pmt$[ebp]
	mov	ecx, DWORD PTR [eax+68]
	mov	edx, DWORD PTR [ecx+56]
	push	edx
	push	OFFSET $SG81614
	push	3
	push	2
	call	?DbgLogInfo@@YAXKKPB_WZZ		; DbgLogInfo
	add	esp, 32					; 00000020H
; Line 151
	mov	eax, DWORD PTR _lStride$81605[ebp]
	push	eax
	mov	ecx, DWORD PTR _pmt$[ebp]
	mov	edx, DWORD PTR [ecx+68]
	mov	eax, DWORD PTR [edx+12]
	push	eax
	mov	ecx, DWORD PTR _pmt$[ebp]
	mov	edx, DWORD PTR [ecx+68]
	mov	eax, DWORD PTR [edx+8]
	push	eax
	mov	ecx, DWORD PTR _pmt$[ebp]
	mov	edx, DWORD PTR [ecx+68]
	mov	eax, DWORD PTR [edx+4]
	push	eax
	mov	ecx, DWORD PTR _pmt$[ebp]
	mov	edx, DWORD PTR [ecx+68]
	mov	eax, DWORD PTR [edx]
	push	eax
	push	OFFSET $SG81619
	push	3
	push	2
	call	?DbgLogInfo@@YAXKKPB_WZZ		; DbgLogInfo
	add	esp, 32					; 00000020H
; Line 158
	mov	ecx, DWORD PTR _this$[ebp]
	mov	edx, DWORD PTR [ecx]
	mov	esi, esp
	mov	ecx, DWORD PTR _this$[ebp]
	mov	eax, DWORD PTR [edx+60]
	call	eax
	cmp	esi, esp
	call	__RTC_CheckEsp
; Line 159
	mov	ecx, DWORD PTR _pmt$[ebp]
	push	ecx
	mov	edx, DWORD PTR _this$[ebp]
	mov	ecx, DWORD PTR [edx+164]
	call	?CurrentMediaType@CTransformInputPin@@QAEAAVCMediaType@@XZ ; CTransformInputPin::CurrentMediaType
	mov	ecx, eax
	call	??4CMediaType@@QAEAAV0@ABU_AMMediaType@@@Z ; CMediaType::operator=
; Line 160
	mov	eax, DWORD PTR _pmt$[ebp]
	push	eax
	call	?DeleteMediaType@@YGXPAU_AMMediaType@@@Z ; DeleteMediaType
; Line 162
	mov	ecx, DWORD PTR _this$[ebp]
	mov	edx, DWORD PTR [ecx]
	mov	esi, esp
	mov	ecx, DWORD PTR _this$[ebp]
	mov	eax, DWORD PTR [edx+56]
	call	eax
	cmp	esi, esp
	call	__RTC_CheckEsp
	mov	DWORD PTR _hr$[ebp], eax
; Line 163
	cmp	DWORD PTR _hr$[ebp], 0
	jge	SHORT $LN21@Receive
; Line 164
	mov	ecx, DWORD PTR _hr$[ebp]
	push	ecx
	mov	ecx, DWORD PTR _this$[ebp]
	call	?AbortPlayback@CVideoTransformFilter@@IAEJJ@Z ; CVideoTransformFilter::AbortPlayback
	jmp	$LN25@Receive
$LN21@Receive:
; Line 171
	mov	edx, DWORD PTR _pSample$[ebp]
	push	edx
	mov	ecx, DWORD PTR _this$[ebp]
	call	?ShouldSkipFrame@CVideoTransformFilter@@IAEHPAUIMediaSample@@@Z ; CVideoTransformFilter::ShouldSkipFrame
	test	eax, eax
	je	SHORT $LN18@Receive
; Line 173
	mov	eax, DWORD PTR _this$[ebp]
	mov	DWORD PTR [eax+84], 1
; Line 174
	xor	eax, eax
	jmp	$LN25@Receive
$LN18@Receive:
; Line 178
	lea	ecx, DWORD PTR _pOutSample$[ebp]
	push	ecx
	mov	edx, DWORD PTR _pSample$[ebp]
	push	edx
	mov	ecx, DWORD PTR _this$[ebp]
	call	?InitializeOutputSample@CTransformFilter@@QAEJPAUIMediaSample@@PAPAU2@@Z ; CTransformFilter::InitializeOutputSample
	mov	DWORD PTR _hr$[ebp], eax
; Line 180
	cmp	DWORD PTR _hr$[ebp], 0
	jge	SHORT $LN17@Receive
; Line 181
	mov	eax, DWORD PTR _hr$[ebp]
	jmp	$LN25@Receive
$LN17@Receive:
; Line 184
	mov	eax, DWORD PTR _this$[ebp]
	mov	DWORD PTR [eax+84], 0
; Line 192
	mov	esi, esp
	lea	ecx, DWORD PTR _pmtOut$[ebp]
	push	ecx
	mov	edx, DWORD PTR _pOutSample$[ebp]
	mov	eax, DWORD PTR [edx]
	mov	ecx, DWORD PTR _pOutSample$[ebp]
	push	ecx
	mov	edx, DWORD PTR [eax+52]
	call	edx
	cmp	esi, esp
	call	__RTC_CheckEsp
; Line 193
	cmp	DWORD PTR _pmtOut$[ebp], 0
	je	$LN16@Receive
	mov	eax, DWORD PTR _pmtOut$[ebp]
	cmp	DWORD PTR [eax+68], 0
	je	$LN16@Receive
; Line 196
	push	OFFSET _GUID_NULL
	mov	ecx, DWORD PTR _pmtOut$[ebp]
	push	ecx
	call	_IsEqualGUID@8
	test	eax, eax
	je	SHORT $LN15@Receive
	push	196					; 000000c4H
	push	OFFSET $SG81628
	push	OFFSET $SG81629
	call	?DbgAssert@@YGXPB_W0H@Z			; DbgAssert
$LN15@Receive:
; Line 198
	mov	edx, DWORD PTR _pmtOut$[ebp]
	add	edx, 16					; 00000010H
	push	edx
	lea	ecx, DWORD PTR _fccOut$[ebp]
	call	?SetFOURCC@FOURCCMap@@QAEXPBU_GUID@@@Z	; FOURCCMap::SetFOURCC
; Line 199
	mov	eax, DWORD PTR _pmtOut$[ebp]
	mov	ecx, DWORD PTR [eax+68]
	mov	edx, DWORD PTR [ecx+64]
	mov	DWORD PTR _lCompression$81630[ebp], edx
; Line 200
	mov	eax, DWORD PTR _pmtOut$[ebp]
	mov	ecx, DWORD PTR [eax+68]
	movzx	edx, WORD PTR [ecx+62]
	mov	DWORD PTR _lBitCount$81632[ebp], edx
; Line 201
	mov	eax, DWORD PTR _pmtOut$[ebp]
	mov	ecx, DWORD PTR [eax+68]
	mov	eax, DWORD PTR [ecx+52]
	imul	eax, DWORD PTR _lBitCount$81632[ebp]
	add	eax, 7
	cdq
	and	edx, 7
	add	eax, edx
	sar	eax, 3
	mov	DWORD PTR _lStride$81634[ebp], eax
; Line 202
	mov	edx, DWORD PTR _lStride$81634[ebp]
	add	edx, 3
	and	edx, -4					; fffffffcH
	mov	DWORD PTR _lStride$81634[ebp], edx
; Line 203
	push	OFFSET $SG81636
	push	3
	push	2
	call	?DbgLogInfo@@YAXKKPB_WZZ		; DbgLogInfo
	add	esp, 12					; 0000000cH
; Line 205
	mov	eax, DWORD PTR _lBitCount$81632[ebp]
	push	eax
	mov	ecx, DWORD PTR _lCompression$81630[ebp]
	push	ecx
	lea	ecx, DWORD PTR _fccOut$[ebp]
	call	?GetFOURCC@FOURCCMap@@QAEKXZ		; FOURCCMap::GetFOURCC
	push	eax
	push	OFFSET $SG81637
	push	3
	push	2
	call	?DbgLogInfo@@YAXKKPB_WZZ		; DbgLogInfo
	add	esp, 24					; 00000018H
; Line 208
	mov	edx, DWORD PTR _pmtOut$[ebp]
	mov	eax, DWORD PTR [edx+68]
	mov	ecx, DWORD PTR [eax+28]
	push	ecx
	mov	edx, DWORD PTR _pmtOut$[ebp]
	mov	eax, DWORD PTR [edx+68]
	mov	ecx, DWORD PTR [eax+24]
	push	ecx
	mov	edx, DWORD PTR _pmtOut$[ebp]
	mov	eax, DWORD PTR [edx+68]
	mov	ecx, DWORD PTR [eax+20]
	push	ecx
	mov	edx, DWORD PTR _pmtOut$[ebp]
	mov	eax, DWORD PTR [edx+68]
	mov	ecx, DWORD PTR [eax+16]
	push	ecx
	mov	edx, DWORD PTR _pmtOut$[ebp]
	mov	eax, DWORD PTR [edx+68]
	mov	ecx, DWORD PTR [eax+56]
	push	ecx
	push	OFFSET $SG81643
	push	3
	push	2
	call	?DbgLogInfo@@YAXKKPB_WZZ		; DbgLogInfo
	add	esp, 32					; 00000020H
; Line 211
	mov	edx, DWORD PTR _lStride$81634[ebp]
	push	edx
	mov	eax, DWORD PTR _pmtOut$[ebp]
	mov	ecx, DWORD PTR [eax+68]
	mov	edx, DWORD PTR [ecx+12]
	push	edx
	mov	eax, DWORD PTR _pmtOut$[ebp]
	mov	ecx, DWORD PTR [eax+68]
	mov	edx, DWORD PTR [ecx+8]
	push	edx
	mov	eax, DWORD PTR _pmtOut$[ebp]
	mov	ecx, DWORD PTR [eax+68]
	mov	edx, DWORD PTR [ecx+4]
	push	edx
	mov	eax, DWORD PTR _pmtOut$[ebp]
	mov	ecx, DWORD PTR [eax+68]
	mov	edx, DWORD PTR [ecx]
	push	edx
	push	OFFSET $SG81648
	push	3
	push	2
	call	?DbgLogInfo@@YAXKKPB_WZZ		; DbgLogInfo
	add	esp, 32					; 00000020H
; Line 218
	mov	eax, DWORD PTR _this$[ebp]
	mov	edx, DWORD PTR [eax]
	mov	esi, esp
	mov	ecx, DWORD PTR _this$[ebp]
	mov	eax, DWORD PTR [edx+60]
	call	eax
	cmp	esi, esp
	call	__RTC_CheckEsp
; Line 219
	mov	ecx, DWORD PTR _pmtOut$[ebp]
	push	ecx
	mov	edx, DWORD PTR _this$[ebp]
	mov	ecx, DWORD PTR [edx+168]
	call	?CurrentMediaType@CTransformOutputPin@@QAEAAVCMediaType@@XZ ; CTransformOutputPin::CurrentMediaType
	mov	ecx, eax
	call	??4CMediaType@@QAEAAV0@ABU_AMMediaType@@@Z ; CMediaType::operator=
; Line 220
	mov	eax, DWORD PTR _pmtOut$[ebp]
	push	eax
	call	?DeleteMediaType@@YGXPAU_AMMediaType@@@Z ; DeleteMediaType
; Line 221
	mov	ecx, DWORD PTR _this$[ebp]
	mov	edx, DWORD PTR [ecx]
	mov	esi, esp
	mov	ecx, DWORD PTR _this$[ebp]
	mov	eax, DWORD PTR [edx+56]
	call	eax
	cmp	esi, esp
	call	__RTC_CheckEsp
	mov	DWORD PTR _hr$[ebp], eax
; Line 223
	cmp	DWORD PTR _hr$[ebp], 0
	jl	SHORT $LN14@Receive
; Line 227
	push	OFFSET $SG81651
	push	3
	push	2
	call	?DbgLogInfo@@YAXKKPB_WZZ		; DbgLogInfo
	add	esp, 12					; 0000000cH
; Line 228
	mov	ecx, DWORD PTR _this$[ebp]
	mov	DWORD PTR [ecx+208], 30			; 0000001eH
; Line 231
	jmp	SHORT $LN16@Receive
$LN14@Receive:
; Line 236
	mov	edx, DWORD PTR _pOutSample$[ebp]
	mov	eax, DWORD PTR [edx]
	mov	esi, esp
	mov	ecx, DWORD PTR _pOutSample$[ebp]
	push	ecx
	mov	edx, DWORD PTR [eax+8]
	call	edx
	cmp	esi, esp
	call	__RTC_CheckEsp
; Line 237
	mov	eax, DWORD PTR _hr$[ebp]
	push	eax
	mov	ecx, DWORD PTR _this$[ebp]
	call	?AbortPlayback@CVideoTransformFilter@@IAEJJ@Z ; CVideoTransformFilter::AbortPlayback
; Line 238
	mov	eax, DWORD PTR _hr$[ebp]
	jmp	$LN25@Receive
$LN16@Receive:
; Line 243
	mov	ecx, DWORD PTR _pSample$[ebp]
	mov	edx, DWORD PTR [ecx]
	mov	esi, esp
	mov	eax, DWORD PTR _pSample$[ebp]
	push	eax
	mov	ecx, DWORD PTR [edx+60]
	call	ecx
	cmp	esi, esp
	call	__RTC_CheckEsp
	test	eax, eax
	jne	SHORT $LN12@Receive
; Line 244
	push	OFFSET $SG81655
	push	3
	push	2
	call	?DbgLogInfo@@YAXKKPB_WZZ		; DbgLogInfo
	add	esp, 12					; 0000000cH
; Line 245
	mov	edx, DWORD PTR _this$[ebp]
	mov	DWORD PTR [edx+208], 30			; 0000001eH
$LN12@Receive:
; Line 250
	cmp	DWORD PTR _hr$[ebp], 0
	jl	$LN11@Receive
; Line 251
	mov	esi, esp
	call	DWORD PTR __imp__timeGetTime@0
	cmp	esi, esp
	call	__RTC_CheckEsp
	mov	ecx, DWORD PTR _this$[ebp]
	mov	DWORD PTR [ecx+192], eax
; Line 255
	mov	esi, esp
	mov	edx, DWORD PTR _pOutSample$[ebp]
	push	edx
	mov	eax, DWORD PTR _pSample$[ebp]
	push	eax
	mov	ecx, DWORD PTR _this$[ebp]
	mov	edx, DWORD PTR [ecx]
	mov	ecx, DWORD PTR _this$[ebp]
	mov	eax, DWORD PTR [edx+36]
	call	eax
	cmp	esi, esp
	call	__RTC_CheckEsp
	mov	DWORD PTR _hr$[ebp], eax
; Line 259
	mov	esi, esp
	call	DWORD PTR __imp__timeGetTime@0
	cmp	esi, esp
	call	__RTC_CheckEsp
	mov	ecx, DWORD PTR _this$[ebp]
	sub	eax, DWORD PTR [ecx+192]
	mov	edx, DWORD PTR _this$[ebp]
	mov	DWORD PTR [edx+192], eax
; Line 260
	mov	eax, DWORD PTR _this$[ebp]
	mov	ecx, DWORD PTR [eax+192]
	imul	ecx, 625				; 00000271H
	mov	edx, DWORD PTR _this$[ebp]
	mov	eax, DWORD PTR [edx+196]
	cdq
	and	edx, 15					; 0000000fH
	add	eax, edx
	sar	eax, 4
	imul	eax, 15					; 0000000fH
	add	ecx, eax
	mov	eax, DWORD PTR _this$[ebp]
	mov	DWORD PTR [eax+196], ecx
; Line 263
	mov	ecx, DWORD PTR _this$[ebp]
	cmp	DWORD PTR [ecx+208], 0
	je	SHORT $LN10@Receive
; Line 264
	mov	edx, DWORD PTR _this$[ebp]
	mov	eax, DWORD PTR [edx+208]
	sub	eax, 1
	mov	ecx, DWORD PTR _this$[ebp]
	mov	DWORD PTR [ecx+208], eax
$LN10@Receive:
; Line 265
	mov	edx, DWORD PTR _this$[ebp]
	cmp	DWORD PTR [edx+208], 0
	je	SHORT $LN9@Receive
	mov	eax, DWORD PTR _pSample$[ebp]
	mov	ecx, DWORD PTR [eax]
	mov	esi, esp
	mov	edx, DWORD PTR _pSample$[ebp]
	push	edx
	mov	eax, DWORD PTR [ecx+28]
	call	eax
	cmp	esi, esp
	call	__RTC_CheckEsp
	test	eax, eax
	jne	SHORT $LN9@Receive
; Line 266
	mov	ecx, DWORD PTR _this$[ebp]
	mov	DWORD PTR [ecx+208], 0
$LN9@Receive:
; Line 269
	mov	edx, DWORD PTR _this$[ebp]
	cmp	DWORD PTR [edx+208], 0
	je	SHORT $LN11@Receive
	cmp	DWORD PTR _hr$[ebp], 0
	jne	SHORT $LN11@Receive
; Line 270
	push	OFFSET $SG81664
	push	3
	push	2
	call	?DbgLogInfo@@YAXKKPB_WZZ		; DbgLogInfo
	add	esp, 12					; 0000000cH
; Line 271
	mov	DWORD PTR _hr$[ebp], 1
$LN11@Receive:
; Line 275
	cmp	DWORD PTR _hr$[ebp], 0
	jge	SHORT $LN7@Receive
; Line 276
	push	OFFSET $SG81668
	push	1
	push	2
	call	?DbgLogInfo@@YAXKKPB_WZZ		; DbgLogInfo
	add	esp, 12					; 0000000cH
; Line 277
	jmp	$LN6@Receive
$LN7@Receive:
; Line 284
	cmp	DWORD PTR _hr$[ebp], 0
	jne	SHORT $LN5@Receive
; Line 285
	mov	esi, esp
	mov	eax, DWORD PTR _pOutSample$[ebp]
	push	eax
	mov	ecx, DWORD PTR _this$[ebp]
	mov	edx, DWORD PTR [ecx+168]
	mov	eax, DWORD PTR _this$[ebp]
	mov	ecx, DWORD PTR [eax+168]
	mov	edx, DWORD PTR [edx]
	mov	eax, DWORD PTR [edx+68]
	call	eax
	cmp	esi, esp
	call	__RTC_CheckEsp
	mov	DWORD PTR _hr$[ebp], eax
; Line 286
	jmp	SHORT $LN6@Receive
$LN5@Receive:
; Line 291
	cmp	DWORD PTR _hr$[ebp], 1
	jne	SHORT $LN6@Receive
; Line 297
	mov	ecx, DWORD PTR _pOutSample$[ebp]
	mov	edx, DWORD PTR [ecx]
	mov	esi, esp
	mov	eax, DWORD PTR _pOutSample$[ebp]
	push	eax
	mov	ecx, DWORD PTR [edx+8]
	call	ecx
	cmp	esi, esp
	call	__RTC_CheckEsp
; Line 298
	mov	edx, DWORD PTR _this$[ebp]
	mov	DWORD PTR [edx+84], 1
; Line 299
	mov	eax, DWORD PTR _this$[ebp]
	cmp	DWORD PTR [eax+204], 0
	jne	SHORT $LN2@Receive
; Line 300
	mov	ecx, DWORD PTR _this$[ebp]
	mov	DWORD PTR [ecx+204], 1
; Line 301
	push	0
	push	0
	push	11					; 0000000bH
	mov	ecx, DWORD PTR _this$[ebp]
	call	?NotifyEvent@CBaseFilter@@QAEJJJJ@Z	; CBaseFilter::NotifyEvent
$LN2@Receive:
; Line 303
	xor	eax, eax
	jmp	SHORT $LN25@Receive
$LN6@Receive:
; Line 310
	mov	edx, DWORD PTR _pOutSample$[ebp]
	mov	eax, DWORD PTR [edx]
	mov	esi, esp
	mov	ecx, DWORD PTR _pOutSample$[ebp]
	push	ecx
	mov	edx, DWORD PTR [eax+8]
	call	edx
	cmp	esi, esp
	call	__RTC_CheckEsp
; Line 311
	mov	eax, DWORD PTR _this$[ebp]
	add	eax, 128				; 00000080H
	push	eax
	call	?CritCheckIn@@YGHPAVCCritSec@@@Z	; CritCheckIn
	test	eax, eax
	jne	SHORT $LN1@Receive
	push	311					; 00000137H
	push	OFFSET $SG81676
	push	OFFSET $SG81677
	call	?DbgAssert@@YGXPB_W0H@Z			; DbgAssert
$LN1@Receive:
; Line 313
	mov	eax, DWORD PTR _hr$[ebp]
$LN25@Receive:
; Line 314
	push	edx
	mov	ecx, ebp
	push	eax
	lea	edx, DWORD PTR $LN32@Receive
	call	@_RTC_CheckStackVars@8
	pop	eax
	pop	edx
	pop	edi
	pop	esi
	mov	ecx, DWORD PTR __$ArrayPad$[ebp]
	xor	ecx, ebp
	call	@__security_check_cookie@4
	add	esp, 96					; 00000060H
	cmp	ebp, esp
	call	__RTC_CheckEsp
	mov	esp, ebp
	pop	ebp
	ret	4
	npad	2
$LN32@Receive:
	DD	4
	DD	$LN31@Receive
$LN31@Receive:
	DD	-16					; fffffff0H
	DD	4
	DD	$LN27@Receive
	DD	-28					; ffffffe4H
	DD	4
	DD	$LN28@Receive
	DD	-52					; ffffffccH
	DD	16					; 00000010H
	DD	$LN29@Receive
	DD	-68					; ffffffbcH
	DD	4
	DD	$LN30@Receive
$LN30@Receive:
	DB	112					; 00000070H
	DB	79					; 0000004fH
	DB	117					; 00000075H
	DB	116					; 00000074H
	DB	83					; 00000053H
	DB	97					; 00000061H
	DB	109					; 0000006dH
	DB	112					; 00000070H
	DB	108					; 0000006cH
	DB	101					; 00000065H
	DB	0
$LN29@Receive:
	DB	102					; 00000066H
	DB	99					; 00000063H
	DB	99					; 00000063H
	DB	79					; 0000004fH
	DB	117					; 00000075H
	DB	116					; 00000074H
	DB	0
$LN28@Receive:
	DB	112					; 00000070H
	DB	109					; 0000006dH
	DB	116					; 00000074H
	DB	0
$LN27@Receive:
	DB	112					; 00000070H
	DB	109					; 0000006dH
	DB	116					; 00000074H
	DB	79					; 0000004fH
	DB	117					; 00000075H
	DB	116					; 00000074H
	DB	0
?Receive@CVideoTransformFilter@@MAEJPAUIMediaSample@@@Z ENDP ; CVideoTransformFilter::Receive
_TEXT	ENDS
EXTRN	_memcmp:PROC
; Function compile flags: /Odtp /RTCsu
;	COMDAT _IsEqualGUID@8
_TEXT	SEGMENT
_rguid1$ = 8						; size = 4
_rguid2$ = 12						; size = 4
_IsEqualGUID@8 PROC					; COMDAT
; File c:\program files (x86)\microsoft sdks\windows\v7.0a\include\guiddef.h
; Line 160
	push	ebp
	mov	ebp, esp
; Line 161
	push	16					; 00000010H
	mov	eax, DWORD PTR _rguid2$[ebp]
	push	eax
	mov	ecx, DWORD PTR _rguid1$[ebp]
	push	ecx
	call	_memcmp
	add	esp, 12					; 0000000cH
	neg	eax
	sbb	eax, eax
	add	eax, 1
; Line 162
	cmp	ebp, esp
	call	__RTC_CheckEsp
	pop	ebp
	ret	8
_IsEqualGUID@8 ENDP
_TEXT	ENDS
PUBLIC	?SetFOURCC@FOURCCMap@@QAEXK@Z			; FOURCCMap::SetFOURCC
PUBLIC	?InitGUID@FOURCCMap@@AAEXXZ			; FOURCCMap::InitGUID
; Function compile flags: /Odtp /RTCsu
;	COMDAT ??0FOURCCMap@@QAE@XZ
_TEXT	SEGMENT
_this$ = -4						; size = 4
??0FOURCCMap@@QAE@XZ PROC				; FOURCCMap::FOURCCMap, COMDAT
; _this$ = ecx
; File c:\downloads\mediapoint\src\filters\baseclasses\fourcc.h
; Line 62
	push	ebp
	mov	ebp, esp
	push	ecx
	mov	DWORD PTR [ebp-4], -858993460		; ccccccccH
	mov	DWORD PTR _this$[ebp], ecx
; Line 63
	mov	ecx, DWORD PTR _this$[ebp]
	call	?InitGUID@FOURCCMap@@AAEXXZ		; FOURCCMap::InitGUID
; Line 64
	push	0
	mov	ecx, DWORD PTR _this$[ebp]
	call	?SetFOURCC@FOURCCMap@@QAEXK@Z		; FOURCCMap::SetFOURCC
; Line 65
	mov	eax, DWORD PTR _this$[ebp]
	add	esp, 4
	cmp	ebp, esp
	call	__RTC_CheckEsp
	mov	esp, ebp
	pop	ebp
	ret	0
??0FOURCCMap@@QAE@XZ ENDP				; FOURCCMap::FOURCCMap
; Function compile flags: /Odtp /RTCsu
_TEXT	ENDS
;	COMDAT ?InitGUID@FOURCCMap@@AAEXXZ
_TEXT	SEGMENT
_this$ = -4						; size = 4
?InitGUID@FOURCCMap@@AAEXXZ PROC			; FOURCCMap::InitGUID, COMDAT
; _this$ = ecx
; Line 54
	push	ebp
	mov	ebp, esp
	push	ecx
	mov	DWORD PTR [ebp-4], -858993460		; ccccccccH
	mov	DWORD PTR _this$[ebp], ecx
; Line 55
	xor	eax, eax
	mov	ecx, DWORD PTR _this$[ebp]
	mov	WORD PTR [ecx+4], ax
; Line 56
	mov	edx, 16					; 00000010H
	mov	eax, DWORD PTR _this$[ebp]
	mov	WORD PTR [eax+6], dx
; Line 57
	mov	ecx, DWORD PTR _this$[ebp]
	mov	DWORD PTR [ecx+8], -1442840448		; aa000080H
; Line 58
	mov	edx, DWORD PTR _this$[ebp]
	mov	DWORD PTR [edx+12], 1905997824		; 719b3800H
; Line 59
	mov	esp, ebp
	pop	ebp
	ret	0
?InitGUID@FOURCCMap@@AAEXXZ ENDP			; FOURCCMap::InitGUID
; Function compile flags: /Odtp /RTCsu
_TEXT	ENDS
;	COMDAT ?SetFOURCC@FOURCCMap@@QAEXPBU_GUID@@@Z
_TEXT	SEGMENT
_p$ = -8						; size = 4
_this$ = -4						; size = 4
_pGuid$ = 8						; size = 4
?SetFOURCC@FOURCCMap@@QAEXPBU_GUID@@@Z PROC		; FOURCCMap::SetFOURCC, COMDAT
; _this$ = ecx
; Line 83
	push	ebp
	mov	ebp, esp
	sub	esp, 8
	mov	DWORD PTR [ebp-8], -858993460		; ccccccccH
	mov	DWORD PTR [ebp-4], -858993460		; ccccccccH
	mov	DWORD PTR _this$[ebp], ecx
; Line 84
	mov	eax, DWORD PTR _pGuid$[ebp]
	mov	DWORD PTR _p$[ebp], eax
; Line 85
	mov	ecx, DWORD PTR _p$[ebp]
	call	?GetFOURCC@FOURCCMap@@QAEKXZ		; FOURCCMap::GetFOURCC
	push	eax
	mov	ecx, DWORD PTR _this$[ebp]
	call	?SetFOURCC@FOURCCMap@@QAEXK@Z		; FOURCCMap::SetFOURCC
; Line 86
	add	esp, 8
	cmp	ebp, esp
	call	__RTC_CheckEsp
	mov	esp, ebp
	pop	ebp
	ret	4
?SetFOURCC@FOURCCMap@@QAEXPBU_GUID@@@Z ENDP		; FOURCCMap::SetFOURCC
; Function compile flags: /Odtp /RTCsu
_TEXT	ENDS
;	COMDAT ?SetFOURCC@FOURCCMap@@QAEXK@Z
_TEXT	SEGMENT
_this$ = -4						; size = 4
_fourcc$ = 8						; size = 4
?SetFOURCC@FOURCCMap@@QAEXK@Z PROC			; FOURCCMap::SetFOURCC, COMDAT
; _this$ = ecx
; Line 90
	push	ebp
	mov	ebp, esp
	push	ecx
	mov	DWORD PTR [ebp-4], -858993460		; ccccccccH
	mov	DWORD PTR _this$[ebp], ecx
; Line 91
	mov	eax, DWORD PTR _this$[ebp]
	mov	ecx, DWORD PTR _fourcc$[ebp]
	mov	DWORD PTR [eax], ecx
; Line 92
	mov	esp, ebp
	pop	ebp
	ret	4
?SetFOURCC@FOURCCMap@@QAEXK@Z ENDP			; FOURCCMap::SetFOURCC
; Function compile flags: /Odtp /RTCsu
_TEXT	ENDS
;	COMDAT ?GetFOURCC@FOURCCMap@@QAEKXZ
_TEXT	SEGMENT
_this$ = -4						; size = 4
?GetFOURCC@FOURCCMap@@QAEKXZ PROC			; FOURCCMap::GetFOURCC, COMDAT
; _this$ = ecx
; Line 96
	push	ebp
	mov	ebp, esp
	push	ecx
	mov	DWORD PTR [ebp-4], -858993460		; ccccccccH
	mov	DWORD PTR _this$[ebp], ecx
; Line 97
	mov	eax, DWORD PTR _this$[ebp]
	mov	eax, DWORD PTR [eax]
; Line 98
	mov	esp, ebp
	pop	ebp
	ret	0
?GetFOURCC@FOURCCMap@@QAEKXZ ENDP			; FOURCCMap::GetFOURCC
; Function compile flags: /Odtp /RTCsu
_TEXT	ENDS
;	COMDAT ?CurrentMediaType@CTransformInputPin@@QAEAAVCMediaType@@XZ
_TEXT	SEGMENT
_this$ = -4						; size = 4
?CurrentMediaType@CTransformInputPin@@QAEAAVCMediaType@@XZ PROC ; CTransformInputPin::CurrentMediaType, COMDAT
; _this$ = ecx
; File c:\downloads\mediapoint\src\filters\baseclasses\transfrm.h
; Line 100
	push	ebp
	mov	ebp, esp
	push	ecx
	mov	DWORD PTR [ebp-4], -858993460		; ccccccccH
	mov	DWORD PTR _this$[ebp], ecx
	mov	eax, DWORD PTR _this$[ebp]
	add	eax, 56					; 00000038H
	mov	esp, ebp
	pop	ebp
	ret	0
?CurrentMediaType@CTransformInputPin@@QAEAAVCMediaType@@XZ ENDP ; CTransformInputPin::CurrentMediaType
; Function compile flags: /Odtp /RTCsu
_TEXT	ENDS
;	COMDAT ?CurrentMediaType@CTransformOutputPin@@QAEAAVCMediaType@@XZ
_TEXT	SEGMENT
_this$ = -4						; size = 4
?CurrentMediaType@CTransformOutputPin@@QAEAAVCMediaType@@XZ PROC ; CTransformOutputPin::CurrentMediaType, COMDAT
; _this$ = ecx
; Line 170
	push	ebp
	mov	ebp, esp
	push	ecx
	mov	DWORD PTR [ebp-4], -858993460		; ccccccccH
	mov	DWORD PTR _this$[ebp], ecx
	mov	eax, DWORD PTR _this$[ebp]
	add	eax, 56					; 00000038H
	mov	esp, ebp
	pop	ebp
	ret	0
?CurrentMediaType@CTransformOutputPin@@QAEAAVCMediaType@@XZ ENDP ; CTransformOutputPin::CurrentMediaType
; Function compile flags: /Odtp /RTCsu
_TEXT	ENDS
;	COMDAT ?ShouldSkipFrame@CVideoTransformFilter@@IAEHPAUIMediaSample@@@Z
_TEXT	SEGMENT
_it$81699 = -48						; size = 4
_itrFrame$ = -44					; size = 4
_hr$ = -40						; size = 4
_trStopAt$ = -32					; size = 8
_trStart$ = -16						; size = 8
_this$ = -4						; size = 4
_pIn$ = 8						; size = 4
?ShouldSkipFrame@CVideoTransformFilter@@IAEHPAUIMediaSample@@@Z PROC ; CVideoTransformFilter::ShouldSkipFrame, COMDAT
; _this$ = ecx
; File c:\downloads\mediapoint\src\filters\baseclasses\vtrans.cpp
; Line 319
	push	ebp
	mov	ebp, esp
	sub	esp, 48					; 00000030H
	push	esi
	push	edi
	push	ecx
	lea	edi, DWORD PTR [ebp-48]
	mov	ecx, 12					; 0000000cH
	mov	eax, -858993460				; ccccccccH
	rep stosd
	pop	ecx
	mov	DWORD PTR _this$[ebp], ecx
; Line 321
	mov	esi, esp
	lea	eax, DWORD PTR _trStopAt$[ebp]
	push	eax
	lea	ecx, DWORD PTR _trStart$[ebp]
	push	ecx
	mov	edx, DWORD PTR _pIn$[ebp]
	mov	eax, DWORD PTR [edx]
	mov	ecx, DWORD PTR _pIn$[ebp]
	push	ecx
	mov	edx, DWORD PTR [eax+20]
	call	edx
	cmp	esi, esp
	call	__RTC_CheckEsp
	mov	DWORD PTR _hr$[ebp], eax
; Line 324
	cmp	DWORD PTR _hr$[ebp], 0
	je	SHORT $LN16@ShouldSkip
; Line 325
	xor	eax, eax
	jmp	$LN17@ShouldSkip
$LN16@ShouldSkip:
; Line 327
	mov	eax, DWORD PTR _trStopAt$[ebp]
	sub	eax, DWORD PTR _trStart$[ebp]
	mov	ecx, DWORD PTR _trStopAt$[ebp+4]
	sbb	ecx, DWORD PTR _trStart$[ebp+4]
	mov	DWORD PTR _itrFrame$[ebp], eax
; Line 329
	mov	edx, DWORD PTR _pIn$[ebp]
	mov	eax, DWORD PTR [edx]
	mov	esi, esp
	mov	ecx, DWORD PTR _pIn$[ebp]
	push	ecx
	mov	edx, DWORD PTR [eax+28]
	call	edx
	cmp	esi, esp
	call	__RTC_CheckEsp
	test	eax, eax
	jne	SHORT $LN15@ShouldSkip
; Line 331
	mov	eax, DWORD PTR _this$[ebp]
	mov	ecx, DWORD PTR _this$[ebp]
	mov	edx, DWORD PTR [eax+176]
	cmp	edx, DWORD PTR [ecx+180]
	jge	SHORT $LN14@ShouldSkip
; Line 333
	mov	eax, DWORD PTR _this$[ebp]
	mov	ecx, DWORD PTR _this$[ebp]
	mov	edx, DWORD PTR [ecx+180]
	mov	DWORD PTR [eax+176], edx
$LN14@ShouldSkip:
; Line 335
	mov	eax, DWORD PTR _this$[ebp]
	mov	DWORD PTR [eax+180], 0
; Line 336
	mov	ecx, DWORD PTR _this$[ebp]
	mov	DWORD PTR [ecx+184], 0
; Line 337
	jmp	SHORT $LN13@ShouldSkip
$LN15@ShouldSkip:
; Line 341
	mov	edx, DWORD PTR _this$[ebp]
	mov	eax, DWORD PTR _this$[ebp]
	mov	ecx, DWORD PTR [edx+180]
	cmp	ecx, DWORD PTR [eax+176]
	jle	SHORT $LN13@ShouldSkip
	mov	edx, DWORD PTR _this$[ebp]
	cmp	DWORD PTR [edx+176], 0
	jle	SHORT $LN13@ShouldSkip
; Line 344
	mov	eax, DWORD PTR _this$[ebp]
	mov	ecx, DWORD PTR _this$[ebp]
	mov	edx, DWORD PTR [ecx+180]
	mov	DWORD PTR [eax+176], edx
$LN13@ShouldSkip:
; Line 354
	mov	eax, DWORD PTR _this$[ebp]
	mov	ecx, DWORD PTR [eax+196]
	shl	ecx, 2
	cmp	ecx, DWORD PTR _itrFrame$[ebp]
	jle	SHORT $LN4@ShouldSkip
; Line 358
	mov	edx, DWORD PTR _this$[ebp]
	mov	eax, DWORD PTR [edx+188]
	cmp	eax, DWORD PTR _itrFrame$[ebp]
	jle	SHORT $LN4@ShouldSkip
; Line 373
	mov	ecx, DWORD PTR _this$[ebp]
	cmp	DWORD PTR [ecx+176], 0
	jle	SHORT $LN4@ShouldSkip
; Line 379
	mov	eax, DWORD PTR _itrFrame$[ebp]
	cdq
	mov	ecx, 10000				; 00002710H
	idiv	ecx
	mov	edx, DWORD PTR _this$[ebp]
	mov	ecx, DWORD PTR _this$[ebp]
	mov	edx, DWORD PTR [edx+176]
	sub	edx, DWORD PTR [ecx+180]
	sub	edx, 1
	imul	eax, edx
	mov	DWORD PTR _it$81699[ebp], eax
; Line 388
	mov	eax, DWORD PTR _this$[ebp]
	mov	eax, DWORD PTR [eax+188]
	cdq
	mov	ecx, 10000				; 00002710H
	idiv	ecx
	cmp	eax, DWORD PTR _it$81699[ebp]
	jle	SHORT $LN4@ShouldSkip
; Line 389
	mov	edx, DWORD PTR _this$[ebp]
	mov	DWORD PTR [edx+184], 1
$LN4@ShouldSkip:
; Line 417
	mov	eax, DWORD PTR _this$[ebp]
	mov	ecx, DWORD PTR [eax+180]
	add	ecx, 1
	mov	edx, DWORD PTR _this$[ebp]
	mov	DWORD PTR [edx+180], ecx
; Line 419
	mov	eax, DWORD PTR _this$[ebp]
	cmp	DWORD PTR [eax+184], 0
	je	SHORT $LN3@ShouldSkip
; Line 427
	mov	ecx, DWORD PTR _this$[ebp]
	mov	edx, DWORD PTR [ecx+188]
	sub	edx, DWORD PTR _itrFrame$[ebp]
	mov	eax, DWORD PTR _this$[ebp]
	mov	DWORD PTR [eax+188], edx
$LN3@ShouldSkip:
; Line 431
	mov	ecx, DWORD PTR _this$[ebp]
	cmp	DWORD PTR [ecx+184], 0
	je	SHORT $LN2@ShouldSkip
; Line 432
	mov	edx, DWORD PTR _this$[ebp]
	cmp	DWORD PTR [edx+204], 0
	jne	SHORT $LN2@ShouldSkip
; Line 433
	mov	eax, DWORD PTR _this$[ebp]
	mov	DWORD PTR [eax+204], 1
; Line 434
	push	0
	push	0
	push	11					; 0000000bH
	mov	ecx, DWORD PTR _this$[ebp]
	call	?NotifyEvent@CBaseFilter@@QAEJJJJ@Z	; CBaseFilter::NotifyEvent
$LN2@ShouldSkip:
; Line 437
	mov	ecx, DWORD PTR _this$[ebp]
	mov	eax, DWORD PTR [ecx+184]
$LN17@ShouldSkip:
; Line 438
	push	edx
	mov	ecx, ebp
	push	eax
	lea	edx, DWORD PTR $LN22@ShouldSkip
	call	@_RTC_CheckStackVars@8
	pop	eax
	pop	edx
	pop	edi
	pop	esi
	add	esp, 48					; 00000030H
	cmp	ebp, esp
	call	__RTC_CheckEsp
	mov	esp, ebp
	pop	ebp
	ret	4
	npad	2
$LN22@ShouldSkip:
	DD	2
	DD	$LN21@ShouldSkip
$LN21@ShouldSkip:
	DD	-16					; fffffff0H
	DD	8
	DD	$LN19@ShouldSkip
	DD	-32					; ffffffe0H
	DD	8
	DD	$LN20@ShouldSkip
$LN20@ShouldSkip:
	DB	116					; 00000074H
	DB	114					; 00000072H
	DB	83					; 00000053H
	DB	116					; 00000074H
	DB	111					; 0000006fH
	DB	112					; 00000070H
	DB	65					; 00000041H
	DB	116					; 00000074H
	DB	0
$LN19@ShouldSkip:
	DB	116					; 00000074H
	DB	114					; 00000072H
	DB	83					; 00000053H
	DB	116					; 00000074H
	DB	97					; 00000061H
	DB	114					; 00000072H
	DB	116					; 00000074H
	DB	0
?ShouldSkipFrame@CVideoTransformFilter@@IAEHPAUIMediaSample@@@Z ENDP ; CVideoTransformFilter::ShouldSkipFrame
; Function compile flags: /Odtp /RTCsu
_TEXT	ENDS
;	COMDAT ?AlterQuality@CVideoTransformFilter@@MAEJUtagQuality@@@Z
_TEXT	SEGMENT
_this$ = -4						; size = 4
_q$ = 8							; size = 24
?AlterQuality@CVideoTransformFilter@@MAEJUtagQuality@@@Z PROC ; CVideoTransformFilter::AlterQuality, COMDAT
; _this$ = ecx
; Line 442
	push	ebp
	mov	ebp, esp
	sub	esp, 16					; 00000010H
	mov	eax, -858993460				; ccccccccH
	mov	DWORD PTR [ebp-16], eax
	mov	DWORD PTR [ebp-12], eax
	mov	DWORD PTR [ebp-8], eax
	mov	DWORD PTR [ebp-4], eax
	mov	DWORD PTR _this$[ebp], ecx
; Line 445
	mov	eax, DWORD PTR _this$[ebp]
	cmp	DWORD PTR [eax+188], 300000000		; 11e1a300H
	jle	SHORT $LN2@AlterQuali
; Line 447
	mov	ecx, DWORD PTR _this$[ebp]
	mov	DWORD PTR [ecx+188], 300000000		; 11e1a300H
; Line 448
	jmp	SHORT $LN1@AlterQuali
$LN2@AlterQuali:
; Line 449
	mov	edx, DWORD PTR _q$[ebp+8]
	mov	eax, DWORD PTR _this$[ebp]
	mov	DWORD PTR [eax+188], edx
$LN1@AlterQuali:
; Line 460
	mov	eax, -2147467259			; 80004005H
; Line 462
	push	edx
	mov	ecx, ebp
	push	eax
	lea	edx, DWORD PTR $LN7@AlterQuali
	call	@_RTC_CheckStackVars@8
	pop	eax
	pop	edx
	mov	esp, ebp
	pop	ebp
	ret	24					; 00000018H
$LN7@AlterQuali:
	DD	1
	DD	$LN6@AlterQuali
$LN6@AlterQuali:
	DD	-12					; fffffff4H
	DD	4
	DD	$LN5@AlterQuali
$LN5@AlterQuali:
	DB	95					; 0000005fH
	DB	36					; 00000024H
	DB	65					; 00000041H
	DB	114					; 00000072H
	DB	114					; 00000072H
	DB	97					; 00000061H
	DB	121					; 00000079H
	DB	80					; 00000050H
	DB	97					; 00000061H
	DB	100					; 00000064H
	DB	0
?AlterQuality@CVideoTransformFilter@@MAEJUtagQuality@@@Z ENDP ; CVideoTransformFilter::AlterQuality
; Function compile flags: /Odtp /RTCsu
_TEXT	ENDS
;	COMDAT ?QueryInterface@CBaseFilter@@W3AGJABU_GUID@@PAPAX@Z
_TEXT	SEGMENT
?QueryInterface@CBaseFilter@@W3AGJABU_GUID@@PAPAX@Z PROC ; [thunk]:CBaseFilter::QueryInterface`adjustor{4}', COMDAT
	sub	DWORD PTR [esp+4], 4
	jmp	?QueryInterface@CBaseFilter@@UAGJABU_GUID@@PAPAX@Z ; CBaseFilter::QueryInterface
?QueryInterface@CBaseFilter@@W3AGJABU_GUID@@PAPAX@Z ENDP ; [thunk]:CBaseFilter::QueryInterface`adjustor{4}'
; Function compile flags: /Odtp /RTCsu
_TEXT	ENDS
;	COMDAT ?Release@CBaseFilter@@W3AGKXZ
_TEXT	SEGMENT
?Release@CBaseFilter@@W3AGKXZ PROC			; [thunk]:CBaseFilter::Release`adjustor{4}', COMDAT
	sub	DWORD PTR [esp+4], 4
	jmp	?Release@CBaseFilter@@UAGKXZ		; CBaseFilter::Release
?Release@CBaseFilter@@W3AGKXZ ENDP			; [thunk]:CBaseFilter::Release`adjustor{4}'
; Function compile flags: /Odtp /RTCsu
_TEXT	ENDS
;	COMDAT ?AddRef@CBaseFilter@@W3AGKXZ
_TEXT	SEGMENT
?AddRef@CBaseFilter@@W3AGKXZ PROC			; [thunk]:CBaseFilter::AddRef`adjustor{4}', COMDAT
	sub	DWORD PTR [esp+4], 4
	jmp	?AddRef@CBaseFilter@@UAGKXZ		; CBaseFilter::AddRef
?AddRef@CBaseFilter@@W3AGKXZ ENDP			; [thunk]:CBaseFilter::AddRef`adjustor{4}'
_TEXT	ENDS
END
