; Listing generated by Microsoft (R) Optimizing Compiler Version 16.00.30319.01 

include listing.inc

INCLUDELIB LIBCMTD
INCLUDELIB OLDNAMES

PUBLIC	IID_IAMFilterGraphCallback
CONST	SEGMENT
$SG82239 DB	'F', 00H, 'o', 00H, 'r', 00H, 'w', 00H, 'a', 00H, 'r', 00H
	DB	'd', 00H, 'i', 00H, 'n', 00H, 'g', 00H, ' ', 00H, '%', 00H, 'x'
	DB	00H, ' ', 00H, 't', 00H, 'o', 00H, ' ', 00H, 'd', 00H, 'r', 00H
	DB	'a', 00H, 'i', 00H, 'n', 00H, 00H, 00H
	ORG $+2
$SG82249 DB	'.', 00H, '.', 00H, '\', 00H, 'w', 00H, 'i', 00H, 'n', 00H
	DB	'c', 00H, 't', 00H, 'r', 00H, 'l', 00H, '.', 00H, 'c', 00H, 'p'
	DB	00H, 'p', 00H, 00H, 00H
	ORG $+2
$SG82250 DB	'm', 00H, '_', 00H, 'p', 00H, 'F', 00H, 'i', 00H, 'l', 00H
	DB	't', 00H, 'e', 00H, 'r', 00H, 00H, 00H
	ORG $+4
$SG82252 DB	'.', 00H, '.', 00H, '\', 00H, 'w', 00H, 'i', 00H, 'n', 00H
	DB	'c', 00H, 't', 00H, 'r', 00H, 'l', 00H, '.', 00H, 'c', 00H, 'p'
	DB	00H, 'p', 00H, 00H, 00H
	ORG $+2
$SG82253 DB	'm', 00H, '_', 00H, 'p', 00H, 'I', 00H, 'n', 00H, 't', 00H
	DB	'e', 00H, 'r', 00H, 'f', 00H, 'a', 00H, 'c', 00H, 'e', 00H, 'L'
	DB	00H, 'o', 00H, 'c', 00H, 'k', 00H, 00H, 00H
	ORG $+6
$SG82255 DB	'.', 00H, '.', 00H, '\', 00H, 'w', 00H, 'i', 00H, 'n', 00H
	DB	'c', 00H, 't', 00H, 'r', 00H, 'l', 00H, '.', 00H, 'c', 00H, 'p'
	DB	00H, 'p', 00H, 00H, 00H
	ORG $+2
$SG82256 DB	'p', 00H, 'h', 00H, 'r', 00H, 00H, 00H
$SG82273 DB	'P', 00H, 'i', 00H, 'n', 00H, ' ', 00H, 'n', 00H, 'o', 00H
	DB	't', 00H, ' ', 00H, 's', 00H, 'e', 00H, 't', 00H, 00H, 00H
$SG82274 DB	'.', 00H, '.', 00H, '\', 00H, 'w', 00H, 'i', 00H, 'n', 00H
	DB	'c', 00H, 't', 00H, 'r', 00H, 'l', 00H, '.', 00H, 'c', 00H, 'p'
	DB	00H, 'p', 00H, 00H, 00H
	ORG $+2
$SG82275 DB	'!', 00H, 'T', 00H, 'E', 00H, 'X', 00H, 'T', 00H, '(', 00H
	DB	'"', 00H, 'P', 00H, 'i', 00H, 'n', 00H, ' ', 00H, 'n', 00H, 'o'
	DB	00H, 't', 00H, ' ', 00H, 's', 00H, 'e', 00H, 't', 00H, '"', 00H
	DB	')', 00H, 00H, 00H
	ORG $+6
$SG82287 DB	'P', 00H, 'i', 00H, 'n', 00H, ' ', 00H, 'n', 00H, 'o', 00H
	DB	't', 00H, ' ', 00H, 's', 00H, 'e', 00H, 't', 00H, 00H, 00H
$SG82288 DB	'.', 00H, '.', 00H, '\', 00H, 'w', 00H, 'i', 00H, 'n', 00H
	DB	'c', 00H, 't', 00H, 'r', 00H, 'l', 00H, '.', 00H, 'c', 00H, 'p'
	DB	00H, 'p', 00H, 00H, 00H
	ORG $+2
$SG82289 DB	'!', 00H, 'T', 00H, 'E', 00H, 'X', 00H, 'T', 00H, '(', 00H
	DB	'"', 00H, 'P', 00H, 'i', 00H, 'n', 00H, ' ', 00H, 'n', 00H, 'o'
	DB	00H, 't', 00H, ' ', 00H, 's', 00H, 'e', 00H, 't', 00H, '"', 00H
	DB	')', 00H, 00H, 00H
	ORG $+6
$SG82300 DB	'P', 00H, 'i', 00H, 'n', 00H, ' ', 00H, 'n', 00H, 'o', 00H
	DB	't', 00H, ' ', 00H, 's', 00H, 'e', 00H, 't', 00H, 00H, 00H
$SG82301 DB	'.', 00H, '.', 00H, '\', 00H, 'w', 00H, 'i', 00H, 'n', 00H
	DB	'c', 00H, 't', 00H, 'r', 00H, 'l', 00H, '.', 00H, 'c', 00H, 'p'
	DB	00H, 'p', 00H, 00H, 00H
	ORG $+2
$SG82302 DB	'!', 00H, 'T', 00H, 'E', 00H, 'X', 00H, 'T', 00H, '(', 00H
	DB	'"', 00H, 'P', 00H, 'i', 00H, 'n', 00H, ' ', 00H, 'n', 00H, 'o'
	DB	00H, 't', 00H, ' ', 00H, 's', 00H, 'e', 00H, 't', 00H, '"', 00H
	DB	')', 00H, 00H, 00H
	ORG $+6
$SG82322 DB	'P', 00H, 'i', 00H, 'n', 00H, ' ', 00H, 'n', 00H, 'o', 00H
	DB	't', 00H, ' ', 00H, 's', 00H, 'e', 00H, 't', 00H, 00H, 00H
$SG82323 DB	'.', 00H, '.', 00H, '\', 00H, 'w', 00H, 'i', 00H, 'n', 00H
	DB	'c', 00H, 't', 00H, 'r', 00H, 'l', 00H, '.', 00H, 'c', 00H, 'p'
	DB	00H, 'p', 00H, 00H, 00H
	ORG $+2
$SG82324 DB	'!', 00H, 'T', 00H, 'E', 00H, 'X', 00H, 'T', 00H, '(', 00H
	DB	'"', 00H, 'P', 00H, 'i', 00H, 'n', 00H, ' ', 00H, 'n', 00H, 'o'
	DB	00H, 't', 00H, ' ', 00H, 's', 00H, 'e', 00H, 't', 00H, '"', 00H
	DB	')', 00H, 00H, 00H
	ORG $+6
$SG82337 DB	'P', 00H, 'i', 00H, 'n', 00H, ' ', 00H, 'n', 00H, 'o', 00H
	DB	't', 00H, ' ', 00H, 's', 00H, 'e', 00H, 't', 00H, 00H, 00H
$SG82338 DB	'.', 00H, '.', 00H, '\', 00H, 'w', 00H, 'i', 00H, 'n', 00H
	DB	'c', 00H, 't', 00H, 'r', 00H, 'l', 00H, '.', 00H, 'c', 00H, 'p'
	DB	00H, 'p', 00H, 00H, 00H
	ORG $+2
$SG82339 DB	'!', 00H, 'T', 00H, 'E', 00H, 'X', 00H, 'T', 00H, '(', 00H
	DB	'"', 00H, 'P', 00H, 'i', 00H, 'n', 00H, ' ', 00H, 'n', 00H, 'o'
	DB	00H, 't', 00H, ' ', 00H, 's', 00H, 'e', 00H, 't', 00H, '"', 00H
	DB	')', 00H, 00H, 00H
	ORG $+6
$SG82351 DB	'P', 00H, 'i', 00H, 'n', 00H, ' ', 00H, 'n', 00H, 'o', 00H
	DB	't', 00H, ' ', 00H, 's', 00H, 'e', 00H, 't', 00H, 00H, 00H
$SG82352 DB	'.', 00H, '.', 00H, '\', 00H, 'w', 00H, 'i', 00H, 'n', 00H
	DB	'c', 00H, 't', 00H, 'r', 00H, 'l', 00H, '.', 00H, 'c', 00H, 'p'
	DB	00H, 'p', 00H, 00H, 00H
	ORG $+2
$SG82353 DB	'!', 00H, 'T', 00H, 'E', 00H, 'X', 00H, 'T', 00H, '(', 00H
	DB	'"', 00H, 'P', 00H, 'i', 00H, 'n', 00H, ' ', 00H, 'n', 00H, 'o'
	DB	00H, 't', 00H, ' ', 00H, 's', 00H, 'e', 00H, 't', 00H, '"', 00H
	DB	')', 00H, 00H, 00H
	ORG $+6
$SG82365 DB	'.', 00H, '.', 00H, '\', 00H, 'w', 00H, 'i', 00H, 'n', 00H
	DB	'c', 00H, 't', 00H, 'r', 00H, 'l', 00H, '.', 00H, 'c', 00H, 'p'
	DB	00H, 'p', 00H, 00H, 00H
	ORG $+2
$SG82387 DB	'P', 00H, 'i', 00H, 'n', 00H, ' ', 00H, 'n', 00H, 'o', 00H
	DB	't', 00H, ' ', 00H, 's', 00H, 'e', 00H, 't', 00H, 00H, 00H
$SG82366 DB	'G', 00H, 'e', 00H, 't', 00H, 'W', 00H, 'i', 00H, 'n', 00H
	DB	'd', 00H, 'o', 00H, 'w', 00H, 'R', 00H, 'e', 00H, 'c', 00H, 't'
	DB	00H, '(', 00H, 'm', 00H, '_', 00H, 'h', 00H, 'w', 00H, 'n', 00H
	DB	'd', 00H, ',', 00H, '&', 00H, 'W', 00H, 'i', 00H, 'n', 00H, 'd'
	DB	00H, 'o', 00H, 'w', 00H, 'R', 00H, 'e', 00H, 'c', 00H, 't', 00H
	DB	')', 00H, 00H, 00H
	ORG $+4
$SG82388 DB	'.', 00H, '.', 00H, '\', 00H, 'w', 00H, 'i', 00H, 'n', 00H
	DB	'c', 00H, 't', 00H, 'r', 00H, 'l', 00H, '.', 00H, 'c', 00H, 'p'
	DB	00H, 'p', 00H, 00H, 00H
	ORG $+2
$SG82389 DB	'!', 00H, 'T', 00H, 'E', 00H, 'X', 00H, 'T', 00H, '(', 00H
	DB	'"', 00H, 'P', 00H, 'i', 00H, 'n', 00H, ' ', 00H, 'n', 00H, 'o'
	DB	00H, 't', 00H, ' ', 00H, 's', 00H, 'e', 00H, 't', 00H, '"', 00H
	DB	')', 00H, 00H, 00H
	ORG $+6
$SG82401 DB	'P', 00H, 'i', 00H, 'n', 00H, ' ', 00H, 'n', 00H, 'o', 00H
	DB	't', 00H, ' ', 00H, 's', 00H, 'e', 00H, 't', 00H, 00H, 00H
$SG82402 DB	'.', 00H, '.', 00H, '\', 00H, 'w', 00H, 'i', 00H, 'n', 00H
	DB	'c', 00H, 't', 00H, 'r', 00H, 'l', 00H, '.', 00H, 'c', 00H, 'p'
	DB	00H, 'p', 00H, 00H, 00H
	ORG $+2
$SG82403 DB	'!', 00H, 'T', 00H, 'E', 00H, 'X', 00H, 'T', 00H, '(', 00H
	DB	'"', 00H, 'P', 00H, 'i', 00H, 'n', 00H, ' ', 00H, 'n', 00H, 'o'
	DB	00H, 't', 00H, ' ', 00H, 's', 00H, 'e', 00H, 't', 00H, '"', 00H
	DB	')', 00H, 00H, 00H
	ORG $+6
$SG82408 DB	'.', 00H, '.', 00H, '\', 00H, 'w', 00H, 'i', 00H, 'n', 00H
	DB	'c', 00H, 't', 00H, 'r', 00H, 'l', 00H, '.', 00H, 'c', 00H, 'p'
	DB	00H, 'p', 00H, 00H, 00H
	ORG $+2
$SG82409 DB	'p', 00H, 'W', 00H, 'i', 00H, 'n', 00H, 'd', 00H, 'o', 00H
	DB	'w', 00H, 'S', 00H, 't', 00H, 'a', 00H, 't', 00H, 'e', 00H, 00H
	DB	00H
	ORG $+6
$SG82422 DB	'P', 00H, 'i', 00H, 'n', 00H, ' ', 00H, 'n', 00H, 'o', 00H
	DB	't', 00H, ' ', 00H, 's', 00H, 'e', 00H, 't', 00H, 00H, 00H
$SG82423 DB	'.', 00H, '.', 00H, '\', 00H, 'w', 00H, 'i', 00H, 'n', 00H
	DB	'c', 00H, 't', 00H, 'r', 00H, 'l', 00H, '.', 00H, 'c', 00H, 'p'
	DB	00H, 'p', 00H, 00H, 00H
	ORG $+2
$SG82424 DB	'!', 00H, 'T', 00H, 'E', 00H, 'X', 00H, 'T', 00H, '(', 00H
	DB	'"', 00H, 'P', 00H, 'i', 00H, 'n', 00H, ' ', 00H, 'n', 00H, 'o'
	DB	00H, 't', 00H, ' ', 00H, 's', 00H, 'e', 00H, 't', 00H, '"', 00H
	DB	')', 00H, 00H, 00H
	ORG $+6
$SG82442 DB	'P', 00H, 'i', 00H, 'n', 00H, ' ', 00H, 'n', 00H, 'o', 00H
	DB	't', 00H, ' ', 00H, 's', 00H, 'e', 00H, 't', 00H, 00H, 00H
$SG82443 DB	'.', 00H, '.', 00H, '\', 00H, 'w', 00H, 'i', 00H, 'n', 00H
	DB	'c', 00H, 't', 00H, 'r', 00H, 'l', 00H, '.', 00H, 'c', 00H, 'p'
	DB	00H, 'p', 00H, 00H, 00H
	ORG $+2
$SG82444 DB	'!', 00H, 'T', 00H, 'E', 00H, 'X', 00H, 'T', 00H, '(', 00H
	DB	'"', 00H, 'P', 00H, 'i', 00H, 'n', 00H, ' ', 00H, 'n', 00H, 'o'
	DB	00H, 't', 00H, ' ', 00H, 's', 00H, 'e', 00H, 't', 00H, '"', 00H
	DB	')', 00H, 00H, 00H
	ORG $+6
$SG82456 DB	'P', 00H, 'i', 00H, 'n', 00H, ' ', 00H, 'n', 00H, 'o', 00H
	DB	't', 00H, ' ', 00H, 's', 00H, 'e', 00H, 't', 00H, 00H, 00H
$SG82457 DB	'.', 00H, '.', 00H, '\', 00H, 'w', 00H, 'i', 00H, 'n', 00H
	DB	'c', 00H, 't', 00H, 'r', 00H, 'l', 00H, '.', 00H, 'c', 00H, 'p'
	DB	00H, 'p', 00H, 00H, 00H
	ORG $+2
$SG82458 DB	'!', 00H, 'T', 00H, 'E', 00H, 'X', 00H, 'T', 00H, '(', 00H
	DB	'"', 00H, 'P', 00H, 'i', 00H, 'n', 00H, ' ', 00H, 'n', 00H, 'o'
	DB	00H, 't', 00H, ' ', 00H, 's', 00H, 'e', 00H, 't', 00H, '"', 00H
	DB	')', 00H, 00H, 00H
	ORG $+6
$SG82474 DB	'P', 00H, 'i', 00H, 'n', 00H, ' ', 00H, 'n', 00H, 'o', 00H
	DB	't', 00H, ' ', 00H, 's', 00H, 'e', 00H, 't', 00H, 00H, 00H
$SG82475 DB	'.', 00H, '.', 00H, '\', 00H, 'w', 00H, 'i', 00H, 'n', 00H
	DB	'c', 00H, 't', 00H, 'r', 00H, 'l', 00H, '.', 00H, 'c', 00H, 'p'
	DB	00H, 'p', 00H, 00H, 00H
	ORG $+2
$SG82476 DB	'!', 00H, 'T', 00H, 'E', 00H, 'X', 00H, 'T', 00H, '(', 00H
	DB	'"', 00H, 'P', 00H, 'i', 00H, 'n', 00H, ' ', 00H, 'n', 00H, 'o'
	DB	00H, 't', 00H, ' ', 00H, 's', 00H, 'e', 00H, 't', 00H, '"', 00H
	DB	')', 00H, 00H, 00H
	ORG $+6
$SG82487 DB	'P', 00H, 'i', 00H, 'n', 00H, ' ', 00H, 'n', 00H, 'o', 00H
	DB	't', 00H, ' ', 00H, 's', 00H, 'e', 00H, 't', 00H, 00H, 00H
$SG82488 DB	'.', 00H, '.', 00H, '\', 00H, 'w', 00H, 'i', 00H, 'n', 00H
	DB	'c', 00H, 't', 00H, 'r', 00H, 'l', 00H, '.', 00H, 'c', 00H, 'p'
	DB	00H, 'p', 00H, 00H, 00H
	ORG $+2
$SG82489 DB	'!', 00H, 'T', 00H, 'E', 00H, 'X', 00H, 'T', 00H, '(', 00H
	DB	'"', 00H, 'P', 00H, 'i', 00H, 'n', 00H, ' ', 00H, 'n', 00H, 'o'
	DB	00H, 't', 00H, ' ', 00H, 's', 00H, 'e', 00H, 't', 00H, '"', 00H
	DB	')', 00H, 00H, 00H
	ORG $+6
$SG82496 DB	'.', 00H, '.', 00H, '\', 00H, 'w', 00H, 'i', 00H, 'n', 00H
	DB	'c', 00H, 't', 00H, 'r', 00H, 'l', 00H, '.', 00H, 'c', 00H, 'p'
	DB	00H, 'p', 00H, 00H, 00H
	ORG $+2
$SG82513 DB	'P', 00H, 'i', 00H, 'n', 00H, ' ', 00H, 'n', 00H, 'o', 00H
	DB	't', 00H, ' ', 00H, 's', 00H, 'e', 00H, 't', 00H, 00H, 00H
$SG82497 DB	'G', 00H, 'e', 00H, 't', 00H, 'W', 00H, 'i', 00H, 'n', 00H
	DB	'd', 00H, 'o', 00H, 'w', 00H, 'R', 00H, 'e', 00H, 'c', 00H, 't'
	DB	00H, '(', 00H, 'm', 00H, '_', 00H, 'h', 00H, 'w', 00H, 'n', 00H
	DB	'd', 00H, ',', 00H, '&', 00H, 'W', 00H, 'i', 00H, 'n', 00H, 'd'
	DB	00H, 'o', 00H, 'w', 00H, 'R', 00H, 'e', 00H, 'c', 00H, 't', 00H
	DB	')', 00H, 00H, 00H
	ORG $+4
$SG82514 DB	'.', 00H, '.', 00H, '\', 00H, 'w', 00H, 'i', 00H, 'n', 00H
	DB	'c', 00H, 't', 00H, 'r', 00H, 'l', 00H, '.', 00H, 'c', 00H, 'p'
	DB	00H, 'p', 00H, 00H, 00H
	ORG $+2
$SG82515 DB	'!', 00H, 'T', 00H, 'E', 00H, 'X', 00H, 'T', 00H, '(', 00H
	DB	'"', 00H, 'P', 00H, 'i', 00H, 'n', 00H, ' ', 00H, 'n', 00H, 'o'
	DB	00H, 't', 00H, ' ', 00H, 's', 00H, 'e', 00H, 't', 00H, '"', 00H
	DB	')', 00H, 00H, 00H
	ORG $+6
$SG82521 DB	'.', 00H, '.', 00H, '\', 00H, 'w', 00H, 'i', 00H, 'n', 00H
	DB	'c', 00H, 't', 00H, 'r', 00H, 'l', 00H, '.', 00H, 'c', 00H, 'p'
	DB	00H, 'p', 00H, 00H, 00H
	ORG $+2
$SG82529 DB	'P', 00H, 'i', 00H, 'n', 00H, ' ', 00H, 'n', 00H, 'o', 00H
	DB	't', 00H, ' ', 00H, 's', 00H, 'e', 00H, 't', 00H, 00H, 00H
$SG82522 DB	'G', 00H, 'e', 00H, 't', 00H, 'W', 00H, 'i', 00H, 'n', 00H
	DB	'd', 00H, 'o', 00H, 'w', 00H, 'R', 00H, 'e', 00H, 'c', 00H, 't'
	DB	00H, '(', 00H, 'm', 00H, '_', 00H, 'h', 00H, 'w', 00H, 'n', 00H
	DB	'd', 00H, ',', 00H, '&', 00H, 'W', 00H, 'i', 00H, 'n', 00H, 'd'
	DB	00H, 'o', 00H, 'w', 00H, 'R', 00H, 'e', 00H, 'c', 00H, 't', 00H
	DB	')', 00H, 00H, 00H
	ORG $+4
$SG82530 DB	'.', 00H, '.', 00H, '\', 00H, 'w', 00H, 'i', 00H, 'n', 00H
	DB	'c', 00H, 't', 00H, 'r', 00H, 'l', 00H, '.', 00H, 'c', 00H, 'p'
	DB	00H, 'p', 00H, 00H, 00H
	ORG $+2
$SG82531 DB	'!', 00H, 'T', 00H, 'E', 00H, 'X', 00H, 'T', 00H, '(', 00H
	DB	'"', 00H, 'P', 00H, 'i', 00H, 'n', 00H, ' ', 00H, 'n', 00H, 'o'
	DB	00H, 't', 00H, ' ', 00H, 's', 00H, 'e', 00H, 't', 00H, '"', 00H
	DB	')', 00H, 00H, 00H
	ORG $+6
$SG82538 DB	'.', 00H, '.', 00H, '\', 00H, 'w', 00H, 'i', 00H, 'n', 00H
	DB	'c', 00H, 't', 00H, 'r', 00H, 'l', 00H, '.', 00H, 'c', 00H, 'p'
	DB	00H, 'p', 00H, 00H, 00H
	ORG $+2
$SG82555 DB	'P', 00H, 'i', 00H, 'n', 00H, ' ', 00H, 'n', 00H, 'o', 00H
	DB	't', 00H, ' ', 00H, 's', 00H, 'e', 00H, 't', 00H, 00H, 00H
$SG82539 DB	'G', 00H, 'e', 00H, 't', 00H, 'W', 00H, 'i', 00H, 'n', 00H
	DB	'd', 00H, 'o', 00H, 'w', 00H, 'R', 00H, 'e', 00H, 'c', 00H, 't'
	DB	00H, '(', 00H, 'm', 00H, '_', 00H, 'h', 00H, 'w', 00H, 'n', 00H
	DB	'd', 00H, ',', 00H, '&', 00H, 'W', 00H, 'i', 00H, 'n', 00H, 'd'
	DB	00H, 'o', 00H, 'w', 00H, 'R', 00H, 'e', 00H, 'c', 00H, 't', 00H
	DB	')', 00H, 00H, 00H
	ORG $+4
$SG82556 DB	'.', 00H, '.', 00H, '\', 00H, 'w', 00H, 'i', 00H, 'n', 00H
	DB	'c', 00H, 't', 00H, 'r', 00H, 'l', 00H, '.', 00H, 'c', 00H, 'p'
	DB	00H, 'p', 00H, 00H, 00H
	ORG $+2
$SG82557 DB	'!', 00H, 'T', 00H, 'E', 00H, 'X', 00H, 'T', 00H, '(', 00H
	DB	'"', 00H, 'P', 00H, 'i', 00H, 'n', 00H, ' ', 00H, 'n', 00H, 'o'
	DB	00H, 't', 00H, ' ', 00H, 's', 00H, 'e', 00H, 't', 00H, '"', 00H
	DB	')', 00H, 00H, 00H
	ORG $+6
$SG82563 DB	'.', 00H, '.', 00H, '\', 00H, 'w', 00H, 'i', 00H, 'n', 00H
	DB	'c', 00H, 't', 00H, 'r', 00H, 'l', 00H, '.', 00H, 'c', 00H, 'p'
	DB	00H, 'p', 00H, 00H, 00H
	ORG $+2
$SG82571 DB	'P', 00H, 'i', 00H, 'n', 00H, ' ', 00H, 'n', 00H, 'o', 00H
	DB	't', 00H, ' ', 00H, 's', 00H, 'e', 00H, 't', 00H, 00H, 00H
$SG82564 DB	'G', 00H, 'e', 00H, 't', 00H, 'W', 00H, 'i', 00H, 'n', 00H
	DB	'd', 00H, 'o', 00H, 'w', 00H, 'R', 00H, 'e', 00H, 'c', 00H, 't'
	DB	00H, '(', 00H, 'm', 00H, '_', 00H, 'h', 00H, 'w', 00H, 'n', 00H
	DB	'd', 00H, ',', 00H, '&', 00H, 'W', 00H, 'i', 00H, 'n', 00H, 'd'
	DB	00H, 'o', 00H, 'w', 00H, 'R', 00H, 'e', 00H, 'c', 00H, 't', 00H
	DB	')', 00H, 00H, 00H
	ORG $+4
$SG82572 DB	'.', 00H, '.', 00H, '\', 00H, 'w', 00H, 'i', 00H, 'n', 00H
	DB	'c', 00H, 't', 00H, 'r', 00H, 'l', 00H, '.', 00H, 'c', 00H, 'p'
	DB	00H, 'p', 00H, 00H, 00H
	ORG $+2
$SG82573 DB	'!', 00H, 'T', 00H, 'E', 00H, 'X', 00H, 'T', 00H, '(', 00H
	DB	'"', 00H, 'P', 00H, 'i', 00H, 'n', 00H, ' ', 00H, 'n', 00H, 'o'
	DB	00H, 't', 00H, ' ', 00H, 's', 00H, 'e', 00H, 't', 00H, '"', 00H
	DB	')', 00H, 00H, 00H
	ORG $+6
$SG82580 DB	'.', 00H, '.', 00H, '\', 00H, 'w', 00H, 'i', 00H, 'n', 00H
	DB	'c', 00H, 't', 00H, 'r', 00H, 'l', 00H, '.', 00H, 'c', 00H, 'p'
	DB	00H, 'p', 00H, 00H, 00H
	ORG $+2
$SG82597 DB	'P', 00H, 'i', 00H, 'n', 00H, ' ', 00H, 'n', 00H, 'o', 00H
	DB	't', 00H, ' ', 00H, 's', 00H, 'e', 00H, 't', 00H, 00H, 00H
$SG82581 DB	'G', 00H, 'e', 00H, 't', 00H, 'W', 00H, 'i', 00H, 'n', 00H
	DB	'd', 00H, 'o', 00H, 'w', 00H, 'R', 00H, 'e', 00H, 'c', 00H, 't'
	DB	00H, '(', 00H, 'm', 00H, '_', 00H, 'h', 00H, 'w', 00H, 'n', 00H
	DB	'd', 00H, ',', 00H, '&', 00H, 'W', 00H, 'i', 00H, 'n', 00H, 'd'
	DB	00H, 'o', 00H, 'w', 00H, 'R', 00H, 'e', 00H, 'c', 00H, 't', 00H
	DB	')', 00H, 00H, 00H
	ORG $+4
$SG82598 DB	'.', 00H, '.', 00H, '\', 00H, 'w', 00H, 'i', 00H, 'n', 00H
	DB	'c', 00H, 't', 00H, 'r', 00H, 'l', 00H, '.', 00H, 'c', 00H, 'p'
	DB	00H, 'p', 00H, 00H, 00H
	ORG $+2
$SG82599 DB	'!', 00H, 'T', 00H, 'E', 00H, 'X', 00H, 'T', 00H, '(', 00H
	DB	'"', 00H, 'P', 00H, 'i', 00H, 'n', 00H, ' ', 00H, 'n', 00H, 'o'
	DB	00H, 't', 00H, ' ', 00H, 's', 00H, 'e', 00H, 't', 00H, '"', 00H
	DB	')', 00H, 00H, 00H
	ORG $+6
$SG82605 DB	'.', 00H, '.', 00H, '\', 00H, 'w', 00H, 'i', 00H, 'n', 00H
	DB	'c', 00H, 't', 00H, 'r', 00H, 'l', 00H, '.', 00H, 'c', 00H, 'p'
	DB	00H, 'p', 00H, 00H, 00H
	ORG $+2
$SG82613 DB	'P', 00H, 'i', 00H, 'n', 00H, ' ', 00H, 'n', 00H, 'o', 00H
	DB	't', 00H, ' ', 00H, 's', 00H, 'e', 00H, 't', 00H, 00H, 00H
$SG82606 DB	'G', 00H, 'e', 00H, 't', 00H, 'W', 00H, 'i', 00H, 'n', 00H
	DB	'd', 00H, 'o', 00H, 'w', 00H, 'R', 00H, 'e', 00H, 'c', 00H, 't'
	DB	00H, '(', 00H, 'm', 00H, '_', 00H, 'h', 00H, 'w', 00H, 'n', 00H
	DB	'd', 00H, ',', 00H, '&', 00H, 'W', 00H, 'i', 00H, 'n', 00H, 'd'
	DB	00H, 'o', 00H, 'w', 00H, 'R', 00H, 'e', 00H, 'c', 00H, 't', 00H
	DB	')', 00H, 00H, 00H
	ORG $+4
$SG82614 DB	'.', 00H, '.', 00H, '\', 00H, 'w', 00H, 'i', 00H, 'n', 00H
	DB	'c', 00H, 't', 00H, 'r', 00H, 'l', 00H, '.', 00H, 'c', 00H, 'p'
	DB	00H, 'p', 00H, 00H, 00H
	ORG $+2
$SG82615 DB	'!', 00H, 'T', 00H, 'E', 00H, 'X', 00H, 'T', 00H, '(', 00H
	DB	'"', 00H, 'P', 00H, 'i', 00H, 'n', 00H, ' ', 00H, 'n', 00H, 'o'
	DB	00H, 't', 00H, ' ', 00H, 's', 00H, 'e', 00H, 't', 00H, '"', 00H
	DB	')', 00H, 00H, 00H
	ORG $+6
$SG82622 DB	'.', 00H, '.', 00H, '\', 00H, 'w', 00H, 'i', 00H, 'n', 00H
	DB	'c', 00H, 't', 00H, 'r', 00H, 'l', 00H, '.', 00H, 'c', 00H, 'p'
	DB	00H, 'p', 00H, 00H, 00H
	ORG $+2
$SG82639 DB	'P', 00H, 'i', 00H, 'n', 00H, ' ', 00H, 'n', 00H, 'o', 00H
	DB	't', 00H, ' ', 00H, 's', 00H, 'e', 00H, 't', 00H, 00H, 00H
$SG82623 DB	'G', 00H, 'e', 00H, 't', 00H, 'W', 00H, 'i', 00H, 'n', 00H
	DB	'd', 00H, 'o', 00H, 'w', 00H, 'R', 00H, 'e', 00H, 'c', 00H, 't'
	DB	00H, '(', 00H, 'm', 00H, '_', 00H, 'h', 00H, 'w', 00H, 'n', 00H
	DB	'd', 00H, ',', 00H, '&', 00H, 'W', 00H, 'i', 00H, 'n', 00H, 'd'
	DB	00H, 'o', 00H, 'w', 00H, 'R', 00H, 'e', 00H, 'c', 00H, 't', 00H
	DB	')', 00H, 00H, 00H
	ORG $+4
$SG82640 DB	'.', 00H, '.', 00H, '\', 00H, 'w', 00H, 'i', 00H, 'n', 00H
	DB	'c', 00H, 't', 00H, 'r', 00H, 'l', 00H, '.', 00H, 'c', 00H, 'p'
	DB	00H, 'p', 00H, 00H, 00H
	ORG $+2
$SG82641 DB	'!', 00H, 'T', 00H, 'E', 00H, 'X', 00H, 'T', 00H, '(', 00H
	DB	'"', 00H, 'P', 00H, 'i', 00H, 'n', 00H, ' ', 00H, 'n', 00H, 'o'
	DB	00H, 't', 00H, ' ', 00H, 's', 00H, 'e', 00H, 't', 00H, '"', 00H
	DB	')', 00H, 00H, 00H
	ORG $+6
$SG82647 DB	'.', 00H, '.', 00H, '\', 00H, 'w', 00H, 'i', 00H, 'n', 00H
	DB	'c', 00H, 't', 00H, 'r', 00H, 'l', 00H, '.', 00H, 'c', 00H, 'p'
	DB	00H, 'p', 00H, 00H, 00H
	ORG $+2
$SG82655 DB	'P', 00H, 'i', 00H, 'n', 00H, ' ', 00H, 'n', 00H, 'o', 00H
	DB	't', 00H, ' ', 00H, 's', 00H, 'e', 00H, 't', 00H, 00H, 00H
$SG82648 DB	'G', 00H, 'e', 00H, 't', 00H, 'W', 00H, 'i', 00H, 'n', 00H
	DB	'd', 00H, 'o', 00H, 'w', 00H, 'R', 00H, 'e', 00H, 'c', 00H, 't'
	DB	00H, '(', 00H, 'm', 00H, '_', 00H, 'h', 00H, 'w', 00H, 'n', 00H
	DB	'd', 00H, ',', 00H, '&', 00H, 'W', 00H, 'i', 00H, 'n', 00H, 'd'
	DB	00H, 'o', 00H, 'w', 00H, 'R', 00H, 'e', 00H, 'c', 00H, 't', 00H
	DB	')', 00H, 00H, 00H
	ORG $+4
$SG82656 DB	'.', 00H, '.', 00H, '\', 00H, 'w', 00H, 'i', 00H, 'n', 00H
	DB	'c', 00H, 't', 00H, 'r', 00H, 'l', 00H, '.', 00H, 'c', 00H, 'p'
	DB	00H, 'p', 00H, 00H, 00H
	ORG $+2
$SG82657 DB	'!', 00H, 'T', 00H, 'E', 00H, 'X', 00H, 'T', 00H, '(', 00H
	DB	'"', 00H, 'P', 00H, 'i', 00H, 'n', 00H, ' ', 00H, 'n', 00H, 'o'
	DB	00H, 't', 00H, ' ', 00H, 's', 00H, 'e', 00H, 't', 00H, '"', 00H
	DB	')', 00H, 00H, 00H
	ORG $+6
$SG82666 DB	'C', 00H, 'h', 00H, 'a', 00H, 'n', 00H, 'g', 00H, 'e', 00H
	DB	'd', 00H, ' ', 00H, 'p', 00H, 'a', 00H, 'r', 00H, 'e', 00H, 'n'
	DB	00H, 't', 00H, ' ', 00H, '%', 00H, 'l', 00H, 'x', 00H, 00H, 00H
	ORG $+2
$SG82675 DB	'P', 00H, 'i', 00H, 'n', 00H, ' ', 00H, 'n', 00H, 'o', 00H
	DB	't', 00H, ' ', 00H, 's', 00H, 'e', 00H, 't', 00H, 00H, 00H
$SG82676 DB	'.', 00H, '.', 00H, '\', 00H, 'w', 00H, 'i', 00H, 'n', 00H
	DB	'c', 00H, 't', 00H, 'r', 00H, 'l', 00H, '.', 00H, 'c', 00H, 'p'
	DB	00H, 'p', 00H, 00H, 00H
	ORG $+2
$SG82677 DB	'!', 00H, 'T', 00H, 'E', 00H, 'X', 00H, 'T', 00H, '(', 00H
	DB	'"', 00H, 'P', 00H, 'i', 00H, 'n', 00H, ' ', 00H, 'n', 00H, 'o'
	DB	00H, 't', 00H, ' ', 00H, 's', 00H, 'e', 00H, 't', 00H, '"', 00H
	DB	')', 00H, 00H, 00H
	ORG $+6
$SG82688 DB	'P', 00H, 'i', 00H, 'n', 00H, ' ', 00H, 'n', 00H, 'o', 00H
	DB	't', 00H, ' ', 00H, 's', 00H, 'e', 00H, 't', 00H, 00H, 00H
$SG82689 DB	'.', 00H, '.', 00H, '\', 00H, 'w', 00H, 'i', 00H, 'n', 00H
	DB	'c', 00H, 't', 00H, 'r', 00H, 'l', 00H, '.', 00H, 'c', 00H, 'p'
	DB	00H, 'p', 00H, 00H, 00H
	ORG $+2
$SG82690 DB	'!', 00H, 'T', 00H, 'E', 00H, 'X', 00H, 'T', 00H, '(', 00H
	DB	'"', 00H, 'P', 00H, 'i', 00H, 'n', 00H, ' ', 00H, 'n', 00H, 'o'
	DB	00H, 't', 00H, ' ', 00H, 's', 00H, 'e', 00H, 't', 00H, '"', 00H
	DB	')', 00H, 00H, 00H
	ORG $+6
$SG82703 DB	'P', 00H, 'i', 00H, 'n', 00H, ' ', 00H, 'n', 00H, 'o', 00H
	DB	't', 00H, ' ', 00H, 's', 00H, 'e', 00H, 't', 00H, 00H, 00H
$SG82704 DB	'.', 00H, '.', 00H, '\', 00H, 'w', 00H, 'i', 00H, 'n', 00H
	DB	'c', 00H, 't', 00H, 'r', 00H, 'l', 00H, '.', 00H, 'c', 00H, 'p'
	DB	00H, 'p', 00H, 00H, 00H
	ORG $+2
$SG82705 DB	'!', 00H, 'T', 00H, 'E', 00H, 'X', 00H, 'T', 00H, '(', 00H
	DB	'"', 00H, 'P', 00H, 'i', 00H, 'n', 00H, ' ', 00H, 'n', 00H, 'o'
	DB	00H, 't', 00H, ' ', 00H, 's', 00H, 'e', 00H, 't', 00H, '"', 00H
	DB	')', 00H, 00H, 00H
	ORG $+6
$SG82719 DB	'P', 00H, 'i', 00H, 'n', 00H, ' ', 00H, 'n', 00H, 'o', 00H
	DB	't', 00H, ' ', 00H, 's', 00H, 'e', 00H, 't', 00H, 00H, 00H
$SG82720 DB	'.', 00H, '.', 00H, '\', 00H, 'w', 00H, 'i', 00H, 'n', 00H
	DB	'c', 00H, 't', 00H, 'r', 00H, 'l', 00H, '.', 00H, 'c', 00H, 'p'
	DB	00H, 'p', 00H, 00H, 00H
	ORG $+2
$SG82721 DB	'!', 00H, 'T', 00H, 'E', 00H, 'X', 00H, 'T', 00H, '(', 00H
	DB	'"', 00H, 'P', 00H, 'i', 00H, 'n', 00H, ' ', 00H, 'n', 00H, 'o'
	DB	00H, 't', 00H, ' ', 00H, 's', 00H, 'e', 00H, 't', 00H, '"', 00H
	DB	')', 00H, 00H, 00H
	ORG $+6
$SG82743 DB	'P', 00H, 'i', 00H, 'n', 00H, ' ', 00H, 'n', 00H, 'o', 00H
	DB	't', 00H, ' ', 00H, 's', 00H, 'e', 00H, 't', 00H, 00H, 00H
$SG82744 DB	'.', 00H, '.', 00H, '\', 00H, 'w', 00H, 'i', 00H, 'n', 00H
	DB	'c', 00H, 't', 00H, 'r', 00H, 'l', 00H, '.', 00H, 'c', 00H, 'p'
	DB	00H, 'p', 00H, 00H, 00H
	ORG $+2
$SG82745 DB	'!', 00H, 'T', 00H, 'E', 00H, 'X', 00H, 'T', 00H, '(', 00H
	DB	'"', 00H, 'P', 00H, 'i', 00H, 'n', 00H, ' ', 00H, 'n', 00H, 'o'
	DB	00H, 't', 00H, ' ', 00H, 's', 00H, 'e', 00H, 't', 00H, '"', 00H
	DB	')', 00H, 00H, 00H
	ORG $+6
$SG82759 DB	'P', 00H, 'i', 00H, 'n', 00H, ' ', 00H, 'n', 00H, 'o', 00H
	DB	't', 00H, ' ', 00H, 's', 00H, 'e', 00H, 't', 00H, 00H, 00H
$SG82760 DB	'.', 00H, '.', 00H, '\', 00H, 'w', 00H, 'i', 00H, 'n', 00H
	DB	'c', 00H, 't', 00H, 'r', 00H, 'l', 00H, '.', 00H, 'c', 00H, 'p'
	DB	00H, 'p', 00H, 00H, 00H
	ORG $+2
$SG82761 DB	'!', 00H, 'T', 00H, 'E', 00H, 'X', 00H, 'T', 00H, '(', 00H
	DB	'"', 00H, 'P', 00H, 'i', 00H, 'n', 00H, ' ', 00H, 'n', 00H, 'o'
	DB	00H, 't', 00H, ' ', 00H, 's', 00H, 'e', 00H, 't', 00H, '"', 00H
	DB	')', 00H, 00H, 00H
	ORG $+6
$SG82768 DB	'.', 00H, '.', 00H, '\', 00H, 'w', 00H, 'i', 00H, 'n', 00H
	DB	'c', 00H, 't', 00H, 'r', 00H, 'l', 00H, '.', 00H, 'c', 00H, 'p'
	DB	00H, 'p', 00H, 00H, 00H
	ORG $+2
$SG82769 DB	'I', 00H, 's', 00H, 'W', 00H, 'i', 00H, 'n', 00H, 'd', 00H
	DB	'o', 00H, 'w', 00H, '(', 00H, 'm', 00H, '_', 00H, 'h', 00H, 'w'
	DB	00H, 'n', 00H, 'd', 00H, ')', 00H, 00H, 00H
	ORG $+6
$SG82772 DB	'.', 00H, '.', 00H, '\', 00H, 'w', 00H, 'i', 00H, 'n', 00H
	DB	'c', 00H, 't', 00H, 'r', 00H, 'l', 00H, '.', 00H, 'c', 00H, 'p'
	DB	00H, 'p', 00H, 00H, 00H
	ORG $+2
$SG82773 DB	'b', 00H, 'S', 00H, 'u', 00H, 'c', 00H, 'c', 00H, 'e', 00H
	DB	's', 00H, 's', 00H, 00H, 00H
	ORG $+6
$SG82774 DB	'S', 00H, 'W', 00H, 'P', 00H, ' ', 00H, 'f', 00H, 'a', 00H
	DB	'i', 00H, 'l', 00H, 'e', 00H, 'd', 00H, ' ', 00H, 'e', 00H, 'r'
	DB	00H, 'r', 00H, 'o', 00H, 'r', 00H, ' ', 00H, '%', 00H, 'd', 00H
	DB	00H, 00H
$SG82794 DB	'P', 00H, 'i', 00H, 'n', 00H, ' ', 00H, 'n', 00H, 'o', 00H
	DB	't', 00H, ' ', 00H, 's', 00H, 'e', 00H, 't', 00H, 00H, 00H
$SG82795 DB	'.', 00H, '.', 00H, '\', 00H, 'w', 00H, 'i', 00H, 'n', 00H
	DB	'c', 00H, 't', 00H, 'r', 00H, 'l', 00H, '.', 00H, 'c', 00H, 'p'
	DB	00H, 'p', 00H, 00H, 00H
	ORG $+2
$SG82796 DB	'!', 00H, 'T', 00H, 'E', 00H, 'X', 00H, 'T', 00H, '(', 00H
	DB	'"', 00H, 'P', 00H, 'i', 00H, 'n', 00H, ' ', 00H, 'n', 00H, 'o'
	DB	00H, 't', 00H, ' ', 00H, 's', 00H, 'e', 00H, 't', 00H, '"', 00H
	DB	')', 00H, 00H, 00H
	ORG $+6
$SG82802 DB	'.', 00H, '.', 00H, '\', 00H, 'w', 00H, 'i', 00H, 'n', 00H
	DB	'c', 00H, 't', 00H, 'r', 00H, 'l', 00H, '.', 00H, 'c', 00H, 'p'
	DB	00H, 'p', 00H, 00H, 00H
	ORG $+2
$SG82803 DB	'G', 00H, 'e', 00H, 't', 00H, 'W', 00H, 'i', 00H, 'n', 00H
	DB	'd', 00H, 'o', 00H, 'w', 00H, 'R', 00H, 'e', 00H, 'c', 00H, 't'
	DB	00H, '(', 00H, 'm', 00H, '_', 00H, 'h', 00H, 'w', 00H, 'n', 00H
	DB	'd', 00H, ',', 00H, '&', 00H, 'W', 00H, 'i', 00H, 'n', 00H, 'd'
	DB	00H, 'o', 00H, 'w', 00H, 'R', 00H, 'e', 00H, 'c', 00H, 't', 00H
	DB	')', 00H, 00H, 00H
	ORG $+4
$SG82821 DB	'P', 00H, 'i', 00H, 'n', 00H, ' ', 00H, 'n', 00H, 'o', 00H
	DB	't', 00H, ' ', 00H, 's', 00H, 'e', 00H, 't', 00H, 00H, 00H
$SG82822 DB	'.', 00H, '.', 00H, '\', 00H, 'w', 00H, 'i', 00H, 'n', 00H
	DB	'c', 00H, 't', 00H, 'r', 00H, 'l', 00H, '.', 00H, 'c', 00H, 'p'
	DB	00H, 'p', 00H, 00H, 00H
	ORG $+2
$SG82823 DB	'!', 00H, 'T', 00H, 'E', 00H, 'X', 00H, 'T', 00H, '(', 00H
	DB	'"', 00H, 'P', 00H, 'i', 00H, 'n', 00H, ' ', 00H, 'n', 00H, 'o'
	DB	00H, 't', 00H, ' ', 00H, 's', 00H, 'e', 00H, 't', 00H, '"', 00H
	DB	')', 00H, 00H, 00H
	ORG $+6
$SG82830 DB	'.', 00H, '.', 00H, '\', 00H, 'w', 00H, 'i', 00H, 'n', 00H
	DB	'c', 00H, 't', 00H, 'r', 00H, 'l', 00H, '.', 00H, 'c', 00H, 'p'
	DB	00H, 'p', 00H, 00H, 00H
	ORG $+2
$SG82831 DB	'G', 00H, 'e', 00H, 't', 00H, 'W', 00H, 'i', 00H, 'n', 00H
	DB	'd', 00H, 'o', 00H, 'w', 00H, 'P', 00H, 'l', 00H, 'a', 00H, 'c'
	DB	00H, 'e', 00H, 'm', 00H, 'e', 00H, 'n', 00H, 't', 00H, '(', 00H
	DB	'm', 00H, '_', 00H, 'h', 00H, 'w', 00H, 'n', 00H, 'd', 00H, ','
	DB	00H, '&', 00H, 'P', 00H, 'l', 00H, 'a', 00H, 'c', 00H, 'e', 00H
	DB	')', 00H, 00H, 00H
	ORG $+4
$SG82843 DB	'P', 00H, 'i', 00H, 'n', 00H, ' ', 00H, 'n', 00H, 'o', 00H
	DB	't', 00H, ' ', 00H, 's', 00H, 'e', 00H, 't', 00H, 00H, 00H
$SG82844 DB	'.', 00H, '.', 00H, '\', 00H, 'w', 00H, 'i', 00H, 'n', 00H
	DB	'c', 00H, 't', 00H, 'r', 00H, 'l', 00H, '.', 00H, 'c', 00H, 'p'
	DB	00H, 'p', 00H, 00H, 00H
	ORG $+2
$SG82845 DB	'!', 00H, 'T', 00H, 'E', 00H, 'X', 00H, 'T', 00H, '(', 00H
	DB	'"', 00H, 'P', 00H, 'i', 00H, 'n', 00H, ' ', 00H, 'n', 00H, 'o'
	DB	00H, 't', 00H, ' ', 00H, 's', 00H, 'e', 00H, 't', 00H, '"', 00H
	DB	')', 00H, 00H, 00H
	ORG $+6
$SG82856 DB	'P', 00H, 'i', 00H, 'n', 00H, ' ', 00H, 'n', 00H, 'o', 00H
	DB	't', 00H, ' ', 00H, 's', 00H, 'e', 00H, 't', 00H, 00H, 00H
$SG82857 DB	'.', 00H, '.', 00H, '\', 00H, 'w', 00H, 'i', 00H, 'n', 00H
	DB	'c', 00H, 't', 00H, 'r', 00H, 'l', 00H, '.', 00H, 'c', 00H, 'p'
	DB	00H, 'p', 00H, 00H, 00H
	ORG $+2
$SG82858 DB	'!', 00H, 'T', 00H, 'E', 00H, 'X', 00H, 'T', 00H, '(', 00H
	DB	'"', 00H, 'P', 00H, 'i', 00H, 'n', 00H, ' ', 00H, 'n', 00H, 'o'
	DB	00H, 't', 00H, ' ', 00H, 's', 00H, 'e', 00H, 't', 00H, '"', 00H
	DB	')', 00H, 00H, 00H
	ORG $+6
$SG82869 DB	'P', 00H, 'i', 00H, 'n', 00H, ' ', 00H, 'n', 00H, 'o', 00H
	DB	't', 00H, ' ', 00H, 's', 00H, 'e', 00H, 't', 00H, 00H, 00H
$SG82870 DB	'.', 00H, '.', 00H, '\', 00H, 'w', 00H, 'i', 00H, 'n', 00H
	DB	'c', 00H, 't', 00H, 'r', 00H, 'l', 00H, '.', 00H, 'c', 00H, 'p'
	DB	00H, 'p', 00H, 00H, 00H
	ORG $+2
$SG82871 DB	'!', 00H, 'T', 00H, 'E', 00H, 'X', 00H, 'T', 00H, '(', 00H
	DB	'"', 00H, 'P', 00H, 'i', 00H, 'n', 00H, ' ', 00H, 'n', 00H, 'o'
	DB	00H, 't', 00H, ' ', 00H, 's', 00H, 'e', 00H, 't', 00H, '"', 00H
	DB	')', 00H, 00H, 00H
	ORG $+6
$SG82889 DB	'P', 00H, 'i', 00H, 'n', 00H, ' ', 00H, 'n', 00H, 'o', 00H
	DB	't', 00H, ' ', 00H, 's', 00H, 'e', 00H, 't', 00H, 00H, 00H
$SG82890 DB	'.', 00H, '.', 00H, '\', 00H, 'w', 00H, 'i', 00H, 'n', 00H
	DB	'c', 00H, 't', 00H, 'r', 00H, 'l', 00H, '.', 00H, 'c', 00H, 'p'
	DB	00H, 'p', 00H, 00H, 00H
	ORG $+2
$SG82891 DB	'!', 00H, 'T', 00H, 'E', 00H, 'X', 00H, 'T', 00H, '(', 00H
	DB	'"', 00H, 'P', 00H, 'i', 00H, 'n', 00H, ' ', 00H, 'n', 00H, 'o'
	DB	00H, 't', 00H, ' ', 00H, 's', 00H, 'e', 00H, 't', 00H, '"', 00H
	DB	')', 00H, 00H, 00H
	ORG $+6
$SG82906 DB	'P', 00H, 'i', 00H, 'n', 00H, ' ', 00H, 'n', 00H, 'o', 00H
	DB	't', 00H, ' ', 00H, 's', 00H, 'e', 00H, 't', 00H, 00H, 00H
$SG82907 DB	'.', 00H, '.', 00H, '\', 00H, 'w', 00H, 'i', 00H, 'n', 00H
	DB	'c', 00H, 't', 00H, 'r', 00H, 'l', 00H, '.', 00H, 'c', 00H, 'p'
	DB	00H, 'p', 00H, 00H, 00H
	ORG $+2
$SG82908 DB	'!', 00H, 'T', 00H, 'E', 00H, 'X', 00H, 'T', 00H, '(', 00H
	DB	'"', 00H, 'P', 00H, 'i', 00H, 'n', 00H, ' ', 00H, 'n', 00H, 'o'
	DB	00H, 't', 00H, ' ', 00H, 's', 00H, 'e', 00H, 't', 00H, '"', 00H
	DB	')', 00H, 00H, 00H
	ORG $+6
$SG82923 DB	'P', 00H, 'i', 00H, 'n', 00H, ' ', 00H, 'n', 00H, 'o', 00H
	DB	't', 00H, ' ', 00H, 's', 00H, 'e', 00H, 't', 00H, 00H, 00H
$SG82924 DB	'.', 00H, '.', 00H, '\', 00H, 'w', 00H, 'i', 00H, 'n', 00H
	DB	'c', 00H, 't', 00H, 'r', 00H, 'l', 00H, '.', 00H, 'c', 00H, 'p'
	DB	00H, 'p', 00H, 00H, 00H
	ORG $+2
$SG82925 DB	'!', 00H, 'T', 00H, 'E', 00H, 'X', 00H, 'T', 00H, '(', 00H
	DB	'"', 00H, 'P', 00H, 'i', 00H, 'n', 00H, ' ', 00H, 'n', 00H, 'o'
	DB	00H, 't', 00H, ' ', 00H, 's', 00H, 'e', 00H, 't', 00H, '"', 00H
	DB	')', 00H, 00H, 00H
	ORG $+6
$SG82945 DB	'P', 00H, 'i', 00H, 'n', 00H, ' ', 00H, 'n', 00H, 'o', 00H
	DB	't', 00H, ' ', 00H, 's', 00H, 'e', 00H, 't', 00H, 00H, 00H
$SG82946 DB	'.', 00H, '.', 00H, '\', 00H, 'w', 00H, 'i', 00H, 'n', 00H
	DB	'c', 00H, 't', 00H, 'r', 00H, 'l', 00H, '.', 00H, 'c', 00H, 'p'
	DB	00H, 'p', 00H, 00H, 00H
	ORG $+2
$SG82947 DB	'!', 00H, 'T', 00H, 'E', 00H, 'X', 00H, 'T', 00H, '(', 00H
	DB	'"', 00H, 'P', 00H, 'i', 00H, 'n', 00H, ' ', 00H, 'n', 00H, 'o'
	DB	00H, 't', 00H, ' ', 00H, 's', 00H, 'e', 00H, 't', 00H, '"', 00H
	DB	')', 00H, 00H, 00H
	ORG $+6
$SG82962 DB	'P', 00H, 'i', 00H, 'n', 00H, ' ', 00H, 'n', 00H, 'o', 00H
	DB	't', 00H, ' ', 00H, 's', 00H, 'e', 00H, 't', 00H, 00H, 00H
$SG82963 DB	'.', 00H, '.', 00H, '\', 00H, 'w', 00H, 'i', 00H, 'n', 00H
	DB	'c', 00H, 't', 00H, 'r', 00H, 'l', 00H, '.', 00H, 'c', 00H, 'p'
	DB	00H, 'p', 00H, 00H, 00H
	ORG $+2
$SG82964 DB	'!', 00H, 'T', 00H, 'E', 00H, 'X', 00H, 'T', 00H, '(', 00H
	DB	'"', 00H, 'P', 00H, 'i', 00H, 'n', 00H, ' ', 00H, 'n', 00H, 'o'
	DB	00H, 't', 00H, ' ', 00H, 's', 00H, 'e', 00H, 't', 00H, '"', 00H
	DB	')', 00H, 00H, 00H
	ORG $+6
$SG82979 DB	'P', 00H, 'i', 00H, 'n', 00H, ' ', 00H, 'n', 00H, 'o', 00H
	DB	't', 00H, ' ', 00H, 's', 00H, 'e', 00H, 't', 00H, 00H, 00H
$SG82980 DB	'.', 00H, '.', 00H, '\', 00H, 'w', 00H, 'i', 00H, 'n', 00H
	DB	'c', 00H, 't', 00H, 'r', 00H, 'l', 00H, '.', 00H, 'c', 00H, 'p'
	DB	00H, 'p', 00H, 00H, 00H
	ORG $+2
$SG82981 DB	'!', 00H, 'T', 00H, 'E', 00H, 'X', 00H, 'T', 00H, '(', 00H
	DB	'"', 00H, 'P', 00H, 'i', 00H, 'n', 00H, ' ', 00H, 'n', 00H, 'o'
	DB	00H, 't', 00H, ' ', 00H, 's', 00H, 'e', 00H, 't', 00H, '"', 00H
	DB	')', 00H, 00H, 00H
	ORG $+6
$SG82994 DB	'.', 00H, '.', 00H, '\', 00H, 'w', 00H, 'i', 00H, 'n', 00H
	DB	'c', 00H, 't', 00H, 'r', 00H, 'l', 00H, '.', 00H, 'c', 00H, 'p'
	DB	00H, 'p', 00H, 00H, 00H
	ORG $+2
$SG82995 DB	'm', 00H, '_', 00H, 'p', 00H, 'F', 00H, 'i', 00H, 'l', 00H
	DB	't', 00H, 'e', 00H, 'r', 00H, 00H, 00H
	ORG $+4
$SG82997 DB	'.', 00H, '.', 00H, '\', 00H, 'w', 00H, 'i', 00H, 'n', 00H
	DB	'c', 00H, 't', 00H, 'r', 00H, 'l', 00H, '.', 00H, 'c', 00H, 'p'
	DB	00H, 'p', 00H, 00H, 00H
	ORG $+2
$SG82998 DB	'm', 00H, '_', 00H, 'p', 00H, 'I', 00H, 'n', 00H, 't', 00H
	DB	'e', 00H, 'r', 00H, 'f', 00H, 'a', 00H, 'c', 00H, 'e', 00H, 'L'
	DB	00H, 'o', 00H, 'c', 00H, 'k', 00H, 00H, 00H
	ORG $+6
$SG83000 DB	'.', 00H, '.', 00H, '\', 00H, 'w', 00H, 'i', 00H, 'n', 00H
	DB	'c', 00H, 't', 00H, 'r', 00H, 'l', 00H, '.', 00H, 'c', 00H, 'p'
	DB	00H, 'p', 00H, 00H, 00H
	ORG $+2
$SG83001 DB	'p', 00H, 'h', 00H, 'r', 00H, 00H, 00H
$SG83018 DB	'P', 00H, 'i', 00H, 'n', 00H, ' ', 00H, 'n', 00H, 'o', 00H
	DB	't', 00H, ' ', 00H, 's', 00H, 'e', 00H, 't', 00H, 00H, 00H
$SG83019 DB	'.', 00H, '.', 00H, '\', 00H, 'w', 00H, 'i', 00H, 'n', 00H
	DB	'c', 00H, 't', 00H, 'r', 00H, 'l', 00H, '.', 00H, 'c', 00H, 'p'
	DB	00H, 'p', 00H, 00H, 00H
	ORG $+2
$SG83020 DB	'!', 00H, 'T', 00H, 'E', 00H, 'X', 00H, 'T', 00H, '(', 00H
	DB	'"', 00H, 'P', 00H, 'i', 00H, 'n', 00H, ' ', 00H, 'n', 00H, 'o'
	DB	00H, 't', 00H, ' ', 00H, 's', 00H, 'e', 00H, 't', 00H, '"', 00H
	DB	')', 00H, 00H, 00H
	ORG $+6
$SG83040 DB	'P', 00H, 'i', 00H, 'n', 00H, ' ', 00H, 'n', 00H, 'o', 00H
	DB	't', 00H, ' ', 00H, 's', 00H, 'e', 00H, 't', 00H, 00H, 00H
$SG83041 DB	'.', 00H, '.', 00H, '\', 00H, 'w', 00H, 'i', 00H, 'n', 00H
	DB	'c', 00H, 't', 00H, 'r', 00H, 'l', 00H, '.', 00H, 'c', 00H, 'p'
	DB	00H, 'p', 00H, 00H, 00H
	ORG $+2
$SG83042 DB	'!', 00H, 'T', 00H, 'E', 00H, 'X', 00H, 'T', 00H, '(', 00H
	DB	'"', 00H, 'P', 00H, 'i', 00H, 'n', 00H, ' ', 00H, 'n', 00H, 'o'
	DB	00H, 't', 00H, ' ', 00H, 's', 00H, 'e', 00H, 't', 00H, '"', 00H
	DB	')', 00H, 00H, 00H
	ORG $+6
$SG83060 DB	'P', 00H, 'i', 00H, 'n', 00H, ' ', 00H, 'n', 00H, 'o', 00H
	DB	't', 00H, ' ', 00H, 's', 00H, 'e', 00H, 't', 00H, 00H, 00H
$SG83061 DB	'.', 00H, '.', 00H, '\', 00H, 'w', 00H, 'i', 00H, 'n', 00H
	DB	'c', 00H, 't', 00H, 'r', 00H, 'l', 00H, '.', 00H, 'c', 00H, 'p'
	DB	00H, 'p', 00H, 00H, 00H
	ORG $+2
$SG83062 DB	'!', 00H, 'T', 00H, 'E', 00H, 'X', 00H, 'T', 00H, '(', 00H
	DB	'"', 00H, 'P', 00H, 'i', 00H, 'n', 00H, ' ', 00H, 'n', 00H, 'o'
	DB	00H, 't', 00H, ' ', 00H, 's', 00H, 'e', 00H, 't', 00H, '"', 00H
	DB	')', 00H, 00H, 00H
	ORG $+6
$SG83080 DB	'P', 00H, 'i', 00H, 'n', 00H, ' ', 00H, 'n', 00H, 'o', 00H
	DB	't', 00H, ' ', 00H, 's', 00H, 'e', 00H, 't', 00H, 00H, 00H
$SG83081 DB	'.', 00H, '.', 00H, '\', 00H, 'w', 00H, 'i', 00H, 'n', 00H
	DB	'c', 00H, 't', 00H, 'r', 00H, 'l', 00H, '.', 00H, 'c', 00H, 'p'
	DB	00H, 'p', 00H, 00H, 00H
	ORG $+2
$SG83082 DB	'!', 00H, 'T', 00H, 'E', 00H, 'X', 00H, 'T', 00H, '(', 00H
	DB	'"', 00H, 'P', 00H, 'i', 00H, 'n', 00H, ' ', 00H, 'n', 00H, 'o'
	DB	00H, 't', 00H, ' ', 00H, 's', 00H, 'e', 00H, 't', 00H, '"', 00H
	DB	')', 00H, 00H, 00H
	ORG $+6
$SG83100 DB	'P', 00H, 'i', 00H, 'n', 00H, ' ', 00H, 'n', 00H, 'o', 00H
	DB	't', 00H, ' ', 00H, 's', 00H, 'e', 00H, 't', 00H, 00H, 00H
$SG83101 DB	'.', 00H, '.', 00H, '\', 00H, 'w', 00H, 'i', 00H, 'n', 00H
	DB	'c', 00H, 't', 00H, 'r', 00H, 'l', 00H, '.', 00H, 'c', 00H, 'p'
	DB	00H, 'p', 00H, 00H, 00H
	ORG $+2
$SG83102 DB	'!', 00H, 'T', 00H, 'E', 00H, 'X', 00H, 'T', 00H, '(', 00H
	DB	'"', 00H, 'P', 00H, 'i', 00H, 'n', 00H, ' ', 00H, 'n', 00H, 'o'
	DB	00H, 't', 00H, ' ', 00H, 's', 00H, 'e', 00H, 't', 00H, '"', 00H
	DB	')', 00H, 00H, 00H
	ORG $+6
$SG83123 DB	'P', 00H, 'i', 00H, 'n', 00H, ' ', 00H, 'n', 00H, 'o', 00H
	DB	't', 00H, ' ', 00H, 's', 00H, 'e', 00H, 't', 00H, 00H, 00H
$SG83124 DB	'.', 00H, '.', 00H, '\', 00H, 'w', 00H, 'i', 00H, 'n', 00H
	DB	'c', 00H, 't', 00H, 'r', 00H, 'l', 00H, '.', 00H, 'c', 00H, 'p'
	DB	00H, 'p', 00H, 00H, 00H
	ORG $+2
$SG83125 DB	'!', 00H, 'T', 00H, 'E', 00H, 'X', 00H, 'T', 00H, '(', 00H
	DB	'"', 00H, 'P', 00H, 'i', 00H, 'n', 00H, ' ', 00H, 'n', 00H, 'o'
	DB	00H, 't', 00H, ' ', 00H, 's', 00H, 'e', 00H, 't', 00H, '"', 00H
	DB	')', 00H, 00H, 00H
	ORG $+6
$SG83173 DB	'P', 00H, 'i', 00H, 'n', 00H, ' ', 00H, 'n', 00H, 'o', 00H
	DB	't', 00H, ' ', 00H, 's', 00H, 'e', 00H, 't', 00H, 00H, 00H
$SG83174 DB	'.', 00H, '.', 00H, '\', 00H, 'w', 00H, 'i', 00H, 'n', 00H
	DB	'c', 00H, 't', 00H, 'r', 00H, 'l', 00H, '.', 00H, 'c', 00H, 'p'
	DB	00H, 'p', 00H, 00H, 00H
	ORG $+2
$SG83175 DB	'!', 00H, 'T', 00H, 'E', 00H, 'X', 00H, 'T', 00H, '(', 00H
	DB	'"', 00H, 'P', 00H, 'i', 00H, 'n', 00H, ' ', 00H, 'n', 00H, 'o'
	DB	00H, 't', 00H, ' ', 00H, 's', 00H, 'e', 00H, 't', 00H, '"', 00H
	DB	')', 00H, 00H, 00H
	ORG $+6
$SG83194 DB	'P', 00H, 'i', 00H, 'n', 00H, ' ', 00H, 'n', 00H, 'o', 00H
	DB	't', 00H, ' ', 00H, 's', 00H, 'e', 00H, 't', 00H, 00H, 00H
$SG83195 DB	'.', 00H, '.', 00H, '\', 00H, 'w', 00H, 'i', 00H, 'n', 00H
	DB	'c', 00H, 't', 00H, 'r', 00H, 'l', 00H, '.', 00H, 'c', 00H, 'p'
	DB	00H, 'p', 00H, 00H, 00H
	ORG $+2
$SG83196 DB	'!', 00H, 'T', 00H, 'E', 00H, 'X', 00H, 'T', 00H, '(', 00H
	DB	'"', 00H, 'P', 00H, 'i', 00H, 'n', 00H, ' ', 00H, 'n', 00H, 'o'
	DB	00H, 't', 00H, ' ', 00H, 's', 00H, 'e', 00H, 't', 00H, '"', 00H
	DB	')', 00H, 00H, 00H
	ORG $+6
$SG83227 DB	'P', 00H, 'i', 00H, 'n', 00H, ' ', 00H, 'n', 00H, 'o', 00H
	DB	't', 00H, ' ', 00H, 's', 00H, 'e', 00H, 't', 00H, 00H, 00H
$SG83228 DB	'.', 00H, '.', 00H, '\', 00H, 'w', 00H, 'i', 00H, 'n', 00H
	DB	'c', 00H, 't', 00H, 'r', 00H, 'l', 00H, '.', 00H, 'c', 00H, 'p'
	DB	00H, 'p', 00H, 00H, 00H
	ORG $+2
$SG83229 DB	'!', 00H, 'T', 00H, 'E', 00H, 'X', 00H, 'T', 00H, '(', 00H
	DB	'"', 00H, 'P', 00H, 'i', 00H, 'n', 00H, ' ', 00H, 'n', 00H, 'o'
	DB	00H, 't', 00H, ' ', 00H, 's', 00H, 'e', 00H, 't', 00H, '"', 00H
	DB	')', 00H, 00H, 00H
	ORG $+6
$SG83245 DB	'P', 00H, 'i', 00H, 'n', 00H, ' ', 00H, 'n', 00H, 'o', 00H
	DB	't', 00H, ' ', 00H, 's', 00H, 'e', 00H, 't', 00H, 00H, 00H
$SG83246 DB	'.', 00H, '.', 00H, '\', 00H, 'w', 00H, 'i', 00H, 'n', 00H
	DB	'c', 00H, 't', 00H, 'r', 00H, 'l', 00H, '.', 00H, 'c', 00H, 'p'
	DB	00H, 'p', 00H, 00H, 00H
	ORG $+2
$SG83247 DB	'!', 00H, 'T', 00H, 'E', 00H, 'X', 00H, 'T', 00H, '(', 00H
	DB	'"', 00H, 'P', 00H, 'i', 00H, 'n', 00H, ' ', 00H, 'n', 00H, 'o'
	DB	00H, 't', 00H, ' ', 00H, 's', 00H, 'e', 00H, 't', 00H, '"', 00H
	DB	')', 00H, 00H, 00H
	ORG $+6
$SG83278 DB	'P', 00H, 'i', 00H, 'n', 00H, ' ', 00H, 'n', 00H, 'o', 00H
	DB	't', 00H, ' ', 00H, 's', 00H, 'e', 00H, 't', 00H, 00H, 00H
$SG83279 DB	'.', 00H, '.', 00H, '\', 00H, 'w', 00H, 'i', 00H, 'n', 00H
	DB	'c', 00H, 't', 00H, 'r', 00H, 'l', 00H, '.', 00H, 'c', 00H, 'p'
	DB	00H, 'p', 00H, 00H, 00H
	ORG $+2
$SG83280 DB	'!', 00H, 'T', 00H, 'E', 00H, 'X', 00H, 'T', 00H, '(', 00H
	DB	'"', 00H, 'P', 00H, 'i', 00H, 'n', 00H, ' ', 00H, 'n', 00H, 'o'
	DB	00H, 't', 00H, ' ', 00H, 's', 00H, 'e', 00H, 't', 00H, '"', 00H
	DB	')', 00H, 00H, 00H
	ORG $+6
$SG83293 DB	'P', 00H, 'i', 00H, 'n', 00H, ' ', 00H, 'n', 00H, 'o', 00H
	DB	't', 00H, ' ', 00H, 's', 00H, 'e', 00H, 't', 00H, 00H, 00H
$SG83294 DB	'.', 00H, '.', 00H, '\', 00H, 'w', 00H, 'i', 00H, 'n', 00H
	DB	'c', 00H, 't', 00H, 'r', 00H, 'l', 00H, '.', 00H, 'c', 00H, 'p'
	DB	00H, 'p', 00H, 00H, 00H
	ORG $+2
$SG83295 DB	'!', 00H, 'T', 00H, 'E', 00H, 'X', 00H, 'T', 00H, '(', 00H
	DB	'"', 00H, 'P', 00H, 'i', 00H, 'n', 00H, ' ', 00H, 'n', 00H, 'o'
	DB	00H, 't', 00H, ' ', 00H, 's', 00H, 'e', 00H, 't', 00H, '"', 00H
	DB	')', 00H, 00H, 00H
	ORG $+6
$SG83317 DB	'P', 00H, 'i', 00H, 'n', 00H, ' ', 00H, 'n', 00H, 'o', 00H
	DB	't', 00H, ' ', 00H, 's', 00H, 'e', 00H, 't', 00H, 00H, 00H
$SG83318 DB	'.', 00H, '.', 00H, '\', 00H, 'w', 00H, 'i', 00H, 'n', 00H
	DB	'c', 00H, 't', 00H, 'r', 00H, 'l', 00H, '.', 00H, 'c', 00H, 'p'
	DB	00H, 'p', 00H, 00H, 00H
	ORG $+2
$SG83319 DB	'!', 00H, 'T', 00H, 'E', 00H, 'X', 00H, 'T', 00H, '(', 00H
	DB	'"', 00H, 'P', 00H, 'i', 00H, 'n', 00H, ' ', 00H, 'n', 00H, 'o'
	DB	00H, 't', 00H, ' ', 00H, 's', 00H, 'e', 00H, 't', 00H, '"', 00H
	DB	')', 00H, 00H, 00H
	ORG $+6
$SG83332 DB	'P', 00H, 'i', 00H, 'n', 00H, ' ', 00H, 'n', 00H, 'o', 00H
	DB	't', 00H, ' ', 00H, 's', 00H, 'e', 00H, 't', 00H, 00H, 00H
$SG83333 DB	'.', 00H, '.', 00H, '\', 00H, 'w', 00H, 'i', 00H, 'n', 00H
	DB	'c', 00H, 't', 00H, 'r', 00H, 'l', 00H, '.', 00H, 'c', 00H, 'p'
	DB	00H, 'p', 00H, 00H, 00H
	ORG $+2
$SG83334 DB	'!', 00H, 'T', 00H, 'E', 00H, 'X', 00H, 'T', 00H, '(', 00H
	DB	'"', 00H, 'P', 00H, 'i', 00H, 'n', 00H, ' ', 00H, 'n', 00H, 'o'
	DB	00H, 't', 00H, ' ', 00H, 's', 00H, 'e', 00H, 't', 00H, '"', 00H
	DB	')', 00H, 00H, 00H
	ORG $+6
$SG83356 DB	'P', 00H, 'i', 00H, 'n', 00H, ' ', 00H, 'n', 00H, 'o', 00H
	DB	't', 00H, ' ', 00H, 's', 00H, 'e', 00H, 't', 00H, 00H, 00H
$SG83357 DB	'.', 00H, '.', 00H, '\', 00H, 'w', 00H, 'i', 00H, 'n', 00H
	DB	'c', 00H, 't', 00H, 'r', 00H, 'l', 00H, '.', 00H, 'c', 00H, 'p'
	DB	00H, 'p', 00H, 00H, 00H
	ORG $+2
$SG83358 DB	'!', 00H, 'T', 00H, 'E', 00H, 'X', 00H, 'T', 00H, '(', 00H
	DB	'"', 00H, 'P', 00H, 'i', 00H, 'n', 00H, ' ', 00H, 'n', 00H, 'o'
	DB	00H, 't', 00H, ' ', 00H, 's', 00H, 'e', 00H, 't', 00H, '"', 00H
	DB	')', 00H, 00H, 00H
	ORG $+6
$SG83371 DB	'P', 00H, 'i', 00H, 'n', 00H, ' ', 00H, 'n', 00H, 'o', 00H
	DB	't', 00H, ' ', 00H, 's', 00H, 'e', 00H, 't', 00H, 00H, 00H
$SG83372 DB	'.', 00H, '.', 00H, '\', 00H, 'w', 00H, 'i', 00H, 'n', 00H
	DB	'c', 00H, 't', 00H, 'r', 00H, 'l', 00H, '.', 00H, 'c', 00H, 'p'
	DB	00H, 'p', 00H, 00H, 00H
	ORG $+2
$SG83373 DB	'!', 00H, 'T', 00H, 'E', 00H, 'X', 00H, 'T', 00H, '(', 00H
	DB	'"', 00H, 'P', 00H, 'i', 00H, 'n', 00H, ' ', 00H, 'n', 00H, 'o'
	DB	00H, 't', 00H, ' ', 00H, 's', 00H, 'e', 00H, 't', 00H, '"', 00H
	DB	')', 00H, 00H, 00H
	ORG $+6
$SG83395 DB	'P', 00H, 'i', 00H, 'n', 00H, ' ', 00H, 'n', 00H, 'o', 00H
	DB	't', 00H, ' ', 00H, 's', 00H, 'e', 00H, 't', 00H, 00H, 00H
$SG83396 DB	'.', 00H, '.', 00H, '\', 00H, 'w', 00H, 'i', 00H, 'n', 00H
	DB	'c', 00H, 't', 00H, 'r', 00H, 'l', 00H, '.', 00H, 'c', 00H, 'p'
	DB	00H, 'p', 00H, 00H, 00H
	ORG $+2
$SG83397 DB	'!', 00H, 'T', 00H, 'E', 00H, 'X', 00H, 'T', 00H, '(', 00H
	DB	'"', 00H, 'P', 00H, 'i', 00H, 'n', 00H, ' ', 00H, 'n', 00H, 'o'
	DB	00H, 't', 00H, ' ', 00H, 's', 00H, 'e', 00H, 't', 00H, '"', 00H
	DB	')', 00H, 00H, 00H
	ORG $+6
$SG83410 DB	'P', 00H, 'i', 00H, 'n', 00H, ' ', 00H, 'n', 00H, 'o', 00H
	DB	't', 00H, ' ', 00H, 's', 00H, 'e', 00H, 't', 00H, 00H, 00H
$SG83411 DB	'.', 00H, '.', 00H, '\', 00H, 'w', 00H, 'i', 00H, 'n', 00H
	DB	'c', 00H, 't', 00H, 'r', 00H, 'l', 00H, '.', 00H, 'c', 00H, 'p'
	DB	00H, 'p', 00H, 00H, 00H
	ORG $+2
$SG83412 DB	'!', 00H, 'T', 00H, 'E', 00H, 'X', 00H, 'T', 00H, '(', 00H
	DB	'"', 00H, 'P', 00H, 'i', 00H, 'n', 00H, ' ', 00H, 'n', 00H, 'o'
	DB	00H, 't', 00H, ' ', 00H, 's', 00H, 'e', 00H, 't', 00H, '"', 00H
	DB	')', 00H, 00H, 00H
	ORG $+6
$SG83434 DB	'P', 00H, 'i', 00H, 'n', 00H, ' ', 00H, 'n', 00H, 'o', 00H
	DB	't', 00H, ' ', 00H, 's', 00H, 'e', 00H, 't', 00H, 00H, 00H
$SG83435 DB	'.', 00H, '.', 00H, '\', 00H, 'w', 00H, 'i', 00H, 'n', 00H
	DB	'c', 00H, 't', 00H, 'r', 00H, 'l', 00H, '.', 00H, 'c', 00H, 'p'
	DB	00H, 'p', 00H, 00H, 00H
	ORG $+2
$SG83436 DB	'!', 00H, 'T', 00H, 'E', 00H, 'X', 00H, 'T', 00H, '(', 00H
	DB	'"', 00H, 'P', 00H, 'i', 00H, 'n', 00H, ' ', 00H, 'n', 00H, 'o'
	DB	00H, 't', 00H, ' ', 00H, 's', 00H, 'e', 00H, 't', 00H, '"', 00H
	DB	')', 00H, 00H, 00H
	ORG $+6
$SG83449 DB	'P', 00H, 'i', 00H, 'n', 00H, ' ', 00H, 'n', 00H, 'o', 00H
	DB	't', 00H, ' ', 00H, 's', 00H, 'e', 00H, 't', 00H, 00H, 00H
$SG83450 DB	'.', 00H, '.', 00H, '\', 00H, 'w', 00H, 'i', 00H, 'n', 00H
	DB	'c', 00H, 't', 00H, 'r', 00H, 'l', 00H, '.', 00H, 'c', 00H, 'p'
	DB	00H, 'p', 00H, 00H, 00H
	ORG $+2
$SG83451 DB	'!', 00H, 'T', 00H, 'E', 00H, 'X', 00H, 'T', 00H, '(', 00H
	DB	'"', 00H, 'P', 00H, 'i', 00H, 'n', 00H, ' ', 00H, 'n', 00H, 'o'
	DB	00H, 't', 00H, ' ', 00H, 's', 00H, 'e', 00H, 't', 00H, '"', 00H
	DB	')', 00H, 00H, 00H
	ORG $+6
$SG83473 DB	'P', 00H, 'i', 00H, 'n', 00H, ' ', 00H, 'n', 00H, 'o', 00H
	DB	't', 00H, ' ', 00H, 's', 00H, 'e', 00H, 't', 00H, 00H, 00H
$SG83474 DB	'.', 00H, '.', 00H, '\', 00H, 'w', 00H, 'i', 00H, 'n', 00H
	DB	'c', 00H, 't', 00H, 'r', 00H, 'l', 00H, '.', 00H, 'c', 00H, 'p'
	DB	00H, 'p', 00H, 00H, 00H
	ORG $+2
$SG83475 DB	'!', 00H, 'T', 00H, 'E', 00H, 'X', 00H, 'T', 00H, '(', 00H
	DB	'"', 00H, 'P', 00H, 'i', 00H, 'n', 00H, ' ', 00H, 'n', 00H, 'o'
	DB	00H, 't', 00H, ' ', 00H, 's', 00H, 'e', 00H, 't', 00H, '"', 00H
	DB	')', 00H, 00H, 00H
	ORG $+6
$SG83488 DB	'P', 00H, 'i', 00H, 'n', 00H, ' ', 00H, 'n', 00H, 'o', 00H
	DB	't', 00H, ' ', 00H, 's', 00H, 'e', 00H, 't', 00H, 00H, 00H
$SG83489 DB	'.', 00H, '.', 00H, '\', 00H, 'w', 00H, 'i', 00H, 'n', 00H
	DB	'c', 00H, 't', 00H, 'r', 00H, 'l', 00H, '.', 00H, 'c', 00H, 'p'
	DB	00H, 'p', 00H, 00H, 00H
	ORG $+2
$SG83490 DB	'!', 00H, 'T', 00H, 'E', 00H, 'X', 00H, 'T', 00H, '(', 00H
	DB	'"', 00H, 'P', 00H, 'i', 00H, 'n', 00H, ' ', 00H, 'n', 00H, 'o'
	DB	00H, 't', 00H, ' ', 00H, 's', 00H, 'e', 00H, 't', 00H, '"', 00H
	DB	')', 00H, 00H, 00H
	ORG $+6
$SG83512 DB	'P', 00H, 'i', 00H, 'n', 00H, ' ', 00H, 'n', 00H, 'o', 00H
	DB	't', 00H, ' ', 00H, 's', 00H, 'e', 00H, 't', 00H, 00H, 00H
$SG83513 DB	'.', 00H, '.', 00H, '\', 00H, 'w', 00H, 'i', 00H, 'n', 00H
	DB	'c', 00H, 't', 00H, 'r', 00H, 'l', 00H, '.', 00H, 'c', 00H, 'p'
	DB	00H, 'p', 00H, 00H, 00H
	ORG $+2
$SG83514 DB	'!', 00H, 'T', 00H, 'E', 00H, 'X', 00H, 'T', 00H, '(', 00H
	DB	'"', 00H, 'P', 00H, 'i', 00H, 'n', 00H, ' ', 00H, 'n', 00H, 'o'
	DB	00H, 't', 00H, ' ', 00H, 's', 00H, 'e', 00H, 't', 00H, '"', 00H
	DB	')', 00H, 00H, 00H
	ORG $+6
$SG83527 DB	'P', 00H, 'i', 00H, 'n', 00H, ' ', 00H, 'n', 00H, 'o', 00H
	DB	't', 00H, ' ', 00H, 's', 00H, 'e', 00H, 't', 00H, 00H, 00H
$SG83528 DB	'.', 00H, '.', 00H, '\', 00H, 'w', 00H, 'i', 00H, 'n', 00H
	DB	'c', 00H, 't', 00H, 'r', 00H, 'l', 00H, '.', 00H, 'c', 00H, 'p'
	DB	00H, 'p', 00H, 00H, 00H
	ORG $+2
$SG83529 DB	'!', 00H, 'T', 00H, 'E', 00H, 'X', 00H, 'T', 00H, '(', 00H
	DB	'"', 00H, 'P', 00H, 'i', 00H, 'n', 00H, ' ', 00H, 'n', 00H, 'o'
	DB	00H, 't', 00H, ' ', 00H, 's', 00H, 'e', 00H, 't', 00H, '"', 00H
	DB	')', 00H, 00H, 00H
	ORG $+6
$SG83551 DB	'P', 00H, 'i', 00H, 'n', 00H, ' ', 00H, 'n', 00H, 'o', 00H
	DB	't', 00H, ' ', 00H, 's', 00H, 'e', 00H, 't', 00H, 00H, 00H
$SG83552 DB	'.', 00H, '.', 00H, '\', 00H, 'w', 00H, 'i', 00H, 'n', 00H
	DB	'c', 00H, 't', 00H, 'r', 00H, 'l', 00H, '.', 00H, 'c', 00H, 'p'
	DB	00H, 'p', 00H, 00H, 00H
	ORG $+2
$SG83553 DB	'!', 00H, 'T', 00H, 'E', 00H, 'X', 00H, 'T', 00H, '(', 00H
	DB	'"', 00H, 'P', 00H, 'i', 00H, 'n', 00H, ' ', 00H, 'n', 00H, 'o'
	DB	00H, 't', 00H, ' ', 00H, 's', 00H, 'e', 00H, 't', 00H, '"', 00H
	DB	')', 00H, 00H, 00H
	ORG $+6
$SG83566 DB	'P', 00H, 'i', 00H, 'n', 00H, ' ', 00H, 'n', 00H, 'o', 00H
	DB	't', 00H, ' ', 00H, 's', 00H, 'e', 00H, 't', 00H, 00H, 00H
$SG83567 DB	'.', 00H, '.', 00H, '\', 00H, 'w', 00H, 'i', 00H, 'n', 00H
	DB	'c', 00H, 't', 00H, 'r', 00H, 'l', 00H, '.', 00H, 'c', 00H, 'p'
	DB	00H, 'p', 00H, 00H, 00H
	ORG $+2
$SG83568 DB	'!', 00H, 'T', 00H, 'E', 00H, 'X', 00H, 'T', 00H, '(', 00H
	DB	'"', 00H, 'P', 00H, 'i', 00H, 'n', 00H, ' ', 00H, 'n', 00H, 'o'
	DB	00H, 't', 00H, ' ', 00H, 's', 00H, 'e', 00H, 't', 00H, '"', 00H
	DB	')', 00H, 00H, 00H
	ORG $+6
$SG83590 DB	'P', 00H, 'i', 00H, 'n', 00H, ' ', 00H, 'n', 00H, 'o', 00H
	DB	't', 00H, ' ', 00H, 's', 00H, 'e', 00H, 't', 00H, 00H, 00H
$SG83591 DB	'.', 00H, '.', 00H, '\', 00H, 'w', 00H, 'i', 00H, 'n', 00H
	DB	'c', 00H, 't', 00H, 'r', 00H, 'l', 00H, '.', 00H, 'c', 00H, 'p'
	DB	00H, 'p', 00H, 00H, 00H
	ORG $+2
$SG83592 DB	'!', 00H, 'T', 00H, 'E', 00H, 'X', 00H, 'T', 00H, '(', 00H
	DB	'"', 00H, 'P', 00H, 'i', 00H, 'n', 00H, ' ', 00H, 'n', 00H, 'o'
	DB	00H, 't', 00H, ' ', 00H, 's', 00H, 'e', 00H, 't', 00H, '"', 00H
	DB	')', 00H, 00H, 00H
	ORG $+6
$SG83604 DB	'P', 00H, 'i', 00H, 'n', 00H, ' ', 00H, 'n', 00H, 'o', 00H
	DB	't', 00H, ' ', 00H, 's', 00H, 'e', 00H, 't', 00H, 00H, 00H
$SG83605 DB	'.', 00H, '.', 00H, '\', 00H, 'w', 00H, 'i', 00H, 'n', 00H
	DB	'c', 00H, 't', 00H, 'r', 00H, 'l', 00H, '.', 00H, 'c', 00H, 'p'
	DB	00H, 'p', 00H, 00H, 00H
	ORG $+2
$SG83606 DB	'!', 00H, 'T', 00H, 'E', 00H, 'X', 00H, 'T', 00H, '(', 00H
	DB	'"', 00H, 'P', 00H, 'i', 00H, 'n', 00H, ' ', 00H, 'n', 00H, 'o'
	DB	00H, 't', 00H, ' ', 00H, 's', 00H, 'e', 00H, 't', 00H, '"', 00H
	DB	')', 00H, 00H, 00H
	ORG $+6
$SG83621 DB	'P', 00H, 'i', 00H, 'n', 00H, ' ', 00H, 'n', 00H, 'o', 00H
	DB	't', 00H, ' ', 00H, 's', 00H, 'e', 00H, 't', 00H, 00H, 00H
$SG83622 DB	'.', 00H, '.', 00H, '\', 00H, 'w', 00H, 'i', 00H, 'n', 00H
	DB	'c', 00H, 't', 00H, 'r', 00H, 'l', 00H, '.', 00H, 'c', 00H, 'p'
	DB	00H, 'p', 00H, 00H, 00H
	ORG $+2
$SG83623 DB	'!', 00H, 'T', 00H, 'E', 00H, 'X', 00H, 'T', 00H, '(', 00H
	DB	'"', 00H, 'P', 00H, 'i', 00H, 'n', 00H, ' ', 00H, 'n', 00H, 'o'
	DB	00H, 't', 00H, ' ', 00H, 's', 00H, 'e', 00H, 't', 00H, '"', 00H
	DB	')', 00H, 00H, 00H
	ORG $+6
$SG83634 DB	'P', 00H, 'i', 00H, 'n', 00H, ' ', 00H, 'n', 00H, 'o', 00H
	DB	't', 00H, ' ', 00H, 's', 00H, 'e', 00H, 't', 00H, 00H, 00H
$SG83635 DB	'.', 00H, '.', 00H, '\', 00H, 'w', 00H, 'i', 00H, 'n', 00H
	DB	'c', 00H, 't', 00H, 'r', 00H, 'l', 00H, '.', 00H, 'c', 00H, 'p'
	DB	00H, 'p', 00H, 00H, 00H
	ORG $+2
$SG83636 DB	'!', 00H, 'T', 00H, 'E', 00H, 'X', 00H, 'T', 00H, '(', 00H
	DB	'"', 00H, 'P', 00H, 'i', 00H, 'n', 00H, ' ', 00H, 'n', 00H, 'o'
	DB	00H, 't', 00H, ' ', 00H, 's', 00H, 'e', 00H, 't', 00H, '"', 00H
	DB	')', 00H, 00H, 00H
	ORG $+6
$SG83651 DB	'P', 00H, 'i', 00H, 'n', 00H, ' ', 00H, 'n', 00H, 'o', 00H
	DB	't', 00H, ' ', 00H, 's', 00H, 'e', 00H, 't', 00H, 00H, 00H
$SG83652 DB	'.', 00H, '.', 00H, '\', 00H, 'w', 00H, 'i', 00H, 'n', 00H
	DB	'c', 00H, 't', 00H, 'r', 00H, 'l', 00H, '.', 00H, 'c', 00H, 'p'
	DB	00H, 'p', 00H, 00H, 00H
	ORG $+2
$SG83653 DB	'!', 00H, 'T', 00H, 'E', 00H, 'X', 00H, 'T', 00H, '(', 00H
	DB	'"', 00H, 'P', 00H, 'i', 00H, 'n', 00H, ' ', 00H, 'n', 00H, 'o'
	DB	00H, 't', 00H, ' ', 00H, 's', 00H, 'e', 00H, 't', 00H, '"', 00H
	DB	')', 00H, 00H, 00H
	ORG $+6
$SG83668 DB	'P', 00H, 'i', 00H, 'n', 00H, ' ', 00H, 'n', 00H, 'o', 00H
	DB	't', 00H, ' ', 00H, 's', 00H, 'e', 00H, 't', 00H, 00H, 00H
$SG83669 DB	'.', 00H, '.', 00H, '\', 00H, 'w', 00H, 'i', 00H, 'n', 00H
	DB	'c', 00H, 't', 00H, 'r', 00H, 'l', 00H, '.', 00H, 'c', 00H, 'p'
	DB	00H, 'p', 00H, 00H, 00H
	ORG $+2
$SG83670 DB	'!', 00H, 'T', 00H, 'E', 00H, 'X', 00H, 'T', 00H, '(', 00H
	DB	'"', 00H, 'P', 00H, 'i', 00H, 'n', 00H, ' ', 00H, 'n', 00H, 'o'
	DB	00H, 't', 00H, ' ', 00H, 's', 00H, 'e', 00H, 't', 00H, '"', 00H
	DB	')', 00H, 00H, 00H
	ORG $+6
$SG83693 DB	'E', 00H, 'n', 00H, 't', 00H, 'e', 00H, 'r', 00H, 'i', 00H
	DB	'n', 00H, 'g', 00H, ' ', 00H, 'G', 00H, 'e', 00H, 't', 00H, 'I'
	DB	00H, 'm', 00H, 'a', 00H, 'g', 00H, 'e', 00H, 'S', 00H, 'i', 00H
	DB	'z', 00H, 'e', 00H, 00H, 00H
	ORG $+4
$SG83695 DB	'.', 00H, '.', 00H, '\', 00H, 'w', 00H, 'i', 00H, 'n', 00H
	DB	'c', 00H, 't', 00H, 'r', 00H, 'l', 00H, '.', 00H, 'c', 00H, 'p'
	DB	00H, 'p', 00H, 00H, 00H
	ORG $+2
$SG83696 DB	'p', 00H, 'S', 00H, 'o', 00H, 'u', 00H, 'r', 00H, 'c', 00H
	DB	'e', 00H, 'R', 00H, 'e', 00H, 'c', 00H, 't', 00H, 00H, 00H
$SG83704 DB	'.', 00H, '.', 00H, '\', 00H, 'w', 00H, 'i', 00H, 'n', 00H
	DB	'c', 00H, 't', 00H, 'r', 00H, 'l', 00H, '.', 00H, 'c', 00H, 'p'
	DB	00H, 'p', 00H, 00H, 00H
	ORG $+2
$SG83705 DB	'I', 00H, 's', 00H, 'R', 00H, 'e', 00H, 'c', 00H, 't', 00H
	DB	'E', 00H, 'm', 00H, 'p', 00H, 't', 00H, 'y', 00H, '(', 00H, 'p'
	DB	00H, 'S', 00H, 'o', 00H, 'u', 00H, 'r', 00H, 'c', 00H, 'e', 00H
	DB	'R', 00H, 'e', 00H, 'c', 00H, 't', 00H, ')', 00H, ' ', 00H, '='
	DB	00H, '=', 00H, ' ', 00H, 'F', 00H, 'A', 00H, 'L', 00H, 'S', 00H
	DB	'E', 00H, 00H, 00H
	ORG $+4
$SG83730 DB	'E', 00H, 'n', 00H, 't', 00H, 'e', 00H, 'r', 00H, 'i', 00H
	DB	'n', 00H, 'g', 00H, ' ', 00H, 'C', 00H, 'o', 00H, 'p', 00H, 'y'
	DB	00H, 'I', 00H, 'm', 00H, 'a', 00H, 'g', 00H, 'e', 00H, 00H, 00H
	ORG $+2
$SG83732 DB	'.', 00H, '.', 00H, '\', 00H, 'w', 00H, 'i', 00H, 'n', 00H
	DB	'c', 00H, 't', 00H, 'r', 00H, 'l', 00H, '.', 00H, 'c', 00H, 'p'
	DB	00H, 'p', 00H, 00H, 00H
	ORG $+2
$SG83733 DB	'p', 00H, 'S', 00H, 'o', 00H, 'u', 00H, 'r', 00H, 'c', 00H
	DB	'e', 00H, 'R', 00H, 'e', 00H, 'c', 00H, 't', 00H, 00H, 00H
$SG83742 DB	'.', 00H, '.', 00H, '\', 00H, 'w', 00H, 'i', 00H, 'n', 00H
	DB	'c', 00H, 't', 00H, 'r', 00H, 'l', 00H, '.', 00H, 'c', 00H, 'p'
	DB	00H, 'p', 00H, 00H, 00H
	ORG $+10
$SG83743 DB	'I', 00H, 's', 00H, 'R', 00H, 'e', 00H, 'c', 00H, 't', 00H
	DB	'E', 00H, 'm', 00H, 'p', 00H, 't', 00H, 'y', 00H, '(', 00H, 'p'
	DB	00H, 'S', 00H, 'o', 00H, 'u', 00H, 'r', 00H, 'c', 00H, 'e', 00H
	DB	'R', 00H, 'e', 00H, 'c', 00H, 't', 00H, ')', 00H, ' ', 00H, '='
	DB	00H, '=', 00H, ' ', 00H, 'F', 00H, 'A', 00H, 'L', 00H, 'S', 00H
	DB	'E', 00H, 00H, 00H
	ORG $+4
$SG83857 DB	'.', 00H, '.', 00H, '\', 00H, 'w', 00H, 'i', 00H, 'n', 00H
	DB	'c', 00H, 't', 00H, 'r', 00H, 'l', 00H, '.', 00H, 'c', 00H, 'p'
	DB	00H, 'p', 00H, 00H, 00H
	ORG $+10
$SG83858 DB	'I', 00H, 's', 00H, 'R', 00H, 'e', 00H, 'c', 00H, 't', 00H
	DB	'E', 00H, 'm', 00H, 'p', 00H, 't', 00H, 'y', 00H, '(', 00H, 'p'
	DB	00H, 'T', 00H, 'a', 00H, 'r', 00H, 'g', 00H, 'e', 00H, 't', 00H
	DB	'R', 00H, 'e', 00H, 'c', 00H, 't', 00H, ')', 00H, ' ', 00H, '='
	DB	00H, '=', 00H, ' ', 00H, 'F', 00H, 'A', 00H, 'L', 00H, 'S', 00H
	DB	'E', 00H, 00H, 00H
CONST	ENDS
;	COMDAT IID_IAMFilterGraphCallback
CONST	SEGMENT
IID_IAMFilterGraphCallback DD 056a868fdH
	DW	0ad4H
	DW	011ceH
	DB	0b0H
	DB	0a3H
	DB	00H
	DB	020H
	DB	0afH
	DB	0bH
	DB	0a7H
	DB	070H
CONST	ENDS
PUBLIC	?PossiblyEatMessage@@YAHPEAUHWND__@@I_K_J@Z	; PossiblyEatMessage
EXTRN	__imp_PostMessageW:PROC
EXTRN	?DbgLogInfo@@YAXKKPEB_WZZ:PROC			; DbgLogInfo
EXTRN	__imp_InSendMessage:PROC
EXTRN	_RTC_Shutdown:PROC
EXTRN	_RTC_InitBase:PROC
;	COMDAT pdata
; File c:\downloads\wpf mediakit - copy\src\filters\baseclasses\winctrl.cpp
pdata	SEGMENT
$pdata$?PossiblyEatMessage@@YAHPEAUHWND__@@I_K_J@Z DD imagerel $LN8
	DD	imagerel $LN8+211
	DD	imagerel $unwind$?PossiblyEatMessage@@YAHPEAUHWND__@@I_K_J@Z
pdata	ENDS
;	COMDAT xdata
xdata	SEGMENT
$unwind$?PossiblyEatMessage@@YAHPEAUHWND__@@I_K_J@Z DD 022c01H
	DD	070145218H
xdata	ENDS
;	COMDAT rtc$TMZ
rtc$TMZ	SEGMENT
_RTC_Shutdown.rtc$TMZ DQ FLAT:_RTC_Shutdown
rtc$TMZ	ENDS
;	COMDAT rtc$IMZ
rtc$IMZ	SEGMENT
_RTC_InitBase.rtc$IMZ DQ FLAT:_RTC_InitBase
; Function compile flags: /Odtp /RTCsu
rtc$IMZ	ENDS
;	COMDAT ?PossiblyEatMessage@@YAHPEAUHWND__@@I_K_J@Z
_TEXT	SEGMENT
tv67 = 32
hwndDrain$ = 64
uMsg$ = 72
wParam$ = 80
lParam$ = 88
?PossiblyEatMessage@@YAHPEAUHWND__@@I_K_J@Z PROC	; PossiblyEatMessage, COMDAT
; Line 30
$LN8:
	mov	QWORD PTR [rsp+32], r9
	mov	QWORD PTR [rsp+24], r8
	mov	DWORD PTR [rsp+16], edx
	mov	QWORD PTR [rsp+8], rcx
	push	rdi
	sub	rsp, 48					; 00000030H
	mov	rdi, rsp
	mov	ecx, 12
	mov	eax, -858993460				; ccccccccH
	rep stosd
	mov	rcx, QWORD PTR [rsp+64]
; Line 31
	cmp	QWORD PTR hwndDrain$[rsp], 0
	je	$LN4@PossiblyEa
	call	QWORD PTR __imp_InSendMessage
	test	eax, eax
	jne	$LN4@PossiblyEa
; Line 33
	mov	eax, DWORD PTR uMsg$[rsp]
	mov	DWORD PTR tv67[rsp], eax
	cmp	DWORD PTR tv67[rsp], 263		; 00000107H
	ja	SHORT $LN7@PossiblyEa
	cmp	DWORD PTR tv67[rsp], 256		; 00000100H
	jae	SHORT $LN1@PossiblyEa
	cmp	DWORD PTR tv67[rsp], 33			; 00000021H
	je	SHORT $LN1@PossiblyEa
	cmp	DWORD PTR tv67[rsp], 159		; 0000009fH
	jbe	SHORT $LN2@PossiblyEa
	cmp	DWORD PTR tv67[rsp], 169		; 000000a9H
	jbe	SHORT $LN1@PossiblyEa
	jmp	SHORT $LN2@PossiblyEa
$LN7@PossiblyEa:
	cmp	DWORD PTR tv67[rsp], 512		; 00000200H
	jb	SHORT $LN2@PossiblyEa
	cmp	DWORD PTR tv67[rsp], 521		; 00000209H
	jbe	SHORT $LN1@PossiblyEa
	jmp	SHORT $LN2@PossiblyEa
$LN1@PossiblyEa:
; Line 67
	lea	r8, OFFSET FLAT:$SG82239
	mov	edx, 2
	mov	ecx, 2
	call	?DbgLogInfo@@YAXKKPEB_WZZ		; DbgLogInfo
; Line 68
	mov	r9, QWORD PTR lParam$[rsp]
	mov	r8, QWORD PTR wParam$[rsp]
	mov	edx, DWORD PTR uMsg$[rsp]
	mov	rcx, QWORD PTR hwndDrain$[rsp]
	call	QWORD PTR __imp_PostMessageW
; Line 70
	mov	eax, 1
	jmp	SHORT $LN5@PossiblyEa
$LN2@PossiblyEa:
$LN4@PossiblyEa:
; Line 73
	xor	eax, eax
$LN5@PossiblyEa:
; Line 74
	add	rsp, 48					; 00000030H
	pop	rdi
	ret	0
?PossiblyEatMessage@@YAHPEAUHWND__@@I_K_J@Z ENDP	; PossiblyEatMessage
_TEXT	ENDS
PUBLIC	??1CBaseVideoWindow@@UEAA@XZ			; CBaseVideoWindow::~CBaseVideoWindow
PUBLIC	??_7CBaseControlWindow@@6B@			; CBaseControlWindow::`vftable'
PUBLIC	??_7CBaseControlWindow@@6BCUnknown@@@		; CBaseControlWindow::`vftable'
PUBLIC	??_7CBaseControlWindow@@6BIVideoWindow@@@	; CBaseControlWindow::`vftable'
PUBLIC	??0CBaseControlWindow@@QEAA@PEAVCBaseFilter@@PEAVCCritSec@@PEA_WPEAUIUnknown@@PEAJ@Z ; CBaseControlWindow::CBaseControlWindow
PUBLIC	??_R4CBaseControlWindow@@6BIVideoWindow@@@	; CBaseControlWindow::`RTTI Complete Object Locator'
PUBLIC	??_R0?AVCBaseControlWindow@@@8			; CBaseControlWindow `RTTI Type Descriptor'
PUBLIC	??_R3CBaseControlWindow@@8			; CBaseControlWindow::`RTTI Class Hierarchy Descriptor'
PUBLIC	??_R2CBaseControlWindow@@8			; CBaseControlWindow::`RTTI Base Class Array'
PUBLIC	??_R1A@?0A@EA@CBaseControlWindow@@8		; CBaseControlWindow::`RTTI Base Class Descriptor at (0,-1,0,64)'
PUBLIC	??_R1A@?0A@EA@CBaseVideoWindow@@8		; CBaseVideoWindow::`RTTI Base Class Descriptor at (0,-1,0,64)'
PUBLIC	??_R0?AVCBaseVideoWindow@@@8			; CBaseVideoWindow `RTTI Type Descriptor'
PUBLIC	??_R3CBaseVideoWindow@@8			; CBaseVideoWindow::`RTTI Class Hierarchy Descriptor'
PUBLIC	??_R2CBaseVideoWindow@@8			; CBaseVideoWindow::`RTTI Base Class Array'
PUBLIC	??_R1A@?0A@EA@IVideoWindow@@8			; IVideoWindow::`RTTI Base Class Descriptor at (0,-1,0,64)'
PUBLIC	??_R0?AUIVideoWindow@@@8			; IVideoWindow `RTTI Type Descriptor'
PUBLIC	??_R3IVideoWindow@@8				; IVideoWindow::`RTTI Class Hierarchy Descriptor'
PUBLIC	??_R2IVideoWindow@@8				; IVideoWindow::`RTTI Base Class Array'
PUBLIC	??_R1A@?0A@EA@IDispatch@@8			; IDispatch::`RTTI Base Class Descriptor at (0,-1,0,64)'
PUBLIC	??_R0?AUIDispatch@@@8				; IDispatch `RTTI Type Descriptor'
PUBLIC	??_R3IDispatch@@8				; IDispatch::`RTTI Class Hierarchy Descriptor'
PUBLIC	??_R2IDispatch@@8				; IDispatch::`RTTI Base Class Array'
PUBLIC	??_R1A@?0A@EA@IUnknown@@8			; IUnknown::`RTTI Base Class Descriptor at (0,-1,0,64)'
PUBLIC	??_R0?AUIUnknown@@@8				; IUnknown `RTTI Type Descriptor'
PUBLIC	??_R3IUnknown@@8				; IUnknown::`RTTI Class Hierarchy Descriptor'
PUBLIC	??_R2IUnknown@@8				; IUnknown::`RTTI Base Class Array'
PUBLIC	??_R17?0A@EA@CUnknown@@8			; CUnknown::`RTTI Base Class Descriptor at (8,-1,0,64)'
PUBLIC	??_R0?AVCUnknown@@@8				; CUnknown `RTTI Type Descriptor'
PUBLIC	??_R3CUnknown@@8				; CUnknown::`RTTI Class Hierarchy Descriptor'
PUBLIC	??_R2CUnknown@@8				; CUnknown::`RTTI Base Class Array'
PUBLIC	??_R1A@?0A@EA@CUnknown@@8			; CUnknown::`RTTI Base Class Descriptor at (0,-1,0,64)'
PUBLIC	??_R1A@?0A@EA@INonDelegatingUnknown@@8		; INonDelegatingUnknown::`RTTI Base Class Descriptor at (0,-1,0,64)'
PUBLIC	??_R0?AUINonDelegatingUnknown@@@8		; INonDelegatingUnknown `RTTI Type Descriptor'
PUBLIC	??_R3INonDelegatingUnknown@@8			; INonDelegatingUnknown::`RTTI Class Hierarchy Descriptor'
PUBLIC	??_R2INonDelegatingUnknown@@8			; INonDelegatingUnknown::`RTTI Base Class Array'
PUBLIC	??_R17?0A@EA@CBaseObject@@8			; CBaseObject::`RTTI Base Class Descriptor at (8,-1,0,64)'
PUBLIC	??_R0?AVCBaseObject@@@8				; CBaseObject `RTTI Type Descriptor'
PUBLIC	??_R3CBaseObject@@8				; CBaseObject::`RTTI Class Hierarchy Descriptor'
PUBLIC	??_R2CBaseObject@@8				; CBaseObject::`RTTI Base Class Array'
PUBLIC	??_R1A@?0A@EA@CBaseObject@@8			; CBaseObject::`RTTI Base Class Descriptor at (0,-1,0,64)'
PUBLIC	??_R17?0A@EA@INonDelegatingUnknown@@8		; INonDelegatingUnknown::`RTTI Base Class Descriptor at (8,-1,0,64)'
PUBLIC	??_R1BA@?0A@EA@CBaseObject@@8			; CBaseObject::`RTTI Base Class Descriptor at (16,-1,0,64)'
PUBLIC	??_R1DA@?0A@EA@CBaseWindow@@8			; CBaseWindow::`RTTI Base Class Descriptor at (48,-1,0,64)'
PUBLIC	??_R0?AVCBaseWindow@@@8				; CBaseWindow `RTTI Type Descriptor'
PUBLIC	??_R3CBaseWindow@@8				; CBaseWindow::`RTTI Class Hierarchy Descriptor'
PUBLIC	??_R2CBaseWindow@@8				; CBaseWindow::`RTTI Base Class Array'
PUBLIC	??_R1A@?0A@EA@CBaseWindow@@8			; CBaseWindow::`RTTI Base Class Descriptor at (0,-1,0,64)'
PUBLIC	?QueryInterface@CBaseVideoWindow@@UEAAJAEBU_GUID@@PEAPEAX@Z ; CBaseVideoWindow::QueryInterface
PUBLIC	?AddRef@CBaseVideoWindow@@UEAAKXZ		; CBaseVideoWindow::AddRef
PUBLIC	?Release@CBaseVideoWindow@@UEAAKXZ		; CBaseVideoWindow::Release
PUBLIC	?put_Caption@CBaseControlWindow@@UEAAJPEA_W@Z	; CBaseControlWindow::put_Caption
PUBLIC	?get_Caption@CBaseControlWindow@@UEAAJPEAPEA_W@Z ; CBaseControlWindow::get_Caption
PUBLIC	?put_WindowStyle@CBaseControlWindow@@UEAAJJ@Z	; CBaseControlWindow::put_WindowStyle
PUBLIC	?get_WindowStyle@CBaseControlWindow@@UEAAJPEAJ@Z ; CBaseControlWindow::get_WindowStyle
PUBLIC	?put_WindowStyleEx@CBaseControlWindow@@UEAAJJ@Z	; CBaseControlWindow::put_WindowStyleEx
PUBLIC	?get_WindowStyleEx@CBaseControlWindow@@UEAAJPEAJ@Z ; CBaseControlWindow::get_WindowStyleEx
PUBLIC	?put_AutoShow@CBaseControlWindow@@UEAAJJ@Z	; CBaseControlWindow::put_AutoShow
PUBLIC	?get_AutoShow@CBaseControlWindow@@UEAAJPEAJ@Z	; CBaseControlWindow::get_AutoShow
PUBLIC	?put_WindowState@CBaseControlWindow@@UEAAJJ@Z	; CBaseControlWindow::put_WindowState
PUBLIC	?get_WindowState@CBaseControlWindow@@UEAAJPEAJ@Z ; CBaseControlWindow::get_WindowState
PUBLIC	?put_BackgroundPalette@CBaseControlWindow@@UEAAJJ@Z ; CBaseControlWindow::put_BackgroundPalette
PUBLIC	?get_BackgroundPalette@CBaseControlWindow@@UEAAJPEAJ@Z ; CBaseControlWindow::get_BackgroundPalette
PUBLIC	?put_Visible@CBaseControlWindow@@UEAAJJ@Z	; CBaseControlWindow::put_Visible
PUBLIC	?get_Visible@CBaseControlWindow@@UEAAJPEAJ@Z	; CBaseControlWindow::get_Visible
PUBLIC	?put_Left@CBaseControlWindow@@UEAAJJ@Z		; CBaseControlWindow::put_Left
PUBLIC	?get_Left@CBaseControlWindow@@UEAAJPEAJ@Z	; CBaseControlWindow::get_Left
PUBLIC	?put_Width@CBaseControlWindow@@UEAAJJ@Z		; CBaseControlWindow::put_Width
PUBLIC	?get_Width@CBaseControlWindow@@UEAAJPEAJ@Z	; CBaseControlWindow::get_Width
PUBLIC	?put_Top@CBaseControlWindow@@UEAAJJ@Z		; CBaseControlWindow::put_Top
PUBLIC	?get_Top@CBaseControlWindow@@UEAAJPEAJ@Z	; CBaseControlWindow::get_Top
PUBLIC	?put_Height@CBaseControlWindow@@UEAAJJ@Z	; CBaseControlWindow::put_Height
PUBLIC	?get_Height@CBaseControlWindow@@UEAAJPEAJ@Z	; CBaseControlWindow::get_Height
PUBLIC	?put_Owner@CBaseControlWindow@@UEAAJ_J@Z	; CBaseControlWindow::put_Owner
PUBLIC	?get_Owner@CBaseControlWindow@@UEAAJPEA_J@Z	; CBaseControlWindow::get_Owner
PUBLIC	?put_MessageDrain@CBaseControlWindow@@UEAAJ_J@Z	; CBaseControlWindow::put_MessageDrain
PUBLIC	?get_MessageDrain@CBaseControlWindow@@UEAAJPEA_J@Z ; CBaseControlWindow::get_MessageDrain
PUBLIC	?get_BorderColor@CBaseControlWindow@@UEAAJPEAJ@Z ; CBaseControlWindow::get_BorderColor
PUBLIC	?put_BorderColor@CBaseControlWindow@@UEAAJJ@Z	; CBaseControlWindow::put_BorderColor
PUBLIC	?get_FullScreenMode@CBaseControlWindow@@UEAAJPEAJ@Z ; CBaseControlWindow::get_FullScreenMode
PUBLIC	?put_FullScreenMode@CBaseControlWindow@@UEAAJJ@Z ; CBaseControlWindow::put_FullScreenMode
PUBLIC	?SetWindowForeground@CBaseControlWindow@@UEAAJJ@Z ; CBaseControlWindow::SetWindowForeground
PUBLIC	?NotifyOwnerMessage@CBaseControlWindow@@UEAAJ_JJ00@Z ; CBaseControlWindow::NotifyOwnerMessage
PUBLIC	?SetWindowPosition@CBaseControlWindow@@UEAAJJJJJ@Z ; CBaseControlWindow::SetWindowPosition
PUBLIC	?GetWindowPosition@CBaseControlWindow@@UEAAJPEAJ000@Z ; CBaseControlWindow::GetWindowPosition
PUBLIC	?GetMinIdealImageSize@CBaseControlWindow@@UEAAJPEAJ0@Z ; CBaseControlWindow::GetMinIdealImageSize
PUBLIC	?GetMaxIdealImageSize@CBaseControlWindow@@UEAAJPEAJ0@Z ; CBaseControlWindow::GetMaxIdealImageSize
PUBLIC	?GetRestorePosition@CBaseControlWindow@@UEAAJPEAJ000@Z ; CBaseControlWindow::GetRestorePosition
PUBLIC	?HideCursor@CBaseControlWindow@@UEAAJJ@Z	; CBaseControlWindow::HideCursor
PUBLIC	?IsCursorHidden@CBaseControlWindow@@UEAAJPEAJ@Z	; CBaseControlWindow::IsCursorHidden
PUBLIC	??_R4CBaseControlWindow@@6BCUnknown@@@		; CBaseControlWindow::`RTTI Complete Object Locator'
PUBLIC	??_ECBaseControlWindow@@W7EAAPEAXI@Z		; [thunk]:CBaseControlWindow::`vector deleting destructor'
PUBLIC	??_R4CBaseControlWindow@@6B@			; CBaseControlWindow::`RTTI Complete Object Locator'
PUBLIC	??_ECBaseControlWindow@@WDA@EAAPEAXI@Z		; [thunk]:CBaseControlWindow::`vector deleting destructor'
PUBLIC	?PossiblyEatMessage@CBaseControlWindow@@UEAAHI_K_J@Z ; CBaseControlWindow::PossiblyEatMessage
EXTRN	__CxxFrameHandler3:PROC
EXTRN	??1CBaseWindow@@UEAA@XZ:PROC			; CBaseWindow::~CBaseWindow
EXTRN	?DbgAssert@@YAXPEB_W0H@Z:PROC			; DbgAssert
EXTRN	??0CBaseWindow@@QEAA@H_N@Z:PROC			; CBaseWindow::CBaseWindow
EXTRN	??0CBaseVideoWindow@@QEAA@PEB_WPEAUIUnknown@@@Z:PROC ; CBaseVideoWindow::CBaseVideoWindow
EXTRN	??_7type_info@@6B@:BYTE				; type_info::`vftable'
EXTRN	?GetTypeInfoCount@CBaseVideoWindow@@UEAAJPEAI@Z:PROC ; CBaseVideoWindow::GetTypeInfoCount
EXTRN	?GetTypeInfo@CBaseVideoWindow@@UEAAJIKPEAPEAUITypeInfo@@@Z:PROC ; CBaseVideoWindow::GetTypeInfo
EXTRN	?GetIDsOfNames@CBaseVideoWindow@@UEAAJAEBU_GUID@@PEAPEA_WIKPEAJ@Z:PROC ; CBaseVideoWindow::GetIDsOfNames
EXTRN	?Invoke@CBaseVideoWindow@@UEAAJJAEBU_GUID@@KGPEAUtagDISPPARAMS@@PEAUtagVARIANT@@PEAUtagEXCEPINFO@@PEAI@Z:PROC ; CBaseVideoWindow::Invoke
EXTRN	?NonDelegatingQueryInterface@CBaseVideoWindow@@UEAAJAEBU_GUID@@PEAPEAX@Z:PROC ; CBaseVideoWindow::NonDelegatingQueryInterface
EXTRN	?NonDelegatingAddRef@CUnknown@@UEAAKXZ:PROC	; CUnknown::NonDelegatingAddRef
EXTRN	?NonDelegatingRelease@CUnknown@@UEAAKXZ:PROC	; CUnknown::NonDelegatingRelease
EXTRN	?OnPaletteChange@CBaseWindow@@MEAA_JPEAUHWND__@@I@Z:PROC ; CBaseWindow::OnPaletteChange
EXTRN	?DoneWithWindow@CBaseWindow@@UEAAJXZ:PROC	; CBaseWindow::DoneWithWindow
EXTRN	?PrepareWindow@CBaseWindow@@UEAAJXZ:PROC	; CBaseWindow::PrepareWindow
EXTRN	?InactivateWindow@CBaseWindow@@UEAAJXZ:PROC	; CBaseWindow::InactivateWindow
EXTRN	?ActivateWindow@CBaseWindow@@UEAAJXZ:PROC	; CBaseWindow::ActivateWindow
EXTRN	?OnSize@CBaseWindow@@UEAAHJJ@Z:PROC		; CBaseWindow::OnSize
EXTRN	?OnClose@CBaseWindow@@UEAAHXZ:PROC		; CBaseWindow::OnClose
EXTRN	?GetDefaultRect@CBaseWindow@@UEAA?AUtagRECT@@XZ:PROC ; CBaseWindow::GetDefaultRect
EXTRN	?UninitialiseWindow@CBaseWindow@@UEAAJXZ:PROC	; CBaseWindow::UninitialiseWindow
EXTRN	?InitialiseWindow@CBaseWindow@@UEAAJPEAUHWND__@@@Z:PROC ; CBaseWindow::InitialiseWindow
EXTRN	?SetPalette@CBaseWindow@@UEAAJPEAUHPALETTE__@@@Z:PROC ; CBaseWindow::SetPalette
EXTRN	?DoRealisePalette@CBaseWindow@@UEAAJH@Z:PROC	; CBaseWindow::DoRealisePalette
EXTRN	?OnReceiveMessage@CBaseWindow@@UEAA_JPEAUHWND__@@I_K_J@Z:PROC ; CBaseWindow::OnReceiveMessage
EXTRN	_purecall:PROC
;	COMDAT pdata
pdata	SEGMENT
$pdata$??0CBaseControlWindow@@QEAA@PEAVCBaseFilter@@PEAVCCritSec@@PEA_WPEAUIUnknown@@PEAJ@Z DD imagerel $LN8
	DD	imagerel $LN8+399
	DD	imagerel $unwind$??0CBaseControlWindow@@QEAA@PEAVCBaseFilter@@PEAVCCritSec@@PEA_WPEAUIUnknown@@PEAJ@Z
pdata	ENDS
;	COMDAT pdata
pdata	SEGMENT
$pdata$?dtor$0@?0???0CBaseControlWindow@@QEAA@PEAVCBaseFilter@@PEAVCCritSec@@PEA_WPEAUIUnknown@@PEAJ@Z@4HA DD imagerel ?dtor$0@?0???0CBaseControlWindow@@QEAA@PEAVCBaseFilter@@PEAVCCritSec@@PEA_WPEAUIUnknown@@PEAJ@Z@4HA
	DD	imagerel ?dtor$0@?0???0CBaseControlWindow@@QEAA@PEAVCBaseFilter@@PEAVCCritSec@@PEA_WPEAUIUnknown@@PEAJ@Z@4HA+35
	DD	imagerel $unwind$?dtor$0@?0???0CBaseControlWindow@@QEAA@PEAVCBaseFilter@@PEAVCCritSec@@PEA_WPEAUIUnknown@@PEAJ@Z@4HA
pdata	ENDS
;	COMDAT pdata
pdata	SEGMENT
$pdata$?dtor$1@?0???0CBaseControlWindow@@QEAA@PEAVCBaseFilter@@PEAVCCritSec@@PEA_WPEAUIUnknown@@PEAJ@Z@4HA DD imagerel ?dtor$1@?0???0CBaseControlWindow@@QEAA@PEAVCBaseFilter@@PEAVCCritSec@@PEA_WPEAUIUnknown@@PEAJ@Z@4HA
	DD	imagerel ?dtor$1@?0???0CBaseControlWindow@@QEAA@PEAVCBaseFilter@@PEAVCCritSec@@PEA_WPEAUIUnknown@@PEAJ@Z@4HA+39
	DD	imagerel $unwind$?dtor$1@?0???0CBaseControlWindow@@QEAA@PEAVCBaseFilter@@PEAVCCritSec@@PEA_WPEAUIUnknown@@PEAJ@Z@4HA
pdata	ENDS
;	COMDAT xdata
xdata	SEGMENT
$ip2state$??0CBaseControlWindow@@QEAA@PEAVCBaseFilter@@PEAVCCritSec@@PEA_WPEAUIUnknown@@PEAJ@Z DD imagerel ??0CBaseControlWindow@@QEAA@PEAVCBaseFilter@@PEAVCCritSec@@PEA_WPEAUIUnknown@@PEAJ@Z
	DD	0ffffffffH
	DD	imagerel ??0CBaseControlWindow@@QEAA@PEAVCBaseFilter@@PEAVCCritSec@@PEA_WPEAUIUnknown@@PEAJ@Z+75
	DD	00H
	DD	imagerel ??0CBaseControlWindow@@QEAA@PEAVCBaseFilter@@PEAVCCritSec@@PEA_WPEAUIUnknown@@PEAJ@Z+101
	DD	01H
	DD	imagerel ??0CBaseControlWindow@@QEAA@PEAVCBaseFilter@@PEAVCCritSec@@PEA_WPEAUIUnknown@@PEAJ@Z+388
	DD	0ffffffffH
xdata	ENDS
;	COMDAT ??_R4CBaseControlWindow@@6B@
rdata$r	SEGMENT
??_R4CBaseControlWindow@@6B@ DD 01H			; CBaseControlWindow::`RTTI Complete Object Locator'
	DD	030H
	DD	00H
	DD	imagerel ??_R0?AVCBaseControlWindow@@@8
	DD	imagerel ??_R3CBaseControlWindow@@8
	DD	imagerel ??_R4CBaseControlWindow@@6B@
rdata$r	ENDS
;	COMDAT ??_R4CBaseControlWindow@@6BCUnknown@@@
rdata$r	SEGMENT
??_R4CBaseControlWindow@@6BCUnknown@@@ DD 01H		; CBaseControlWindow::`RTTI Complete Object Locator'
	DD	08H
	DD	00H
	DD	imagerel ??_R0?AVCBaseControlWindow@@@8
	DD	imagerel ??_R3CBaseControlWindow@@8
	DD	imagerel ??_R4CBaseControlWindow@@6BCUnknown@@@
rdata$r	ENDS
;	COMDAT ??_R1A@?0A@EA@CBaseWindow@@8
rdata$r	SEGMENT
??_R1A@?0A@EA@CBaseWindow@@8 DD imagerel ??_R0?AVCBaseWindow@@@8 ; CBaseWindow::`RTTI Base Class Descriptor at (0,-1,0,64)'
	DD	00H
	DD	00H
	DD	0ffffffffH
	DD	00H
	DD	040H
	DD	imagerel ??_R3CBaseWindow@@8
rdata$r	ENDS
;	COMDAT ??_R2CBaseWindow@@8
rdata$r	SEGMENT
??_R2CBaseWindow@@8 DD imagerel ??_R1A@?0A@EA@CBaseWindow@@8 ; CBaseWindow::`RTTI Base Class Array'
	ORG $+3
rdata$r	ENDS
;	COMDAT ??_R3CBaseWindow@@8
rdata$r	SEGMENT
??_R3CBaseWindow@@8 DD 00H				; CBaseWindow::`RTTI Class Hierarchy Descriptor'
	DD	00H
	DD	01H
	DD	imagerel ??_R2CBaseWindow@@8
rdata$r	ENDS
;	COMDAT ??_R0?AVCBaseWindow@@@8
_DATA	SEGMENT
??_R0?AVCBaseWindow@@@8 DQ FLAT:??_7type_info@@6B@	; CBaseWindow `RTTI Type Descriptor'
	DQ	0000000000000000H
	DB	'.?AVCBaseWindow@@', 00H
_DATA	ENDS
;	COMDAT ??_R1DA@?0A@EA@CBaseWindow@@8
rdata$r	SEGMENT
??_R1DA@?0A@EA@CBaseWindow@@8 DD imagerel ??_R0?AVCBaseWindow@@@8 ; CBaseWindow::`RTTI Base Class Descriptor at (48,-1,0,64)'
	DD	00H
	DD	030H
	DD	0ffffffffH
	DD	00H
	DD	040H
	DD	imagerel ??_R3CBaseWindow@@8
rdata$r	ENDS
;	COMDAT ??_R1BA@?0A@EA@CBaseObject@@8
rdata$r	SEGMENT
??_R1BA@?0A@EA@CBaseObject@@8 DD imagerel ??_R0?AVCBaseObject@@@8 ; CBaseObject::`RTTI Base Class Descriptor at (16,-1,0,64)'
	DD	00H
	DD	010H
	DD	0ffffffffH
	DD	00H
	DD	040H
	DD	imagerel ??_R3CBaseObject@@8
rdata$r	ENDS
;	COMDAT ??_R17?0A@EA@INonDelegatingUnknown@@8
rdata$r	SEGMENT
??_R17?0A@EA@INonDelegatingUnknown@@8 DD imagerel ??_R0?AUINonDelegatingUnknown@@@8 ; INonDelegatingUnknown::`RTTI Base Class Descriptor at (8,-1,0,64)'
	DD	00H
	DD	08H
	DD	0ffffffffH
	DD	00H
	DD	040H
	DD	imagerel ??_R3INonDelegatingUnknown@@8
rdata$r	ENDS
;	COMDAT ??_R1A@?0A@EA@CBaseObject@@8
rdata$r	SEGMENT
??_R1A@?0A@EA@CBaseObject@@8 DD imagerel ??_R0?AVCBaseObject@@@8 ; CBaseObject::`RTTI Base Class Descriptor at (0,-1,0,64)'
	DD	00H
	DD	00H
	DD	0ffffffffH
	DD	00H
	DD	040H
	DD	imagerel ??_R3CBaseObject@@8
rdata$r	ENDS
;	COMDAT ??_R2CBaseObject@@8
rdata$r	SEGMENT
??_R2CBaseObject@@8 DD imagerel ??_R1A@?0A@EA@CBaseObject@@8 ; CBaseObject::`RTTI Base Class Array'
	ORG $+3
rdata$r	ENDS
;	COMDAT ??_R3CBaseObject@@8
rdata$r	SEGMENT
??_R3CBaseObject@@8 DD 00H				; CBaseObject::`RTTI Class Hierarchy Descriptor'
	DD	00H
	DD	01H
	DD	imagerel ??_R2CBaseObject@@8
rdata$r	ENDS
;	COMDAT ??_R0?AVCBaseObject@@@8
_DATA	SEGMENT
??_R0?AVCBaseObject@@@8 DQ FLAT:??_7type_info@@6B@	; CBaseObject `RTTI Type Descriptor'
	DQ	0000000000000000H
	DB	'.?AVCBaseObject@@', 00H
_DATA	ENDS
;	COMDAT ??_R17?0A@EA@CBaseObject@@8
rdata$r	SEGMENT
??_R17?0A@EA@CBaseObject@@8 DD imagerel ??_R0?AVCBaseObject@@@8 ; CBaseObject::`RTTI Base Class Descriptor at (8,-1,0,64)'
	DD	00H
	DD	08H
	DD	0ffffffffH
	DD	00H
	DD	040H
	DD	imagerel ??_R3CBaseObject@@8
rdata$r	ENDS
;	COMDAT ??_R2INonDelegatingUnknown@@8
rdata$r	SEGMENT
??_R2INonDelegatingUnknown@@8 DD imagerel ??_R1A@?0A@EA@INonDelegatingUnknown@@8 ; INonDelegatingUnknown::`RTTI Base Class Array'
	ORG $+3
rdata$r	ENDS
;	COMDAT ??_R3INonDelegatingUnknown@@8
rdata$r	SEGMENT
??_R3INonDelegatingUnknown@@8 DD 00H			; INonDelegatingUnknown::`RTTI Class Hierarchy Descriptor'
	DD	00H
	DD	01H
	DD	imagerel ??_R2INonDelegatingUnknown@@8
rdata$r	ENDS
;	COMDAT ??_R0?AUINonDelegatingUnknown@@@8
_DATA	SEGMENT
??_R0?AUINonDelegatingUnknown@@@8 DQ FLAT:??_7type_info@@6B@ ; INonDelegatingUnknown `RTTI Type Descriptor'
	DQ	0000000000000000H
	DB	'.?AUINonDelegatingUnknown@@', 00H
_DATA	ENDS
;	COMDAT ??_R1A@?0A@EA@INonDelegatingUnknown@@8
rdata$r	SEGMENT
??_R1A@?0A@EA@INonDelegatingUnknown@@8 DD imagerel ??_R0?AUINonDelegatingUnknown@@@8 ; INonDelegatingUnknown::`RTTI Base Class Descriptor at (0,-1,0,64)'
	DD	00H
	DD	00H
	DD	0ffffffffH
	DD	00H
	DD	040H
	DD	imagerel ??_R3INonDelegatingUnknown@@8
rdata$r	ENDS
;	COMDAT ??_R1A@?0A@EA@CUnknown@@8
rdata$r	SEGMENT
??_R1A@?0A@EA@CUnknown@@8 DD imagerel ??_R0?AVCUnknown@@@8 ; CUnknown::`RTTI Base Class Descriptor at (0,-1,0,64)'
	DD	02H
	DD	00H
	DD	0ffffffffH
	DD	00H
	DD	040H
	DD	imagerel ??_R3CUnknown@@8
rdata$r	ENDS
;	COMDAT ??_R2CUnknown@@8
rdata$r	SEGMENT
??_R2CUnknown@@8 DD imagerel ??_R1A@?0A@EA@CUnknown@@8	; CUnknown::`RTTI Base Class Array'
	DD	imagerel ??_R1A@?0A@EA@INonDelegatingUnknown@@8
	DD	imagerel ??_R17?0A@EA@CBaseObject@@8
	ORG $+3
rdata$r	ENDS
;	COMDAT ??_R3CUnknown@@8
rdata$r	SEGMENT
??_R3CUnknown@@8 DD 00H					; CUnknown::`RTTI Class Hierarchy Descriptor'
	DD	01H
	DD	03H
	DD	imagerel ??_R2CUnknown@@8
rdata$r	ENDS
;	COMDAT ??_R0?AVCUnknown@@@8
_DATA	SEGMENT
??_R0?AVCUnknown@@@8 DQ FLAT:??_7type_info@@6B@		; CUnknown `RTTI Type Descriptor'
	DQ	0000000000000000H
	DB	'.?AVCUnknown@@', 00H
_DATA	ENDS
;	COMDAT ??_R17?0A@EA@CUnknown@@8
rdata$r	SEGMENT
??_R17?0A@EA@CUnknown@@8 DD imagerel ??_R0?AVCUnknown@@@8 ; CUnknown::`RTTI Base Class Descriptor at (8,-1,0,64)'
	DD	02H
	DD	08H
	DD	0ffffffffH
	DD	00H
	DD	040H
	DD	imagerel ??_R3CUnknown@@8
rdata$r	ENDS
;	COMDAT ??_R2IUnknown@@8
rdata$r	SEGMENT
??_R2IUnknown@@8 DD imagerel ??_R1A@?0A@EA@IUnknown@@8	; IUnknown::`RTTI Base Class Array'
	ORG $+3
rdata$r	ENDS
;	COMDAT ??_R3IUnknown@@8
rdata$r	SEGMENT
??_R3IUnknown@@8 DD 00H					; IUnknown::`RTTI Class Hierarchy Descriptor'
	DD	00H
	DD	01H
	DD	imagerel ??_R2IUnknown@@8
rdata$r	ENDS
;	COMDAT ??_R0?AUIUnknown@@@8
_DATA	SEGMENT
??_R0?AUIUnknown@@@8 DQ FLAT:??_7type_info@@6B@		; IUnknown `RTTI Type Descriptor'
	DQ	0000000000000000H
	DB	'.?AUIUnknown@@', 00H
_DATA	ENDS
;	COMDAT ??_R1A@?0A@EA@IUnknown@@8
rdata$r	SEGMENT
??_R1A@?0A@EA@IUnknown@@8 DD imagerel ??_R0?AUIUnknown@@@8 ; IUnknown::`RTTI Base Class Descriptor at (0,-1,0,64)'
	DD	00H
	DD	00H
	DD	0ffffffffH
	DD	00H
	DD	040H
	DD	imagerel ??_R3IUnknown@@8
rdata$r	ENDS
;	COMDAT ??_R2IDispatch@@8
rdata$r	SEGMENT
??_R2IDispatch@@8 DD imagerel ??_R1A@?0A@EA@IDispatch@@8 ; IDispatch::`RTTI Base Class Array'
	DD	imagerel ??_R1A@?0A@EA@IUnknown@@8
	ORG $+3
rdata$r	ENDS
;	COMDAT ??_R3IDispatch@@8
rdata$r	SEGMENT
??_R3IDispatch@@8 DD 00H				; IDispatch::`RTTI Class Hierarchy Descriptor'
	DD	00H
	DD	02H
	DD	imagerel ??_R2IDispatch@@8
rdata$r	ENDS
;	COMDAT ??_R0?AUIDispatch@@@8
_DATA	SEGMENT
??_R0?AUIDispatch@@@8 DQ FLAT:??_7type_info@@6B@	; IDispatch `RTTI Type Descriptor'
	DQ	0000000000000000H
	DB	'.?AUIDispatch@@', 00H
_DATA	ENDS
;	COMDAT ??_R1A@?0A@EA@IDispatch@@8
rdata$r	SEGMENT
??_R1A@?0A@EA@IDispatch@@8 DD imagerel ??_R0?AUIDispatch@@@8 ; IDispatch::`RTTI Base Class Descriptor at (0,-1,0,64)'
	DD	01H
	DD	00H
	DD	0ffffffffH
	DD	00H
	DD	040H
	DD	imagerel ??_R3IDispatch@@8
rdata$r	ENDS
;	COMDAT ??_R2IVideoWindow@@8
rdata$r	SEGMENT
??_R2IVideoWindow@@8 DD imagerel ??_R1A@?0A@EA@IVideoWindow@@8 ; IVideoWindow::`RTTI Base Class Array'
	DD	imagerel ??_R1A@?0A@EA@IDispatch@@8
	DD	imagerel ??_R1A@?0A@EA@IUnknown@@8
	ORG $+3
rdata$r	ENDS
;	COMDAT ??_R3IVideoWindow@@8
rdata$r	SEGMENT
??_R3IVideoWindow@@8 DD 00H				; IVideoWindow::`RTTI Class Hierarchy Descriptor'
	DD	00H
	DD	03H
	DD	imagerel ??_R2IVideoWindow@@8
rdata$r	ENDS
;	COMDAT ??_R0?AUIVideoWindow@@@8
_DATA	SEGMENT
??_R0?AUIVideoWindow@@@8 DQ FLAT:??_7type_info@@6B@	; IVideoWindow `RTTI Type Descriptor'
	DQ	0000000000000000H
	DB	'.?AUIVideoWindow@@', 00H
_DATA	ENDS
;	COMDAT ??_R1A@?0A@EA@IVideoWindow@@8
rdata$r	SEGMENT
??_R1A@?0A@EA@IVideoWindow@@8 DD imagerel ??_R0?AUIVideoWindow@@@8 ; IVideoWindow::`RTTI Base Class Descriptor at (0,-1,0,64)'
	DD	02H
	DD	00H
	DD	0ffffffffH
	DD	00H
	DD	040H
	DD	imagerel ??_R3IVideoWindow@@8
rdata$r	ENDS
;	COMDAT ??_R2CBaseVideoWindow@@8
rdata$r	SEGMENT
??_R2CBaseVideoWindow@@8 DD imagerel ??_R1A@?0A@EA@CBaseVideoWindow@@8 ; CBaseVideoWindow::`RTTI Base Class Array'
	DD	imagerel ??_R1A@?0A@EA@IVideoWindow@@8
	DD	imagerel ??_R1A@?0A@EA@IDispatch@@8
	DD	imagerel ??_R1A@?0A@EA@IUnknown@@8
	DD	imagerel ??_R17?0A@EA@CUnknown@@8
	DD	imagerel ??_R17?0A@EA@INonDelegatingUnknown@@8
	DD	imagerel ??_R1BA@?0A@EA@CBaseObject@@8
	ORG $+3
rdata$r	ENDS
;	COMDAT ??_R3CBaseVideoWindow@@8
rdata$r	SEGMENT
??_R3CBaseVideoWindow@@8 DD 00H				; CBaseVideoWindow::`RTTI Class Hierarchy Descriptor'
	DD	01H
	DD	07H
	DD	imagerel ??_R2CBaseVideoWindow@@8
rdata$r	ENDS
;	COMDAT ??_R0?AVCBaseVideoWindow@@@8
_DATA	SEGMENT
??_R0?AVCBaseVideoWindow@@@8 DQ FLAT:??_7type_info@@6B@	; CBaseVideoWindow `RTTI Type Descriptor'
	DQ	0000000000000000H
	DB	'.?AVCBaseVideoWindow@@', 00H
_DATA	ENDS
;	COMDAT ??_R1A@?0A@EA@CBaseVideoWindow@@8
rdata$r	SEGMENT
??_R1A@?0A@EA@CBaseVideoWindow@@8 DD imagerel ??_R0?AVCBaseVideoWindow@@@8 ; CBaseVideoWindow::`RTTI Base Class Descriptor at (0,-1,0,64)'
	DD	06H
	DD	00H
	DD	0ffffffffH
	DD	00H
	DD	040H
	DD	imagerel ??_R3CBaseVideoWindow@@8
rdata$r	ENDS
;	COMDAT ??_R1A@?0A@EA@CBaseControlWindow@@8
rdata$r	SEGMENT
??_R1A@?0A@EA@CBaseControlWindow@@8 DD imagerel ??_R0?AVCBaseControlWindow@@@8 ; CBaseControlWindow::`RTTI Base Class Descriptor at (0,-1,0,64)'
	DD	08H
	DD	00H
	DD	0ffffffffH
	DD	00H
	DD	040H
	DD	imagerel ??_R3CBaseControlWindow@@8
rdata$r	ENDS
;	COMDAT ??_R2CBaseControlWindow@@8
rdata$r	SEGMENT
??_R2CBaseControlWindow@@8 DD imagerel ??_R1A@?0A@EA@CBaseControlWindow@@8 ; CBaseControlWindow::`RTTI Base Class Array'
	DD	imagerel ??_R1A@?0A@EA@CBaseVideoWindow@@8
	DD	imagerel ??_R1A@?0A@EA@IVideoWindow@@8
	DD	imagerel ??_R1A@?0A@EA@IDispatch@@8
	DD	imagerel ??_R1A@?0A@EA@IUnknown@@8
	DD	imagerel ??_R17?0A@EA@CUnknown@@8
	DD	imagerel ??_R17?0A@EA@INonDelegatingUnknown@@8
	DD	imagerel ??_R1BA@?0A@EA@CBaseObject@@8
	DD	imagerel ??_R1DA@?0A@EA@CBaseWindow@@8
	ORG $+3
rdata$r	ENDS
;	COMDAT ??_R3CBaseControlWindow@@8
rdata$r	SEGMENT
??_R3CBaseControlWindow@@8 DD 00H			; CBaseControlWindow::`RTTI Class Hierarchy Descriptor'
	DD	01H
	DD	09H
	DD	imagerel ??_R2CBaseControlWindow@@8
rdata$r	ENDS
;	COMDAT ??_R0?AVCBaseControlWindow@@@8
_DATA	SEGMENT
??_R0?AVCBaseControlWindow@@@8 DQ FLAT:??_7type_info@@6B@ ; CBaseControlWindow `RTTI Type Descriptor'
	DQ	0000000000000000H
	DB	'.?AVCBaseControlWindow@@', 00H
_DATA	ENDS
;	COMDAT ??_R4CBaseControlWindow@@6BIVideoWindow@@@
rdata$r	SEGMENT
??_R4CBaseControlWindow@@6BIVideoWindow@@@ DD 01H	; CBaseControlWindow::`RTTI Complete Object Locator'
	DD	00H
	DD	00H
	DD	imagerel ??_R0?AVCBaseControlWindow@@@8
	DD	imagerel ??_R3CBaseControlWindow@@8
	DD	imagerel ??_R4CBaseControlWindow@@6BIVideoWindow@@@
rdata$r	ENDS
;	COMDAT xdata
xdata	SEGMENT
$unwind$?dtor$1@?0???0CBaseControlWindow@@QEAA@PEAVCBaseFilter@@PEAVCCritSec@@PEA_WPEAUIUnknown@@PEAJ@Z@4HA DD 031001H
	DD	0700c4210H
	DD	0500bH
xdata	ENDS
;	COMDAT xdata
xdata	SEGMENT
$unwind$?dtor$0@?0???0CBaseControlWindow@@QEAA@PEAVCBaseFilter@@PEAVCCritSec@@PEA_WPEAUIUnknown@@PEAJ@Z@4HA DD 031001H
	DD	0700c4210H
	DD	0500bH
xdata	ENDS
;	COMDAT xdata
xdata	SEGMENT
$unwind$??0CBaseControlWindow@@QEAA@PEAVCBaseFilter@@PEAVCCritSec@@PEA_WPEAUIUnknown@@PEAJ@Z DD 023611H
	DD	070155219H
	DD	imagerel __CxxFrameHandler3
	DD	imagerel $cppxdata$??0CBaseControlWindow@@QEAA@PEAVCBaseFilter@@PEAVCCritSec@@PEA_WPEAUIUnknown@@PEAJ@Z
xdata	ENDS
;	COMDAT CONST
CONST	SEGMENT
$cppxdata$??0CBaseControlWindow@@QEAA@PEAVCBaseFilter@@PEAVCCritSec@@PEA_WPEAUIUnknown@@PEAJ@Z DD 019930522H
	DD	02H
	DD	imagerel $stateUnwindMap$??0CBaseControlWindow@@QEAA@PEAVCBaseFilter@@PEAVCCritSec@@PEA_WPEAUIUnknown@@PEAJ@Z
	DD	00H
	DD	00H
	DD	04H
	DD	imagerel $ip2state$??0CBaseControlWindow@@QEAA@PEAVCBaseFilter@@PEAVCCritSec@@PEA_WPEAUIUnknown@@PEAJ@Z
	DD	020H
	DD	00H
	DD	01H
CONST	ENDS
;	COMDAT xdata
xdata	SEGMENT
$stateUnwindMap$??0CBaseControlWindow@@QEAA@PEAVCBaseFilter@@PEAVCCritSec@@PEA_WPEAUIUnknown@@PEAJ@Z DD 0ffffffffH
	DD	imagerel ?dtor$0@?0???0CBaseControlWindow@@QEAA@PEAVCBaseFilter@@PEAVCCritSec@@PEA_WPEAUIUnknown@@PEAJ@Z@4HA
	DD	00H
	DD	imagerel ?dtor$1@?0???0CBaseControlWindow@@QEAA@PEAVCBaseFilter@@PEAVCCritSec@@PEA_WPEAUIUnknown@@PEAJ@Z@4HA
xdata	ENDS
;	COMDAT ??_7CBaseControlWindow@@6B@
CONST	SEGMENT
??_7CBaseControlWindow@@6B@ DQ FLAT:??_R4CBaseControlWindow@@6B@ ; CBaseControlWindow::`vftable'
	DQ	FLAT:?OnPaletteChange@CBaseWindow@@MEAA_JPEAUHWND__@@I@Z
	DQ	FLAT:??_ECBaseControlWindow@@WDA@EAAPEAXI@Z
	DQ	FLAT:?DoneWithWindow@CBaseWindow@@UEAAJXZ
	DQ	FLAT:?PrepareWindow@CBaseWindow@@UEAAJXZ
	DQ	FLAT:?InactivateWindow@CBaseWindow@@UEAAJXZ
	DQ	FLAT:?ActivateWindow@CBaseWindow@@UEAAJXZ
	DQ	FLAT:?OnSize@CBaseWindow@@UEAAHJJ@Z
	DQ	FLAT:?OnClose@CBaseWindow@@UEAAHXZ
	DQ	FLAT:?GetDefaultRect@CBaseWindow@@UEAA?AUtagRECT@@XZ
	DQ	FLAT:?UninitialiseWindow@CBaseWindow@@UEAAJXZ
	DQ	FLAT:?InitialiseWindow@CBaseWindow@@UEAAJPEAUHWND__@@@Z
	DQ	FLAT:?SetPalette@CBaseWindow@@UEAAJPEAUHPALETTE__@@@Z
	DQ	FLAT:?DoRealisePalette@CBaseWindow@@UEAAJH@Z
	DQ	FLAT:?PossiblyEatMessage@CBaseControlWindow@@UEAAHI_K_J@Z
	DQ	FLAT:?OnReceiveMessage@CBaseWindow@@UEAA_JPEAUHWND__@@I_K_J@Z
	DQ	FLAT:_purecall
CONST	ENDS
;	COMDAT ??_7CBaseControlWindow@@6BCUnknown@@@
CONST	SEGMENT
??_7CBaseControlWindow@@6BCUnknown@@@ DQ FLAT:??_R4CBaseControlWindow@@6BCUnknown@@@ ; CBaseControlWindow::`vftable'
	DQ	FLAT:?NonDelegatingQueryInterface@CBaseVideoWindow@@UEAAJAEBU_GUID@@PEAPEAX@Z
	DQ	FLAT:?NonDelegatingAddRef@CUnknown@@UEAAKXZ
	DQ	FLAT:?NonDelegatingRelease@CUnknown@@UEAAKXZ
	DQ	FLAT:??_ECBaseControlWindow@@W7EAAPEAXI@Z
CONST	ENDS
;	COMDAT ??_7CBaseControlWindow@@6BIVideoWindow@@@
CONST	SEGMENT
??_7CBaseControlWindow@@6BIVideoWindow@@@ DQ FLAT:??_R4CBaseControlWindow@@6BIVideoWindow@@@ ; CBaseControlWindow::`vftable'
	DQ	FLAT:?QueryInterface@CBaseVideoWindow@@UEAAJAEBU_GUID@@PEAPEAX@Z
	DQ	FLAT:?AddRef@CBaseVideoWindow@@UEAAKXZ
	DQ	FLAT:?Release@CBaseVideoWindow@@UEAAKXZ
	DQ	FLAT:?GetTypeInfoCount@CBaseVideoWindow@@UEAAJPEAI@Z
	DQ	FLAT:?GetTypeInfo@CBaseVideoWindow@@UEAAJIKPEAPEAUITypeInfo@@@Z
	DQ	FLAT:?GetIDsOfNames@CBaseVideoWindow@@UEAAJAEBU_GUID@@PEAPEA_WIKPEAJ@Z
	DQ	FLAT:?Invoke@CBaseVideoWindow@@UEAAJJAEBU_GUID@@KGPEAUtagDISPPARAMS@@PEAUtagVARIANT@@PEAUtagEXCEPINFO@@PEAI@Z
	DQ	FLAT:?put_Caption@CBaseControlWindow@@UEAAJPEA_W@Z
	DQ	FLAT:?get_Caption@CBaseControlWindow@@UEAAJPEAPEA_W@Z
	DQ	FLAT:?put_WindowStyle@CBaseControlWindow@@UEAAJJ@Z
	DQ	FLAT:?get_WindowStyle@CBaseControlWindow@@UEAAJPEAJ@Z
	DQ	FLAT:?put_WindowStyleEx@CBaseControlWindow@@UEAAJJ@Z
	DQ	FLAT:?get_WindowStyleEx@CBaseControlWindow@@UEAAJPEAJ@Z
	DQ	FLAT:?put_AutoShow@CBaseControlWindow@@UEAAJJ@Z
	DQ	FLAT:?get_AutoShow@CBaseControlWindow@@UEAAJPEAJ@Z
	DQ	FLAT:?put_WindowState@CBaseControlWindow@@UEAAJJ@Z
	DQ	FLAT:?get_WindowState@CBaseControlWindow@@UEAAJPEAJ@Z
	DQ	FLAT:?put_BackgroundPalette@CBaseControlWindow@@UEAAJJ@Z
	DQ	FLAT:?get_BackgroundPalette@CBaseControlWindow@@UEAAJPEAJ@Z
	DQ	FLAT:?put_Visible@CBaseControlWindow@@UEAAJJ@Z
	DQ	FLAT:?get_Visible@CBaseControlWindow@@UEAAJPEAJ@Z
	DQ	FLAT:?put_Left@CBaseControlWindow@@UEAAJJ@Z
	DQ	FLAT:?get_Left@CBaseControlWindow@@UEAAJPEAJ@Z
	DQ	FLAT:?put_Width@CBaseControlWindow@@UEAAJJ@Z
	DQ	FLAT:?get_Width@CBaseControlWindow@@UEAAJPEAJ@Z
	DQ	FLAT:?put_Top@CBaseControlWindow@@UEAAJJ@Z
	DQ	FLAT:?get_Top@CBaseControlWindow@@UEAAJPEAJ@Z
	DQ	FLAT:?put_Height@CBaseControlWindow@@UEAAJJ@Z
	DQ	FLAT:?get_Height@CBaseControlWindow@@UEAAJPEAJ@Z
	DQ	FLAT:?put_Owner@CBaseControlWindow@@UEAAJ_J@Z
	DQ	FLAT:?get_Owner@CBaseControlWindow@@UEAAJPEA_J@Z
	DQ	FLAT:?put_MessageDrain@CBaseControlWindow@@UEAAJ_J@Z
	DQ	FLAT:?get_MessageDrain@CBaseControlWindow@@UEAAJPEA_J@Z
	DQ	FLAT:?get_BorderColor@CBaseControlWindow@@UEAAJPEAJ@Z
	DQ	FLAT:?put_BorderColor@CBaseControlWindow@@UEAAJJ@Z
	DQ	FLAT:?get_FullScreenMode@CBaseControlWindow@@UEAAJPEAJ@Z
	DQ	FLAT:?put_FullScreenMode@CBaseControlWindow@@UEAAJJ@Z
	DQ	FLAT:?SetWindowForeground@CBaseControlWindow@@UEAAJJ@Z
	DQ	FLAT:?NotifyOwnerMessage@CBaseControlWindow@@UEAAJ_JJ00@Z
	DQ	FLAT:?SetWindowPosition@CBaseControlWindow@@UEAAJJJJJ@Z
	DQ	FLAT:?GetWindowPosition@CBaseControlWindow@@UEAAJPEAJ000@Z
	DQ	FLAT:?GetMinIdealImageSize@CBaseControlWindow@@UEAAJPEAJ0@Z
	DQ	FLAT:?GetMaxIdealImageSize@CBaseControlWindow@@UEAAJPEAJ0@Z
	DQ	FLAT:?GetRestorePosition@CBaseControlWindow@@UEAAJPEAJ000@Z
	DQ	FLAT:?HideCursor@CBaseControlWindow@@UEAAJJ@Z
	DQ	FLAT:?IsCursorHidden@CBaseControlWindow@@UEAAJPEAJ@Z
; Function compile flags: /Odtp /RTCsu
CONST	ENDS
;	COMDAT ??0CBaseControlWindow@@QEAA@PEAVCBaseFilter@@PEAVCCritSec@@PEA_WPEAUIUnknown@@PEAJ@Z
_TEXT	SEGMENT
$T84723 = 32
this$ = 64
pFilter$ = 72
pInterfaceLock$ = 80
pName$ = 88
pUnk$ = 96
phr$ = 104
??0CBaseControlWindow@@QEAA@PEAVCBaseFilter@@PEAVCCritSec@@PEA_WPEAUIUnknown@@PEAJ@Z PROC ; CBaseControlWindow::CBaseControlWindow, COMDAT
; Line 99
$LN8:
	mov	QWORD PTR [rsp+32], r9
	mov	QWORD PTR [rsp+24], r8
	mov	QWORD PTR [rsp+16], rdx
	mov	QWORD PTR [rsp+8], rcx
	push	rdi
	sub	rsp, 48					; 00000030H
	mov	rdi, rsp
	mov	ecx, 12
	mov	eax, -858993460				; ccccccccH
	rep stosd
	mov	rcx, QWORD PTR [rsp+64]
	mov	QWORD PTR $T84723[rsp], -2
	mov	r8, QWORD PTR pUnk$[rsp]
	mov	rdx, QWORD PTR pName$[rsp]
	mov	rcx, QWORD PTR this$[rsp]
	call	??0CBaseVideoWindow@@QEAA@PEB_WPEAUIUnknown@@@Z ; CBaseVideoWindow::CBaseVideoWindow
	npad	1
	mov	rax, QWORD PTR this$[rsp]
	add	rax, 48					; 00000030H
	xor	r8d, r8d
	mov	edx, 1
	mov	rcx, rax
	call	??0CBaseWindow@@QEAA@H_N@Z		; CBaseWindow::CBaseWindow
	npad	1
	mov	rax, QWORD PTR this$[rsp]
	lea	rcx, OFFSET FLAT:??_7CBaseControlWindow@@6BIVideoWindow@@@
	mov	QWORD PTR [rax], rcx
	mov	rax, QWORD PTR this$[rsp]
	lea	rcx, OFFSET FLAT:??_7CBaseControlWindow@@6BCUnknown@@@
	mov	QWORD PTR [rax+8], rcx
	mov	rax, QWORD PTR this$[rsp]
	lea	rcx, OFFSET FLAT:??_7CBaseControlWindow@@6B@
	mov	QWORD PTR [rax+48], rcx
	mov	rax, QWORD PTR this$[rsp]
	mov	rcx, QWORD PTR pFilter$[rsp]
	mov	QWORD PTR [rax+272], rcx
	mov	rax, QWORD PTR this$[rsp]
	mov	QWORD PTR [rax+280], 0
	mov	rax, QWORD PTR this$[rsp]
	mov	rcx, QWORD PTR pInterfaceLock$[rsp]
	mov	QWORD PTR [rax+288], rcx
	mov	rax, QWORD PTR this$[rsp]
	mov	DWORD PTR [rax+300], 1
	mov	rax, QWORD PTR this$[rsp]
	mov	QWORD PTR [rax+304], 0
	mov	rax, QWORD PTR this$[rsp]
	mov	QWORD PTR [rax+312], 0
	mov	rax, QWORD PTR this$[rsp]
	mov	DWORD PTR [rax+320], 0
; Line 100
	mov	rax, QWORD PTR this$[rsp]
	cmp	QWORD PTR [rax+272], 0
	jne	SHORT $LN3@CBaseContr
	mov	r8d, 100				; 00000064H
	lea	rdx, OFFSET FLAT:$SG82249
	lea	rcx, OFFSET FLAT:$SG82250
	call	?DbgAssert@@YAXPEB_W0H@Z		; DbgAssert
$LN3@CBaseContr:
; Line 101
	mov	rax, QWORD PTR this$[rsp]
	cmp	QWORD PTR [rax+288], 0
	jne	SHORT $LN2@CBaseContr
	mov	r8d, 101				; 00000065H
	lea	rdx, OFFSET FLAT:$SG82252
	lea	rcx, OFFSET FLAT:$SG82253
	call	?DbgAssert@@YAXPEB_W0H@Z		; DbgAssert
$LN2@CBaseContr:
; Line 102
	cmp	QWORD PTR phr$[rsp], 0
	jne	SHORT $LN1@CBaseContr
	mov	r8d, 102				; 00000066H
	lea	rdx, OFFSET FLAT:$SG82255
	lea	rcx, OFFSET FLAT:$SG82256
	call	?DbgAssert@@YAXPEB_W0H@Z		; DbgAssert
$LN1@CBaseContr:
; Line 103
	mov	rax, QWORD PTR this$[rsp]
	mov	DWORD PTR [rax+296], 0
; Line 104
	mov	rax, QWORD PTR this$[rsp]
	add	rsp, 48					; 00000030H
	pop	rdi
	ret	0
??0CBaseControlWindow@@QEAA@PEAVCBaseFilter@@PEAVCCritSec@@PEA_WPEAUIUnknown@@PEAJ@Z ENDP ; CBaseControlWindow::CBaseControlWindow
; Function compile flags: /Odtp /RTCsu
_TEXT	ENDS
;	COMDAT text$x
text$x	SEGMENT
$T84723 = 32
this$ = 64
pFilter$ = 72
pInterfaceLock$ = 80
pName$ = 88
pUnk$ = 96
phr$ = 104
?dtor$0@?0???0CBaseControlWindow@@QEAA@PEAVCBaseFilter@@PEAVCCritSec@@PEA_WPEAUIUnknown@@PEAJ@Z@4HA PROC ; `CBaseControlWindow::CBaseControlWindow'::`1'::dtor$0
	mov	QWORD PTR [rsp+8], rcx
	mov	QWORD PTR [rsp+16], rdx
	push	rbp
	push	rdi
	sub	rsp, 40					; 00000028H
	mov	rbp, rdx
	mov	rcx, QWORD PTR this$[rbp]
	call	??1CBaseVideoWindow@@UEAA@XZ
	add	rsp, 40					; 00000028H
	pop	rdi
	pop	rbp
	ret	0
?dtor$0@?0???0CBaseControlWindow@@QEAA@PEAVCBaseFilter@@PEAVCCritSec@@PEA_WPEAUIUnknown@@PEAJ@Z@4HA ENDP ; `CBaseControlWindow::CBaseControlWindow'::`1'::dtor$0
; Function compile flags: /Odtp /RTCsu
$T84723 = 32
this$ = 64
pFilter$ = 72
pInterfaceLock$ = 80
pName$ = 88
pUnk$ = 96
phr$ = 104
?dtor$1@?0???0CBaseControlWindow@@QEAA@PEAVCBaseFilter@@PEAVCCritSec@@PEA_WPEAUIUnknown@@PEAJ@Z@4HA PROC ; `CBaseControlWindow::CBaseControlWindow'::`1'::dtor$1
	mov	QWORD PTR [rsp+8], rcx
	mov	QWORD PTR [rsp+16], rdx
	push	rbp
	push	rdi
	sub	rsp, 40					; 00000028H
	mov	rbp, rdx
	mov	rcx, QWORD PTR this$[rbp]
	add	rcx, 48					; 00000030H
	call	??1CBaseWindow@@UEAA@XZ			; CBaseWindow::~CBaseWindow
	add	rsp, 40					; 00000028H
	pop	rdi
	pop	rbp
	ret	0
?dtor$1@?0???0CBaseControlWindow@@QEAA@PEAVCBaseFilter@@PEAVCCritSec@@PEA_WPEAUIUnknown@@PEAJ@Z@4HA ENDP ; `CBaseControlWindow::CBaseControlWindow'::`1'::dtor$1
text$x	ENDS
PUBLIC	?GetOwner@CUnknown@@QEBAPEAUIUnknown@@XZ	; CUnknown::GetOwner
;	COMDAT pdata
; File c:\downloads\wpf mediakit - copy\src\filters\baseclasses\ctlutil.h
pdata	SEGMENT
$pdata$?QueryInterface@CBaseVideoWindow@@UEAAJAEBU_GUID@@PEAPEAX@Z DD imagerel $LN3
	DD	imagerel $LN3+93
	DD	imagerel $unwind$?QueryInterface@CBaseVideoWindow@@UEAAJAEBU_GUID@@PEAPEAX@Z
pdata	ENDS
;	COMDAT xdata
xdata	SEGMENT
$unwind$?QueryInterface@CBaseVideoWindow@@UEAAJAEBU_GUID@@PEAPEAX@Z DD 022801H
	DD	070105214H
; Function compile flags: /Odtp /RTCsu
xdata	ENDS
;	COMDAT ?QueryInterface@CBaseVideoWindow@@UEAAJAEBU_GUID@@PEAPEAX@Z
_TEXT	SEGMENT
tv71 = 32
this$ = 64
riid$ = 72
ppv$ = 80
?QueryInterface@CBaseVideoWindow@@UEAAJAEBU_GUID@@PEAPEAX@Z PROC ; CBaseVideoWindow::QueryInterface, COMDAT
; Line 495
$LN3:
	mov	QWORD PTR [rsp+24], r8
	mov	QWORD PTR [rsp+16], rdx
	mov	QWORD PTR [rsp+8], rcx
	push	rdi
	sub	rsp, 48					; 00000030H
	mov	rdi, rsp
	mov	ecx, 12
	mov	eax, -858993460				; ccccccccH
	rep stosd
	mov	rcx, QWORD PTR [rsp+64]
	mov	rax, QWORD PTR this$[rsp]
	add	rax, 8
	mov	rcx, rax
	call	?GetOwner@CUnknown@@QEBAPEAUIUnknown@@XZ ; CUnknown::GetOwner
	mov	QWORD PTR tv71[rsp], rax
	mov	rax, QWORD PTR tv71[rsp]
	mov	rax, QWORD PTR [rax]
	mov	r8, QWORD PTR ppv$[rsp]
	mov	rdx, QWORD PTR riid$[rsp]
	mov	rcx, QWORD PTR tv71[rsp]
	call	QWORD PTR [rax]
	add	rsp, 48					; 00000030H
	pop	rdi
	ret	0
?QueryInterface@CBaseVideoWindow@@UEAAJAEBU_GUID@@PEAPEAX@Z ENDP ; CBaseVideoWindow::QueryInterface
_TEXT	ENDS
;	COMDAT pdata
; File c:\downloads\wpf mediakit - copy\src\filters\baseclasses\combase.h
pdata	SEGMENT
$pdata$?GetOwner@CUnknown@@QEBAPEAUIUnknown@@XZ DD imagerel $LN3
	DD	imagerel $LN3+17
	DD	imagerel $unwind$?GetOwner@CUnknown@@QEBAPEAUIUnknown@@XZ
pdata	ENDS
;	COMDAT xdata
xdata	SEGMENT
$unwind$?GetOwner@CUnknown@@QEBAPEAUIUnknown@@XZ DD 010601H
	DD	07006H
; Function compile flags: /Odtp /RTCsu
xdata	ENDS
;	COMDAT ?GetOwner@CUnknown@@QEBAPEAUIUnknown@@XZ
_TEXT	SEGMENT
this$ = 16
?GetOwner@CUnknown@@QEBAPEAUIUnknown@@XZ PROC		; CUnknown::GetOwner, COMDAT
; Line 224
$LN3:
	mov	QWORD PTR [rsp+8], rcx
	push	rdi
; Line 225
	mov	rax, QWORD PTR this$[rsp]
	mov	rax, QWORD PTR [rax+16]
; Line 226
	pop	rdi
	ret	0
?GetOwner@CUnknown@@QEBAPEAUIUnknown@@XZ ENDP		; CUnknown::GetOwner
_TEXT	ENDS
;	COMDAT pdata
; File c:\downloads\wpf mediakit - copy\src\filters\baseclasses\ctlutil.h
pdata	SEGMENT
$pdata$?AddRef@CBaseVideoWindow@@UEAAKXZ DD imagerel $LN3
	DD	imagerel $LN3+74
	DD	imagerel $unwind$?AddRef@CBaseVideoWindow@@UEAAKXZ
pdata	ENDS
;	COMDAT xdata
xdata	SEGMENT
$unwind$?AddRef@CBaseVideoWindow@@UEAAKXZ DD 021e01H
	DD	07006520aH
; Function compile flags: /Odtp /RTCsu
xdata	ENDS
;	COMDAT ?AddRef@CBaseVideoWindow@@UEAAKXZ
_TEXT	SEGMENT
tv71 = 32
this$ = 64
?AddRef@CBaseVideoWindow@@UEAAKXZ PROC			; CBaseVideoWindow::AddRef, COMDAT
; Line 495
$LN3:
	mov	QWORD PTR [rsp+8], rcx
	push	rdi
	sub	rsp, 48					; 00000030H
	mov	rdi, rsp
	mov	ecx, 12
	mov	eax, -858993460				; ccccccccH
	rep stosd
	mov	rcx, QWORD PTR [rsp+64]
	mov	rax, QWORD PTR this$[rsp]
	add	rax, 8
	mov	rcx, rax
	call	?GetOwner@CUnknown@@QEBAPEAUIUnknown@@XZ ; CUnknown::GetOwner
	mov	QWORD PTR tv71[rsp], rax
	mov	rax, QWORD PTR tv71[rsp]
	mov	rax, QWORD PTR [rax]
	mov	rcx, QWORD PTR tv71[rsp]
	call	QWORD PTR [rax+8]
	add	rsp, 48					; 00000030H
	pop	rdi
	ret	0
?AddRef@CBaseVideoWindow@@UEAAKXZ ENDP			; CBaseVideoWindow::AddRef
_TEXT	ENDS
;	COMDAT pdata
pdata	SEGMENT
$pdata$?Release@CBaseVideoWindow@@UEAAKXZ DD imagerel $LN3
	DD	imagerel $LN3+74
	DD	imagerel $unwind$?Release@CBaseVideoWindow@@UEAAKXZ
pdata	ENDS
;	COMDAT xdata
xdata	SEGMENT
$unwind$?Release@CBaseVideoWindow@@UEAAKXZ DD 021e01H
	DD	07006520aH
; Function compile flags: /Odtp /RTCsu
xdata	ENDS
;	COMDAT ?Release@CBaseVideoWindow@@UEAAKXZ
_TEXT	SEGMENT
tv71 = 32
this$ = 64
?Release@CBaseVideoWindow@@UEAAKXZ PROC			; CBaseVideoWindow::Release, COMDAT
; Line 495
$LN3:
	mov	QWORD PTR [rsp+8], rcx
	push	rdi
	sub	rsp, 48					; 00000030H
	mov	rdi, rsp
	mov	ecx, 12
	mov	eax, -858993460				; ccccccccH
	rep stosd
	mov	rcx, QWORD PTR [rsp+64]
	mov	rax, QWORD PTR this$[rsp]
	add	rax, 8
	mov	rcx, rax
	call	?GetOwner@CUnknown@@QEBAPEAUIUnknown@@XZ ; CUnknown::GetOwner
	mov	QWORD PTR tv71[rsp], rax
	mov	rax, QWORD PTR tv71[rsp]
	mov	rax, QWORD PTR [rax]
	mov	rcx, QWORD PTR tv71[rsp]
	call	QWORD PTR [rax+16]
	add	rsp, 48					; 00000030H
	pop	rdi
	ret	0
?Release@CBaseVideoWindow@@UEAAKXZ ENDP			; CBaseVideoWindow::Release
_TEXT	ENDS
;	COMDAT pdata
; File c:\downloads\wpf mediakit - copy\src\filters\baseclasses\winctrl.h
pdata	SEGMENT
$pdata$?PossiblyEatMessage@CBaseControlWindow@@UEAAHI_K_J@Z DD imagerel $LN3
	DD	imagerel $LN3+81
	DD	imagerel $unwind$?PossiblyEatMessage@CBaseControlWindow@@UEAAHI_K_J@Z
pdata	ENDS
;	COMDAT xdata
xdata	SEGMENT
$unwind$?PossiblyEatMessage@CBaseControlWindow@@UEAAHI_K_J@Z DD 022c01H
	DD	070143218H
; Function compile flags: /Odtp /RTCsu
xdata	ENDS
;	COMDAT ?PossiblyEatMessage@CBaseControlWindow@@UEAAHI_K_J@Z
_TEXT	SEGMENT
this$ = 48
uMsg$ = 56
wParam$ = 64
lParam$ = 72
?PossiblyEatMessage@CBaseControlWindow@@UEAAHI_K_J@Z PROC ; CBaseControlWindow::PossiblyEatMessage, COMDAT
; Line 45
$LN3:
	mov	QWORD PTR [rsp+32], r9
	mov	QWORD PTR [rsp+24], r8
	mov	DWORD PTR [rsp+16], edx
	mov	QWORD PTR [rsp+8], rcx
	push	rdi
	sub	rsp, 32					; 00000020H
	mov	rdi, rsp
	mov	ecx, 8
	mov	eax, -858993460				; ccccccccH
	rep stosd
	mov	rcx, QWORD PTR [rsp+48]
; Line 46
	mov	r9, QWORD PTR lParam$[rsp]
	mov	r8, QWORD PTR wParam$[rsp]
	mov	edx, DWORD PTR uMsg$[rsp]
	mov	rax, QWORD PTR this$[rsp]
	mov	rcx, QWORD PTR [rax+264]
	call	?PossiblyEatMessage@@YAHPEAUHWND__@@I_K_J@Z ; PossiblyEatMessage
; Line 47
	add	rsp, 32					; 00000020H
	pop	rdi
	ret	0
?PossiblyEatMessage@CBaseControlWindow@@UEAAHI_K_J@Z ENDP ; CBaseControlWindow::PossiblyEatMessage
_TEXT	ENDS
PUBLIC	??1CUnknown@@UEAA@XZ				; CUnknown::~CUnknown
EXTRN	??1CBaseDispatch@@QEAA@XZ:PROC			; CBaseDispatch::~CBaseDispatch
;	COMDAT pdata
pdata	SEGMENT
$pdata$??1CBaseVideoWindow@@UEAA@XZ DD imagerel $LN5
	DD	imagerel $LN5+80
	DD	imagerel $unwind$??1CBaseVideoWindow@@UEAA@XZ
pdata	ENDS
;	COMDAT pdata
pdata	SEGMENT
$pdata$?dtor$0@?0???1CBaseVideoWindow@@UEAA@XZ@4HA DD imagerel ?dtor$0@?0???1CBaseVideoWindow@@UEAA@XZ@4HA
	DD	imagerel ?dtor$0@?0???1CBaseVideoWindow@@UEAA@XZ@4HA+39
	DD	imagerel $unwind$?dtor$0@?0???1CBaseVideoWindow@@UEAA@XZ@4HA
pdata	ENDS
;	COMDAT xdata
xdata	SEGMENT
$ip2state$??1CBaseVideoWindow@@UEAA@XZ DD imagerel ??1CBaseVideoWindow@@UEAA@XZ
	DD	0ffffffffH
	DD	imagerel ??1CBaseVideoWindow@@UEAA@XZ+39
	DD	00H
	DD	imagerel ??1CBaseVideoWindow@@UEAA@XZ+57
	DD	0ffffffffH
xdata	ENDS
;	COMDAT xdata
xdata	SEGMENT
$unwind$?dtor$0@?0???1CBaseVideoWindow@@UEAA@XZ@4HA DD 031001H
	DD	0700c4210H
	DD	0500bH
xdata	ENDS
;	COMDAT xdata
xdata	SEGMENT
$unwind$??1CBaseVideoWindow@@UEAA@XZ DD 022711H
	DD	07006520aH
	DD	imagerel __CxxFrameHandler3
	DD	imagerel $cppxdata$??1CBaseVideoWindow@@UEAA@XZ
xdata	ENDS
;	COMDAT CONST
CONST	SEGMENT
$cppxdata$??1CBaseVideoWindow@@UEAA@XZ DD 019930522H
	DD	01H
	DD	imagerel $stateUnwindMap$??1CBaseVideoWindow@@UEAA@XZ
	DD	00H
	DD	00H
	DD	03H
	DD	imagerel $ip2state$??1CBaseVideoWindow@@UEAA@XZ
	DD	020H
	DD	00H
	DD	01H
CONST	ENDS
;	COMDAT xdata
xdata	SEGMENT
$stateUnwindMap$??1CBaseVideoWindow@@UEAA@XZ DD 0ffffffffH
	DD	imagerel ?dtor$0@?0???1CBaseVideoWindow@@UEAA@XZ@4HA
; Function compile flags: /Odtp /RTCsu
xdata	ENDS
;	COMDAT ??1CBaseVideoWindow@@UEAA@XZ
_TEXT	SEGMENT
$T84788 = 32
this$ = 64
??1CBaseVideoWindow@@UEAA@XZ PROC			; CBaseVideoWindow::~CBaseVideoWindow, COMDAT
$LN5:
	mov	QWORD PTR [rsp+8], rcx
	push	rdi
	sub	rsp, 48					; 00000030H
	mov	rdi, rsp
	mov	ecx, 12
	mov	eax, -858993460				; ccccccccH
	rep stosd
	mov	rcx, QWORD PTR [rsp+64]
	mov	QWORD PTR $T84788[rsp], -2
	mov	rax, QWORD PTR this$[rsp]
	add	rax, 40					; 00000028H
	mov	rcx, rax
	call	??1CBaseDispatch@@QEAA@XZ		; CBaseDispatch::~CBaseDispatch
	npad	1
	mov	rax, QWORD PTR this$[rsp]
	add	rax, 8
	mov	rcx, rax
	call	??1CUnknown@@UEAA@XZ			; CUnknown::~CUnknown
	add	rsp, 48					; 00000030H
	pop	rdi
	ret	0
??1CBaseVideoWindow@@UEAA@XZ ENDP			; CBaseVideoWindow::~CBaseVideoWindow
; Function compile flags: /Odtp /RTCsu
_TEXT	ENDS
;	COMDAT text$x
text$x	SEGMENT
$T84788 = 32
this$ = 64
?dtor$0@?0???1CBaseVideoWindow@@UEAA@XZ@4HA PROC	; `CBaseVideoWindow::~CBaseVideoWindow'::`1'::dtor$0
	mov	QWORD PTR [rsp+8], rcx
	mov	QWORD PTR [rsp+16], rdx
	push	rbp
	push	rdi
	sub	rsp, 40					; 00000028H
	mov	rbp, rdx
	mov	rcx, QWORD PTR this$[rbp]
	add	rcx, 8
	call	??1CUnknown@@UEAA@XZ			; CUnknown::~CUnknown
	add	rsp, 40					; 00000028H
	pop	rdi
	pop	rbp
	ret	0
?dtor$0@?0???1CBaseVideoWindow@@UEAA@XZ@4HA ENDP	; `CBaseVideoWindow::~CBaseVideoWindow'::`1'::dtor$0
text$x	ENDS
EXTRN	??1CBaseObject@@QEAA@XZ:PROC			; CBaseObject::~CBaseObject
;	COMDAT pdata
; File c:\downloads\wpf mediakit - copy\src\filters\baseclasses\combase.h
pdata	SEGMENT
$pdata$??1CUnknown@@UEAA@XZ DD imagerel $LN4
	DD	imagerel $LN4+53
	DD	imagerel $unwind$??1CUnknown@@UEAA@XZ
pdata	ENDS
;	COMDAT xdata
xdata	SEGMENT
$unwind$??1CUnknown@@UEAA@XZ DD 021e01H
	DD	07006320aH
; Function compile flags: /Odtp /RTCsu
xdata	ENDS
;	COMDAT ??1CUnknown@@UEAA@XZ
_TEXT	SEGMENT
this$ = 48
??1CUnknown@@UEAA@XZ PROC				; CUnknown::~CUnknown, COMDAT
; Line 212
$LN4:
	mov	QWORD PTR [rsp+8], rcx
	push	rdi
	sub	rsp, 32					; 00000020H
	mov	rdi, rsp
	mov	ecx, 8
	mov	eax, -858993460				; ccccccccH
	rep stosd
	mov	rcx, QWORD PTR [rsp+48]
	mov	rax, QWORD PTR this$[rsp]
	add	rax, 8
	mov	rcx, rax
	call	??1CBaseObject@@QEAA@XZ			; CBaseObject::~CBaseObject
	add	rsp, 32					; 00000020H
	pop	rdi
	ret	0
??1CUnknown@@UEAA@XZ ENDP				; CUnknown::~CUnknown
_TEXT	ENDS
PUBLIC	?IsConnected@CBasePin@@QEAAHXZ			; CBasePin::IsConnected
EXTRN	__imp_SetWindowTextW:PROC
;	COMDAT pdata
; File c:\downloads\wpf mediakit - copy\src\filters\baseclasses\winctrl.cpp
pdata	SEGMENT
$pdata$?put_Caption@CBaseControlWindow@@UEAAJPEA_W@Z DD imagerel $LN8
	DD	imagerel $LN8+160
	DD	imagerel $unwind$?put_Caption@CBaseControlWindow@@UEAAJPEA_W@Z
pdata	ENDS
;	COMDAT xdata
xdata	SEGMENT
$unwind$?put_Caption@CBaseControlWindow@@UEAAJPEA_W@Z DD 022301H
	DD	0700b320fH
; Function compile flags: /Odtp /RTCsu
xdata	ENDS
;	COMDAT ?put_Caption@CBaseControlWindow@@UEAAJPEA_W@Z
_TEXT	SEGMENT
this$ = 48
strCaption$ = 56
?put_Caption@CBaseControlWindow@@UEAAJPEA_W@Z PROC	; CBaseControlWindow::put_Caption, COMDAT
; Line 113
$LN8:
	mov	QWORD PTR [rsp+16], rdx
	mov	QWORD PTR [rsp+8], rcx
	push	rdi
	sub	rsp, 32					; 00000020H
	mov	rdi, rsp
	mov	ecx, 8
	mov	eax, -858993460				; ccccccccH
	rep stosd
	mov	rcx, QWORD PTR [rsp+48]
; Line 114
	cmp	QWORD PTR strCaption$[rsp], 0
	jne	SHORT $LN5@put_Captio
	mov	eax, -2147467261			; ffffffff80004003H
	jmp	SHORT $LN6@put_Captio
$LN5@put_Captio:
; Line 115
	mov	rax, QWORD PTR this$[rsp]
	cmp	QWORD PTR [rax+280], 0
	jne	SHORT $LN4@put_Captio
	lea	rax, OFFSET FLAT:$SG82273
	test	rax, rax
	je	SHORT $LN3@put_Captio
	mov	r8d, 115				; 00000073H
	lea	rdx, OFFSET FLAT:$SG82274
	lea	rcx, OFFSET FLAT:$SG82275
	call	?DbgAssert@@YAXPEB_W0H@Z		; DbgAssert
$LN3@put_Captio:
	jmp	SHORT $LN2@put_Captio
$LN4@put_Captio:
	mov	rax, QWORD PTR this$[rsp]
	mov	rcx, QWORD PTR [rax+280]
	call	?IsConnected@CBasePin@@QEAAHXZ		; CBasePin::IsConnected
	test	eax, eax
	jne	SHORT $LN1@put_Captio
	mov	eax, -2147220983			; ffffffff80040209H
	jmp	SHORT $LN6@put_Captio
$LN1@put_Captio:
$LN2@put_Captio:
; Line 117
	mov	rdx, QWORD PTR strCaption$[rsp]
	mov	rax, QWORD PTR this$[rsp]
	mov	rcx, QWORD PTR [rax+64]
	call	QWORD PTR __imp_SetWindowTextW
; Line 124
	xor	eax, eax
$LN6@put_Captio:
; Line 125
	add	rsp, 32					; 00000020H
	pop	rdi
	ret	0
?put_Caption@CBaseControlWindow@@UEAAJPEA_W@Z ENDP	; CBaseControlWindow::put_Caption
_TEXT	ENDS
;	COMDAT pdata
; File c:\downloads\wpf mediakit - copy\src\filters\baseclasses\amfilter.h
pdata	SEGMENT
$pdata$?IsConnected@CBasePin@@QEAAHXZ DD imagerel $LN5
	DD	imagerel $LN5+67
	DD	imagerel $unwind$?IsConnected@CBasePin@@QEAAHXZ
pdata	ENDS
;	COMDAT xdata
xdata	SEGMENT
$unwind$?IsConnected@CBasePin@@QEAAHXZ DD 021e01H
	DD	07006120aH
; Function compile flags: /Odtp /RTCsu
xdata	ENDS
;	COMDAT ?IsConnected@CBasePin@@QEAAHXZ
_TEXT	SEGMENT
tv66 = 0
this$ = 32
?IsConnected@CBasePin@@QEAAHXZ PROC			; CBasePin::IsConnected, COMDAT
; Line 499
$LN5:
	mov	QWORD PTR [rsp+8], rcx
	push	rdi
	sub	rsp, 16
	mov	rdi, rsp
	mov	ecx, 4
	mov	eax, -858993460				; ccccccccH
	rep stosd
	mov	rcx, QWORD PTR [rsp+32]
	mov	rax, QWORD PTR this$[rsp]
	cmp	QWORD PTR [rax+56], 0
	je	SHORT $LN3@IsConnecte
	mov	DWORD PTR tv66[rsp], 1
	jmp	SHORT $LN4@IsConnecte
$LN3@IsConnecte:
	mov	DWORD PTR tv66[rsp], 0
$LN4@IsConnecte:
	mov	eax, DWORD PTR tv66[rsp]
	add	rsp, 16
	pop	rdi
	ret	0
?IsConnected@CBasePin@@QEAAHXZ ENDP			; CBasePin::IsConnected
_TEXT	ENDS
PUBLIC	__$ArrayPad$
EXTRN	__GSHandlerCheck:PROC
EXTRN	WriteBSTR:PROC
EXTRN	__imp_GetWindowTextW:PROC
EXTRN	__security_cookie:QWORD
EXTRN	__security_check_cookie:PROC
EXTRN	_RTC_CheckStackVars:PROC
;	COMDAT pdata
; File c:\downloads\wpf mediakit - copy\src\filters\baseclasses\winctrl.cpp
pdata	SEGMENT
$pdata$?get_Caption@CBaseControlWindow@@UEAAJPEAPEA_W@Z DD imagerel $LN8
	DD	imagerel $LN8+261
	DD	imagerel $unwind$?get_Caption@CBaseControlWindow@@UEAAJPEAPEA_W@Z
pdata	ENDS
;	COMDAT xdata
xdata	SEGMENT
$unwind$?get_Caption@CBaseControlWindow@@UEAAJPEAPEA_W@Z DD 033b19H
	DD	04a0112H
	DD	0700bH
	DD	imagerel __GSHandlerCheck
	DD	0240H
xdata	ENDS
;	COMDAT CONST
CONST	SEGMENT
?get_Caption@CBaseControlWindow@@UEAAJPEAPEA_W@Z$rtcName$0 DB 057H ; CBaseControlWindow::get_Caption
	DB	069H
	DB	064H
	DB	065H
	DB	043H
	DB	061H
	DB	070H
	DB	074H
	DB	069H
	DB	06fH
	DB	06eH
	DB	00H
	ORG $+4
?get_Caption@CBaseControlWindow@@UEAAJPEAPEA_W@Z$rtcVarDesc DD 030H ; CBaseControlWindow::get_Caption
	DD	0200H
	DQ	FLAT:?get_Caption@CBaseControlWindow@@UEAAJPEAPEA_W@Z$rtcName$0
	ORG $+48
?get_Caption@CBaseControlWindow@@UEAAJPEAPEA_W@Z$rtcFrameData DD 01H ; CBaseControlWindow::get_Caption
	DD	00H
	DQ	FLAT:?get_Caption@CBaseControlWindow@@UEAAJPEAPEA_W@Z$rtcVarDesc
; Function compile flags: /Odtp /RTCsu
CONST	ENDS
;	COMDAT ?get_Caption@CBaseControlWindow@@UEAAJPEAPEA_W@Z
_TEXT	SEGMENT
WideCaption$ = 48
__$ArrayPad$ = 576
this$ = 608
pstrCaption$ = 616
?get_Caption@CBaseControlWindow@@UEAAJPEAPEA_W@Z PROC	; CBaseControlWindow::get_Caption, COMDAT
; Line 135
$LN8:
	mov	QWORD PTR [rsp+16], rdx
	mov	QWORD PTR [rsp+8], rcx
	push	rdi
	sub	rsp, 592				; 00000250H
	mov	rdi, rsp
	mov	ecx, 148				; 00000094H
	mov	eax, -858993460				; ccccccccH
	rep stosd
	mov	rcx, QWORD PTR [rsp+608]
	mov	rax, QWORD PTR __security_cookie
	xor	rax, rsp
	mov	QWORD PTR __$ArrayPad$[rsp], rax
; Line 136
	cmp	QWORD PTR pstrCaption$[rsp], 0
	jne	SHORT $LN5@get_Captio
	mov	eax, -2147467261			; ffffffff80004003H
	jmp	$LN6@get_Captio
$LN5@get_Captio:
; Line 137
	mov	rax, QWORD PTR this$[rsp]
	cmp	QWORD PTR [rax+280], 0
	jne	SHORT $LN4@get_Captio
	lea	rax, OFFSET FLAT:$SG82287
	test	rax, rax
	je	SHORT $LN3@get_Captio
	mov	r8d, 137				; 00000089H
	lea	rdx, OFFSET FLAT:$SG82288
	lea	rcx, OFFSET FLAT:$SG82289
	call	?DbgAssert@@YAXPEB_W0H@Z		; DbgAssert
$LN3@get_Captio:
	jmp	SHORT $LN2@get_Captio
$LN4@get_Captio:
	mov	rax, QWORD PTR this$[rsp]
	mov	rcx, QWORD PTR [rax+280]
	call	?IsConnected@CBasePin@@QEAAHXZ		; CBasePin::IsConnected
	test	eax, eax
	jne	SHORT $LN1@get_Captio
	mov	eax, -2147220983			; ffffffff80040209H
	jmp	SHORT $LN6@get_Captio
$LN1@get_Captio:
$LN2@get_Captio:
; Line 141
	mov	r8d, 256				; 00000100H
	lea	rdx, QWORD PTR WideCaption$[rsp]
	mov	rax, QWORD PTR this$[rsp]
	mov	rcx, QWORD PTR [rax+64]
	call	QWORD PTR __imp_GetWindowTextW
; Line 149
	lea	rdx, QWORD PTR WideCaption$[rsp]
	mov	rcx, QWORD PTR pstrCaption$[rsp]
	call	WriteBSTR
$LN6@get_Captio:
; Line 150
	mov	rdi, rax
	mov	rcx, rsp
	lea	rdx, OFFSET FLAT:?get_Caption@CBaseControlWindow@@UEAAJPEAPEA_W@Z$rtcFrameData
	call	_RTC_CheckStackVars
	mov	rax, rdi
	mov	rcx, QWORD PTR __$ArrayPad$[rsp]
	xor	rcx, rsp
	call	__security_check_cookie
	add	rsp, 592				; 00000250H
	pop	rdi
	ret	0
?get_Caption@CBaseControlWindow@@UEAAJPEAPEA_W@Z ENDP	; CBaseControlWindow::get_Caption
_TEXT	ENDS
PUBLIC	?DoSetWindowStyle@CBaseControlWindow@@QEAAJJJ@Z	; CBaseControlWindow::DoSetWindowStyle
EXTRN	__imp_SendMessageW:PROC
EXTRN	__imp_GetWindowLongW:PROC
;	COMDAT pdata
pdata	SEGMENT
$pdata$?put_WindowStyleEx@CBaseControlWindow@@UEAAJJ@Z DD imagerel $LN11
	DD	imagerel $LN11+277
	DD	imagerel $unwind$?put_WindowStyleEx@CBaseControlWindow@@UEAAJJ@Z
pdata	ENDS
;	COMDAT xdata
xdata	SEGMENT
$unwind$?put_WindowStyleEx@CBaseControlWindow@@UEAAJJ@Z DD 022201H
	DD	0700a320eH
; Function compile flags: /Odtp /RTCsu
xdata	ENDS
;	COMDAT ?put_WindowStyleEx@CBaseControlWindow@@UEAAJJ@Z
_TEXT	SEGMENT
this$ = 48
WindowStyleEx$ = 56
?put_WindowStyleEx@CBaseControlWindow@@UEAAJJ@Z PROC	; CBaseControlWindow::put_WindowStyleEx, COMDAT
; Line 156
$LN11:
	mov	DWORD PTR [rsp+16], edx
	mov	QWORD PTR [rsp+8], rcx
	push	rdi
	sub	rsp, 32					; 00000020H
	mov	rdi, rsp
	mov	ecx, 8
	mov	eax, -858993460				; ccccccccH
	rep stosd
	mov	rcx, QWORD PTR [rsp+48]
; Line 157
	mov	rax, QWORD PTR this$[rsp]
	cmp	QWORD PTR [rax+280], 0
	jne	SHORT $LN8@put_Window
	lea	rax, OFFSET FLAT:$SG82300
	test	rax, rax
	je	SHORT $LN7@put_Window
	mov	r8d, 157				; 0000009dH
	lea	rdx, OFFSET FLAT:$SG82301
	lea	rcx, OFFSET FLAT:$SG82302
	call	?DbgAssert@@YAXPEB_W0H@Z		; DbgAssert
$LN7@put_Window:
	jmp	SHORT $LN6@put_Window
$LN8@put_Window:
	mov	rax, QWORD PTR this$[rsp]
	mov	rcx, QWORD PTR [rax+280]
	call	?IsConnected@CBasePin@@QEAAHXZ		; CBasePin::IsConnected
	test	eax, eax
	jne	SHORT $LN5@put_Window
	mov	eax, -2147220983			; ffffffff80040209H
	jmp	$LN9@put_Window
$LN5@put_Window:
$LN6@put_Window:
; Line 161
	mov	edx, -20
	mov	rax, QWORD PTR this$[rsp]
	mov	rcx, QWORD PTR [rax+64]
	call	QWORD PTR __imp_GetWindowLongW
	and	eax, 8
	test	eax, eax
	je	SHORT $LN4@put_Window
; Line 162
	mov	eax, DWORD PTR WindowStyleEx$[rsp]
	and	eax, 8
	test	eax, eax
	jne	SHORT $LN3@put_Window
; Line 163
	xor	r9d, r9d
	xor	r8d, r8d
	mov	rax, QWORD PTR this$[rsp]
	mov	edx, DWORD PTR [rax+120]
	mov	rax, QWORD PTR this$[rsp]
	mov	rcx, QWORD PTR [rax+64]
	call	QWORD PTR __imp_SendMessageW
$LN3@put_Window:
$LN4@put_Window:
; Line 169
	mov	eax, DWORD PTR WindowStyleEx$[rsp]
	and	eax, 8
	test	eax, eax
	je	SHORT $LN2@put_Window
; Line 170
	xor	r9d, r9d
	mov	r8d, 1
	mov	rax, QWORD PTR this$[rsp]
	mov	edx, DWORD PTR [rax+120]
	mov	rax, QWORD PTR this$[rsp]
	mov	rcx, QWORD PTR [rax+64]
	call	QWORD PTR __imp_SendMessageW
; Line 171
	mov	eax, DWORD PTR WindowStyleEx$[rsp]
	and	eax, -9
	mov	DWORD PTR WindowStyleEx$[rsp], eax
; Line 172
	cmp	DWORD PTR WindowStyleEx$[rsp], 0
	jne	SHORT $LN1@put_Window
	xor	eax, eax
	jmp	SHORT $LN9@put_Window
$LN1@put_Window:
$LN2@put_Window:
; Line 174
	mov	r8d, -20
	mov	edx, DWORD PTR WindowStyleEx$[rsp]
	mov	rcx, QWORD PTR this$[rsp]
	call	?DoSetWindowStyle@CBaseControlWindow@@QEAAJJJ@Z ; CBaseControlWindow::DoSetWindowStyle
$LN9@put_Window:
; Line 175
	add	rsp, 32					; 00000020H
	pop	rdi
	ret	0
?put_WindowStyleEx@CBaseControlWindow@@UEAAJJ@Z ENDP	; CBaseControlWindow::put_WindowStyleEx
_TEXT	ENDS
PUBLIC	?DoGetWindowStyle@CBaseControlWindow@@QEAAJPEAJJ@Z ; CBaseControlWindow::DoGetWindowStyle
;	COMDAT pdata
pdata	SEGMENT
$pdata$?get_WindowStyleEx@CBaseControlWindow@@UEAAJPEAJ@Z DD imagerel $LN8
	DD	imagerel $LN8+159
	DD	imagerel $unwind$?get_WindowStyleEx@CBaseControlWindow@@UEAAJPEAJ@Z
pdata	ENDS
;	COMDAT xdata
xdata	SEGMENT
$unwind$?get_WindowStyleEx@CBaseControlWindow@@UEAAJPEAJ@Z DD 022301H
	DD	0700b320fH
; Function compile flags: /Odtp /RTCsu
xdata	ENDS
;	COMDAT ?get_WindowStyleEx@CBaseControlWindow@@UEAAJPEAJ@Z
_TEXT	SEGMENT
this$ = 48
pWindowStyleEx$ = 56
?get_WindowStyleEx@CBaseControlWindow@@UEAAJPEAJ@Z PROC	; CBaseControlWindow::get_WindowStyleEx, COMDAT
; Line 181
$LN8:
	mov	QWORD PTR [rsp+16], rdx
	mov	QWORD PTR [rsp+8], rcx
	push	rdi
	sub	rsp, 32					; 00000020H
	mov	rdi, rsp
	mov	ecx, 8
	mov	eax, -858993460				; ccccccccH
	rep stosd
	mov	rcx, QWORD PTR [rsp+48]
; Line 182
	cmp	QWORD PTR pWindowStyleEx$[rsp], 0
	jne	SHORT $LN5@get_Window
	mov	eax, -2147467261			; ffffffff80004003H
	jmp	SHORT $LN6@get_Window
$LN5@get_Window:
; Line 183
	mov	rax, QWORD PTR this$[rsp]
	cmp	QWORD PTR [rax+280], 0
	jne	SHORT $LN4@get_Window
	lea	rax, OFFSET FLAT:$SG82322
	test	rax, rax
	je	SHORT $LN3@get_Window
	mov	r8d, 183				; 000000b7H
	lea	rdx, OFFSET FLAT:$SG82323
	lea	rcx, OFFSET FLAT:$SG82324
	call	?DbgAssert@@YAXPEB_W0H@Z		; DbgAssert
$LN3@get_Window:
	jmp	SHORT $LN2@get_Window
$LN4@get_Window:
	mov	rax, QWORD PTR this$[rsp]
	mov	rcx, QWORD PTR [rax+280]
	call	?IsConnected@CBasePin@@QEAAHXZ		; CBasePin::IsConnected
	test	eax, eax
	jne	SHORT $LN1@get_Window
	mov	eax, -2147220983			; ffffffff80040209H
	jmp	SHORT $LN6@get_Window
$LN1@get_Window:
$LN2@get_Window:
; Line 184
	mov	r8d, -20
	mov	rdx, QWORD PTR pWindowStyleEx$[rsp]
	mov	rcx, QWORD PTR this$[rsp]
	call	?DoGetWindowStyle@CBaseControlWindow@@QEAAJPEAJJ@Z ; CBaseControlWindow::DoGetWindowStyle
$LN6@get_Window:
; Line 185
	add	rsp, 32					; 00000020H
	pop	rdi
	ret	0
?get_WindowStyleEx@CBaseControlWindow@@UEAAJPEAJ@Z ENDP	; CBaseControlWindow::get_WindowStyleEx
_TEXT	ENDS
;	COMDAT pdata
pdata	SEGMENT
$pdata$?put_WindowStyle@CBaseControlWindow@@UEAAJJ@Z DD imagerel $LN9
	DD	imagerel $LN9+227
	DD	imagerel $unwind$?put_WindowStyle@CBaseControlWindow@@UEAAJJ@Z
pdata	ENDS
;	COMDAT xdata
xdata	SEGMENT
$unwind$?put_WindowStyle@CBaseControlWindow@@UEAAJJ@Z DD 022201H
	DD	0700a320eH
; Function compile flags: /Odtp /RTCsu
xdata	ENDS
;	COMDAT ?put_WindowStyle@CBaseControlWindow@@UEAAJJ@Z
_TEXT	SEGMENT
this$ = 48
WindowStyle$ = 56
?put_WindowStyle@CBaseControlWindow@@UEAAJJ@Z PROC	; CBaseControlWindow::put_WindowStyle, COMDAT
; Line 191
$LN9:
	mov	DWORD PTR [rsp+16], edx
	mov	QWORD PTR [rsp+8], rcx
	push	rdi
	sub	rsp, 32					; 00000020H
	mov	rdi, rsp
	mov	ecx, 8
	mov	eax, -858993460				; ccccccccH
	rep stosd
	mov	rcx, QWORD PTR [rsp+48]
; Line 199
	mov	eax, DWORD PTR WindowStyle$[rsp]
	and	eax, 134217728				; 08000000H
	test	eax, eax
	jne	SHORT $LN5@put_Window@2
	mov	eax, DWORD PTR WindowStyle$[rsp]
	and	eax, 536870912				; 20000000H
	test	eax, eax
	jne	SHORT $LN5@put_Window@2
	mov	eax, DWORD PTR WindowStyle$[rsp]
	and	eax, 16777216				; 01000000H
	test	eax, eax
	jne	SHORT $LN5@put_Window@2
	mov	eax, DWORD PTR WindowStyle$[rsp]
	and	eax, 536870912				; 20000000H
	test	eax, eax
	jne	SHORT $LN5@put_Window@2
	mov	eax, DWORD PTR WindowStyle$[rsp]
	and	eax, 1048576				; 00100000H
	test	eax, eax
	jne	SHORT $LN5@put_Window@2
	mov	eax, DWORD PTR WindowStyle$[rsp]
	and	eax, 2097152				; 00200000H
	test	eax, eax
	je	SHORT $LN6@put_Window@2
$LN5@put_Window@2:
; Line 201
	mov	eax, -2147024809			; ffffffff80070057H
	jmp	SHORT $LN7@put_Window@2
$LN6@put_Window@2:
; Line 204
	mov	rax, QWORD PTR this$[rsp]
	cmp	QWORD PTR [rax+280], 0
	jne	SHORT $LN4@put_Window@2
	lea	rax, OFFSET FLAT:$SG82337
	test	rax, rax
	je	SHORT $LN3@put_Window@2
	mov	r8d, 204				; 000000ccH
	lea	rdx, OFFSET FLAT:$SG82338
	lea	rcx, OFFSET FLAT:$SG82339
	call	?DbgAssert@@YAXPEB_W0H@Z		; DbgAssert
$LN3@put_Window@2:
	jmp	SHORT $LN2@put_Window@2
$LN4@put_Window@2:
	mov	rax, QWORD PTR this$[rsp]
	mov	rcx, QWORD PTR [rax+280]
	call	?IsConnected@CBasePin@@QEAAHXZ		; CBasePin::IsConnected
	test	eax, eax
	jne	SHORT $LN1@put_Window@2
	mov	eax, -2147220983			; ffffffff80040209H
	jmp	SHORT $LN7@put_Window@2
$LN1@put_Window@2:
$LN2@put_Window@2:
; Line 205
	mov	r8d, -16
	mov	edx, DWORD PTR WindowStyle$[rsp]
	mov	rcx, QWORD PTR this$[rsp]
	call	?DoSetWindowStyle@CBaseControlWindow@@QEAAJJJ@Z ; CBaseControlWindow::DoSetWindowStyle
$LN7@put_Window@2:
; Line 206
	add	rsp, 32					; 00000020H
	pop	rdi
	ret	0
?put_WindowStyle@CBaseControlWindow@@UEAAJJ@Z ENDP	; CBaseControlWindow::put_WindowStyle
_TEXT	ENDS
;	COMDAT pdata
pdata	SEGMENT
$pdata$?get_WindowStyle@CBaseControlWindow@@UEAAJPEAJ@Z DD imagerel $LN8
	DD	imagerel $LN8+159
	DD	imagerel $unwind$?get_WindowStyle@CBaseControlWindow@@UEAAJPEAJ@Z
pdata	ENDS
;	COMDAT xdata
xdata	SEGMENT
$unwind$?get_WindowStyle@CBaseControlWindow@@UEAAJPEAJ@Z DD 022301H
	DD	0700b320fH
; Function compile flags: /Odtp /RTCsu
xdata	ENDS
;	COMDAT ?get_WindowStyle@CBaseControlWindow@@UEAAJPEAJ@Z
_TEXT	SEGMENT
this$ = 48
pWindowStyle$ = 56
?get_WindowStyle@CBaseControlWindow@@UEAAJPEAJ@Z PROC	; CBaseControlWindow::get_WindowStyle, COMDAT
; Line 212
$LN8:
	mov	QWORD PTR [rsp+16], rdx
	mov	QWORD PTR [rsp+8], rcx
	push	rdi
	sub	rsp, 32					; 00000020H
	mov	rdi, rsp
	mov	ecx, 8
	mov	eax, -858993460				; ccccccccH
	rep stosd
	mov	rcx, QWORD PTR [rsp+48]
; Line 213
	cmp	QWORD PTR pWindowStyle$[rsp], 0
	jne	SHORT $LN5@get_Window@2
	mov	eax, -2147467261			; ffffffff80004003H
	jmp	SHORT $LN6@get_Window@2
$LN5@get_Window@2:
; Line 214
	mov	rax, QWORD PTR this$[rsp]
	cmp	QWORD PTR [rax+280], 0
	jne	SHORT $LN4@get_Window@2
	lea	rax, OFFSET FLAT:$SG82351
	test	rax, rax
	je	SHORT $LN3@get_Window@2
	mov	r8d, 214				; 000000d6H
	lea	rdx, OFFSET FLAT:$SG82352
	lea	rcx, OFFSET FLAT:$SG82353
	call	?DbgAssert@@YAXPEB_W0H@Z		; DbgAssert
$LN3@get_Window@2:
	jmp	SHORT $LN2@get_Window@2
$LN4@get_Window@2:
	mov	rax, QWORD PTR this$[rsp]
	mov	rcx, QWORD PTR [rax+280]
	call	?IsConnected@CBasePin@@QEAAHXZ		; CBasePin::IsConnected
	test	eax, eax
	jne	SHORT $LN1@get_Window@2
	mov	eax, -2147220983			; ffffffff80040209H
	jmp	SHORT $LN6@get_Window@2
$LN1@get_Window@2:
$LN2@get_Window@2:
; Line 215
	mov	r8d, -16
	mov	rdx, QWORD PTR pWindowStyle$[rsp]
	mov	rcx, QWORD PTR this$[rsp]
	call	?DoGetWindowStyle@CBaseControlWindow@@QEAAJPEAJJ@Z ; CBaseControlWindow::DoGetWindowStyle
$LN6@get_Window@2:
; Line 216
	add	rsp, 32					; 00000020H
	pop	rdi
	ret	0
?get_WindowStyle@CBaseControlWindow@@UEAAJPEAJ@Z ENDP	; CBaseControlWindow::get_WindowStyle
_TEXT	ENDS
PUBLIC	__$ArrayPad$
EXTRN	__imp_MapWindowPoints:PROC
EXTRN	__imp_GetParent:PROC
EXTRN	__imp_ShowWindow:PROC
EXTRN	__imp_MoveWindow:PROC
EXTRN	__imp_GetSystemMetrics:PROC
EXTRN	__imp_SetWindowPos:PROC
EXTRN	__imp_SetWindowLongW:PROC
EXTRN	__imp_GetWindowRect:PROC
EXTRN	__imp_IsWindowVisible:PROC
;	COMDAT pdata
pdata	SEGMENT
$pdata$?DoSetWindowStyle@CBaseControlWindow@@QEAAJJJ@Z DD imagerel $LN6
	DD	imagerel $LN6+611
	DD	imagerel $unwind$?DoSetWindowStyle@CBaseControlWindow@@QEAAJJJ@Z
pdata	ENDS
;	COMDAT xdata
xdata	SEGMENT
$unwind$?DoSetWindowStyle@CBaseControlWindow@@QEAAJJJ@Z DD 033f19H
	DD	0120116H
	DD	0700fH
	DD	imagerel __GSHandlerCheck
	DD	088H
xdata	ENDS
;	COMDAT CONST
CONST	SEGMENT
?DoSetWindowStyle@CBaseControlWindow@@QEAAJJJ@Z$rtcName$0 DB 057H ; CBaseControlWindow::DoSetWindowStyle
	DB	069H
	DB	06eH
	DB	064H
	DB	06fH
	DB	077H
	DB	052H
	DB	065H
	DB	063H
	DB	074H
	DB	00H
	ORG $+5
?DoSetWindowStyle@CBaseControlWindow@@QEAAJJJ@Z$rtcVarDesc DD 048H ; CBaseControlWindow::DoSetWindowStyle
	DD	010H
	DQ	FLAT:?DoSetWindowStyle@CBaseControlWindow@@QEAAJJJ@Z$rtcName$0
	ORG $+48
?DoSetWindowStyle@CBaseControlWindow@@QEAAJJJ@Z$rtcFrameData DD 01H ; CBaseControlWindow::DoSetWindowStyle
	DD	00H
	DQ	FLAT:?DoSetWindowStyle@CBaseControlWindow@@QEAAJJJ@Z$rtcVarDesc
; Function compile flags: /Odtp /RTCsu
CONST	ENDS
;	COMDAT ?DoSetWindowStyle@CBaseControlWindow@@QEAAJJJ@Z
_TEXT	SEGMENT
WindowRect$ = 72
bVisible$ = 100
WindowFlags$ = 104
tv139 = 120
tv141 = 124
tv143 = 128
__$ArrayPad$ = 136
this$ = 160
Style$ = 168
WindowLong$ = 176
?DoSetWindowStyle@CBaseControlWindow@@QEAAJJJ@Z PROC	; CBaseControlWindow::DoSetWindowStyle, COMDAT
; Line 227
$LN6:
	mov	DWORD PTR [rsp+24], r8d
	mov	DWORD PTR [rsp+16], edx
	mov	QWORD PTR [rsp+8], rcx
	push	rdi
	sub	rsp, 144				; 00000090H
	mov	rdi, rsp
	mov	ecx, 36					; 00000024H
	mov	eax, -858993460				; ccccccccH
	rep stosd
	mov	rcx, QWORD PTR [rsp+160]
	mov	rax, QWORD PTR __security_cookie
	xor	rax, rsp
	mov	QWORD PTR __$ArrayPad$[rsp], rax
; Line 231
	mov	rax, QWORD PTR this$[rsp]
	mov	rcx, QWORD PTR [rax+64]
	call	QWORD PTR __imp_IsWindowVisible
	mov	DWORD PTR bVisible$[rsp], eax
; Line 232
	lea	rdx, QWORD PTR WindowRect$[rsp]
	mov	rax, QWORD PTR this$[rsp]
	mov	rcx, QWORD PTR [rax+64]
	call	QWORD PTR __imp_GetWindowRect
	test	eax, eax
	jne	SHORT $LN3@DoSetWindo
	mov	r8d, 232				; 000000e8H
	lea	rdx, OFFSET FLAT:$SG82365
	lea	rcx, OFFSET FLAT:$SG82366
	call	?DbgAssert@@YAXPEB_W0H@Z		; DbgAssert
$LN3@DoSetWindo:
; Line 235
	mov	r8d, DWORD PTR Style$[rsp]
	mov	edx, DWORD PTR WindowLong$[rsp]
	mov	rax, QWORD PTR this$[rsp]
	mov	rcx, QWORD PTR [rax+64]
	call	QWORD PTR __imp_SetWindowLongW
; Line 236
	mov	DWORD PTR WindowFlags$[rsp], 112	; 00000070H
; Line 237
	mov	eax, DWORD PTR WindowFlags$[rsp]
	or	eax, 7
	mov	DWORD PTR WindowFlags$[rsp], eax
; Line 241
	cmp	DWORD PTR bVisible$[rsp], 1
	jne	SHORT $LN2@DoSetWindo
; Line 246
	mov	eax, DWORD PTR WindowFlags$[rsp]
	mov	DWORD PTR [rsp+48], eax
	mov	DWORD PTR [rsp+40], 0
	mov	DWORD PTR [rsp+32], 0
	xor	r9d, r9d
	xor	r8d, r8d
	xor	edx, edx
	mov	rax, QWORD PTR this$[rsp]
	mov	rcx, QWORD PTR [rax+64]
	call	QWORD PTR __imp_SetWindowPos
; Line 248
	xor	eax, eax
	jmp	$LN4@DoSetWindo
$LN2@DoSetWindo:
; Line 258
	mov	eax, DWORD PTR WindowRect$[rsp+4]
	mov	ecx, DWORD PTR WindowRect$[rsp+12]
	sub	ecx, eax
	mov	eax, ecx
	mov	DWORD PTR tv139[rsp], eax
	mov	ecx, DWORD PTR WindowRect$[rsp]
	mov	edx, DWORD PTR WindowRect$[rsp+8]
	sub	edx, ecx
	mov	ecx, edx
	mov	DWORD PTR tv141[rsp], ecx
	mov	ecx, 1
	call	QWORD PTR __imp_GetSystemMetrics
	mov	DWORD PTR tv143[rsp], eax
	xor	ecx, ecx
	call	QWORD PTR __imp_GetSystemMetrics
	mov	DWORD PTR [rsp+40], 1
	mov	ecx, DWORD PTR tv139[rsp]
	mov	DWORD PTR [rsp+32], ecx
	mov	ecx, DWORD PTR tv141[rsp]
	mov	r9d, ecx
	mov	ecx, DWORD PTR tv143[rsp]
	mov	r8d, ecx
	mov	edx, eax
	mov	rax, QWORD PTR this$[rsp]
	mov	rcx, QWORD PTR [rax+64]
	call	QWORD PTR __imp_MoveWindow
; Line 265
	mov	eax, DWORD PTR WindowFlags$[rsp]
	mov	DWORD PTR [rsp+48], eax
	mov	DWORD PTR [rsp+40], 0
	mov	DWORD PTR [rsp+32], 0
	xor	r9d, r9d
	xor	r8d, r8d
	xor	edx, edx
	mov	rax, QWORD PTR this$[rsp]
	mov	rcx, QWORD PTR [rax+64]
	call	QWORD PTR __imp_SetWindowPos
; Line 267
	xor	edx, edx
	mov	rax, QWORD PTR this$[rsp]
	mov	rcx, QWORD PTR [rax+64]
	call	QWORD PTR __imp_ShowWindow
; Line 269
	mov	rax, QWORD PTR this$[rsp]
	mov	rcx, QWORD PTR [rax+64]
	call	QWORD PTR __imp_GetParent
	test	rax, rax
	je	SHORT $LN1@DoSetWindo
; Line 271
	mov	rax, QWORD PTR this$[rsp]
	mov	rcx, QWORD PTR [rax+64]
	call	QWORD PTR __imp_GetParent
	mov	r9d, 2
	lea	r8, QWORD PTR WindowRect$[rsp]
	mov	rdx, rax
	xor	ecx, ecx
	call	QWORD PTR __imp_MapWindowPoints
$LN1@DoSetWindo:
; Line 279
	mov	eax, DWORD PTR WindowRect$[rsp+4]
	mov	ecx, DWORD PTR WindowRect$[rsp+12]
	sub	ecx, eax
	mov	eax, ecx
	mov	ecx, DWORD PTR WindowRect$[rsp]
	mov	edx, DWORD PTR WindowRect$[rsp+8]
	sub	edx, ecx
	mov	ecx, edx
	mov	DWORD PTR [rsp+40], 1
	mov	DWORD PTR [rsp+32], eax
	mov	r9d, ecx
	mov	r8d, DWORD PTR WindowRect$[rsp+4]
	mov	edx, DWORD PTR WindowRect$[rsp]
	mov	rax, QWORD PTR this$[rsp]
	mov	rcx, QWORD PTR [rax+64]
	call	QWORD PTR __imp_MoveWindow
; Line 281
	xor	eax, eax
$LN4@DoSetWindo:
; Line 282
	mov	rdi, rax
	mov	rcx, rsp
	lea	rdx, OFFSET FLAT:?DoSetWindowStyle@CBaseControlWindow@@QEAAJJJ@Z$rtcFrameData
	call	_RTC_CheckStackVars
	mov	rax, rdi
	mov	rcx, QWORD PTR __$ArrayPad$[rsp]
	xor	rcx, rsp
	call	__security_check_cookie
	add	rsp, 144				; 00000090H
	pop	rdi
	ret	0
?DoSetWindowStyle@CBaseControlWindow@@QEAAJJJ@Z ENDP	; CBaseControlWindow::DoSetWindowStyle
_TEXT	ENDS
;	COMDAT pdata
pdata	SEGMENT
$pdata$?DoGetWindowStyle@CBaseControlWindow@@QEAAJPEAJJ@Z DD imagerel $LN3
	DD	imagerel $LN3+74
	DD	imagerel $unwind$?DoGetWindowStyle@CBaseControlWindow@@QEAAJPEAJJ@Z
pdata	ENDS
;	COMDAT xdata
xdata	SEGMENT
$unwind$?DoGetWindowStyle@CBaseControlWindow@@QEAAJPEAJJ@Z DD 022801H
	DD	070103214H
; Function compile flags: /Odtp /RTCsu
xdata	ENDS
;	COMDAT ?DoGetWindowStyle@CBaseControlWindow@@QEAAJPEAJJ@Z
_TEXT	SEGMENT
this$ = 48
pStyle$ = 56
WindowLong$ = 64
?DoGetWindowStyle@CBaseControlWindow@@QEAAJPEAJJ@Z PROC	; CBaseControlWindow::DoGetWindowStyle, COMDAT
; Line 288
$LN3:
	mov	DWORD PTR [rsp+24], r8d
	mov	QWORD PTR [rsp+16], rdx
	mov	QWORD PTR [rsp+8], rcx
	push	rdi
	sub	rsp, 32					; 00000020H
	mov	rdi, rsp
	mov	ecx, 8
	mov	eax, -858993460				; ccccccccH
	rep stosd
	mov	rcx, QWORD PTR [rsp+48]
; Line 289
	mov	edx, DWORD PTR WindowLong$[rsp]
	mov	rax, QWORD PTR this$[rsp]
	mov	rcx, QWORD PTR [rax+64]
	call	QWORD PTR __imp_GetWindowLongW
	mov	rcx, QWORD PTR pStyle$[rsp]
	mov	DWORD PTR [rcx], eax
; Line 290
	xor	eax, eax
; Line 291
	add	rsp, 32					; 00000020H
	pop	rdi
	ret	0
?DoGetWindowStyle@CBaseControlWindow@@QEAAJPEAJJ@Z ENDP	; CBaseControlWindow::DoGetWindowStyle
_TEXT	ENDS
EXTRN	?DoShowWindow@CBaseWindow@@QEAAJJ@Z:PROC	; CBaseWindow::DoShowWindow
;	COMDAT pdata
pdata	SEGMENT
$pdata$?put_WindowState@CBaseControlWindow@@UEAAJJ@Z DD imagerel $LN7
	DD	imagerel $LN7+145
	DD	imagerel $unwind$?put_WindowState@CBaseControlWindow@@UEAAJJ@Z
pdata	ENDS
;	COMDAT xdata
xdata	SEGMENT
$unwind$?put_WindowState@CBaseControlWindow@@UEAAJJ@Z DD 022201H
	DD	0700a320eH
; Function compile flags: /Odtp /RTCsu
xdata	ENDS
;	COMDAT ?put_WindowState@CBaseControlWindow@@UEAAJJ@Z
_TEXT	SEGMENT
this$ = 48
WindowState$ = 56
?put_WindowState@CBaseControlWindow@@UEAAJJ@Z PROC	; CBaseControlWindow::put_WindowState, COMDAT
; Line 300
$LN7:
	mov	DWORD PTR [rsp+16], edx
	mov	QWORD PTR [rsp+8], rcx
	push	rdi
	sub	rsp, 32					; 00000020H
	mov	rdi, rsp
	mov	ecx, 8
	mov	eax, -858993460				; ccccccccH
	rep stosd
	mov	rcx, QWORD PTR [rsp+48]
; Line 301
	mov	rax, QWORD PTR this$[rsp]
	cmp	QWORD PTR [rax+280], 0
	jne	SHORT $LN4@put_Window@3
	lea	rax, OFFSET FLAT:$SG82387
	test	rax, rax
	je	SHORT $LN3@put_Window@3
	mov	r8d, 301				; 0000012dH
	lea	rdx, OFFSET FLAT:$SG82388
	lea	rcx, OFFSET FLAT:$SG82389
	call	?DbgAssert@@YAXPEB_W0H@Z		; DbgAssert
$LN3@put_Window@3:
	jmp	SHORT $LN2@put_Window@3
$LN4@put_Window@3:
	mov	rax, QWORD PTR this$[rsp]
	mov	rcx, QWORD PTR [rax+280]
	call	?IsConnected@CBasePin@@QEAAHXZ		; CBasePin::IsConnected
	test	eax, eax
	jne	SHORT $LN1@put_Window@3
	mov	eax, -2147220983			; ffffffff80040209H
	jmp	SHORT $LN5@put_Window@3
$LN1@put_Window@3:
$LN2@put_Window@3:
; Line 302
	mov	rax, QWORD PTR this$[rsp]
	add	rax, 48					; 00000030H
	mov	edx, DWORD PTR WindowState$[rsp]
	mov	rcx, rax
	call	?DoShowWindow@CBaseWindow@@QEAAJJ@Z	; CBaseWindow::DoShowWindow
; Line 303
	xor	eax, eax
$LN5@put_Window@3:
; Line 304
	add	rsp, 32					; 00000020H
	pop	rdi
	ret	0
?put_WindowState@CBaseControlWindow@@UEAAJJ@Z ENDP	; CBaseControlWindow::put_WindowState
_TEXT	ENDS
EXTRN	__imp_IsZoomed:PROC
EXTRN	__imp_IsIconic:PROC
;	COMDAT pdata
pdata	SEGMENT
$pdata$?get_WindowState@CBaseControlWindow@@UEAAJPEAJ@Z DD imagerel $LN15
	DD	imagerel $LN15+316
	DD	imagerel $unwind$?get_WindowState@CBaseControlWindow@@UEAAJPEAJ@Z
pdata	ENDS
;	COMDAT xdata
xdata	SEGMENT
$unwind$?get_WindowState@CBaseControlWindow@@UEAAJPEAJ@Z DD 022301H
	DD	0700b320fH
; Function compile flags: /Odtp /RTCsu
xdata	ENDS
;	COMDAT ?get_WindowState@CBaseControlWindow@@UEAAJPEAJ@Z
_TEXT	SEGMENT
this$ = 48
pWindowState$ = 56
?get_WindowState@CBaseControlWindow@@UEAAJPEAJ@Z PROC	; CBaseControlWindow::get_WindowState, COMDAT
; Line 314
$LN15:
	mov	QWORD PTR [rsp+16], rdx
	mov	QWORD PTR [rsp+8], rcx
	push	rdi
	sub	rsp, 32					; 00000020H
	mov	rdi, rsp
	mov	ecx, 8
	mov	eax, -858993460				; ccccccccH
	rep stosd
	mov	rcx, QWORD PTR [rsp+48]
; Line 315
	cmp	QWORD PTR pWindowState$[rsp], 0
	jne	SHORT $LN12@get_Window@3
	mov	eax, -2147467261			; ffffffff80004003H
	jmp	$LN13@get_Window@3
$LN12@get_Window@3:
; Line 316
	mov	rax, QWORD PTR this$[rsp]
	cmp	QWORD PTR [rax+280], 0
	jne	SHORT $LN11@get_Window@3
	lea	rax, OFFSET FLAT:$SG82401
	test	rax, rax
	je	SHORT $LN10@get_Window@3
	mov	r8d, 316				; 0000013cH
	lea	rdx, OFFSET FLAT:$SG82402
	lea	rcx, OFFSET FLAT:$SG82403
	call	?DbgAssert@@YAXPEB_W0H@Z		; DbgAssert
$LN10@get_Window@3:
	jmp	SHORT $LN9@get_Window@3
$LN11@get_Window@3:
	mov	rax, QWORD PTR this$[rsp]
	mov	rcx, QWORD PTR [rax+280]
	call	?IsConnected@CBasePin@@QEAAHXZ		; CBasePin::IsConnected
	test	eax, eax
	jne	SHORT $LN8@get_Window@3
	mov	eax, -2147220983			; ffffffff80040209H
	jmp	$LN13@get_Window@3
$LN8@get_Window@3:
$LN9@get_Window@3:
; Line 317
	cmp	QWORD PTR pWindowState$[rsp], 0
	jne	SHORT $LN7@get_Window@3
	mov	r8d, 317				; 0000013dH
	lea	rdx, OFFSET FLAT:$SG82408
	lea	rcx, OFFSET FLAT:$SG82409
	call	?DbgAssert@@YAXPEB_W0H@Z		; DbgAssert
$LN7@get_Window@3:
; Line 318
	mov	rax, QWORD PTR pWindowState$[rsp]
	mov	DWORD PTR [rax], 0
; Line 324
	mov	rax, QWORD PTR this$[rsp]
	mov	rcx, QWORD PTR [rax+64]
	call	QWORD PTR __imp_IsWindowVisible
	cmp	eax, 1
	jne	SHORT $LN6@get_Window@3
; Line 327
	mov	rax, QWORD PTR this$[rsp]
	mov	rcx, QWORD PTR [rax+64]
	call	QWORD PTR __imp_IsIconic
	cmp	eax, 1
	jne	SHORT $LN5@get_Window@3
; Line 328
	mov	rax, QWORD PTR pWindowState$[rsp]
	mov	eax, DWORD PTR [rax]
	or	eax, 6
	mov	rcx, QWORD PTR pWindowState$[rsp]
	mov	DWORD PTR [rcx], eax
	jmp	SHORT $LN4@get_Window@3
$LN5@get_Window@3:
; Line 332
	mov	rax, QWORD PTR this$[rsp]
	mov	rcx, QWORD PTR [rax+64]
	call	QWORD PTR __imp_IsZoomed
	cmp	eax, 1
	jne	SHORT $LN3@get_Window@3
; Line 333
	mov	rax, QWORD PTR pWindowState$[rsp]
	mov	eax, DWORD PTR [rax]
	or	eax, 3
	mov	rcx, QWORD PTR pWindowState$[rsp]
	mov	DWORD PTR [rcx], eax
; Line 337
	jmp	SHORT $LN2@get_Window@3
$LN3@get_Window@3:
; Line 338
	mov	rax, QWORD PTR pWindowState$[rsp]
	mov	eax, DWORD PTR [rax]
	or	eax, 5
	mov	rcx, QWORD PTR pWindowState$[rsp]
	mov	DWORD PTR [rcx], eax
$LN2@get_Window@3:
$LN4@get_Window@3:
; Line 341
	jmp	SHORT $LN1@get_Window@3
$LN6@get_Window@3:
; Line 342
	mov	rax, QWORD PTR pWindowState$[rsp]
	mov	ecx, DWORD PTR [rax]
	mov	DWORD PTR [rax], ecx
$LN1@get_Window@3:
; Line 344
	xor	eax, eax
$LN13@get_Window@3:
; Line 345
	add	rsp, 32					; 00000020H
	pop	rdi
	ret	0
?get_WindowState@CBaseControlWindow@@UEAAJPEAJ@Z ENDP	; CBaseControlWindow::get_WindowState
_TEXT	ENDS
PUBLIC	??1CAutoLock@@QEAA@XZ				; CAutoLock::~CAutoLock
PUBLIC	??0CAutoLock@@QEAA@PEAVCCritSec@@@Z		; CAutoLock::CAutoLock
EXTRN	?PaintWindow@CBaseWindow@@QEAAXH@Z:PROC		; CBaseWindow::PaintWindow
;	COMDAT pdata
pdata	SEGMENT
$pdata$?put_BackgroundPalette@CBaseControlWindow@@UEAAJJ@Z DD imagerel $LN12
	DD	imagerel $LN12+329
	DD	imagerel $unwind$?put_BackgroundPalette@CBaseControlWindow@@UEAAJJ@Z
pdata	ENDS
;	COMDAT pdata
pdata	SEGMENT
$pdata$?dtor$0@?0??put_BackgroundPalette@CBaseControlWindow@@UEAAJJ@Z@4HA DD imagerel ?dtor$0@?0??put_BackgroundPalette@CBaseControlWindow@@UEAAJJ@Z@4HA
	DD	imagerel ?dtor$0@?0??put_BackgroundPalette@CBaseControlWindow@@UEAAJJ@Z@4HA+35
	DD	imagerel $unwind$?dtor$0@?0??put_BackgroundPalette@CBaseControlWindow@@UEAAJJ@Z@4HA
pdata	ENDS
;	COMDAT xdata
xdata	SEGMENT
$ip2state$?put_BackgroundPalette@CBaseControlWindow@@UEAAJJ@Z DD imagerel ?put_BackgroundPalette@CBaseControlWindow@@UEAAJJ@Z
	DD	0ffffffffH
	DD	imagerel ?put_BackgroundPalette@CBaseControlWindow@@UEAAJJ@Z+153
	DD	00H
	DD	imagerel ?put_BackgroundPalette@CBaseControlWindow@@UEAAJJ@Z+175
	DD	0ffffffffH
	DD	imagerel ?put_BackgroundPalette@CBaseControlWindow@@UEAAJJ@Z+191
	DD	00H
	DD	imagerel ?put_BackgroundPalette@CBaseControlWindow@@UEAAJJ@Z+288
	DD	0ffffffffH
xdata	ENDS
;	COMDAT xdata
xdata	SEGMENT
$unwind$?dtor$0@?0??put_BackgroundPalette@CBaseControlWindow@@UEAAJJ@Z@4HA DD 031001H
	DD	0700c4210H
	DD	0500bH
xdata	ENDS
;	COMDAT xdata
xdata	SEGMENT
$unwind$?put_BackgroundPalette@CBaseControlWindow@@UEAAJJ@Z DD 022b11H
	DD	0700a920eH
	DD	imagerel __CxxFrameHandler3
	DD	imagerel $cppxdata$?put_BackgroundPalette@CBaseControlWindow@@UEAAJJ@Z
xdata	ENDS
;	COMDAT xdata
xdata	SEGMENT
$stateUnwindMap$?put_BackgroundPalette@CBaseControlWindow@@UEAAJJ@Z DD 0ffffffffH
	DD	imagerel ?dtor$0@?0??put_BackgroundPalette@CBaseControlWindow@@UEAAJJ@Z@4HA
xdata	ENDS
;	COMDAT CONST
CONST	SEGMENT
?put_BackgroundPalette@CBaseControlWindow@@UEAAJJ@Z$rtcName$0 DB 063H ; CBaseControlWindow::put_BackgroundPalette
	DB	057H
	DB	069H
	DB	06eH
	DB	064H
	DB	06fH
	DB	077H
	DB	04cH
	DB	06fH
	DB	063H
	DB	06bH
	DB	00H
	ORG $+4
?put_BackgroundPalette@CBaseControlWindow@@UEAAJJ@Z$rtcVarDesc DD 028H ; CBaseControlWindow::put_BackgroundPalette
	DD	08H
	DQ	FLAT:?put_BackgroundPalette@CBaseControlWindow@@UEAAJJ@Z$rtcName$0
	ORG $+48
?put_BackgroundPalette@CBaseControlWindow@@UEAAJJ@Z$rtcFrameData DD 01H ; CBaseControlWindow::put_BackgroundPalette
	DD	00H
	DQ	FLAT:?put_BackgroundPalette@CBaseControlWindow@@UEAAJJ@Z$rtcVarDesc
$cppxdata$?put_BackgroundPalette@CBaseControlWindow@@UEAAJJ@Z DD 019930522H
	DD	01H
	DD	imagerel $stateUnwindMap$?put_BackgroundPalette@CBaseControlWindow@@UEAAJJ@Z
	DD	00H
	DD	00H
	DD	05H
	DD	imagerel $ip2state$?put_BackgroundPalette@CBaseControlWindow@@UEAAJJ@Z
	DD	040H
	DD	00H
	DD	01H
; Function compile flags: /Odtp /RTCsu
CONST	ENDS
;	COMDAT ?put_BackgroundPalette@CBaseControlWindow@@UEAAJJ@Z
_TEXT	SEGMENT
cWindowLock$ = 40
$T84910 = 52
$T84913 = 56
$T84919 = 64
tv91 = 72
this$ = 96
BackgroundPalette$ = 104
?put_BackgroundPalette@CBaseControlWindow@@UEAAJJ@Z PROC ; CBaseControlWindow::put_BackgroundPalette, COMDAT
; Line 355
$LN12:
	mov	DWORD PTR [rsp+16], edx
	mov	QWORD PTR [rsp+8], rcx
	push	rdi
	sub	rsp, 80					; 00000050H
	mov	rdi, rsp
	mov	ecx, 20
	mov	eax, -858993460				; ccccccccH
	rep stosd
	mov	rcx, QWORD PTR [rsp+96]
	mov	QWORD PTR $T84919[rsp], -2
; Line 356
	mov	rax, QWORD PTR this$[rsp]
	cmp	QWORD PTR [rax+280], 0
	jne	SHORT $LN6@put_Backgr
	lea	rax, OFFSET FLAT:$SG82422
	test	rax, rax
	je	SHORT $LN5@put_Backgr
	mov	r8d, 356				; 00000164H
	lea	rdx, OFFSET FLAT:$SG82423
	lea	rcx, OFFSET FLAT:$SG82424
	call	?DbgAssert@@YAXPEB_W0H@Z		; DbgAssert
$LN5@put_Backgr:
	jmp	SHORT $LN4@put_Backgr
$LN6@put_Backgr:
	mov	rax, QWORD PTR this$[rsp]
	mov	rcx, QWORD PTR [rax+280]
	call	?IsConnected@CBasePin@@QEAAHXZ		; CBasePin::IsConnected
	test	eax, eax
	jne	SHORT $LN4@put_Backgr
	mov	eax, -2147220983			; ffffffff80040209H
	jmp	$LN7@put_Backgr
$LN4@put_Backgr:
; Line 357
	mov	rax, QWORD PTR this$[rsp]
	add	rax, 152				; 00000098H
	mov	rdx, rax
	lea	rcx, QWORD PTR cWindowLock$[rsp]
	call	??0CAutoLock@@QEAA@PEAVCCritSec@@@Z	; CAutoLock::CAutoLock
	npad	1
; Line 361
	cmp	DWORD PTR BackgroundPalette$[rsp], -1
	je	SHORT $LN2@put_Backgr
; Line 362
	cmp	DWORD PTR BackgroundPalette$[rsp], 0
	je	SHORT $LN2@put_Backgr
; Line 363
	mov	DWORD PTR $T84910[rsp], -2147024809	; ffffffff80070057H
	lea	rcx, QWORD PTR cWindowLock$[rsp]
	call	??1CAutoLock@@QEAA@XZ			; CAutoLock::~CAutoLock
	mov	eax, DWORD PTR $T84910[rsp]
	jmp	SHORT $LN7@put_Backgr
$LN2@put_Backgr:
; Line 369
	cmp	DWORD PTR BackgroundPalette$[rsp], -1
	jne	SHORT $LN9@put_Backgr
	mov	DWORD PTR tv91[rsp], 1
	jmp	SHORT $LN10@put_Backgr
$LN9@put_Backgr:
	mov	DWORD PTR tv91[rsp], 0
$LN10@put_Backgr:
	mov	rax, QWORD PTR this$[rsp]
	movzx	ecx, BYTE PTR tv91[rsp]
	mov	BYTE PTR [rax+145], cl
; Line 370
	xor	r9d, r9d
	xor	r8d, r8d
	mov	rax, QWORD PTR this$[rsp]
	mov	edx, DWORD PTR [rax+124]
	mov	rax, QWORD PTR this$[rsp]
	mov	rcx, QWORD PTR [rax+64]
	call	QWORD PTR __imp_PostMessageW
; Line 371
	mov	rax, QWORD PTR this$[rsp]
	add	rax, 48					; 00000030H
	xor	edx, edx
	mov	rcx, rax
	call	?PaintWindow@CBaseWindow@@QEAAXH@Z	; CBaseWindow::PaintWindow
; Line 373
	mov	DWORD PTR $T84913[rsp], 0
	lea	rcx, QWORD PTR cWindowLock$[rsp]
	call	??1CAutoLock@@QEAA@XZ			; CAutoLock::~CAutoLock
	mov	eax, DWORD PTR $T84913[rsp]
$LN7@put_Backgr:
; Line 374
	mov	rdi, rax
	mov	rcx, rsp
	lea	rdx, OFFSET FLAT:?put_BackgroundPalette@CBaseControlWindow@@UEAAJJ@Z$rtcFrameData
	call	_RTC_CheckStackVars
	mov	rax, rdi
	add	rsp, 80					; 00000050H
	pop	rdi
	ret	0
?put_BackgroundPalette@CBaseControlWindow@@UEAAJJ@Z ENDP ; CBaseControlWindow::put_BackgroundPalette
; Function compile flags: /Odtp /RTCsu
_TEXT	ENDS
;	COMDAT text$x
text$x	SEGMENT
cWindowLock$ = 40
$T84910 = 52
$T84913 = 56
$T84919 = 64
tv91 = 72
this$ = 96
BackgroundPalette$ = 104
?dtor$0@?0??put_BackgroundPalette@CBaseControlWindow@@UEAAJJ@Z@4HA PROC ; `CBaseControlWindow::put_BackgroundPalette'::`1'::dtor$0
	mov	QWORD PTR [rsp+8], rcx
	mov	QWORD PTR [rsp+16], rdx
	push	rbp
	push	rdi
	sub	rsp, 40					; 00000028H
	mov	rbp, rdx
	lea	rcx, QWORD PTR cWindowLock$[rbp]
	call	??1CAutoLock@@QEAA@XZ			; CAutoLock::~CAutoLock
	add	rsp, 40					; 00000028H
	pop	rdi
	pop	rbp
	ret	0
?dtor$0@?0??put_BackgroundPalette@CBaseControlWindow@@UEAAJJ@Z@4HA ENDP ; `CBaseControlWindow::put_BackgroundPalette'::`1'::dtor$0
text$x	ENDS
EXTRN	?Lock@CCritSec@@QEAAXXZ:PROC			; CCritSec::Lock
;	COMDAT pdata
; File c:\downloads\wpf mediakit - copy\src\filters\baseclasses\wxutil.h
pdata	SEGMENT
$pdata$??0CAutoLock@@QEAA@PEAVCCritSec@@@Z DD imagerel $LN3
	DD	imagerel $LN3+72
	DD	imagerel $unwind$??0CAutoLock@@QEAA@PEAVCCritSec@@@Z
pdata	ENDS
;	COMDAT xdata
xdata	SEGMENT
$unwind$??0CAutoLock@@QEAA@PEAVCCritSec@@@Z DD 022301H
	DD	0700b320fH
; Function compile flags: /Odtp /RTCsu
xdata	ENDS
;	COMDAT ??0CAutoLock@@QEAA@PEAVCCritSec@@@Z
_TEXT	SEGMENT
this$ = 48
plock$ = 56
??0CAutoLock@@QEAA@PEAVCCritSec@@@Z PROC		; CAutoLock::CAutoLock, COMDAT
; Line 94
$LN3:
	mov	QWORD PTR [rsp+16], rdx
	mov	QWORD PTR [rsp+8], rcx
	push	rdi
	sub	rsp, 32					; 00000020H
	mov	rdi, rsp
	mov	ecx, 8
	mov	eax, -858993460				; ccccccccH
	rep stosd
	mov	rcx, QWORD PTR [rsp+48]
; Line 96
	mov	rax, QWORD PTR this$[rsp]
	mov	rcx, QWORD PTR plock$[rsp]
	mov	QWORD PTR [rax], rcx
; Line 97
	mov	rax, QWORD PTR this$[rsp]
	mov	rcx, QWORD PTR [rax]
	call	?Lock@CCritSec@@QEAAXXZ			; CCritSec::Lock
; Line 98
	mov	rax, QWORD PTR this$[rsp]
	add	rsp, 32					; 00000020H
	pop	rdi
	ret	0
??0CAutoLock@@QEAA@PEAVCCritSec@@@Z ENDP		; CAutoLock::CAutoLock
_TEXT	ENDS
EXTRN	?Unlock@CCritSec@@QEAAXXZ:PROC			; CCritSec::Unlock
;	COMDAT pdata
pdata	SEGMENT
$pdata$??1CAutoLock@@QEAA@XZ DD imagerel $LN3
	DD	imagerel $LN3+49
	DD	imagerel $unwind$??1CAutoLock@@QEAA@XZ
pdata	ENDS
;	COMDAT xdata
xdata	SEGMENT
$unwind$??1CAutoLock@@QEAA@XZ DD 021e01H
	DD	07006320aH
; Function compile flags: /Odtp /RTCsu
xdata	ENDS
;	COMDAT ??1CAutoLock@@QEAA@XZ
_TEXT	SEGMENT
this$ = 48
??1CAutoLock@@QEAA@XZ PROC				; CAutoLock::~CAutoLock, COMDAT
; Line 100
$LN3:
	mov	QWORD PTR [rsp+8], rcx
	push	rdi
	sub	rsp, 32					; 00000020H
	mov	rdi, rsp
	mov	ecx, 8
	mov	eax, -858993460				; ccccccccH
	rep stosd
	mov	rcx, QWORD PTR [rsp+48]
; Line 101
	mov	rax, QWORD PTR this$[rsp]
	mov	rcx, QWORD PTR [rax]
	call	?Unlock@CCritSec@@QEAAXXZ		; CCritSec::Unlock
; Line 102
	add	rsp, 32					; 00000020H
	pop	rdi
	ret	0
??1CAutoLock@@QEAA@XZ ENDP				; CAutoLock::~CAutoLock
_TEXT	ENDS
;	COMDAT pdata
; File c:\downloads\wpf mediakit - copy\src\filters\baseclasses\winctrl.cpp
pdata	SEGMENT
$pdata$?get_BackgroundPalette@CBaseControlWindow@@UEAAJPEAJ@Z DD imagerel $LN11
	DD	imagerel $LN11+254
	DD	imagerel $unwind$?get_BackgroundPalette@CBaseControlWindow@@UEAAJPEAJ@Z
pdata	ENDS
;	COMDAT xdata
xdata	SEGMENT
$unwind$?get_BackgroundPalette@CBaseControlWindow@@UEAAJPEAJ@Z DD 022301H
	DD	0700b720fH
xdata	ENDS
;	COMDAT CONST
CONST	SEGMENT
?get_BackgroundPalette@CBaseControlWindow@@UEAAJPEAJ@Z$rtcName$0 DB 063H ; CBaseControlWindow::get_BackgroundPalette
	DB	057H
	DB	069H
	DB	06eH
	DB	064H
	DB	06fH
	DB	077H
	DB	04cH
	DB	06fH
	DB	063H
	DB	06bH
	DB	00H
	ORG $+4
?get_BackgroundPalette@CBaseControlWindow@@UEAAJPEAJ@Z$rtcVarDesc DD 028H ; CBaseControlWindow::get_BackgroundPalette
	DD	08H
	DQ	FLAT:?get_BackgroundPalette@CBaseControlWindow@@UEAAJPEAJ@Z$rtcName$0
	ORG $+48
?get_BackgroundPalette@CBaseControlWindow@@UEAAJPEAJ@Z$rtcFrameData DD 01H ; CBaseControlWindow::get_BackgroundPalette
	DD	00H
	DQ	FLAT:?get_BackgroundPalette@CBaseControlWindow@@UEAAJPEAJ@Z$rtcVarDesc
; Function compile flags: /Odtp /RTCsu
CONST	ENDS
;	COMDAT ?get_BackgroundPalette@CBaseControlWindow@@UEAAJPEAJ@Z
_TEXT	SEGMENT
cWindowLock$ = 40
$T84956 = 52
tv91 = 56
this$ = 80
pBackgroundPalette$ = 88
?get_BackgroundPalette@CBaseControlWindow@@UEAAJPEAJ@Z PROC ; CBaseControlWindow::get_BackgroundPalette, COMDAT
; Line 381
$LN11:
	mov	QWORD PTR [rsp+16], rdx
	mov	QWORD PTR [rsp+8], rcx
	push	rdi
	sub	rsp, 64					; 00000040H
	mov	rdi, rsp
	mov	ecx, 16
	mov	eax, -858993460				; ccccccccH
	rep stosd
	mov	rcx, QWORD PTR [rsp+80]
; Line 382
	cmp	QWORD PTR pBackgroundPalette$[rsp], 0
	jne	SHORT $LN5@get_Backgr
	mov	eax, -2147467261			; ffffffff80004003H
	jmp	$LN6@get_Backgr
$LN5@get_Backgr:
; Line 383
	mov	rax, QWORD PTR this$[rsp]
	cmp	QWORD PTR [rax+280], 0
	jne	SHORT $LN4@get_Backgr
	lea	rax, OFFSET FLAT:$SG82442
	test	rax, rax
	je	SHORT $LN3@get_Backgr
	mov	r8d, 383				; 0000017fH
	lea	rdx, OFFSET FLAT:$SG82443
	lea	rcx, OFFSET FLAT:$SG82444
	call	?DbgAssert@@YAXPEB_W0H@Z		; DbgAssert
$LN3@get_Backgr:
	jmp	SHORT $LN2@get_Backgr
$LN4@get_Backgr:
	mov	rax, QWORD PTR this$[rsp]
	mov	rcx, QWORD PTR [rax+280]
	call	?IsConnected@CBasePin@@QEAAHXZ		; CBasePin::IsConnected
	test	eax, eax
	jne	SHORT $LN2@get_Backgr
	mov	eax, -2147220983			; ffffffff80040209H
	jmp	SHORT $LN6@get_Backgr
$LN2@get_Backgr:
; Line 384
	mov	rax, QWORD PTR this$[rsp]
	add	rax, 152				; 00000098H
	mov	rdx, rax
	lea	rcx, QWORD PTR cWindowLock$[rsp]
	call	??0CAutoLock@@QEAA@PEAVCCritSec@@@Z	; CAutoLock::CAutoLock
; Line 388
	mov	rax, QWORD PTR this$[rsp]
	movzx	eax, BYTE PTR [rax+145]
	cmp	eax, 1
	jne	SHORT $LN8@get_Backgr
	mov	DWORD PTR tv91[rsp], -1
	jmp	SHORT $LN9@get_Backgr
$LN8@get_Backgr:
	mov	DWORD PTR tv91[rsp], 0
$LN9@get_Backgr:
	mov	rax, QWORD PTR pBackgroundPalette$[rsp]
	mov	ecx, DWORD PTR tv91[rsp]
	mov	DWORD PTR [rax], ecx
; Line 389
	mov	DWORD PTR $T84956[rsp], 0
	lea	rcx, QWORD PTR cWindowLock$[rsp]
	call	??1CAutoLock@@QEAA@XZ			; CAutoLock::~CAutoLock
	mov	eax, DWORD PTR $T84956[rsp]
$LN6@get_Backgr:
; Line 390
	mov	rdi, rax
	mov	rcx, rsp
	lea	rdx, OFFSET FLAT:?get_BackgroundPalette@CBaseControlWindow@@UEAAJPEAJ@Z$rtcFrameData
	call	_RTC_CheckStackVars
	mov	rax, rdi
	add	rsp, 64					; 00000040H
	pop	rdi
	ret	0
?get_BackgroundPalette@CBaseControlWindow@@UEAAJPEAJ@Z ENDP ; CBaseControlWindow::get_BackgroundPalette
_TEXT	ENDS
;	COMDAT pdata
pdata	SEGMENT
$pdata$?put_Visible@CBaseControlWindow@@UEAAJJ@Z DD imagerel $LN11
	DD	imagerel $LN11+199
	DD	imagerel $unwind$?put_Visible@CBaseControlWindow@@UEAAJJ@Z
pdata	ENDS
;	COMDAT xdata
xdata	SEGMENT
$unwind$?put_Visible@CBaseControlWindow@@UEAAJJ@Z DD 022201H
	DD	0700a520eH
; Function compile flags: /Odtp /RTCsu
xdata	ENDS
;	COMDAT ?put_Visible@CBaseControlWindow@@UEAAJJ@Z
_TEXT	SEGMENT
Mode$ = 32
tv77 = 36
this$ = 64
Visible$ = 72
?put_Visible@CBaseControlWindow@@UEAAJJ@Z PROC		; CBaseControlWindow::put_Visible, COMDAT
; Line 396
$LN11:
	mov	DWORD PTR [rsp+16], edx
	mov	QWORD PTR [rsp+8], rcx
	push	rdi
	sub	rsp, 48					; 00000030H
	mov	rdi, rsp
	mov	ecx, 12
	mov	eax, -858993460				; ccccccccH
	rep stosd
	mov	rcx, QWORD PTR [rsp+64]
; Line 397
	mov	rax, QWORD PTR this$[rsp]
	cmp	QWORD PTR [rax+280], 0
	jne	SHORT $LN6@put_Visibl
	lea	rax, OFFSET FLAT:$SG82456
	test	rax, rax
	je	SHORT $LN5@put_Visibl
	mov	r8d, 397				; 0000018dH
	lea	rdx, OFFSET FLAT:$SG82457
	lea	rcx, OFFSET FLAT:$SG82458
	call	?DbgAssert@@YAXPEB_W0H@Z		; DbgAssert
$LN5@put_Visibl:
	jmp	SHORT $LN4@put_Visibl
$LN6@put_Visibl:
	mov	rax, QWORD PTR this$[rsp]
	mov	rcx, QWORD PTR [rax+280]
	call	?IsConnected@CBasePin@@QEAAHXZ		; CBasePin::IsConnected
	test	eax, eax
	jne	SHORT $LN3@put_Visibl
	mov	eax, -2147220983			; ffffffff80040209H
	jmp	SHORT $LN7@put_Visibl
$LN3@put_Visibl:
$LN4@put_Visibl:
; Line 401
	cmp	DWORD PTR Visible$[rsp], -1
	je	SHORT $LN2@put_Visibl
; Line 402
	cmp	DWORD PTR Visible$[rsp], 0
	je	SHORT $LN1@put_Visibl
; Line 403
	mov	eax, -2147024809			; ffffffff80070057H
	jmp	SHORT $LN7@put_Visibl
$LN1@put_Visibl:
$LN2@put_Visibl:
; Line 409
	cmp	DWORD PTR Visible$[rsp], -1
	jne	SHORT $LN9@put_Visibl
	mov	DWORD PTR tv77[rsp], 1
	jmp	SHORT $LN10@put_Visibl
$LN9@put_Visibl:
	mov	DWORD PTR tv77[rsp], 0
$LN10@put_Visibl:
	mov	eax, DWORD PTR tv77[rsp]
	mov	DWORD PTR Mode$[rsp], eax
; Line 410
	mov	rax, QWORD PTR this$[rsp]
	add	rax, 48					; 00000030H
	mov	edx, DWORD PTR Mode$[rsp]
	mov	rcx, rax
	call	?DoShowWindow@CBaseWindow@@QEAAJJ@Z	; CBaseWindow::DoShowWindow
; Line 411
	xor	eax, eax
$LN7@put_Visibl:
; Line 412
	add	rsp, 48					; 00000030H
	pop	rdi
	ret	0
?put_Visible@CBaseControlWindow@@UEAAJJ@Z ENDP		; CBaseControlWindow::put_Visible
_TEXT	ENDS
;	COMDAT pdata
pdata	SEGMENT
$pdata$?get_Visible@CBaseControlWindow@@UEAAJPEAJ@Z DD imagerel $LN10
	DD	imagerel $LN10+198
	DD	imagerel $unwind$?get_Visible@CBaseControlWindow@@UEAAJPEAJ@Z
pdata	ENDS
;	COMDAT xdata
xdata	SEGMENT
$unwind$?get_Visible@CBaseControlWindow@@UEAAJPEAJ@Z DD 022301H
	DD	0700b520fH
; Function compile flags: /Odtp /RTCsu
xdata	ENDS
;	COMDAT ?get_Visible@CBaseControlWindow@@UEAAJPEAJ@Z
_TEXT	SEGMENT
Mode$ = 32
tv83 = 36
this$ = 64
pVisible$ = 72
?get_Visible@CBaseControlWindow@@UEAAJPEAJ@Z PROC	; CBaseControlWindow::get_Visible, COMDAT
; Line 418
$LN10:
	mov	QWORD PTR [rsp+16], rdx
	mov	QWORD PTR [rsp+8], rcx
	push	rdi
	sub	rsp, 48					; 00000030H
	mov	rdi, rsp
	mov	ecx, 12
	mov	eax, -858993460				; ccccccccH
	rep stosd
	mov	rcx, QWORD PTR [rsp+64]
; Line 419
	cmp	QWORD PTR pVisible$[rsp], 0
	jne	SHORT $LN5@get_Visibl
	mov	eax, -2147467261			; ffffffff80004003H
	jmp	$LN6@get_Visibl
$LN5@get_Visibl:
; Line 420
	mov	rax, QWORD PTR this$[rsp]
	cmp	QWORD PTR [rax+280], 0
	jne	SHORT $LN4@get_Visibl
	lea	rax, OFFSET FLAT:$SG82474
	test	rax, rax
	je	SHORT $LN3@get_Visibl
	mov	r8d, 420				; 000001a4H
	lea	rdx, OFFSET FLAT:$SG82475
	lea	rcx, OFFSET FLAT:$SG82476
	call	?DbgAssert@@YAXPEB_W0H@Z		; DbgAssert
$LN3@get_Visibl:
	jmp	SHORT $LN2@get_Visibl
$LN4@get_Visibl:
	mov	rax, QWORD PTR this$[rsp]
	mov	rcx, QWORD PTR [rax+280]
	call	?IsConnected@CBasePin@@QEAAHXZ		; CBasePin::IsConnected
	test	eax, eax
	jne	SHORT $LN1@get_Visibl
	mov	eax, -2147220983			; ffffffff80040209H
	jmp	SHORT $LN6@get_Visibl
$LN1@get_Visibl:
$LN2@get_Visibl:
; Line 426
	mov	rax, QWORD PTR this$[rsp]
	mov	rcx, QWORD PTR [rax+64]
	call	QWORD PTR __imp_IsWindowVisible
	mov	DWORD PTR Mode$[rsp], eax
; Line 427
	cmp	DWORD PTR Mode$[rsp], 1
	jne	SHORT $LN8@get_Visibl
	mov	DWORD PTR tv83[rsp], -1
	jmp	SHORT $LN9@get_Visibl
$LN8@get_Visibl:
	mov	DWORD PTR tv83[rsp], 0
$LN9@get_Visibl:
	mov	rax, QWORD PTR pVisible$[rsp]
	mov	ecx, DWORD PTR tv83[rsp]
	mov	DWORD PTR [rax], ecx
; Line 428
	xor	eax, eax
$LN6@get_Visibl:
; Line 429
	add	rsp, 48					; 00000030H
	pop	rdi
	ret	0
?get_Visible@CBaseControlWindow@@UEAAJPEAJ@Z ENDP	; CBaseControlWindow::get_Visible
_TEXT	ENDS
PUBLIC	__$ArrayPad$
;	COMDAT pdata
pdata	SEGMENT
$pdata$?put_Left@CBaseControlWindow@@UEAAJJ@Z DD imagerel $LN10
	DD	imagerel $LN10+427
	DD	imagerel $unwind$?put_Left@CBaseControlWindow@@UEAAJJ@Z
pdata	ENDS
;	COMDAT xdata
xdata	SEGMENT
$unwind$?put_Left@CBaseControlWindow@@UEAAJJ@Z DD 033a19H
	DD	0120111H
	DD	0700aH
	DD	imagerel __GSHandlerCheck
	DD	080H
xdata	ENDS
;	COMDAT CONST
CONST	SEGMENT
?put_Left@CBaseControlWindow@@UEAAJJ@Z$rtcName$0 DB 057H ; CBaseControlWindow::put_Left
	DB	069H
	DB	06eH
	DB	064H
	DB	06fH
	DB	077H
	DB	052H
	DB	065H
	DB	063H
	DB	074H
	DB	00H
	ORG $+5
?put_Left@CBaseControlWindow@@UEAAJJ@Z$rtcVarDesc DD 058H ; CBaseControlWindow::put_Left
	DD	010H
	DQ	FLAT:?put_Left@CBaseControlWindow@@UEAAJJ@Z$rtcName$0
	ORG $+48
?put_Left@CBaseControlWindow@@UEAAJJ@Z$rtcFrameData DD 01H ; CBaseControlWindow::put_Left
	DD	00H
	DQ	FLAT:?put_Left@CBaseControlWindow@@UEAAJJ@Z$rtcVarDesc
; Function compile flags: /Odtp /RTCsu
CONST	ENDS
;	COMDAT ?put_Left@CBaseControlWindow@@UEAAJJ@Z
_TEXT	SEGMENT
bSuccess$ = 64
WindowRect$ = 88
WindowFlags$ = 116
__$ArrayPad$ = 128
this$ = 160
Left$ = 168
?put_Left@CBaseControlWindow@@UEAAJJ@Z PROC		; CBaseControlWindow::put_Left, COMDAT
; Line 437
$LN10:
	mov	DWORD PTR [rsp+16], edx
	mov	QWORD PTR [rsp+8], rcx
	push	rdi
	sub	rsp, 144				; 00000090H
	mov	rdi, rsp
	mov	ecx, 36					; 00000024H
	mov	eax, -858993460				; ccccccccH
	rep stosd
	mov	rcx, QWORD PTR [rsp+160]
	mov	rax, QWORD PTR __security_cookie
	xor	rax, rsp
	mov	QWORD PTR __$ArrayPad$[rsp], rax
; Line 438
	mov	rax, QWORD PTR this$[rsp]
	cmp	QWORD PTR [rax+280], 0
	jne	SHORT $LN7@put_Left
	lea	rax, OFFSET FLAT:$SG82487
	test	rax, rax
	je	SHORT $LN6@put_Left
	mov	r8d, 438				; 000001b6H
	lea	rdx, OFFSET FLAT:$SG82488
	lea	rcx, OFFSET FLAT:$SG82489
	call	?DbgAssert@@YAXPEB_W0H@Z		; DbgAssert
$LN6@put_Left:
	jmp	SHORT $LN5@put_Left
$LN7@put_Left:
	mov	rax, QWORD PTR this$[rsp]
	mov	rcx, QWORD PTR [rax+280]
	call	?IsConnected@CBasePin@@QEAAHXZ		; CBasePin::IsConnected
	test	eax, eax
	jne	SHORT $LN4@put_Left
	mov	eax, -2147220983			; ffffffff80040209H
	jmp	$LN8@put_Left
$LN4@put_Left:
$LN5@put_Left:
; Line 443
	lea	rdx, QWORD PTR WindowRect$[rsp]
	mov	rax, QWORD PTR this$[rsp]
	mov	rcx, QWORD PTR [rax+64]
	call	QWORD PTR __imp_GetWindowRect
	test	eax, eax
	jne	SHORT $LN3@put_Left
	mov	r8d, 443				; 000001bbH
	lea	rdx, OFFSET FLAT:$SG82496
	lea	rcx, OFFSET FLAT:$SG82497
	call	?DbgAssert@@YAXPEB_W0H@Z		; DbgAssert
$LN3@put_Left:
; Line 445
	mov	rax, QWORD PTR this$[rsp]
	mov	rcx, QWORD PTR [rax+64]
	call	QWORD PTR __imp_GetParent
	test	rax, rax
	je	SHORT $LN2@put_Left
; Line 447
	mov	rax, QWORD PTR this$[rsp]
	mov	rcx, QWORD PTR [rax+64]
	call	QWORD PTR __imp_GetParent
	mov	r9d, 2
	lea	r8, QWORD PTR WindowRect$[rsp]
	mov	rdx, rax
	xor	ecx, ecx
	call	QWORD PTR __imp_MapWindowPoints
$LN2@put_Left:
; Line 454
	mov	eax, DWORD PTR WindowRect$[rsp+4]
	mov	ecx, DWORD PTR WindowRect$[rsp+12]
	sub	ecx, eax
	mov	eax, ecx
	mov	DWORD PTR WindowRect$[rsp+12], eax
; Line 455
	mov	eax, DWORD PTR WindowRect$[rsp]
	mov	ecx, DWORD PTR WindowRect$[rsp+8]
	sub	ecx, eax
	mov	eax, ecx
	mov	DWORD PTR WindowRect$[rsp+8], eax
; Line 456
	mov	DWORD PTR WindowFlags$[rsp], 52		; 00000034H
; Line 464
	mov	eax, DWORD PTR WindowFlags$[rsp]
	mov	DWORD PTR [rsp+48], eax
	mov	eax, DWORD PTR WindowRect$[rsp+12]
	mov	DWORD PTR [rsp+40], eax
	mov	eax, DWORD PTR WindowRect$[rsp+8]
	mov	DWORD PTR [rsp+32], eax
	mov	r9d, DWORD PTR WindowRect$[rsp+4]
	mov	r8d, DWORD PTR Left$[rsp]
	xor	edx, edx
	mov	rax, QWORD PTR this$[rsp]
	mov	rcx, QWORD PTR [rax+64]
	call	QWORD PTR __imp_SetWindowPos
	mov	DWORD PTR bSuccess$[rsp], eax
; Line 466
	cmp	DWORD PTR bSuccess$[rsp], 0
	jne	SHORT $LN1@put_Left
; Line 467
	mov	eax, -2147024809			; ffffffff80070057H
	jmp	SHORT $LN8@put_Left
$LN1@put_Left:
; Line 469
	xor	eax, eax
$LN8@put_Left:
; Line 470
	mov	rdi, rax
	mov	rcx, rsp
	lea	rdx, OFFSET FLAT:?put_Left@CBaseControlWindow@@UEAAJJ@Z$rtcFrameData
	call	_RTC_CheckStackVars
	mov	rax, rdi
	mov	rcx, QWORD PTR __$ArrayPad$[rsp]
	xor	rcx, rsp
	call	__security_check_cookie
	add	rsp, 144				; 00000090H
	pop	rdi
	ret	0
?put_Left@CBaseControlWindow@@UEAAJJ@Z ENDP		; CBaseControlWindow::put_Left
_TEXT	ENDS
PUBLIC	__$ArrayPad$
;	COMDAT pdata
pdata	SEGMENT
$pdata$?get_Left@CBaseControlWindow@@UEAAJPEAJ@Z DD imagerel $LN9
	DD	imagerel $LN9+252
	DD	imagerel $unwind$?get_Left@CBaseControlWindow@@UEAAJPEAJ@Z
pdata	ENDS
;	COMDAT xdata
xdata	SEGMENT
$unwind$?get_Left@CBaseControlWindow@@UEAAJPEAJ@Z DD 023219H
	DD	0700bb20fH
	DD	imagerel __GSHandlerCheck
	DD	050H
xdata	ENDS
;	COMDAT CONST
CONST	SEGMENT
?get_Left@CBaseControlWindow@@UEAAJPEAJ@Z$rtcName$0 DB 057H ; CBaseControlWindow::get_Left
	DB	069H
	DB	06eH
	DB	064H
	DB	06fH
	DB	077H
	DB	052H
	DB	065H
	DB	063H
	DB	074H
	DB	00H
	ORG $+5
?get_Left@CBaseControlWindow@@UEAAJPEAJ@Z$rtcVarDesc DD 028H ; CBaseControlWindow::get_Left
	DD	010H
	DQ	FLAT:?get_Left@CBaseControlWindow@@UEAAJPEAJ@Z$rtcName$0
	ORG $+48
?get_Left@CBaseControlWindow@@UEAAJPEAJ@Z$rtcFrameData DD 01H ; CBaseControlWindow::get_Left
	DD	00H
	DQ	FLAT:?get_Left@CBaseControlWindow@@UEAAJPEAJ@Z$rtcVarDesc
; Function compile flags: /Odtp /RTCsu
CONST	ENDS
;	COMDAT ?get_Left@CBaseControlWindow@@UEAAJPEAJ@Z
_TEXT	SEGMENT
WindowRect$ = 40
__$ArrayPad$ = 80
this$ = 112
pLeft$ = 120
?get_Left@CBaseControlWindow@@UEAAJPEAJ@Z PROC		; CBaseControlWindow::get_Left, COMDAT
; Line 476
$LN9:
	mov	QWORD PTR [rsp+16], rdx
	mov	QWORD PTR [rsp+8], rcx
	push	rdi
	sub	rsp, 96					; 00000060H
	mov	rdi, rsp
	mov	ecx, 24
	mov	eax, -858993460				; ccccccccH
	rep stosd
	mov	rcx, QWORD PTR [rsp+112]
	mov	rax, QWORD PTR __security_cookie
	xor	rax, rsp
	mov	QWORD PTR __$ArrayPad$[rsp], rax
; Line 477
	cmp	QWORD PTR pLeft$[rsp], 0
	jne	SHORT $LN6@get_Left
	mov	eax, -2147467261			; ffffffff80004003H
	jmp	$LN7@get_Left
$LN6@get_Left:
; Line 478
	mov	rax, QWORD PTR this$[rsp]
	cmp	QWORD PTR [rax+280], 0
	jne	SHORT $LN5@get_Left
	lea	rax, OFFSET FLAT:$SG82513
	test	rax, rax
	je	SHORT $LN4@get_Left
	mov	r8d, 478				; 000001deH
	lea	rdx, OFFSET FLAT:$SG82514
	lea	rcx, OFFSET FLAT:$SG82515
	call	?DbgAssert@@YAXPEB_W0H@Z		; DbgAssert
$LN4@get_Left:
	jmp	SHORT $LN3@get_Left
$LN5@get_Left:
	mov	rax, QWORD PTR this$[rsp]
	mov	rcx, QWORD PTR [rax+280]
	call	?IsConnected@CBasePin@@QEAAHXZ		; CBasePin::IsConnected
	test	eax, eax
	jne	SHORT $LN2@get_Left
	mov	eax, -2147220983			; ffffffff80040209H
	jmp	SHORT $LN7@get_Left
$LN2@get_Left:
$LN3@get_Left:
; Line 481
	lea	rdx, QWORD PTR WindowRect$[rsp]
	mov	rax, QWORD PTR this$[rsp]
	mov	rcx, QWORD PTR [rax+64]
	call	QWORD PTR __imp_GetWindowRect
	test	eax, eax
	jne	SHORT $LN1@get_Left
	mov	r8d, 481				; 000001e1H
	lea	rdx, OFFSET FLAT:$SG82521
	lea	rcx, OFFSET FLAT:$SG82522
	call	?DbgAssert@@YAXPEB_W0H@Z		; DbgAssert
$LN1@get_Left:
; Line 482
	mov	rax, QWORD PTR pLeft$[rsp]
	mov	ecx, DWORD PTR WindowRect$[rsp]
	mov	DWORD PTR [rax], ecx
; Line 483
	xor	eax, eax
$LN7@get_Left:
; Line 484
	mov	rdi, rax
	mov	rcx, rsp
	lea	rdx, OFFSET FLAT:?get_Left@CBaseControlWindow@@UEAAJPEAJ@Z$rtcFrameData
	call	_RTC_CheckStackVars
	mov	rax, rdi
	mov	rcx, QWORD PTR __$ArrayPad$[rsp]
	xor	rcx, rsp
	call	__security_check_cookie
	add	rsp, 96					; 00000060H
	pop	rdi
	ret	0
?get_Left@CBaseControlWindow@@UEAAJPEAJ@Z ENDP		; CBaseControlWindow::get_Left
_TEXT	ENDS
PUBLIC	__$ArrayPad$
;	COMDAT pdata
pdata	SEGMENT
$pdata$?put_Width@CBaseControlWindow@@UEAAJJ@Z DD imagerel $LN10
	DD	imagerel $LN10+411
	DD	imagerel $unwind$?put_Width@CBaseControlWindow@@UEAAJJ@Z
pdata	ENDS
;	COMDAT xdata
xdata	SEGMENT
$unwind$?put_Width@CBaseControlWindow@@UEAAJJ@Z DD 033a19H
	DD	0120111H
	DD	0700aH
	DD	imagerel __GSHandlerCheck
	DD	080H
xdata	ENDS
;	COMDAT CONST
CONST	SEGMENT
?put_Width@CBaseControlWindow@@UEAAJJ@Z$rtcName$0 DB 057H ; CBaseControlWindow::put_Width
	DB	069H
	DB	06eH
	DB	064H
	DB	06fH
	DB	077H
	DB	052H
	DB	065H
	DB	063H
	DB	074H
	DB	00H
	ORG $+5
?put_Width@CBaseControlWindow@@UEAAJJ@Z$rtcVarDesc DD 058H ; CBaseControlWindow::put_Width
	DD	010H
	DQ	FLAT:?put_Width@CBaseControlWindow@@UEAAJJ@Z$rtcName$0
	ORG $+48
?put_Width@CBaseControlWindow@@UEAAJJ@Z$rtcFrameData DD 01H ; CBaseControlWindow::put_Width
	DD	00H
	DQ	FLAT:?put_Width@CBaseControlWindow@@UEAAJJ@Z$rtcVarDesc
; Function compile flags: /Odtp /RTCsu
CONST	ENDS
;	COMDAT ?put_Width@CBaseControlWindow@@UEAAJJ@Z
_TEXT	SEGMENT
bSuccess$ = 64
WindowRect$ = 88
WindowFlags$ = 116
__$ArrayPad$ = 128
this$ = 160
Width$ = 168
?put_Width@CBaseControlWindow@@UEAAJJ@Z PROC		; CBaseControlWindow::put_Width, COMDAT
; Line 493
$LN10:
	mov	DWORD PTR [rsp+16], edx
	mov	QWORD PTR [rsp+8], rcx
	push	rdi
	sub	rsp, 144				; 00000090H
	mov	rdi, rsp
	mov	ecx, 36					; 00000024H
	mov	eax, -858993460				; ccccccccH
	rep stosd
	mov	rcx, QWORD PTR [rsp+160]
	mov	rax, QWORD PTR __security_cookie
	xor	rax, rsp
	mov	QWORD PTR __$ArrayPad$[rsp], rax
; Line 494
	mov	rax, QWORD PTR this$[rsp]
	cmp	QWORD PTR [rax+280], 0
	jne	SHORT $LN7@put_Width
	lea	rax, OFFSET FLAT:$SG82529
	test	rax, rax
	je	SHORT $LN6@put_Width
	mov	r8d, 494				; 000001eeH
	lea	rdx, OFFSET FLAT:$SG82530
	lea	rcx, OFFSET FLAT:$SG82531
	call	?DbgAssert@@YAXPEB_W0H@Z		; DbgAssert
$LN6@put_Width:
	jmp	SHORT $LN5@put_Width
$LN7@put_Width:
	mov	rax, QWORD PTR this$[rsp]
	mov	rcx, QWORD PTR [rax+280]
	call	?IsConnected@CBasePin@@QEAAHXZ		; CBasePin::IsConnected
	test	eax, eax
	jne	SHORT $LN4@put_Width
	mov	eax, -2147220983			; ffffffff80040209H
	jmp	$LN8@put_Width
$LN4@put_Width:
$LN5@put_Width:
; Line 502
	lea	rdx, QWORD PTR WindowRect$[rsp]
	mov	rax, QWORD PTR this$[rsp]
	mov	rcx, QWORD PTR [rax+64]
	call	QWORD PTR __imp_GetWindowRect
	test	eax, eax
	jne	SHORT $LN3@put_Width
	mov	r8d, 502				; 000001f6H
	lea	rdx, OFFSET FLAT:$SG82538
	lea	rcx, OFFSET FLAT:$SG82539
	call	?DbgAssert@@YAXPEB_W0H@Z		; DbgAssert
$LN3@put_Width:
; Line 504
	mov	rax, QWORD PTR this$[rsp]
	mov	rcx, QWORD PTR [rax+64]
	call	QWORD PTR __imp_GetParent
	test	rax, rax
	je	SHORT $LN2@put_Width
; Line 506
	mov	rax, QWORD PTR this$[rsp]
	mov	rcx, QWORD PTR [rax+64]
	call	QWORD PTR __imp_GetParent
	mov	r9d, 2
	lea	r8, QWORD PTR WindowRect$[rsp]
	mov	rdx, rax
	xor	ecx, ecx
	call	QWORD PTR __imp_MapWindowPoints
$LN2@put_Width:
; Line 509
	mov	eax, DWORD PTR WindowRect$[rsp+4]
	mov	ecx, DWORD PTR WindowRect$[rsp+12]
	sub	ecx, eax
	mov	eax, ecx
	mov	DWORD PTR WindowRect$[rsp+12], eax
; Line 510
	mov	DWORD PTR WindowFlags$[rsp], 52		; 00000034H
; Line 522
	mov	eax, DWORD PTR WindowFlags$[rsp]
	mov	DWORD PTR [rsp+48], eax
	mov	eax, DWORD PTR WindowRect$[rsp+12]
	mov	DWORD PTR [rsp+40], eax
	mov	eax, DWORD PTR Width$[rsp]
	mov	DWORD PTR [rsp+32], eax
	mov	r9d, DWORD PTR WindowRect$[rsp+4]
	mov	r8d, DWORD PTR WindowRect$[rsp]
	xor	edx, edx
	mov	rax, QWORD PTR this$[rsp]
	mov	rcx, QWORD PTR [rax+64]
	call	QWORD PTR __imp_SetWindowPos
	mov	DWORD PTR bSuccess$[rsp], eax
; Line 524
	cmp	DWORD PTR bSuccess$[rsp], 0
	jne	SHORT $LN1@put_Width
; Line 525
	mov	eax, -2147024809			; ffffffff80070057H
	jmp	SHORT $LN8@put_Width
$LN1@put_Width:
; Line 527
	xor	eax, eax
$LN8@put_Width:
; Line 528
	mov	rdi, rax
	mov	rcx, rsp
	lea	rdx, OFFSET FLAT:?put_Width@CBaseControlWindow@@UEAAJJ@Z$rtcFrameData
	call	_RTC_CheckStackVars
	mov	rax, rdi
	mov	rcx, QWORD PTR __$ArrayPad$[rsp]
	xor	rcx, rsp
	call	__security_check_cookie
	add	rsp, 144				; 00000090H
	pop	rdi
	ret	0
?put_Width@CBaseControlWindow@@UEAAJJ@Z ENDP		; CBaseControlWindow::put_Width
_TEXT	ENDS
PUBLIC	__$ArrayPad$
;	COMDAT pdata
pdata	SEGMENT
$pdata$?get_Width@CBaseControlWindow@@UEAAJPEAJ@Z DD imagerel $LN9
	DD	imagerel $LN9+260
	DD	imagerel $unwind$?get_Width@CBaseControlWindow@@UEAAJPEAJ@Z
pdata	ENDS
;	COMDAT xdata
xdata	SEGMENT
$unwind$?get_Width@CBaseControlWindow@@UEAAJPEAJ@Z DD 023219H
	DD	0700bb20fH
	DD	imagerel __GSHandlerCheck
	DD	050H
xdata	ENDS
;	COMDAT CONST
CONST	SEGMENT
?get_Width@CBaseControlWindow@@UEAAJPEAJ@Z$rtcName$0 DB 057H ; CBaseControlWindow::get_Width
	DB	069H
	DB	06eH
	DB	064H
	DB	06fH
	DB	077H
	DB	052H
	DB	065H
	DB	063H
	DB	074H
	DB	00H
	ORG $+5
?get_Width@CBaseControlWindow@@UEAAJPEAJ@Z$rtcVarDesc DD 028H ; CBaseControlWindow::get_Width
	DD	010H
	DQ	FLAT:?get_Width@CBaseControlWindow@@UEAAJPEAJ@Z$rtcName$0
	ORG $+48
?get_Width@CBaseControlWindow@@UEAAJPEAJ@Z$rtcFrameData DD 01H ; CBaseControlWindow::get_Width
	DD	00H
	DQ	FLAT:?get_Width@CBaseControlWindow@@UEAAJPEAJ@Z$rtcVarDesc
; Function compile flags: /Odtp /RTCsu
CONST	ENDS
;	COMDAT ?get_Width@CBaseControlWindow@@UEAAJPEAJ@Z
_TEXT	SEGMENT
WindowRect$ = 40
__$ArrayPad$ = 80
this$ = 112
pWidth$ = 120
?get_Width@CBaseControlWindow@@UEAAJPEAJ@Z PROC		; CBaseControlWindow::get_Width, COMDAT
; Line 534
$LN9:
	mov	QWORD PTR [rsp+16], rdx
	mov	QWORD PTR [rsp+8], rcx
	push	rdi
	sub	rsp, 96					; 00000060H
	mov	rdi, rsp
	mov	ecx, 24
	mov	eax, -858993460				; ccccccccH
	rep stosd
	mov	rcx, QWORD PTR [rsp+112]
	mov	rax, QWORD PTR __security_cookie
	xor	rax, rsp
	mov	QWORD PTR __$ArrayPad$[rsp], rax
; Line 535
	cmp	QWORD PTR pWidth$[rsp], 0
	jne	SHORT $LN6@get_Width
	mov	eax, -2147467261			; ffffffff80004003H
	jmp	$LN7@get_Width
$LN6@get_Width:
; Line 536
	mov	rax, QWORD PTR this$[rsp]
	cmp	QWORD PTR [rax+280], 0
	jne	SHORT $LN5@get_Width
	lea	rax, OFFSET FLAT:$SG82555
	test	rax, rax
	je	SHORT $LN4@get_Width
	mov	r8d, 536				; 00000218H
	lea	rdx, OFFSET FLAT:$SG82556
	lea	rcx, OFFSET FLAT:$SG82557
	call	?DbgAssert@@YAXPEB_W0H@Z		; DbgAssert
$LN4@get_Width:
	jmp	SHORT $LN3@get_Width
$LN5@get_Width:
	mov	rax, QWORD PTR this$[rsp]
	mov	rcx, QWORD PTR [rax+280]
	call	?IsConnected@CBasePin@@QEAAHXZ		; CBasePin::IsConnected
	test	eax, eax
	jne	SHORT $LN2@get_Width
	mov	eax, -2147220983			; ffffffff80040209H
	jmp	SHORT $LN7@get_Width
$LN2@get_Width:
$LN3@get_Width:
; Line 539
	lea	rdx, QWORD PTR WindowRect$[rsp]
	mov	rax, QWORD PTR this$[rsp]
	mov	rcx, QWORD PTR [rax+64]
	call	QWORD PTR __imp_GetWindowRect
	test	eax, eax
	jne	SHORT $LN1@get_Width
	mov	r8d, 539				; 0000021bH
	lea	rdx, OFFSET FLAT:$SG82563
	lea	rcx, OFFSET FLAT:$SG82564
	call	?DbgAssert@@YAXPEB_W0H@Z		; DbgAssert
$LN1@get_Width:
; Line 540
	mov	eax, DWORD PTR WindowRect$[rsp]
	mov	ecx, DWORD PTR WindowRect$[rsp+8]
	sub	ecx, eax
	mov	eax, ecx
	mov	rcx, QWORD PTR pWidth$[rsp]
	mov	DWORD PTR [rcx], eax
; Line 541
	xor	eax, eax
$LN7@get_Width:
; Line 542
	mov	rdi, rax
	mov	rcx, rsp
	lea	rdx, OFFSET FLAT:?get_Width@CBaseControlWindow@@UEAAJPEAJ@Z$rtcFrameData
	call	_RTC_CheckStackVars
	mov	rax, rdi
	mov	rcx, QWORD PTR __$ArrayPad$[rsp]
	xor	rcx, rsp
	call	__security_check_cookie
	add	rsp, 96					; 00000060H
	pop	rdi
	ret	0
?get_Width@CBaseControlWindow@@UEAAJPEAJ@Z ENDP		; CBaseControlWindow::get_Width
_TEXT	ENDS
PUBLIC	__$ArrayPad$
;	COMDAT pdata
pdata	SEGMENT
$pdata$?put_Top@CBaseControlWindow@@UEAAJJ@Z DD imagerel $LN10
	DD	imagerel $LN10+427
	DD	imagerel $unwind$?put_Top@CBaseControlWindow@@UEAAJJ@Z
pdata	ENDS
;	COMDAT xdata
xdata	SEGMENT
$unwind$?put_Top@CBaseControlWindow@@UEAAJJ@Z DD 033a19H
	DD	0120111H
	DD	0700aH
	DD	imagerel __GSHandlerCheck
	DD	080H
xdata	ENDS
;	COMDAT CONST
CONST	SEGMENT
?put_Top@CBaseControlWindow@@UEAAJJ@Z$rtcName$0 DB 057H	; CBaseControlWindow::put_Top
	DB	069H
	DB	06eH
	DB	064H
	DB	06fH
	DB	077H
	DB	052H
	DB	065H
	DB	063H
	DB	074H
	DB	00H
	ORG $+5
?put_Top@CBaseControlWindow@@UEAAJJ@Z$rtcVarDesc DD 058H ; CBaseControlWindow::put_Top
	DD	010H
	DQ	FLAT:?put_Top@CBaseControlWindow@@UEAAJJ@Z$rtcName$0
	ORG $+48
?put_Top@CBaseControlWindow@@UEAAJJ@Z$rtcFrameData DD 01H ; CBaseControlWindow::put_Top
	DD	00H
	DQ	FLAT:?put_Top@CBaseControlWindow@@UEAAJJ@Z$rtcVarDesc
; Function compile flags: /Odtp /RTCsu
CONST	ENDS
;	COMDAT ?put_Top@CBaseControlWindow@@UEAAJJ@Z
_TEXT	SEGMENT
bSuccess$ = 64
WindowRect$ = 88
WindowFlags$ = 116
__$ArrayPad$ = 128
this$ = 160
Top$ = 168
?put_Top@CBaseControlWindow@@UEAAJJ@Z PROC		; CBaseControlWindow::put_Top, COMDAT
; Line 550
$LN10:
	mov	DWORD PTR [rsp+16], edx
	mov	QWORD PTR [rsp+8], rcx
	push	rdi
	sub	rsp, 144				; 00000090H
	mov	rdi, rsp
	mov	ecx, 36					; 00000024H
	mov	eax, -858993460				; ccccccccH
	rep stosd
	mov	rcx, QWORD PTR [rsp+160]
	mov	rax, QWORD PTR __security_cookie
	xor	rax, rsp
	mov	QWORD PTR __$ArrayPad$[rsp], rax
; Line 551
	mov	rax, QWORD PTR this$[rsp]
	cmp	QWORD PTR [rax+280], 0
	jne	SHORT $LN7@put_Top
	lea	rax, OFFSET FLAT:$SG82571
	test	rax, rax
	je	SHORT $LN6@put_Top
	mov	r8d, 551				; 00000227H
	lea	rdx, OFFSET FLAT:$SG82572
	lea	rcx, OFFSET FLAT:$SG82573
	call	?DbgAssert@@YAXPEB_W0H@Z		; DbgAssert
$LN6@put_Top:
	jmp	SHORT $LN5@put_Top
$LN7@put_Top:
	mov	rax, QWORD PTR this$[rsp]
	mov	rcx, QWORD PTR [rax+280]
	call	?IsConnected@CBasePin@@QEAAHXZ		; CBasePin::IsConnected
	test	eax, eax
	jne	SHORT $LN4@put_Top
	mov	eax, -2147220983			; ffffffff80040209H
	jmp	$LN8@put_Top
$LN4@put_Top:
$LN5@put_Top:
; Line 556
	lea	rdx, QWORD PTR WindowRect$[rsp]
	mov	rax, QWORD PTR this$[rsp]
	mov	rcx, QWORD PTR [rax+64]
	call	QWORD PTR __imp_GetWindowRect
	test	eax, eax
	jne	SHORT $LN3@put_Top
	mov	r8d, 556				; 0000022cH
	lea	rdx, OFFSET FLAT:$SG82580
	lea	rcx, OFFSET FLAT:$SG82581
	call	?DbgAssert@@YAXPEB_W0H@Z		; DbgAssert
$LN3@put_Top:
; Line 558
	mov	rax, QWORD PTR this$[rsp]
	mov	rcx, QWORD PTR [rax+64]
	call	QWORD PTR __imp_GetParent
	test	rax, rax
	je	SHORT $LN2@put_Top
; Line 560
	mov	rax, QWORD PTR this$[rsp]
	mov	rcx, QWORD PTR [rax+64]
	call	QWORD PTR __imp_GetParent
	mov	r9d, 2
	lea	r8, QWORD PTR WindowRect$[rsp]
	mov	rdx, rax
	xor	ecx, ecx
	call	QWORD PTR __imp_MapWindowPoints
$LN2@put_Top:
; Line 567
	mov	eax, DWORD PTR WindowRect$[rsp+4]
	mov	ecx, DWORD PTR WindowRect$[rsp+12]
	sub	ecx, eax
	mov	eax, ecx
	mov	DWORD PTR WindowRect$[rsp+12], eax
; Line 568
	mov	eax, DWORD PTR WindowRect$[rsp]
	mov	ecx, DWORD PTR WindowRect$[rsp+8]
	sub	ecx, eax
	mov	eax, ecx
	mov	DWORD PTR WindowRect$[rsp+8], eax
; Line 569
	mov	DWORD PTR WindowFlags$[rsp], 52		; 00000034H
; Line 577
	mov	eax, DWORD PTR WindowFlags$[rsp]
	mov	DWORD PTR [rsp+48], eax
	mov	eax, DWORD PTR WindowRect$[rsp+12]
	mov	DWORD PTR [rsp+40], eax
	mov	eax, DWORD PTR WindowRect$[rsp+8]
	mov	DWORD PTR [rsp+32], eax
	mov	r9d, DWORD PTR Top$[rsp]
	mov	r8d, DWORD PTR WindowRect$[rsp]
	xor	edx, edx
	mov	rax, QWORD PTR this$[rsp]
	mov	rcx, QWORD PTR [rax+64]
	call	QWORD PTR __imp_SetWindowPos
	mov	DWORD PTR bSuccess$[rsp], eax
; Line 579
	cmp	DWORD PTR bSuccess$[rsp], 0
	jne	SHORT $LN1@put_Top
; Line 580
	mov	eax, -2147024809			; ffffffff80070057H
	jmp	SHORT $LN8@put_Top
$LN1@put_Top:
; Line 582
	xor	eax, eax
$LN8@put_Top:
; Line 583
	mov	rdi, rax
	mov	rcx, rsp
	lea	rdx, OFFSET FLAT:?put_Top@CBaseControlWindow@@UEAAJJ@Z$rtcFrameData
	call	_RTC_CheckStackVars
	mov	rax, rdi
	mov	rcx, QWORD PTR __$ArrayPad$[rsp]
	xor	rcx, rsp
	call	__security_check_cookie
	add	rsp, 144				; 00000090H
	pop	rdi
	ret	0
?put_Top@CBaseControlWindow@@UEAAJJ@Z ENDP		; CBaseControlWindow::put_Top
_TEXT	ENDS
PUBLIC	__$ArrayPad$
;	COMDAT pdata
pdata	SEGMENT
$pdata$?get_Top@CBaseControlWindow@@UEAAJPEAJ@Z DD imagerel $LN9
	DD	imagerel $LN9+252
	DD	imagerel $unwind$?get_Top@CBaseControlWindow@@UEAAJPEAJ@Z
pdata	ENDS
;	COMDAT xdata
xdata	SEGMENT
$unwind$?get_Top@CBaseControlWindow@@UEAAJPEAJ@Z DD 023219H
	DD	0700bb20fH
	DD	imagerel __GSHandlerCheck
	DD	050H
xdata	ENDS
;	COMDAT CONST
CONST	SEGMENT
?get_Top@CBaseControlWindow@@UEAAJPEAJ@Z$rtcName$0 DB 057H ; CBaseControlWindow::get_Top
	DB	069H
	DB	06eH
	DB	064H
	DB	06fH
	DB	077H
	DB	052H
	DB	065H
	DB	063H
	DB	074H
	DB	00H
	ORG $+5
?get_Top@CBaseControlWindow@@UEAAJPEAJ@Z$rtcVarDesc DD 028H ; CBaseControlWindow::get_Top
	DD	010H
	DQ	FLAT:?get_Top@CBaseControlWindow@@UEAAJPEAJ@Z$rtcName$0
	ORG $+48
?get_Top@CBaseControlWindow@@UEAAJPEAJ@Z$rtcFrameData DD 01H ; CBaseControlWindow::get_Top
	DD	00H
	DQ	FLAT:?get_Top@CBaseControlWindow@@UEAAJPEAJ@Z$rtcVarDesc
; Function compile flags: /Odtp /RTCsu
CONST	ENDS
;	COMDAT ?get_Top@CBaseControlWindow@@UEAAJPEAJ@Z
_TEXT	SEGMENT
WindowRect$ = 40
__$ArrayPad$ = 80
this$ = 112
pTop$ = 120
?get_Top@CBaseControlWindow@@UEAAJPEAJ@Z PROC		; CBaseControlWindow::get_Top, COMDAT
; Line 589
$LN9:
	mov	QWORD PTR [rsp+16], rdx
	mov	QWORD PTR [rsp+8], rcx
	push	rdi
	sub	rsp, 96					; 00000060H
	mov	rdi, rsp
	mov	ecx, 24
	mov	eax, -858993460				; ccccccccH
	rep stosd
	mov	rcx, QWORD PTR [rsp+112]
	mov	rax, QWORD PTR __security_cookie
	xor	rax, rsp
	mov	QWORD PTR __$ArrayPad$[rsp], rax
; Line 590
	cmp	QWORD PTR pTop$[rsp], 0
	jne	SHORT $LN6@get_Top
	mov	eax, -2147467261			; ffffffff80004003H
	jmp	$LN7@get_Top
$LN6@get_Top:
; Line 591
	mov	rax, QWORD PTR this$[rsp]
	cmp	QWORD PTR [rax+280], 0
	jne	SHORT $LN5@get_Top
	lea	rax, OFFSET FLAT:$SG82597
	test	rax, rax
	je	SHORT $LN4@get_Top
	mov	r8d, 591				; 0000024fH
	lea	rdx, OFFSET FLAT:$SG82598
	lea	rcx, OFFSET FLAT:$SG82599
	call	?DbgAssert@@YAXPEB_W0H@Z		; DbgAssert
$LN4@get_Top:
	jmp	SHORT $LN3@get_Top
$LN5@get_Top:
	mov	rax, QWORD PTR this$[rsp]
	mov	rcx, QWORD PTR [rax+280]
	call	?IsConnected@CBasePin@@QEAAHXZ		; CBasePin::IsConnected
	test	eax, eax
	jne	SHORT $LN2@get_Top
	mov	eax, -2147220983			; ffffffff80040209H
	jmp	SHORT $LN7@get_Top
$LN2@get_Top:
$LN3@get_Top:
; Line 594
	lea	rdx, QWORD PTR WindowRect$[rsp]
	mov	rax, QWORD PTR this$[rsp]
	mov	rcx, QWORD PTR [rax+64]
	call	QWORD PTR __imp_GetWindowRect
	test	eax, eax
	jne	SHORT $LN1@get_Top
	mov	r8d, 594				; 00000252H
	lea	rdx, OFFSET FLAT:$SG82605
	lea	rcx, OFFSET FLAT:$SG82606
	call	?DbgAssert@@YAXPEB_W0H@Z		; DbgAssert
$LN1@get_Top:
; Line 595
	mov	rax, QWORD PTR pTop$[rsp]
	mov	ecx, DWORD PTR WindowRect$[rsp+4]
	mov	DWORD PTR [rax], ecx
; Line 596
	xor	eax, eax
$LN7@get_Top:
; Line 597
	mov	rdi, rax
	mov	rcx, rsp
	lea	rdx, OFFSET FLAT:?get_Top@CBaseControlWindow@@UEAAJPEAJ@Z$rtcFrameData
	call	_RTC_CheckStackVars
	mov	rax, rdi
	mov	rcx, QWORD PTR __$ArrayPad$[rsp]
	xor	rcx, rsp
	call	__security_check_cookie
	add	rsp, 96					; 00000060H
	pop	rdi
	ret	0
?get_Top@CBaseControlWindow@@UEAAJPEAJ@Z ENDP		; CBaseControlWindow::get_Top
_TEXT	ENDS
PUBLIC	__$ArrayPad$
;	COMDAT pdata
pdata	SEGMENT
$pdata$?put_Height@CBaseControlWindow@@UEAAJJ@Z DD imagerel $LN10
	DD	imagerel $LN10+411
	DD	imagerel $unwind$?put_Height@CBaseControlWindow@@UEAAJJ@Z
pdata	ENDS
;	COMDAT xdata
xdata	SEGMENT
$unwind$?put_Height@CBaseControlWindow@@UEAAJJ@Z DD 033a19H
	DD	0120111H
	DD	0700aH
	DD	imagerel __GSHandlerCheck
	DD	080H
xdata	ENDS
;	COMDAT CONST
CONST	SEGMENT
?put_Height@CBaseControlWindow@@UEAAJJ@Z$rtcName$0 DB 057H ; CBaseControlWindow::put_Height
	DB	069H
	DB	06eH
	DB	064H
	DB	06fH
	DB	077H
	DB	052H
	DB	065H
	DB	063H
	DB	074H
	DB	00H
	ORG $+5
?put_Height@CBaseControlWindow@@UEAAJJ@Z$rtcVarDesc DD 058H ; CBaseControlWindow::put_Height
	DD	010H
	DQ	FLAT:?put_Height@CBaseControlWindow@@UEAAJJ@Z$rtcName$0
	ORG $+48
?put_Height@CBaseControlWindow@@UEAAJJ@Z$rtcFrameData DD 01H ; CBaseControlWindow::put_Height
	DD	00H
	DQ	FLAT:?put_Height@CBaseControlWindow@@UEAAJJ@Z$rtcVarDesc
; Function compile flags: /Odtp /RTCsu
CONST	ENDS
;	COMDAT ?put_Height@CBaseControlWindow@@UEAAJJ@Z
_TEXT	SEGMENT
bSuccess$ = 64
WindowRect$ = 88
WindowFlags$ = 116
__$ArrayPad$ = 128
this$ = 160
Height$ = 168
?put_Height@CBaseControlWindow@@UEAAJJ@Z PROC		; CBaseControlWindow::put_Height, COMDAT
; Line 606
$LN10:
	mov	DWORD PTR [rsp+16], edx
	mov	QWORD PTR [rsp+8], rcx
	push	rdi
	sub	rsp, 144				; 00000090H
	mov	rdi, rsp
	mov	ecx, 36					; 00000024H
	mov	eax, -858993460				; ccccccccH
	rep stosd
	mov	rcx, QWORD PTR [rsp+160]
	mov	rax, QWORD PTR __security_cookie
	xor	rax, rsp
	mov	QWORD PTR __$ArrayPad$[rsp], rax
; Line 607
	mov	rax, QWORD PTR this$[rsp]
	cmp	QWORD PTR [rax+280], 0
	jne	SHORT $LN7@put_Height
	lea	rax, OFFSET FLAT:$SG82613
	test	rax, rax
	je	SHORT $LN6@put_Height
	mov	r8d, 607				; 0000025fH
	lea	rdx, OFFSET FLAT:$SG82614
	lea	rcx, OFFSET FLAT:$SG82615
	call	?DbgAssert@@YAXPEB_W0H@Z		; DbgAssert
$LN6@put_Height:
	jmp	SHORT $LN5@put_Height
$LN7@put_Height:
	mov	rax, QWORD PTR this$[rsp]
	mov	rcx, QWORD PTR [rax+280]
	call	?IsConnected@CBasePin@@QEAAHXZ		; CBasePin::IsConnected
	test	eax, eax
	jne	SHORT $LN4@put_Height
	mov	eax, -2147220983			; ffffffff80040209H
	jmp	$LN8@put_Height
$LN4@put_Height:
$LN5@put_Height:
; Line 615
	lea	rdx, QWORD PTR WindowRect$[rsp]
	mov	rax, QWORD PTR this$[rsp]
	mov	rcx, QWORD PTR [rax+64]
	call	QWORD PTR __imp_GetWindowRect
	test	eax, eax
	jne	SHORT $LN3@put_Height
	mov	r8d, 615				; 00000267H
	lea	rdx, OFFSET FLAT:$SG82622
	lea	rcx, OFFSET FLAT:$SG82623
	call	?DbgAssert@@YAXPEB_W0H@Z		; DbgAssert
$LN3@put_Height:
; Line 617
	mov	rax, QWORD PTR this$[rsp]
	mov	rcx, QWORD PTR [rax+64]
	call	QWORD PTR __imp_GetParent
	test	rax, rax
	je	SHORT $LN2@put_Height
; Line 619
	mov	rax, QWORD PTR this$[rsp]
	mov	rcx, QWORD PTR [rax+64]
	call	QWORD PTR __imp_GetParent
	mov	r9d, 2
	lea	r8, QWORD PTR WindowRect$[rsp]
	mov	rdx, rax
	xor	ecx, ecx
	call	QWORD PTR __imp_MapWindowPoints
$LN2@put_Height:
; Line 622
	mov	eax, DWORD PTR WindowRect$[rsp]
	mov	ecx, DWORD PTR WindowRect$[rsp+8]
	sub	ecx, eax
	mov	eax, ecx
	mov	DWORD PTR WindowRect$[rsp+8], eax
; Line 623
	mov	DWORD PTR WindowFlags$[rsp], 52		; 00000034H
; Line 631
	mov	eax, DWORD PTR WindowFlags$[rsp]
	mov	DWORD PTR [rsp+48], eax
	mov	eax, DWORD PTR Height$[rsp]
	mov	DWORD PTR [rsp+40], eax
	mov	eax, DWORD PTR WindowRect$[rsp+8]
	mov	DWORD PTR [rsp+32], eax
	mov	r9d, DWORD PTR WindowRect$[rsp+4]
	mov	r8d, DWORD PTR WindowRect$[rsp]
	xor	edx, edx
	mov	rax, QWORD PTR this$[rsp]
	mov	rcx, QWORD PTR [rax+64]
	call	QWORD PTR __imp_SetWindowPos
	mov	DWORD PTR bSuccess$[rsp], eax
; Line 633
	cmp	DWORD PTR bSuccess$[rsp], 0
	jne	SHORT $LN1@put_Height
; Line 634
	mov	eax, -2147024809			; ffffffff80070057H
	jmp	SHORT $LN8@put_Height
$LN1@put_Height:
; Line 636
	xor	eax, eax
$LN8@put_Height:
; Line 637
	mov	rdi, rax
	mov	rcx, rsp
	lea	rdx, OFFSET FLAT:?put_Height@CBaseControlWindow@@UEAAJJ@Z$rtcFrameData
	call	_RTC_CheckStackVars
	mov	rax, rdi
	mov	rcx, QWORD PTR __$ArrayPad$[rsp]
	xor	rcx, rsp
	call	__security_check_cookie
	add	rsp, 144				; 00000090H
	pop	rdi
	ret	0
?put_Height@CBaseControlWindow@@UEAAJJ@Z ENDP		; CBaseControlWindow::put_Height
_TEXT	ENDS
PUBLIC	__$ArrayPad$
;	COMDAT pdata
pdata	SEGMENT
$pdata$?get_Height@CBaseControlWindow@@UEAAJPEAJ@Z DD imagerel $LN9
	DD	imagerel $LN9+260
	DD	imagerel $unwind$?get_Height@CBaseControlWindow@@UEAAJPEAJ@Z
pdata	ENDS
;	COMDAT xdata
xdata	SEGMENT
$unwind$?get_Height@CBaseControlWindow@@UEAAJPEAJ@Z DD 023219H
	DD	0700bb20fH
	DD	imagerel __GSHandlerCheck
	DD	050H
xdata	ENDS
;	COMDAT CONST
CONST	SEGMENT
?get_Height@CBaseControlWindow@@UEAAJPEAJ@Z$rtcName$0 DB 057H ; CBaseControlWindow::get_Height
	DB	069H
	DB	06eH
	DB	064H
	DB	06fH
	DB	077H
	DB	052H
	DB	065H
	DB	063H
	DB	074H
	DB	00H
	ORG $+5
?get_Height@CBaseControlWindow@@UEAAJPEAJ@Z$rtcVarDesc DD 028H ; CBaseControlWindow::get_Height
	DD	010H
	DQ	FLAT:?get_Height@CBaseControlWindow@@UEAAJPEAJ@Z$rtcName$0
	ORG $+48
?get_Height@CBaseControlWindow@@UEAAJPEAJ@Z$rtcFrameData DD 01H ; CBaseControlWindow::get_Height
	DD	00H
	DQ	FLAT:?get_Height@CBaseControlWindow@@UEAAJPEAJ@Z$rtcVarDesc
; Function compile flags: /Odtp /RTCsu
CONST	ENDS
;	COMDAT ?get_Height@CBaseControlWindow@@UEAAJPEAJ@Z
_TEXT	SEGMENT
WindowRect$ = 40
__$ArrayPad$ = 80
this$ = 112
pHeight$ = 120
?get_Height@CBaseControlWindow@@UEAAJPEAJ@Z PROC	; CBaseControlWindow::get_Height, COMDAT
; Line 643
$LN9:
	mov	QWORD PTR [rsp+16], rdx
	mov	QWORD PTR [rsp+8], rcx
	push	rdi
	sub	rsp, 96					; 00000060H
	mov	rdi, rsp
	mov	ecx, 24
	mov	eax, -858993460				; ccccccccH
	rep stosd
	mov	rcx, QWORD PTR [rsp+112]
	mov	rax, QWORD PTR __security_cookie
	xor	rax, rsp
	mov	QWORD PTR __$ArrayPad$[rsp], rax
; Line 644
	cmp	QWORD PTR pHeight$[rsp], 0
	jne	SHORT $LN6@get_Height
	mov	eax, -2147467261			; ffffffff80004003H
	jmp	$LN7@get_Height
$LN6@get_Height:
; Line 645
	mov	rax, QWORD PTR this$[rsp]
	cmp	QWORD PTR [rax+280], 0
	jne	SHORT $LN5@get_Height
	lea	rax, OFFSET FLAT:$SG82639
	test	rax, rax
	je	SHORT $LN4@get_Height
	mov	r8d, 645				; 00000285H
	lea	rdx, OFFSET FLAT:$SG82640
	lea	rcx, OFFSET FLAT:$SG82641
	call	?DbgAssert@@YAXPEB_W0H@Z		; DbgAssert
$LN4@get_Height:
	jmp	SHORT $LN3@get_Height
$LN5@get_Height:
	mov	rax, QWORD PTR this$[rsp]
	mov	rcx, QWORD PTR [rax+280]
	call	?IsConnected@CBasePin@@QEAAHXZ		; CBasePin::IsConnected
	test	eax, eax
	jne	SHORT $LN2@get_Height
	mov	eax, -2147220983			; ffffffff80040209H
	jmp	SHORT $LN7@get_Height
$LN2@get_Height:
$LN3@get_Height:
; Line 648
	lea	rdx, QWORD PTR WindowRect$[rsp]
	mov	rax, QWORD PTR this$[rsp]
	mov	rcx, QWORD PTR [rax+64]
	call	QWORD PTR __imp_GetWindowRect
	test	eax, eax
	jne	SHORT $LN1@get_Height
	mov	r8d, 648				; 00000288H
	lea	rdx, OFFSET FLAT:$SG82647
	lea	rcx, OFFSET FLAT:$SG82648
	call	?DbgAssert@@YAXPEB_W0H@Z		; DbgAssert
$LN1@get_Height:
; Line 649
	mov	eax, DWORD PTR WindowRect$[rsp+4]
	mov	ecx, DWORD PTR WindowRect$[rsp+12]
	sub	ecx, eax
	mov	eax, ecx
	mov	rcx, QWORD PTR pHeight$[rsp]
	mov	DWORD PTR [rcx], eax
; Line 650
	xor	eax, eax
$LN7@get_Height:
; Line 651
	mov	rdi, rax
	mov	rcx, rsp
	lea	rdx, OFFSET FLAT:?get_Height@CBaseControlWindow@@UEAAJPEAJ@Z$rtcFrameData
	call	_RTC_CheckStackVars
	mov	rax, rdi
	mov	rcx, QWORD PTR __$ArrayPad$[rsp]
	xor	rcx, rsp
	call	__security_check_cookie
	add	rsp, 96					; 00000060H
	pop	rdi
	ret	0
?get_Height@CBaseControlWindow@@UEAAJPEAJ@Z ENDP	; CBaseControlWindow::get_Height
_TEXT	ENDS
EXTRN	__imp_SetParent:PROC
;	COMDAT pdata
pdata	SEGMENT
$pdata$?put_Owner@CBaseControlWindow@@UEAAJ_J@Z DD imagerel $LN9
	DD	imagerel $LN9+314
	DD	imagerel $unwind$?put_Owner@CBaseControlWindow@@UEAAJ_J@Z
pdata	ENDS
;	COMDAT xdata
xdata	SEGMENT
$unwind$?put_Owner@CBaseControlWindow@@UEAAJ_J@Z DD 022301H
	DD	0700b520fH
; Function compile flags: /Odtp /RTCsu
xdata	ENDS
;	COMDAT ?put_Owner@CBaseControlWindow@@UEAAJ_J@Z
_TEXT	SEGMENT
hwndParent$ = 32
Style$ = 40
this$ = 64
Owner$ = 72
?put_Owner@CBaseControlWindow@@UEAAJ_J@Z PROC		; CBaseControlWindow::put_Owner, COMDAT
; Line 666
$LN9:
	mov	QWORD PTR [rsp+16], rdx
	mov	QWORD PTR [rsp+8], rcx
	push	rdi
	sub	rsp, 48					; 00000030H
	mov	rdi, rsp
	mov	ecx, 12
	mov	eax, -858993460				; ccccccccH
	rep stosd
	mov	rcx, QWORD PTR [rsp+64]
; Line 669
	mov	rax, QWORD PTR this$[rsp]
	cmp	QWORD PTR [rax+280], 0
	jne	SHORT $LN6@put_Owner
	lea	rax, OFFSET FLAT:$SG82655
	test	rax, rax
	je	SHORT $LN5@put_Owner
	mov	r8d, 669				; 0000029dH
	lea	rdx, OFFSET FLAT:$SG82656
	lea	rcx, OFFSET FLAT:$SG82657
	call	?DbgAssert@@YAXPEB_W0H@Z		; DbgAssert
$LN5@put_Owner:
	jmp	SHORT $LN4@put_Owner
$LN6@put_Owner:
	mov	rax, QWORD PTR this$[rsp]
	mov	rcx, QWORD PTR [rax+280]
	call	?IsConnected@CBasePin@@QEAAHXZ		; CBasePin::IsConnected
	test	eax, eax
	jne	SHORT $LN3@put_Owner
	mov	eax, -2147220983			; ffffffff80040209H
	jmp	$LN7@put_Owner
$LN3@put_Owner:
$LN4@put_Owner:
; Line 670
	mov	rax, QWORD PTR this$[rsp]
	mov	rcx, QWORD PTR Owner$[rsp]
	mov	QWORD PTR [rax+304], rcx
; Line 671
	mov	rax, QWORD PTR this$[rsp]
	mov	rax, QWORD PTR [rax+304]
	mov	QWORD PTR hwndParent$[rsp], rax
; Line 675
	mov	edx, -16
	mov	rax, QWORD PTR this$[rsp]
	mov	rcx, QWORD PTR [rax+64]
	call	QWORD PTR __imp_GetWindowLongW
	mov	DWORD PTR Style$[rsp], eax
; Line 676
	cmp	QWORD PTR Owner$[rsp], 0
	jne	SHORT $LN2@put_Owner
; Line 677
	mov	eax, DWORD PTR Style$[rsp]
	btr	eax, 30
	mov	DWORD PTR Style$[rsp], eax
; Line 678
	jmp	SHORT $LN1@put_Owner
$LN2@put_Owner:
; Line 679
	mov	eax, DWORD PTR Style$[rsp]
	bts	eax, 30
	mov	DWORD PTR Style$[rsp], eax
$LN1@put_Owner:
; Line 681
	mov	r8d, DWORD PTR Style$[rsp]
	mov	edx, -16
	mov	rax, QWORD PTR this$[rsp]
	mov	rcx, QWORD PTR [rax+64]
	call	QWORD PTR __imp_SetWindowLongW
; Line 685
	mov	rdx, QWORD PTR hwndParent$[rsp]
	mov	rax, QWORD PTR this$[rsp]
	mov	rcx, QWORD PTR [rax+64]
	call	QWORD PTR __imp_SetParent
; Line 687
	mov	rax, QWORD PTR this$[rsp]
	add	rax, 48					; 00000030H
	mov	edx, 1
	mov	rcx, rax
	call	?PaintWindow@CBaseWindow@@QEAAXH@Z	; CBaseWindow::PaintWindow
; Line 688
	mov	r9, QWORD PTR hwndParent$[rsp]
	lea	r8, OFFSET FLAT:$SG82666
	mov	edx, 5
	mov	ecx, 2
	call	?DbgLogInfo@@YAXKKPEB_WZZ		; DbgLogInfo
; Line 690
	xor	eax, eax
$LN7@put_Owner:
; Line 691
	add	rsp, 48					; 00000030H
	pop	rdi
	ret	0
?put_Owner@CBaseControlWindow@@UEAAJ_J@Z ENDP		; CBaseControlWindow::put_Owner
_TEXT	ENDS
;	COMDAT pdata
pdata	SEGMENT
$pdata$?get_Owner@CBaseControlWindow@@UEAAJPEA_J@Z DD imagerel $LN8
	DD	imagerel $LN8+160
	DD	imagerel $unwind$?get_Owner@CBaseControlWindow@@UEAAJPEA_J@Z
pdata	ENDS
;	COMDAT xdata
xdata	SEGMENT
$unwind$?get_Owner@CBaseControlWindow@@UEAAJPEA_J@Z DD 022301H
	DD	0700b320fH
; Function compile flags: /Odtp /RTCsu
xdata	ENDS
;	COMDAT ?get_Owner@CBaseControlWindow@@UEAAJPEA_J@Z
_TEXT	SEGMENT
this$ = 48
Owner$ = 56
?get_Owner@CBaseControlWindow@@UEAAJPEA_J@Z PROC	; CBaseControlWindow::get_Owner, COMDAT
; Line 701
$LN8:
	mov	QWORD PTR [rsp+16], rdx
	mov	QWORD PTR [rsp+8], rcx
	push	rdi
	sub	rsp, 32					; 00000020H
	mov	rdi, rsp
	mov	ecx, 8
	mov	eax, -858993460				; ccccccccH
	rep stosd
	mov	rcx, QWORD PTR [rsp+48]
; Line 702
	cmp	QWORD PTR Owner$[rsp], 0
	jne	SHORT $LN5@get_Owner
	mov	eax, -2147467261			; ffffffff80004003H
	jmp	SHORT $LN6@get_Owner
$LN5@get_Owner:
; Line 703
	mov	rax, QWORD PTR this$[rsp]
	cmp	QWORD PTR [rax+280], 0
	jne	SHORT $LN4@get_Owner
	lea	rax, OFFSET FLAT:$SG82675
	test	rax, rax
	je	SHORT $LN3@get_Owner
	mov	r8d, 703				; 000002bfH
	lea	rdx, OFFSET FLAT:$SG82676
	lea	rcx, OFFSET FLAT:$SG82677
	call	?DbgAssert@@YAXPEB_W0H@Z		; DbgAssert
$LN3@get_Owner:
	jmp	SHORT $LN2@get_Owner
$LN4@get_Owner:
	mov	rax, QWORD PTR this$[rsp]
	mov	rcx, QWORD PTR [rax+280]
	call	?IsConnected@CBasePin@@QEAAHXZ		; CBasePin::IsConnected
	test	eax, eax
	jne	SHORT $LN1@get_Owner
	mov	eax, -2147220983			; ffffffff80040209H
	jmp	SHORT $LN6@get_Owner
$LN1@get_Owner:
$LN2@get_Owner:
; Line 704
	mov	rax, QWORD PTR Owner$[rsp]
	mov	rcx, QWORD PTR this$[rsp]
	mov	rcx, QWORD PTR [rcx+304]
	mov	QWORD PTR [rax], rcx
; Line 705
	xor	eax, eax
$LN6@get_Owner:
; Line 706
	add	rsp, 32					; 00000020H
	pop	rdi
	ret	0
?get_Owner@CBaseControlWindow@@UEAAJPEA_J@Z ENDP	; CBaseControlWindow::get_Owner
_TEXT	ENDS
;	COMDAT pdata
pdata	SEGMENT
$pdata$?put_MessageDrain@CBaseControlWindow@@UEAAJ_J@Z DD imagerel $LN7
	DD	imagerel $LN7+142
	DD	imagerel $unwind$?put_MessageDrain@CBaseControlWindow@@UEAAJ_J@Z
pdata	ENDS
;	COMDAT xdata
xdata	SEGMENT
$unwind$?put_MessageDrain@CBaseControlWindow@@UEAAJ_J@Z DD 022301H
	DD	0700b320fH
; Function compile flags: /Odtp /RTCsu
xdata	ENDS
;	COMDAT ?put_MessageDrain@CBaseControlWindow@@UEAAJ_J@Z
_TEXT	SEGMENT
this$ = 48
Drain$ = 56
?put_MessageDrain@CBaseControlWindow@@UEAAJ_J@Z PROC	; CBaseControlWindow::put_MessageDrain, COMDAT
; Line 715
$LN7:
	mov	QWORD PTR [rsp+16], rdx
	mov	QWORD PTR [rsp+8], rcx
	push	rdi
	sub	rsp, 32					; 00000020H
	mov	rdi, rsp
	mov	ecx, 8
	mov	eax, -858993460				; ccccccccH
	rep stosd
	mov	rcx, QWORD PTR [rsp+48]
; Line 718
	mov	rax, QWORD PTR this$[rsp]
	cmp	QWORD PTR [rax+280], 0
	jne	SHORT $LN4@put_Messag
	lea	rax, OFFSET FLAT:$SG82688
	test	rax, rax
	je	SHORT $LN3@put_Messag
	mov	r8d, 718				; 000002ceH
	lea	rdx, OFFSET FLAT:$SG82689
	lea	rcx, OFFSET FLAT:$SG82690
	call	?DbgAssert@@YAXPEB_W0H@Z		; DbgAssert
$LN3@put_Messag:
	jmp	SHORT $LN2@put_Messag
$LN4@put_Messag:
	mov	rax, QWORD PTR this$[rsp]
	mov	rcx, QWORD PTR [rax+280]
	call	?IsConnected@CBasePin@@QEAAHXZ		; CBasePin::IsConnected
	test	eax, eax
	jne	SHORT $LN1@put_Messag
	mov	eax, -2147220983			; ffffffff80040209H
	jmp	SHORT $LN5@put_Messag
$LN1@put_Messag:
$LN2@put_Messag:
; Line 719
	mov	rax, QWORD PTR this$[rsp]
	mov	rcx, QWORD PTR Drain$[rsp]
	mov	QWORD PTR [rax+312], rcx
; Line 720
	xor	eax, eax
$LN5@put_Messag:
; Line 721
	add	rsp, 32					; 00000020H
	pop	rdi
	ret	0
?put_MessageDrain@CBaseControlWindow@@UEAAJ_J@Z ENDP	; CBaseControlWindow::put_MessageDrain
_TEXT	ENDS
;	COMDAT pdata
pdata	SEGMENT
$pdata$?get_MessageDrain@CBaseControlWindow@@UEAAJPEA_J@Z DD imagerel $LN8
	DD	imagerel $LN8+160
	DD	imagerel $unwind$?get_MessageDrain@CBaseControlWindow@@UEAAJPEA_J@Z
pdata	ENDS
;	COMDAT xdata
xdata	SEGMENT
$unwind$?get_MessageDrain@CBaseControlWindow@@UEAAJPEA_J@Z DD 022301H
	DD	0700b320fH
; Function compile flags: /Odtp /RTCsu
xdata	ENDS
;	COMDAT ?get_MessageDrain@CBaseControlWindow@@UEAAJPEA_J@Z
_TEXT	SEGMENT
this$ = 48
Drain$ = 56
?get_MessageDrain@CBaseControlWindow@@UEAAJPEA_J@Z PROC	; CBaseControlWindow::get_MessageDrain, COMDAT
; Line 727
$LN8:
	mov	QWORD PTR [rsp+16], rdx
	mov	QWORD PTR [rsp+8], rcx
	push	rdi
	sub	rsp, 32					; 00000020H
	mov	rdi, rsp
	mov	ecx, 8
	mov	eax, -858993460				; ccccccccH
	rep stosd
	mov	rcx, QWORD PTR [rsp+48]
; Line 728
	cmp	QWORD PTR Drain$[rsp], 0
	jne	SHORT $LN5@get_Messag
	mov	eax, -2147467261			; ffffffff80004003H
	jmp	SHORT $LN6@get_Messag
$LN5@get_Messag:
; Line 729
	mov	rax, QWORD PTR this$[rsp]
	cmp	QWORD PTR [rax+280], 0
	jne	SHORT $LN4@get_Messag
	lea	rax, OFFSET FLAT:$SG82703
	test	rax, rax
	je	SHORT $LN3@get_Messag
	mov	r8d, 729				; 000002d9H
	lea	rdx, OFFSET FLAT:$SG82704
	lea	rcx, OFFSET FLAT:$SG82705
	call	?DbgAssert@@YAXPEB_W0H@Z		; DbgAssert
$LN3@get_Messag:
	jmp	SHORT $LN2@get_Messag
$LN4@get_Messag:
	mov	rax, QWORD PTR this$[rsp]
	mov	rcx, QWORD PTR [rax+280]
	call	?IsConnected@CBasePin@@QEAAHXZ		; CBasePin::IsConnected
	test	eax, eax
	jne	SHORT $LN1@get_Messag
	mov	eax, -2147220983			; ffffffff80040209H
	jmp	SHORT $LN6@get_Messag
$LN1@get_Messag:
$LN2@get_Messag:
; Line 730
	mov	rax, QWORD PTR Drain$[rsp]
	mov	rcx, QWORD PTR this$[rsp]
	mov	rcx, QWORD PTR [rcx+312]
	mov	QWORD PTR [rax], rcx
; Line 731
	xor	eax, eax
$LN6@get_Messag:
; Line 732
	add	rsp, 32					; 00000020H
	pop	rdi
	ret	0
?get_MessageDrain@CBaseControlWindow@@UEAAJPEA_J@Z ENDP	; CBaseControlWindow::get_MessageDrain
_TEXT	ENDS
;	COMDAT pdata
pdata	SEGMENT
$pdata$?NotifyOwnerMessage@CBaseControlWindow@@UEAAJ_JJ00@Z DD imagerel $LN13
	DD	imagerel $LN13+281
	DD	imagerel $unwind$?NotifyOwnerMessage@CBaseControlWindow@@UEAAJ_JJ00@Z
pdata	ENDS
;	COMDAT xdata
xdata	SEGMENT
$unwind$?NotifyOwnerMessage@CBaseControlWindow@@UEAAJ_JJ00@Z DD 022d01H
	DD	070155219H
; Function compile flags: /Odtp /RTCsu
xdata	ENDS
;	COMDAT ?NotifyOwnerMessage@CBaseControlWindow@@UEAAJ_JJ00@Z
_TEXT	SEGMENT
tv74 = 32
this$ = 64
hwnd$ = 72
uMsg$ = 80
wParam$ = 88
lParam$ = 96
?NotifyOwnerMessage@CBaseControlWindow@@UEAAJ_JJ00@Z PROC ; CBaseControlWindow::NotifyOwnerMessage, COMDAT
; Line 747
$LN13:
	mov	QWORD PTR [rsp+32], r9
	mov	DWORD PTR [rsp+24], r8d
	mov	QWORD PTR [rsp+16], rdx
	mov	QWORD PTR [rsp+8], rcx
	push	rdi
	sub	rsp, 48					; 00000030H
	mov	rdi, rsp
	mov	ecx, 12
	mov	eax, -858993460				; ccccccccH
	rep stosd
	mov	rcx, QWORD PTR [rsp+64]
; Line 748
	mov	rax, QWORD PTR this$[rsp]
	cmp	QWORD PTR [rax+280], 0
	jne	SHORT $LN9@NotifyOwne
	lea	rax, OFFSET FLAT:$SG82719
	test	rax, rax
	je	SHORT $LN8@NotifyOwne
	mov	r8d, 748				; 000002ecH
	lea	rdx, OFFSET FLAT:$SG82720
	lea	rcx, OFFSET FLAT:$SG82721
	call	?DbgAssert@@YAXPEB_W0H@Z		; DbgAssert
$LN8@NotifyOwne:
	jmp	SHORT $LN7@NotifyOwne
$LN9@NotifyOwne:
	mov	rax, QWORD PTR this$[rsp]
	mov	rcx, QWORD PTR [rax+280]
	call	?IsConnected@CBasePin@@QEAAHXZ		; CBasePin::IsConnected
	test	eax, eax
	jne	SHORT $LN6@NotifyOwne
	mov	eax, -2147220983			; ffffffff80040209H
	jmp	$LN10@NotifyOwne
$LN6@NotifyOwne:
$LN7@NotifyOwne:
; Line 752
	mov	eax, DWORD PTR uMsg$[rsp]
	mov	DWORD PTR tv74[rsp], eax
	cmp	DWORD PTR tv74[rsp], 28
	jg	SHORT $LN12@NotifyOwne
	cmp	DWORD PTR tv74[rsp], 27
	jge	SHORT $LN3@NotifyOwne
	cmp	DWORD PTR tv74[rsp], 3
	je	SHORT $LN1@NotifyOwne
	cmp	DWORD PTR tv74[rsp], 21
	je	SHORT $LN3@NotifyOwne
	jmp	SHORT $LN4@NotifyOwne
$LN12@NotifyOwne:
	cmp	DWORD PTR tv74[rsp], 126		; 0000007eH
	je	SHORT $LN3@NotifyOwne
	cmp	DWORD PTR tv74[rsp], 782		; 0000030eH
	jle	SHORT $LN4@NotifyOwne
	cmp	DWORD PTR tv74[rsp], 785		; 00000311H
	jle	SHORT $LN3@NotifyOwne
	jmp	SHORT $LN4@NotifyOwne
$LN3@NotifyOwne:
; Line 764
	mov	rax, QWORD PTR this$[rsp]
	cmp	QWORD PTR [rax+304], 0
	jne	SHORT $LN2@NotifyOwne
; Line 765
	xor	eax, eax
	jmp	SHORT $LN10@NotifyOwne
$LN2@NotifyOwne:
; Line 767
	mov	r9, QWORD PTR lParam$[rsp]
	mov	r8, QWORD PTR wParam$[rsp]
	mov	edx, DWORD PTR uMsg$[rsp]
	mov	rax, QWORD PTR this$[rsp]
	mov	rcx, QWORD PTR [rax+64]
	call	QWORD PTR __imp_SendMessageW
; Line 768
	jmp	SHORT $LN4@NotifyOwne
$LN1@NotifyOwne:
; Line 775
	xor	r9d, r9d
	xor	r8d, r8d
	mov	edx, 15
	mov	rax, QWORD PTR this$[rsp]
	mov	rcx, QWORD PTR [rax+64]
	call	QWORD PTR __imp_PostMessageW
$LN4@NotifyOwne:
; Line 778
	xor	eax, eax
$LN10@NotifyOwne:
; Line 779
	add	rsp, 48					; 00000030H
	pop	rdi
	ret	0
?NotifyOwnerMessage@CBaseControlWindow@@UEAAJ_JJ00@Z ENDP ; CBaseControlWindow::NotifyOwnerMessage
_TEXT	ENDS
EXTRN	?DoSetWindowForeground@CBaseWindow@@QEAAXH@Z:PROC ; CBaseWindow::DoSetWindowForeground
;	COMDAT pdata
pdata	SEGMENT
$pdata$?SetWindowForeground@CBaseControlWindow@@UEAAJJ@Z DD imagerel $LN11
	DD	imagerel $LN11+202
	DD	imagerel $unwind$?SetWindowForeground@CBaseControlWindow@@UEAAJJ@Z
pdata	ENDS
;	COMDAT xdata
xdata	SEGMENT
$unwind$?SetWindowForeground@CBaseControlWindow@@UEAAJJ@Z DD 022201H
	DD	0700a520eH
; Function compile flags: /Odtp /RTCsu
xdata	ENDS
;	COMDAT ?SetWindowForeground@CBaseControlWindow@@UEAAJJ@Z
_TEXT	SEGMENT
bFocus$ = 32
tv77 = 36
this$ = 64
Focus$ = 72
?SetWindowForeground@CBaseControlWindow@@UEAAJJ@Z PROC	; CBaseControlWindow::SetWindowForeground, COMDAT
; Line 787
$LN11:
	mov	DWORD PTR [rsp+16], edx
	mov	QWORD PTR [rsp+8], rcx
	push	rdi
	sub	rsp, 48					; 00000030H
	mov	rdi, rsp
	mov	ecx, 12
	mov	eax, -858993460				; ccccccccH
	rep stosd
	mov	rcx, QWORD PTR [rsp+64]
; Line 790
	cmp	DWORD PTR Focus$[rsp], -1
	je	SHORT $LN6@SetWindowF
; Line 791
	cmp	DWORD PTR Focus$[rsp], 0
	je	SHORT $LN5@SetWindowF
; Line 792
	mov	eax, -2147024809			; ffffffff80070057H
	jmp	$LN7@SetWindowF
$LN5@SetWindowF:
$LN6@SetWindowF:
; Line 798
	mov	rax, QWORD PTR this$[rsp]
	cmp	QWORD PTR [rax+280], 0
	jne	SHORT $LN4@SetWindowF
	lea	rax, OFFSET FLAT:$SG82743
	test	rax, rax
	je	SHORT $LN3@SetWindowF
	mov	r8d, 798				; 0000031eH
	lea	rdx, OFFSET FLAT:$SG82744
	lea	rcx, OFFSET FLAT:$SG82745
	call	?DbgAssert@@YAXPEB_W0H@Z		; DbgAssert
$LN3@SetWindowF:
	jmp	SHORT $LN2@SetWindowF
$LN4@SetWindowF:
	mov	rax, QWORD PTR this$[rsp]
	mov	rcx, QWORD PTR [rax+280]
	call	?IsConnected@CBasePin@@QEAAHXZ		; CBasePin::IsConnected
	test	eax, eax
	jne	SHORT $LN1@SetWindowF
	mov	eax, -2147220983			; ffffffff80040209H
	jmp	SHORT $LN7@SetWindowF
$LN1@SetWindowF:
$LN2@SetWindowF:
; Line 799
	cmp	DWORD PTR Focus$[rsp], -1
	jne	SHORT $LN9@SetWindowF
	mov	DWORD PTR tv77[rsp], 1
	jmp	SHORT $LN10@SetWindowF
$LN9@SetWindowF:
	mov	DWORD PTR tv77[rsp], 0
$LN10@SetWindowF:
	mov	eax, DWORD PTR tv77[rsp]
	mov	DWORD PTR bFocus$[rsp], eax
; Line 800
	mov	rax, QWORD PTR this$[rsp]
	add	rax, 48					; 00000030H
	mov	edx, DWORD PTR bFocus$[rsp]
	mov	rcx, rax
	call	?DoSetWindowForeground@CBaseWindow@@QEAAXH@Z ; CBaseWindow::DoSetWindowForeground
; Line 802
	xor	eax, eax
$LN7@SetWindowF:
; Line 803
	add	rsp, 48					; 00000030H
	pop	rdi
	ret	0
?SetWindowForeground@CBaseControlWindow@@UEAAJJ@Z ENDP	; CBaseControlWindow::SetWindowForeground
_TEXT	ENDS
EXTRN	__imp_GetLastError:PROC
EXTRN	__imp_IsWindow:PROC
;	COMDAT pdata
pdata	SEGMENT
$pdata$?SetWindowPosition@CBaseControlWindow@@UEAAJJJJJ@Z DD imagerel $LN10
	DD	imagerel $LN10+324
	DD	imagerel $unwind$?SetWindowPosition@CBaseControlWindow@@UEAAJJJJJ@Z
pdata	ENDS
;	COMDAT xdata
xdata	SEGMENT
$unwind$?SetWindowPosition@CBaseControlWindow@@UEAAJJJJJ@Z DD 022c01H
	DD	070149218H
; Function compile flags: /Odtp /RTCsu
xdata	ENDS
;	COMDAT ?SetWindowPosition@CBaseControlWindow@@UEAAJJJJJ@Z
_TEXT	SEGMENT
bSuccess$ = 64
WindowFlags$ = 68
this$ = 96
Left$ = 104
Top$ = 112
Width$ = 120
Height$ = 128
?SetWindowPosition@CBaseControlWindow@@UEAAJJJJJ@Z PROC	; CBaseControlWindow::SetWindowPosition, COMDAT
; Line 813
$LN10:
	mov	DWORD PTR [rsp+32], r9d
	mov	DWORD PTR [rsp+24], r8d
	mov	DWORD PTR [rsp+16], edx
	mov	QWORD PTR [rsp+8], rcx
	push	rdi
	sub	rsp, 80					; 00000050H
	mov	rdi, rsp
	mov	ecx, 20
	mov	eax, -858993460				; ccccccccH
	rep stosd
	mov	rcx, QWORD PTR [rsp+96]
; Line 814
	mov	rax, QWORD PTR this$[rsp]
	cmp	QWORD PTR [rax+280], 0
	jne	SHORT $LN7@SetWindowP
	lea	rax, OFFSET FLAT:$SG82759
	test	rax, rax
	je	SHORT $LN6@SetWindowP
	mov	r8d, 814				; 0000032eH
	lea	rdx, OFFSET FLAT:$SG82760
	lea	rcx, OFFSET FLAT:$SG82761
	call	?DbgAssert@@YAXPEB_W0H@Z		; DbgAssert
$LN6@SetWindowP:
	jmp	SHORT $LN5@SetWindowP
$LN7@SetWindowP:
	mov	rax, QWORD PTR this$[rsp]
	mov	rcx, QWORD PTR [rax+280]
	call	?IsConnected@CBasePin@@QEAAHXZ		; CBasePin::IsConnected
	test	eax, eax
	jne	SHORT $LN4@SetWindowP
	mov	eax, -2147220983			; ffffffff80040209H
	jmp	$LN8@SetWindowP
$LN4@SetWindowP:
$LN5@SetWindowP:
; Line 818
	mov	DWORD PTR WindowFlags$[rsp], 52		; 00000034H
; Line 820
	mov	rax, QWORD PTR this$[rsp]
	mov	rcx, QWORD PTR [rax+64]
	call	QWORD PTR __imp_IsWindow
	test	eax, eax
	jne	SHORT $LN3@SetWindowP
	mov	r8d, 820				; 00000334H
	lea	rdx, OFFSET FLAT:$SG82768
	lea	rcx, OFFSET FLAT:$SG82769
	call	?DbgAssert@@YAXPEB_W0H@Z		; DbgAssert
$LN3@SetWindowP:
; Line 827
	mov	eax, DWORD PTR WindowFlags$[rsp]
	mov	DWORD PTR [rsp+48], eax
	mov	eax, DWORD PTR Height$[rsp]
	mov	DWORD PTR [rsp+40], eax
	mov	eax, DWORD PTR Width$[rsp]
	mov	DWORD PTR [rsp+32], eax
	mov	r9d, DWORD PTR Top$[rsp]
	mov	r8d, DWORD PTR Left$[rsp]
	xor	edx, edx
	mov	rax, QWORD PTR this$[rsp]
	mov	rcx, QWORD PTR [rax+64]
	call	QWORD PTR __imp_SetWindowPos
	mov	DWORD PTR bSuccess$[rsp], eax
; Line 828
	cmp	DWORD PTR bSuccess$[rsp], 0
	jne	SHORT $LN2@SetWindowP
	mov	r8d, 828				; 0000033cH
	lea	rdx, OFFSET FLAT:$SG82772
	lea	rcx, OFFSET FLAT:$SG82773
	call	?DbgAssert@@YAXPEB_W0H@Z		; DbgAssert
$LN2@SetWindowP:
; Line 830
	call	QWORD PTR __imp_GetLastError
	mov	r9d, eax
	lea	r8, OFFSET FLAT:$SG82774
	mov	edx, 1
	mov	ecx, 2
	call	?DbgLogInfo@@YAXKKPEB_WZZ		; DbgLogInfo
; Line 832
	cmp	DWORD PTR bSuccess$[rsp], 0
	jne	SHORT $LN1@SetWindowP
; Line 833
	mov	eax, -2147024809			; ffffffff80070057H
	jmp	SHORT $LN8@SetWindowP
$LN1@SetWindowP:
; Line 835
	xor	eax, eax
$LN8@SetWindowP:
; Line 836
	add	rsp, 80					; 00000050H
	pop	rdi
	ret	0
?SetWindowPosition@CBaseControlWindow@@UEAAJJJJJ@Z ENDP	; CBaseControlWindow::SetWindowPosition
_TEXT	ENDS
PUBLIC	__$ArrayPad$
;	COMDAT pdata
pdata	SEGMENT
$pdata$?GetWindowPosition@CBaseControlWindow@@UEAAJPEAJ000@Z DD imagerel $LN12
	DD	imagerel $LN12+383
	DD	imagerel $unwind$?GetWindowPosition@CBaseControlWindow@@UEAAJPEAJ000@Z
pdata	ENDS
;	COMDAT xdata
xdata	SEGMENT
$unwind$?GetWindowPosition@CBaseControlWindow@@UEAAJPEAJ000@Z DD 023c19H
	DD	07015b219H
	DD	imagerel __GSHandlerCheck
	DD	050H
xdata	ENDS
;	COMDAT CONST
CONST	SEGMENT
?GetWindowPosition@CBaseControlWindow@@UEAAJPEAJ000@Z$rtcName$0 DB 057H ; CBaseControlWindow::GetWindowPosition
	DB	069H
	DB	06eH
	DB	064H
	DB	06fH
	DB	077H
	DB	052H
	DB	065H
	DB	063H
	DB	074H
	DB	00H
	ORG $+5
?GetWindowPosition@CBaseControlWindow@@UEAAJPEAJ000@Z$rtcVarDesc DD 028H ; CBaseControlWindow::GetWindowPosition
	DD	010H
	DQ	FLAT:?GetWindowPosition@CBaseControlWindow@@UEAAJPEAJ000@Z$rtcName$0
	ORG $+48
?GetWindowPosition@CBaseControlWindow@@UEAAJPEAJ000@Z$rtcFrameData DD 01H ; CBaseControlWindow::GetWindowPosition
	DD	00H
	DQ	FLAT:?GetWindowPosition@CBaseControlWindow@@UEAAJPEAJ000@Z$rtcVarDesc
; Function compile flags: /Odtp /RTCsu
CONST	ENDS
;	COMDAT ?GetWindowPosition@CBaseControlWindow@@UEAAJPEAJ000@Z
_TEXT	SEGMENT
WindowRect$ = 40
__$ArrayPad$ = 80
this$ = 112
pLeft$ = 120
pTop$ = 128
pWidth$ = 136
pHeight$ = 144
?GetWindowPosition@CBaseControlWindow@@UEAAJPEAJ000@Z PROC ; CBaseControlWindow::GetWindowPosition, COMDAT
; Line 846
$LN12:
	mov	QWORD PTR [rsp+32], r9
	mov	QWORD PTR [rsp+24], r8
	mov	QWORD PTR [rsp+16], rdx
	mov	QWORD PTR [rsp+8], rcx
	push	rdi
	sub	rsp, 96					; 00000060H
	mov	rdi, rsp
	mov	ecx, 24
	mov	eax, -858993460				; ccccccccH
	rep stosd
	mov	rcx, QWORD PTR [rsp+112]
	mov	rax, QWORD PTR __security_cookie
	xor	rax, rsp
	mov	QWORD PTR __$ArrayPad$[rsp], rax
; Line 849
	cmp	QWORD PTR pLeft$[rsp], 0
	jne	SHORT $LN9@GetWindowP
	mov	eax, -2147467261			; ffffffff80004003H
	jmp	$LN10@GetWindowP
$LN9@GetWindowP:
; Line 850
	cmp	QWORD PTR pTop$[rsp], 0
	jne	SHORT $LN8@GetWindowP
	mov	eax, -2147467261			; ffffffff80004003H
	jmp	$LN10@GetWindowP
$LN8@GetWindowP:
; Line 851
	cmp	QWORD PTR pWidth$[rsp], 0
	jne	SHORT $LN7@GetWindowP
	mov	eax, -2147467261			; ffffffff80004003H
	jmp	$LN10@GetWindowP
$LN7@GetWindowP:
; Line 852
	cmp	QWORD PTR pHeight$[rsp], 0
	jne	SHORT $LN6@GetWindowP
	mov	eax, -2147467261			; ffffffff80004003H
	jmp	$LN10@GetWindowP
$LN6@GetWindowP:
; Line 853
	mov	rax, QWORD PTR this$[rsp]
	cmp	QWORD PTR [rax+280], 0
	jne	SHORT $LN5@GetWindowP
	lea	rax, OFFSET FLAT:$SG82794
	test	rax, rax
	je	SHORT $LN4@GetWindowP
	mov	r8d, 853				; 00000355H
	lea	rdx, OFFSET FLAT:$SG82795
	lea	rcx, OFFSET FLAT:$SG82796
	call	?DbgAssert@@YAXPEB_W0H@Z		; DbgAssert
$LN4@GetWindowP:
	jmp	SHORT $LN3@GetWindowP
$LN5@GetWindowP:
	mov	rax, QWORD PTR this$[rsp]
	mov	rcx, QWORD PTR [rax+280]
	call	?IsConnected@CBasePin@@QEAAHXZ		; CBasePin::IsConnected
	test	eax, eax
	jne	SHORT $LN2@GetWindowP
	mov	eax, -2147220983			; ffffffff80040209H
	jmp	SHORT $LN10@GetWindowP
$LN2@GetWindowP:
$LN3@GetWindowP:
; Line 858
	lea	rdx, QWORD PTR WindowRect$[rsp]
	mov	rax, QWORD PTR this$[rsp]
	mov	rcx, QWORD PTR [rax+64]
	call	QWORD PTR __imp_GetWindowRect
	test	eax, eax
	jne	SHORT $LN1@GetWindowP
	mov	r8d, 858				; 0000035aH
	lea	rdx, OFFSET FLAT:$SG82802
	lea	rcx, OFFSET FLAT:$SG82803
	call	?DbgAssert@@YAXPEB_W0H@Z		; DbgAssert
$LN1@GetWindowP:
; Line 862
	mov	rax, QWORD PTR pLeft$[rsp]
	mov	ecx, DWORD PTR WindowRect$[rsp]
	mov	DWORD PTR [rax], ecx
; Line 863
	mov	rax, QWORD PTR pTop$[rsp]
	mov	ecx, DWORD PTR WindowRect$[rsp+4]
	mov	DWORD PTR [rax], ecx
; Line 864
	mov	eax, DWORD PTR WindowRect$[rsp]
	mov	ecx, DWORD PTR WindowRect$[rsp+8]
	sub	ecx, eax
	mov	eax, ecx
	mov	rcx, QWORD PTR pWidth$[rsp]
	mov	DWORD PTR [rcx], eax
; Line 865
	mov	eax, DWORD PTR WindowRect$[rsp+4]
	mov	ecx, DWORD PTR WindowRect$[rsp+12]
	sub	ecx, eax
	mov	eax, ecx
	mov	rcx, QWORD PTR pHeight$[rsp]
	mov	DWORD PTR [rcx], eax
; Line 867
	xor	eax, eax
$LN10@GetWindowP:
; Line 868
	mov	rdi, rax
	mov	rcx, rsp
	lea	rdx, OFFSET FLAT:?GetWindowPosition@CBaseControlWindow@@UEAAJPEAJ000@Z$rtcFrameData
	call	_RTC_CheckStackVars
	mov	rax, rdi
	mov	rcx, QWORD PTR __$ArrayPad$[rsp]
	xor	rcx, rsp
	call	__security_check_cookie
	add	rsp, 96					; 00000060H
	pop	rdi
	ret	0
?GetWindowPosition@CBaseControlWindow@@UEAAJPEAJ000@Z ENDP ; CBaseControlWindow::GetWindowPosition
_TEXT	ENDS
PUBLIC	__$ArrayPad$
EXTRN	__imp_SystemParametersInfoW:PROC
EXTRN	__imp_GetWindowPlacement:PROC
;	COMDAT pdata
pdata	SEGMENT
$pdata$?GetRestorePosition@CBaseControlWindow@@UEAAJPEAJ000@Z DD imagerel $LN14
	DD	imagerel $LN14+537
	DD	imagerel $unwind$?GetRestorePosition@CBaseControlWindow@@UEAAJPEAJ000@Z
pdata	ENDS
;	COMDAT xdata
xdata	SEGMENT
$unwind$?GetRestorePosition@CBaseControlWindow@@UEAAJPEAJ000@Z DD 034519H
	DD	016011cH
	DD	07015H
	DD	imagerel __GSHandlerCheck
	DD	0a0H
xdata	ENDS
;	COMDAT CONST
CONST	SEGMENT
?GetRestorePosition@CBaseControlWindow@@UEAAJPEAJ000@Z$rtcName$0 DB 050H ; CBaseControlWindow::GetRestorePosition
	DB	06cH
	DB	061H
	DB	063H
	DB	065H
	DB	00H
	ORG $+2
?GetRestorePosition@CBaseControlWindow@@UEAAJPEAJ000@Z$rtcName$1 DB 057H ; CBaseControlWindow::GetRestorePosition
	DB	06fH
	DB	072H
	DB	06bH
	DB	041H
	DB	072H
	DB	065H
	DB	061H
	DB	00H
	ORG $+15
?GetRestorePosition@CBaseControlWindow@@UEAAJPEAJ000@Z$rtcVarDesc DD 078H ; CBaseControlWindow::GetRestorePosition
	DD	010H
	DQ	FLAT:?GetRestorePosition@CBaseControlWindow@@UEAAJPEAJ000@Z$rtcName$1
	DD	028H
	DD	02cH
	DQ	FLAT:?GetRestorePosition@CBaseControlWindow@@UEAAJPEAJ000@Z$rtcName$0
	ORG $+96
?GetRestorePosition@CBaseControlWindow@@UEAAJPEAJ000@Z$rtcFrameData DD 02H ; CBaseControlWindow::GetRestorePosition
	DD	00H
	DQ	FLAT:?GetRestorePosition@CBaseControlWindow@@UEAAJPEAJ000@Z$rtcVarDesc
; Function compile flags: /Odtp /RTCsu
CONST	ENDS
;	COMDAT ?GetRestorePosition@CBaseControlWindow@@UEAAJPEAJ000@Z
_TEXT	SEGMENT
Place$ = 40
WorkArea$ = 120
__$ArrayPad$ = 160
this$ = 192
pLeft$ = 200
pTop$ = 208
pWidth$ = 216
pHeight$ = 224
?GetRestorePosition@CBaseControlWindow@@UEAAJPEAJ000@Z PROC ; CBaseControlWindow::GetRestorePosition, COMDAT
; Line 879
$LN14:
	mov	QWORD PTR [rsp+32], r9
	mov	QWORD PTR [rsp+24], r8
	mov	QWORD PTR [rsp+16], rdx
	mov	QWORD PTR [rsp+8], rcx
	push	rdi
	sub	rsp, 176				; 000000b0H
	mov	rdi, rsp
	mov	ecx, 44					; 0000002cH
	mov	eax, -858993460				; ccccccccH
	rep stosd
	mov	rcx, QWORD PTR [rsp+192]
	mov	rax, QWORD PTR __security_cookie
	xor	rax, rsp
	mov	QWORD PTR __$ArrayPad$[rsp], rax
; Line 882
	cmp	QWORD PTR pLeft$[rsp], 0
	jne	SHORT $LN11@GetRestore
	mov	eax, -2147467261			; ffffffff80004003H
	jmp	$LN12@GetRestore
$LN11@GetRestore:
; Line 883
	cmp	QWORD PTR pTop$[rsp], 0
	jne	SHORT $LN10@GetRestore
	mov	eax, -2147467261			; ffffffff80004003H
	jmp	$LN12@GetRestore
$LN10@GetRestore:
; Line 884
	cmp	QWORD PTR pWidth$[rsp], 0
	jne	SHORT $LN9@GetRestore
	mov	eax, -2147467261			; ffffffff80004003H
	jmp	$LN12@GetRestore
$LN9@GetRestore:
; Line 885
	cmp	QWORD PTR pHeight$[rsp], 0
	jne	SHORT $LN8@GetRestore
	mov	eax, -2147467261			; ffffffff80004003H
	jmp	$LN12@GetRestore
$LN8@GetRestore:
; Line 886
	mov	rax, QWORD PTR this$[rsp]
	cmp	QWORD PTR [rax+280], 0
	jne	SHORT $LN7@GetRestore
	lea	rax, OFFSET FLAT:$SG82821
	test	rax, rax
	je	SHORT $LN6@GetRestore
	mov	r8d, 886				; 00000376H
	lea	rdx, OFFSET FLAT:$SG82822
	lea	rcx, OFFSET FLAT:$SG82823
	call	?DbgAssert@@YAXPEB_W0H@Z		; DbgAssert
$LN6@GetRestore:
	jmp	SHORT $LN5@GetRestore
$LN7@GetRestore:
	mov	rax, QWORD PTR this$[rsp]
	mov	rcx, QWORD PTR [rax+280]
	call	?IsConnected@CBasePin@@QEAAHXZ		; CBasePin::IsConnected
	test	eax, eax
	jne	SHORT $LN4@GetRestore
	mov	eax, -2147220983			; ffffffff80040209H
	jmp	$LN12@GetRestore
$LN4@GetRestore:
$LN5@GetRestore:
; Line 891
	mov	DWORD PTR Place$[rsp], 44		; 0000002cH
; Line 892
	lea	rdx, QWORD PTR Place$[rsp]
	mov	rax, QWORD PTR this$[rsp]
	mov	rcx, QWORD PTR [rax+64]
	call	QWORD PTR __imp_GetWindowPlacement
	test	eax, eax
	jne	SHORT $LN3@GetRestore
	mov	r8d, 892				; 0000037cH
	lea	rdx, OFFSET FLAT:$SG82830
	lea	rcx, OFFSET FLAT:$SG82831
	call	?DbgAssert@@YAXPEB_W0H@Z		; DbgAssert
$LN3@GetRestore:
; Line 898
	xor	r9d, r9d
	lea	r8, QWORD PTR WorkArea$[rsp]
	xor	edx, edx
	mov	ecx, 48					; 00000030H
	call	QWORD PTR __imp_SystemParametersInfoW
	cmp	eax, 1
	jne	SHORT $LN2@GetRestore
; Line 899
	mov	rax, QWORD PTR this$[rsp]
	mov	rcx, QWORD PTR [rax+64]
	call	QWORD PTR __imp_GetParent
	test	rax, rax
	jne	SHORT $LN1@GetRestore
; Line 900
	mov	eax, DWORD PTR WorkArea$[rsp+4]
	mov	ecx, DWORD PTR Place$[rsp+32]
	add	ecx, eax
	mov	eax, ecx
	mov	DWORD PTR Place$[rsp+32], eax
; Line 901
	mov	eax, DWORD PTR WorkArea$[rsp+4]
	mov	ecx, DWORD PTR Place$[rsp+40]
	add	ecx, eax
	mov	eax, ecx
	mov	DWORD PTR Place$[rsp+40], eax
; Line 902
	mov	eax, DWORD PTR WorkArea$[rsp]
	mov	ecx, DWORD PTR Place$[rsp+28]
	add	ecx, eax
	mov	eax, ecx
	mov	DWORD PTR Place$[rsp+28], eax
; Line 903
	mov	eax, DWORD PTR WorkArea$[rsp]
	mov	ecx, DWORD PTR Place$[rsp+36]
	add	ecx, eax
	mov	eax, ecx
	mov	DWORD PTR Place$[rsp+36], eax
$LN1@GetRestore:
$LN2@GetRestore:
; Line 909
	mov	rax, QWORD PTR pLeft$[rsp]
	mov	ecx, DWORD PTR Place$[rsp+28]
	mov	DWORD PTR [rax], ecx
; Line 910
	mov	rax, QWORD PTR pTop$[rsp]
	mov	ecx, DWORD PTR Place$[rsp+32]
	mov	DWORD PTR [rax], ecx
; Line 911
	mov	eax, DWORD PTR Place$[rsp+28]
	mov	ecx, DWORD PTR Place$[rsp+36]
	sub	ecx, eax
	mov	eax, ecx
	mov	rcx, QWORD PTR pWidth$[rsp]
	mov	DWORD PTR [rcx], eax
; Line 912
	mov	eax, DWORD PTR Place$[rsp+32]
	mov	ecx, DWORD PTR Place$[rsp+40]
	sub	ecx, eax
	mov	eax, ecx
	mov	rcx, QWORD PTR pHeight$[rsp]
	mov	DWORD PTR [rcx], eax
; Line 914
	xor	eax, eax
$LN12@GetRestore:
; Line 915
	mov	rdi, rax
	mov	rcx, rsp
	lea	rdx, OFFSET FLAT:?GetRestorePosition@CBaseControlWindow@@UEAAJPEAJ000@Z$rtcFrameData
	call	_RTC_CheckStackVars
	mov	rax, rdi
	mov	rcx, QWORD PTR __$ArrayPad$[rsp]
	xor	rcx, rsp
	call	__security_check_cookie
	add	rsp, 176				; 000000b0H
	pop	rdi
	ret	0
?GetRestorePosition@CBaseControlWindow@@UEAAJPEAJ000@Z ENDP ; CBaseControlWindow::GetRestorePosition
_TEXT	ENDS
;	COMDAT pdata
pdata	SEGMENT
$pdata$?get_BorderColor@CBaseControlWindow@@UEAAJPEAJ@Z DD imagerel $LN8
	DD	imagerel $LN8+158
	DD	imagerel $unwind$?get_BorderColor@CBaseControlWindow@@UEAAJPEAJ@Z
pdata	ENDS
;	COMDAT xdata
xdata	SEGMENT
$unwind$?get_BorderColor@CBaseControlWindow@@UEAAJPEAJ@Z DD 022301H
	DD	0700b320fH
; Function compile flags: /Odtp /RTCsu
xdata	ENDS
;	COMDAT ?get_BorderColor@CBaseControlWindow@@UEAAJPEAJ@Z
_TEXT	SEGMENT
this$ = 48
Color$ = 56
?get_BorderColor@CBaseControlWindow@@UEAAJPEAJ@Z PROC	; CBaseControlWindow::get_BorderColor, COMDAT
; Line 924
$LN8:
	mov	QWORD PTR [rsp+16], rdx
	mov	QWORD PTR [rsp+8], rcx
	push	rdi
	sub	rsp, 32					; 00000020H
	mov	rdi, rsp
	mov	ecx, 8
	mov	eax, -858993460				; ccccccccH
	rep stosd
	mov	rcx, QWORD PTR [rsp+48]
; Line 925
	cmp	QWORD PTR Color$[rsp], 0
	jne	SHORT $LN5@get_Border
	mov	eax, -2147467261			; ffffffff80004003H
	jmp	SHORT $LN6@get_Border
$LN5@get_Border:
; Line 926
	mov	rax, QWORD PTR this$[rsp]
	cmp	QWORD PTR [rax+280], 0
	jne	SHORT $LN4@get_Border
	lea	rax, OFFSET FLAT:$SG82843
	test	rax, rax
	je	SHORT $LN3@get_Border
	mov	r8d, 926				; 0000039eH
	lea	rdx, OFFSET FLAT:$SG82844
	lea	rcx, OFFSET FLAT:$SG82845
	call	?DbgAssert@@YAXPEB_W0H@Z		; DbgAssert
$LN3@get_Border:
	jmp	SHORT $LN2@get_Border
$LN4@get_Border:
	mov	rax, QWORD PTR this$[rsp]
	mov	rcx, QWORD PTR [rax+280]
	call	?IsConnected@CBasePin@@QEAAHXZ		; CBasePin::IsConnected
	test	eax, eax
	jne	SHORT $LN1@get_Border
	mov	eax, -2147220983			; ffffffff80040209H
	jmp	SHORT $LN6@get_Border
$LN1@get_Border:
$LN2@get_Border:
; Line 927
	mov	rax, QWORD PTR Color$[rsp]
	mov	rcx, QWORD PTR this$[rsp]
	mov	ecx, DWORD PTR [rcx+296]
	mov	DWORD PTR [rax], ecx
; Line 928
	xor	eax, eax
$LN6@get_Border:
; Line 929
	add	rsp, 32					; 00000020H
	pop	rdi
	ret	0
?get_BorderColor@CBaseControlWindow@@UEAAJPEAJ@Z ENDP	; CBaseControlWindow::get_BorderColor
_TEXT	ENDS
;	COMDAT pdata
pdata	SEGMENT
$pdata$?put_BorderColor@CBaseControlWindow@@UEAAJJ@Z DD imagerel $LN7
	DD	imagerel $LN7+161
	DD	imagerel $unwind$?put_BorderColor@CBaseControlWindow@@UEAAJJ@Z
pdata	ENDS
;	COMDAT xdata
xdata	SEGMENT
$unwind$?put_BorderColor@CBaseControlWindow@@UEAAJJ@Z DD 022201H
	DD	0700a320eH
; Function compile flags: /Odtp /RTCsu
xdata	ENDS
;	COMDAT ?put_BorderColor@CBaseControlWindow@@UEAAJJ@Z
_TEXT	SEGMENT
this$ = 48
Color$ = 56
?put_BorderColor@CBaseControlWindow@@UEAAJJ@Z PROC	; CBaseControlWindow::put_BorderColor, COMDAT
; Line 935
$LN7:
	mov	DWORD PTR [rsp+16], edx
	mov	QWORD PTR [rsp+8], rcx
	push	rdi
	sub	rsp, 32					; 00000020H
	mov	rdi, rsp
	mov	ecx, 8
	mov	eax, -858993460				; ccccccccH
	rep stosd
	mov	rcx, QWORD PTR [rsp+48]
; Line 936
	mov	rax, QWORD PTR this$[rsp]
	cmp	QWORD PTR [rax+280], 0
	jne	SHORT $LN4@put_Border
	lea	rax, OFFSET FLAT:$SG82856
	test	rax, rax
	je	SHORT $LN3@put_Border
	mov	r8d, 936				; 000003a8H
	lea	rdx, OFFSET FLAT:$SG82857
	lea	rcx, OFFSET FLAT:$SG82858
	call	?DbgAssert@@YAXPEB_W0H@Z		; DbgAssert
$LN3@put_Border:
	jmp	SHORT $LN2@put_Border
$LN4@put_Border:
	mov	rax, QWORD PTR this$[rsp]
	mov	rcx, QWORD PTR [rax+280]
	call	?IsConnected@CBasePin@@QEAAHXZ		; CBasePin::IsConnected
	test	eax, eax
	jne	SHORT $LN1@put_Border
	mov	eax, -2147220983			; ffffffff80040209H
	jmp	SHORT $LN5@put_Border
$LN1@put_Border:
$LN2@put_Border:
; Line 940
	mov	rax, QWORD PTR this$[rsp]
	mov	ecx, DWORD PTR Color$[rsp]
	mov	DWORD PTR [rax+296], ecx
; Line 941
	mov	rax, QWORD PTR this$[rsp]
	add	rax, 48					; 00000030H
	mov	edx, 1
	mov	rcx, rax
	call	?PaintWindow@CBaseWindow@@QEAAXH@Z	; CBaseWindow::PaintWindow
; Line 942
	xor	eax, eax
$LN5@put_Border:
; Line 943
	add	rsp, 32					; 00000020H
	pop	rdi
	ret	0
?put_BorderColor@CBaseControlWindow@@UEAAJJ@Z ENDP	; CBaseControlWindow::put_BorderColor
_TEXT	ENDS
;	COMDAT pdata
pdata	SEGMENT
$pdata$?get_FullScreenMode@CBaseControlWindow@@UEAAJPEAJ@Z DD imagerel $LN8
	DD	imagerel $LN8+143
	DD	imagerel $unwind$?get_FullScreenMode@CBaseControlWindow@@UEAAJPEAJ@Z
pdata	ENDS
;	COMDAT xdata
xdata	SEGMENT
$unwind$?get_FullScreenMode@CBaseControlWindow@@UEAAJPEAJ@Z DD 022301H
	DD	0700b320fH
; Function compile flags: /Odtp /RTCsu
xdata	ENDS
;	COMDAT ?get_FullScreenMode@CBaseControlWindow@@UEAAJPEAJ@Z
_TEXT	SEGMENT
this$ = 48
FullScreenMode$ = 56
?get_FullScreenMode@CBaseControlWindow@@UEAAJPEAJ@Z PROC ; CBaseControlWindow::get_FullScreenMode, COMDAT
; Line 949
$LN8:
	mov	QWORD PTR [rsp+16], rdx
	mov	QWORD PTR [rsp+8], rcx
	push	rdi
	sub	rsp, 32					; 00000020H
	mov	rdi, rsp
	mov	ecx, 8
	mov	eax, -858993460				; ccccccccH
	rep stosd
	mov	rcx, QWORD PTR [rsp+48]
; Line 950
	mov	rax, QWORD PTR this$[rsp]
	cmp	QWORD PTR [rax+280], 0
	jne	SHORT $LN5@get_FullSc
	lea	rax, OFFSET FLAT:$SG82869
	test	rax, rax
	je	SHORT $LN4@get_FullSc
	mov	r8d, 950				; 000003b6H
	lea	rdx, OFFSET FLAT:$SG82870
	lea	rcx, OFFSET FLAT:$SG82871
	call	?DbgAssert@@YAXPEB_W0H@Z		; DbgAssert
$LN4@get_FullSc:
	jmp	SHORT $LN3@get_FullSc
$LN5@get_FullSc:
	mov	rax, QWORD PTR this$[rsp]
	mov	rcx, QWORD PTR [rax+280]
	call	?IsConnected@CBasePin@@QEAAHXZ		; CBasePin::IsConnected
	test	eax, eax
	jne	SHORT $LN2@get_FullSc
	mov	eax, -2147220983			; ffffffff80040209H
	jmp	SHORT $LN6@get_FullSc
$LN2@get_FullSc:
$LN3@get_FullSc:
; Line 951
	cmp	QWORD PTR FullScreenMode$[rsp], 0
	jne	SHORT $LN1@get_FullSc
	mov	eax, -2147467261			; ffffffff80004003H
	jmp	SHORT $LN6@get_FullSc
$LN1@get_FullSc:
; Line 952
	mov	eax, -2147467263			; ffffffff80004001H
$LN6@get_FullSc:
; Line 953
	add	rsp, 32					; 00000020H
	pop	rdi
	ret	0
?get_FullScreenMode@CBaseControlWindow@@UEAAJPEAJ@Z ENDP ; CBaseControlWindow::get_FullScreenMode
_TEXT	ENDS
;	COMDAT pdata
pdata	SEGMENT
$pdata$?put_FullScreenMode@CBaseControlWindow@@UEAAJJ@Z DD imagerel $LN3
	DD	imagerel $LN3+17
	DD	imagerel $unwind$?put_FullScreenMode@CBaseControlWindow@@UEAAJJ@Z
pdata	ENDS
;	COMDAT xdata
xdata	SEGMENT
$unwind$?put_FullScreenMode@CBaseControlWindow@@UEAAJJ@Z DD 010a01H
	DD	0700aH
; Function compile flags: /Odtp /RTCsu
xdata	ENDS
;	COMDAT ?put_FullScreenMode@CBaseControlWindow@@UEAAJJ@Z
_TEXT	SEGMENT
this$ = 16
FullScreenMode$ = 24
?put_FullScreenMode@CBaseControlWindow@@UEAAJJ@Z PROC	; CBaseControlWindow::put_FullScreenMode, COMDAT
; Line 959
$LN3:
	mov	DWORD PTR [rsp+16], edx
	mov	QWORD PTR [rsp+8], rcx
	push	rdi
; Line 960
	mov	eax, -2147467263			; ffffffff80004001H
; Line 961
	pop	rdi
	ret	0
?put_FullScreenMode@CBaseControlWindow@@UEAAJJ@Z ENDP	; CBaseControlWindow::put_FullScreenMode
_TEXT	ENDS
;	COMDAT pdata
pdata	SEGMENT
$pdata$?put_AutoShow@CBaseControlWindow@@UEAAJJ@Z DD imagerel $LN11
	DD	imagerel $LN11+185
	DD	imagerel $unwind$?put_AutoShow@CBaseControlWindow@@UEAAJJ@Z
pdata	ENDS
;	COMDAT xdata
xdata	SEGMENT
$unwind$?put_AutoShow@CBaseControlWindow@@UEAAJJ@Z DD 022201H
	DD	0700a520eH
; Function compile flags: /Odtp /RTCsu
xdata	ENDS
;	COMDAT ?put_AutoShow@CBaseControlWindow@@UEAAJJ@Z
_TEXT	SEGMENT
tv78 = 32
this$ = 64
AutoShow$ = 72
?put_AutoShow@CBaseControlWindow@@UEAAJJ@Z PROC		; CBaseControlWindow::put_AutoShow, COMDAT
; Line 970
$LN11:
	mov	DWORD PTR [rsp+16], edx
	mov	QWORD PTR [rsp+8], rcx
	push	rdi
	sub	rsp, 48					; 00000030H
	mov	rdi, rsp
	mov	ecx, 12
	mov	eax, -858993460				; ccccccccH
	rep stosd
	mov	rcx, QWORD PTR [rsp+64]
; Line 971
	mov	rax, QWORD PTR this$[rsp]
	cmp	QWORD PTR [rax+280], 0
	jne	SHORT $LN6@put_AutoSh
	lea	rax, OFFSET FLAT:$SG82889
	test	rax, rax
	je	SHORT $LN5@put_AutoSh
	mov	r8d, 971				; 000003cbH
	lea	rdx, OFFSET FLAT:$SG82890
	lea	rcx, OFFSET FLAT:$SG82891
	call	?DbgAssert@@YAXPEB_W0H@Z		; DbgAssert
$LN5@put_AutoSh:
	jmp	SHORT $LN4@put_AutoSh
$LN6@put_AutoSh:
	mov	rax, QWORD PTR this$[rsp]
	mov	rcx, QWORD PTR [rax+280]
	call	?IsConnected@CBasePin@@QEAAHXZ		; CBasePin::IsConnected
	test	eax, eax
	jne	SHORT $LN3@put_AutoSh
	mov	eax, -2147220983			; ffffffff80040209H
	jmp	SHORT $LN7@put_AutoSh
$LN3@put_AutoSh:
$LN4@put_AutoSh:
; Line 975
	cmp	DWORD PTR AutoShow$[rsp], -1
	je	SHORT $LN2@put_AutoSh
; Line 976
	cmp	DWORD PTR AutoShow$[rsp], 0
	je	SHORT $LN1@put_AutoSh
; Line 977
	mov	eax, -2147024809			; ffffffff80070057H
	jmp	SHORT $LN7@put_AutoSh
$LN1@put_AutoSh:
$LN2@put_AutoSh:
; Line 981
	cmp	DWORD PTR AutoShow$[rsp], -1
	jne	SHORT $LN9@put_AutoSh
	mov	DWORD PTR tv78[rsp], 1
	jmp	SHORT $LN10@put_AutoSh
$LN9@put_AutoSh:
	mov	DWORD PTR tv78[rsp], 0
$LN10@put_AutoSh:
	mov	rax, QWORD PTR this$[rsp]
	mov	ecx, DWORD PTR tv78[rsp]
	mov	DWORD PTR [rax+300], ecx
; Line 982
	xor	eax, eax
$LN7@put_AutoSh:
; Line 983
	add	rsp, 48					; 00000030H
	pop	rdi
	ret	0
?put_AutoShow@CBaseControlWindow@@UEAAJJ@Z ENDP		; CBaseControlWindow::put_AutoShow
_TEXT	ENDS
;	COMDAT pdata
pdata	SEGMENT
$pdata$?get_AutoShow@CBaseControlWindow@@UEAAJPEAJ@Z DD imagerel $LN10
	DD	imagerel $LN10+183
	DD	imagerel $unwind$?get_AutoShow@CBaseControlWindow@@UEAAJPEAJ@Z
pdata	ENDS
;	COMDAT xdata
xdata	SEGMENT
$unwind$?get_AutoShow@CBaseControlWindow@@UEAAJPEAJ@Z DD 022301H
	DD	0700b520fH
; Function compile flags: /Odtp /RTCsu
xdata	ENDS
;	COMDAT ?get_AutoShow@CBaseControlWindow@@UEAAJPEAJ@Z
_TEXT	SEGMENT
tv77 = 32
this$ = 64
AutoShow$ = 72
?get_AutoShow@CBaseControlWindow@@UEAAJPEAJ@Z PROC	; CBaseControlWindow::get_AutoShow, COMDAT
; Line 991
$LN10:
	mov	QWORD PTR [rsp+16], rdx
	mov	QWORD PTR [rsp+8], rcx
	push	rdi
	sub	rsp, 48					; 00000030H
	mov	rdi, rsp
	mov	ecx, 12
	mov	eax, -858993460				; ccccccccH
	rep stosd
	mov	rcx, QWORD PTR [rsp+64]
; Line 992
	cmp	QWORD PTR AutoShow$[rsp], 0
	jne	SHORT $LN5@get_AutoSh
	mov	eax, -2147467261			; ffffffff80004003H
	jmp	SHORT $LN6@get_AutoSh
$LN5@get_AutoSh:
; Line 993
	mov	rax, QWORD PTR this$[rsp]
	cmp	QWORD PTR [rax+280], 0
	jne	SHORT $LN4@get_AutoSh
	lea	rax, OFFSET FLAT:$SG82906
	test	rax, rax
	je	SHORT $LN3@get_AutoSh
	mov	r8d, 993				; 000003e1H
	lea	rdx, OFFSET FLAT:$SG82907
	lea	rcx, OFFSET FLAT:$SG82908
	call	?DbgAssert@@YAXPEB_W0H@Z		; DbgAssert
$LN3@get_AutoSh:
	jmp	SHORT $LN2@get_AutoSh
$LN4@get_AutoSh:
	mov	rax, QWORD PTR this$[rsp]
	mov	rcx, QWORD PTR [rax+280]
	call	?IsConnected@CBasePin@@QEAAHXZ		; CBasePin::IsConnected
	test	eax, eax
	jne	SHORT $LN1@get_AutoSh
	mov	eax, -2147220983			; ffffffff80040209H
	jmp	SHORT $LN6@get_AutoSh
$LN1@get_AutoSh:
$LN2@get_AutoSh:
; Line 994
	mov	rax, QWORD PTR this$[rsp]
	cmp	DWORD PTR [rax+300], 1
	jne	SHORT $LN8@get_AutoSh
	mov	DWORD PTR tv77[rsp], -1
	jmp	SHORT $LN9@get_AutoSh
$LN8@get_AutoSh:
	mov	DWORD PTR tv77[rsp], 0
$LN9@get_AutoSh:
	mov	rax, QWORD PTR AutoShow$[rsp]
	mov	ecx, DWORD PTR tv77[rsp]
	mov	DWORD PTR [rax], ecx
; Line 995
	xor	eax, eax
$LN6@get_AutoSh:
; Line 996
	add	rsp, 48					; 00000030H
	pop	rdi
	ret	0
?get_AutoShow@CBaseControlWindow@@UEAAJPEAJ@Z ENDP	; CBaseControlWindow::get_AutoShow
_TEXT	ENDS
PUBLIC	__$ArrayPad$
;	COMDAT pdata
pdata	SEGMENT
$pdata$?GetMinIdealImageSize@CBaseControlWindow@@UEAAJPEAJ0@Z DD imagerel $LN10
	DD	imagerel $LN10+390
	DD	imagerel $unwind$?GetMinIdealImageSize@CBaseControlWindow@@UEAAJPEAJ0@Z
pdata	ENDS
;	COMDAT xdata
xdata	SEGMENT
$unwind$?GetMinIdealImageSize@CBaseControlWindow@@UEAAJPEAJ0@Z DD 023d19H
	DD	07010f217H
	DD	imagerel __GSHandlerCheck
	DD	078H
xdata	ENDS
;	COMDAT CONST
CONST	SEGMENT
?GetMinIdealImageSize@CBaseControlWindow@@UEAAJPEAJ0@Z$rtcName$0 DB 053H ; CBaseControlWindow::GetMinIdealImageSize
	DB	074H
	DB	061H
	DB	074H
	DB	065H
	DB	00H
	ORG $+2
?GetMinIdealImageSize@CBaseControlWindow@@UEAAJPEAJ0@Z$rtcName$1 DB 044H ; CBaseControlWindow::GetMinIdealImageSize
	DB	065H
	DB	066H
	DB	061H
	DB	075H
	DB	06cH
	DB	074H
	DB	052H
	DB	065H
	DB	063H
	DB	074H
	DB	00H
	ORG $+12
?GetMinIdealImageSize@CBaseControlWindow@@UEAAJPEAJ0@Z$rtcVarDesc DD 048H ; CBaseControlWindow::GetMinIdealImageSize
	DD	010H
	DQ	FLAT:?GetMinIdealImageSize@CBaseControlWindow@@UEAAJPEAJ0@Z$rtcName$1
	DD	024H
	DD	04H
	DQ	FLAT:?GetMinIdealImageSize@CBaseControlWindow@@UEAAJPEAJ0@Z$rtcName$0
	ORG $+96
?GetMinIdealImageSize@CBaseControlWindow@@UEAAJPEAJ0@Z$rtcFrameData DD 02H ; CBaseControlWindow::GetMinIdealImageSize
	DD	00H
	DQ	FLAT:?GetMinIdealImageSize@CBaseControlWindow@@UEAAJPEAJ0@Z$rtcVarDesc
; Function compile flags: /Odtp /RTCsu
CONST	ENDS
;	COMDAT ?GetMinIdealImageSize@CBaseControlWindow@@UEAAJPEAJ0@Z
_TEXT	SEGMENT
State$ = 36
DefaultRect$ = 72
tv133 = 112
__$ArrayPad$ = 120
this$ = 144
pWidth$ = 152
pHeight$ = 160
?GetMinIdealImageSize@CBaseControlWindow@@UEAAJPEAJ0@Z PROC ; CBaseControlWindow::GetMinIdealImageSize, COMDAT
; Line 1006
$LN10:
	mov	QWORD PTR [rsp+24], r8
	mov	QWORD PTR [rsp+16], rdx
	mov	QWORD PTR [rsp+8], rcx
	push	rdi
	sub	rsp, 128				; 00000080H
	mov	rdi, rsp
	mov	ecx, 32					; 00000020H
	mov	eax, -858993460				; ccccccccH
	rep stosd
	mov	rcx, QWORD PTR [rsp+144]
	mov	rax, QWORD PTR __security_cookie
	xor	rax, rsp
	mov	QWORD PTR __$ArrayPad$[rsp], rax
; Line 1007
	cmp	QWORD PTR pWidth$[rsp], 0
	jne	SHORT $LN7@GetMinIdea
	mov	eax, -2147467261			; ffffffff80004003H
	jmp	$LN8@GetMinIdea
$LN7@GetMinIdea:
; Line 1008
	cmp	QWORD PTR pHeight$[rsp], 0
	jne	SHORT $LN6@GetMinIdea
	mov	eax, -2147467261			; ffffffff80004003H
	jmp	$LN8@GetMinIdea
$LN6@GetMinIdea:
; Line 1009
	mov	rax, QWORD PTR this$[rsp]
	cmp	QWORD PTR [rax+280], 0
	jne	SHORT $LN5@GetMinIdea
	lea	rax, OFFSET FLAT:$SG82923
	test	rax, rax
	je	SHORT $LN4@GetMinIdea
	mov	r8d, 1009				; 000003f1H
	lea	rdx, OFFSET FLAT:$SG82924
	lea	rcx, OFFSET FLAT:$SG82925
	call	?DbgAssert@@YAXPEB_W0H@Z		; DbgAssert
$LN4@GetMinIdea:
	jmp	SHORT $LN3@GetMinIdea
$LN5@GetMinIdea:
	mov	rax, QWORD PTR this$[rsp]
	mov	rcx, QWORD PTR [rax+280]
	call	?IsConnected@CBasePin@@QEAAHXZ		; CBasePin::IsConnected
	test	eax, eax
	jne	SHORT $LN2@GetMinIdea
	mov	eax, -2147220983			; ffffffff80040209H
	jmp	$LN8@GetMinIdea
$LN2@GetMinIdea:
$LN3@GetMinIdea:
; Line 1014
	mov	rax, QWORD PTR this$[rsp]
	mov	rax, QWORD PTR [rax+272]
	mov	rcx, QWORD PTR this$[rsp]
	mov	rcx, QWORD PTR [rcx+272]
	add	rcx, 32					; 00000020H
	mov	rax, QWORD PTR [rax+32]
	lea	r8, QWORD PTR State$[rsp]
	xor	edx, edx
	call	QWORD PTR [rax+56]
; Line 1015
	cmp	DWORD PTR State$[rsp], 0
	jne	SHORT $LN1@GetMinIdea
; Line 1016
	mov	eax, -2147220953			; ffffffff80040227H
	jmp	SHORT $LN8@GetMinIdea
$LN1@GetMinIdea:
; Line 1019
	mov	rax, QWORD PTR this$[rsp]
	add	rax, 48					; 00000030H
	mov	rcx, QWORD PTR this$[rsp]
	mov	rcx, QWORD PTR [rcx+48]
	mov	QWORD PTR tv133[rsp], rcx
	lea	rdx, QWORD PTR DefaultRect$[rsp]
	mov	rcx, rax
	mov	rax, QWORD PTR tv133[rsp]
	call	QWORD PTR [rax+64]
; Line 1020
	mov	eax, DWORD PTR DefaultRect$[rsp]
	mov	ecx, DWORD PTR DefaultRect$[rsp+8]
	sub	ecx, eax
	mov	eax, ecx
	mov	rcx, QWORD PTR pWidth$[rsp]
	mov	DWORD PTR [rcx], eax
; Line 1021
	mov	eax, DWORD PTR DefaultRect$[rsp+4]
	mov	ecx, DWORD PTR DefaultRect$[rsp+12]
	sub	ecx, eax
	mov	eax, ecx
	mov	rcx, QWORD PTR pHeight$[rsp]
	mov	DWORD PTR [rcx], eax
; Line 1022
	xor	eax, eax
$LN8@GetMinIdea:
; Line 1023
	mov	rdi, rax
	mov	rcx, rsp
	lea	rdx, OFFSET FLAT:?GetMinIdealImageSize@CBaseControlWindow@@UEAAJPEAJ0@Z$rtcFrameData
	call	_RTC_CheckStackVars
	mov	rax, rdi
	mov	rcx, QWORD PTR __$ArrayPad$[rsp]
	xor	rcx, rsp
	call	__security_check_cookie
	add	rsp, 128				; 00000080H
	pop	rdi
	ret	0
?GetMinIdealImageSize@CBaseControlWindow@@UEAAJPEAJ0@Z ENDP ; CBaseControlWindow::GetMinIdealImageSize
_TEXT	ENDS
PUBLIC	__$ArrayPad$
;	COMDAT pdata
pdata	SEGMENT
$pdata$?GetMaxIdealImageSize@CBaseControlWindow@@UEAAJPEAJ0@Z DD imagerel $LN10
	DD	imagerel $LN10+390
	DD	imagerel $unwind$?GetMaxIdealImageSize@CBaseControlWindow@@UEAAJPEAJ0@Z
pdata	ENDS
;	COMDAT xdata
xdata	SEGMENT
$unwind$?GetMaxIdealImageSize@CBaseControlWindow@@UEAAJPEAJ0@Z DD 023d19H
	DD	07010f217H
	DD	imagerel __GSHandlerCheck
	DD	078H
xdata	ENDS
;	COMDAT CONST
CONST	SEGMENT
?GetMaxIdealImageSize@CBaseControlWindow@@UEAAJPEAJ0@Z$rtcName$0 DB 053H ; CBaseControlWindow::GetMaxIdealImageSize
	DB	074H
	DB	061H
	DB	074H
	DB	065H
	DB	00H
	ORG $+2
?GetMaxIdealImageSize@CBaseControlWindow@@UEAAJPEAJ0@Z$rtcName$1 DB 044H ; CBaseControlWindow::GetMaxIdealImageSize
	DB	065H
	DB	066H
	DB	061H
	DB	075H
	DB	06cH
	DB	074H
	DB	052H
	DB	065H
	DB	063H
	DB	074H
	DB	00H
	ORG $+12
?GetMaxIdealImageSize@CBaseControlWindow@@UEAAJPEAJ0@Z$rtcVarDesc DD 048H ; CBaseControlWindow::GetMaxIdealImageSize
	DD	010H
	DQ	FLAT:?GetMaxIdealImageSize@CBaseControlWindow@@UEAAJPEAJ0@Z$rtcName$1
	DD	024H
	DD	04H
	DQ	FLAT:?GetMaxIdealImageSize@CBaseControlWindow@@UEAAJPEAJ0@Z$rtcName$0
	ORG $+96
?GetMaxIdealImageSize@CBaseControlWindow@@UEAAJPEAJ0@Z$rtcFrameData DD 02H ; CBaseControlWindow::GetMaxIdealImageSize
	DD	00H
	DQ	FLAT:?GetMaxIdealImageSize@CBaseControlWindow@@UEAAJPEAJ0@Z$rtcVarDesc
; Function compile flags: /Odtp /RTCsu
CONST	ENDS
;	COMDAT ?GetMaxIdealImageSize@CBaseControlWindow@@UEAAJPEAJ0@Z
_TEXT	SEGMENT
State$ = 36
DefaultRect$ = 72
tv133 = 112
__$ArrayPad$ = 120
this$ = 144
pWidth$ = 152
pHeight$ = 160
?GetMaxIdealImageSize@CBaseControlWindow@@UEAAJPEAJ0@Z PROC ; CBaseControlWindow::GetMaxIdealImageSize, COMDAT
; Line 1033
$LN10:
	mov	QWORD PTR [rsp+24], r8
	mov	QWORD PTR [rsp+16], rdx
	mov	QWORD PTR [rsp+8], rcx
	push	rdi
	sub	rsp, 128				; 00000080H
	mov	rdi, rsp
	mov	ecx, 32					; 00000020H
	mov	eax, -858993460				; ccccccccH
	rep stosd
	mov	rcx, QWORD PTR [rsp+144]
	mov	rax, QWORD PTR __security_cookie
	xor	rax, rsp
	mov	QWORD PTR __$ArrayPad$[rsp], rax
; Line 1034
	cmp	QWORD PTR pWidth$[rsp], 0
	jne	SHORT $LN7@GetMaxIdea
	mov	eax, -2147467261			; ffffffff80004003H
	jmp	$LN8@GetMaxIdea
$LN7@GetMaxIdea:
; Line 1035
	cmp	QWORD PTR pHeight$[rsp], 0
	jne	SHORT $LN6@GetMaxIdea
	mov	eax, -2147467261			; ffffffff80004003H
	jmp	$LN8@GetMaxIdea
$LN6@GetMaxIdea:
; Line 1036
	mov	rax, QWORD PTR this$[rsp]
	cmp	QWORD PTR [rax+280], 0
	jne	SHORT $LN5@GetMaxIdea
	lea	rax, OFFSET FLAT:$SG82945
	test	rax, rax
	je	SHORT $LN4@GetMaxIdea
	mov	r8d, 1036				; 0000040cH
	lea	rdx, OFFSET FLAT:$SG82946
	lea	rcx, OFFSET FLAT:$SG82947
	call	?DbgAssert@@YAXPEB_W0H@Z		; DbgAssert
$LN4@GetMaxIdea:
	jmp	SHORT $LN3@GetMaxIdea
$LN5@GetMaxIdea:
	mov	rax, QWORD PTR this$[rsp]
	mov	rcx, QWORD PTR [rax+280]
	call	?IsConnected@CBasePin@@QEAAHXZ		; CBasePin::IsConnected
	test	eax, eax
	jne	SHORT $LN2@GetMaxIdea
	mov	eax, -2147220983			; ffffffff80040209H
	jmp	$LN8@GetMaxIdea
$LN2@GetMaxIdea:
$LN3@GetMaxIdea:
; Line 1041
	mov	rax, QWORD PTR this$[rsp]
	mov	rax, QWORD PTR [rax+272]
	mov	rcx, QWORD PTR this$[rsp]
	mov	rcx, QWORD PTR [rcx+272]
	add	rcx, 32					; 00000020H
	mov	rax, QWORD PTR [rax+32]
	lea	r8, QWORD PTR State$[rsp]
	xor	edx, edx
	call	QWORD PTR [rax+56]
; Line 1042
	cmp	DWORD PTR State$[rsp], 0
	jne	SHORT $LN1@GetMaxIdea
; Line 1043
	mov	eax, -2147220953			; ffffffff80040227H
	jmp	SHORT $LN8@GetMaxIdea
$LN1@GetMaxIdea:
; Line 1046
	mov	rax, QWORD PTR this$[rsp]
	add	rax, 48					; 00000030H
	mov	rcx, QWORD PTR this$[rsp]
	mov	rcx, QWORD PTR [rcx+48]
	mov	QWORD PTR tv133[rsp], rcx
	lea	rdx, QWORD PTR DefaultRect$[rsp]
	mov	rcx, rax
	mov	rax, QWORD PTR tv133[rsp]
	call	QWORD PTR [rax+64]
; Line 1047
	mov	eax, DWORD PTR DefaultRect$[rsp]
	mov	ecx, DWORD PTR DefaultRect$[rsp+8]
	sub	ecx, eax
	mov	eax, ecx
	mov	rcx, QWORD PTR pWidth$[rsp]
	mov	DWORD PTR [rcx], eax
; Line 1048
	mov	eax, DWORD PTR DefaultRect$[rsp+4]
	mov	ecx, DWORD PTR DefaultRect$[rsp+12]
	sub	ecx, eax
	mov	eax, ecx
	mov	rcx, QWORD PTR pHeight$[rsp]
	mov	DWORD PTR [rcx], eax
; Line 1049
	xor	eax, eax
$LN8@GetMaxIdea:
; Line 1050
	mov	rdi, rax
	mov	rcx, rsp
	lea	rdx, OFFSET FLAT:?GetMaxIdealImageSize@CBaseControlWindow@@UEAAJPEAJ0@Z$rtcFrameData
	call	_RTC_CheckStackVars
	mov	rax, rdi
	mov	rcx, QWORD PTR __$ArrayPad$[rsp]
	xor	rcx, rsp
	call	__security_check_cookie
	add	rsp, 128				; 00000080H
	pop	rdi
	ret	0
?GetMaxIdealImageSize@CBaseControlWindow@@UEAAJPEAJ0@Z ENDP ; CBaseControlWindow::GetMaxIdealImageSize
_TEXT	ENDS
;	COMDAT pdata
pdata	SEGMENT
$pdata$?HideCursor@CBaseControlWindow@@UEAAJJ@Z DD imagerel $LN11
	DD	imagerel $LN11+185
	DD	imagerel $unwind$?HideCursor@CBaseControlWindow@@UEAAJJ@Z
pdata	ENDS
;	COMDAT xdata
xdata	SEGMENT
$unwind$?HideCursor@CBaseControlWindow@@UEAAJJ@Z DD 022201H
	DD	0700a520eH
; Function compile flags: /Odtp /RTCsu
xdata	ENDS
;	COMDAT ?HideCursor@CBaseControlWindow@@UEAAJJ@Z
_TEXT	SEGMENT
tv78 = 32
this$ = 64
HideCursor$ = 72
?HideCursor@CBaseControlWindow@@UEAAJJ@Z PROC		; CBaseControlWindow::HideCursor, COMDAT
; Line 1057
$LN11:
	mov	DWORD PTR [rsp+16], edx
	mov	QWORD PTR [rsp+8], rcx
	push	rdi
	sub	rsp, 48					; 00000030H
	mov	rdi, rsp
	mov	ecx, 12
	mov	eax, -858993460				; ccccccccH
	rep stosd
	mov	rcx, QWORD PTR [rsp+64]
; Line 1058
	mov	rax, QWORD PTR this$[rsp]
	cmp	QWORD PTR [rax+280], 0
	jne	SHORT $LN6@HideCursor
	lea	rax, OFFSET FLAT:$SG82962
	test	rax, rax
	je	SHORT $LN5@HideCursor
	mov	r8d, 1058				; 00000422H
	lea	rdx, OFFSET FLAT:$SG82963
	lea	rcx, OFFSET FLAT:$SG82964
	call	?DbgAssert@@YAXPEB_W0H@Z		; DbgAssert
$LN5@HideCursor:
	jmp	SHORT $LN4@HideCursor
$LN6@HideCursor:
	mov	rax, QWORD PTR this$[rsp]
	mov	rcx, QWORD PTR [rax+280]
	call	?IsConnected@CBasePin@@QEAAHXZ		; CBasePin::IsConnected
	test	eax, eax
	jne	SHORT $LN3@HideCursor
	mov	eax, -2147220983			; ffffffff80040209H
	jmp	SHORT $LN7@HideCursor
$LN3@HideCursor:
$LN4@HideCursor:
; Line 1062
	cmp	DWORD PTR HideCursor$[rsp], -1
	je	SHORT $LN2@HideCursor
; Line 1063
	cmp	DWORD PTR HideCursor$[rsp], 0
	je	SHORT $LN1@HideCursor
; Line 1064
	mov	eax, -2147024809			; ffffffff80070057H
	jmp	SHORT $LN7@HideCursor
$LN1@HideCursor:
$LN2@HideCursor:
; Line 1068
	cmp	DWORD PTR HideCursor$[rsp], -1
	jne	SHORT $LN9@HideCursor
	mov	DWORD PTR tv78[rsp], 1
	jmp	SHORT $LN10@HideCursor
$LN9@HideCursor:
	mov	DWORD PTR tv78[rsp], 0
$LN10@HideCursor:
	mov	rax, QWORD PTR this$[rsp]
	mov	ecx, DWORD PTR tv78[rsp]
	mov	DWORD PTR [rax+320], ecx
; Line 1069
	xor	eax, eax
$LN7@HideCursor:
; Line 1070
	add	rsp, 48					; 00000030H
	pop	rdi
	ret	0
?HideCursor@CBaseControlWindow@@UEAAJJ@Z ENDP		; CBaseControlWindow::HideCursor
_TEXT	ENDS
;	COMDAT pdata
pdata	SEGMENT
$pdata$?IsCursorHidden@CBaseControlWindow@@UEAAJPEAJ@Z DD imagerel $LN10
	DD	imagerel $LN10+183
	DD	imagerel $unwind$?IsCursorHidden@CBaseControlWindow@@UEAAJPEAJ@Z
pdata	ENDS
;	COMDAT xdata
xdata	SEGMENT
$unwind$?IsCursorHidden@CBaseControlWindow@@UEAAJPEAJ@Z DD 022301H
	DD	0700b520fH
; Function compile flags: /Odtp /RTCsu
xdata	ENDS
;	COMDAT ?IsCursorHidden@CBaseControlWindow@@UEAAJPEAJ@Z
_TEXT	SEGMENT
tv77 = 32
this$ = 64
CursorHidden$ = 72
?IsCursorHidden@CBaseControlWindow@@UEAAJPEAJ@Z PROC	; CBaseControlWindow::IsCursorHidden, COMDAT
; Line 1076
$LN10:
	mov	QWORD PTR [rsp+16], rdx
	mov	QWORD PTR [rsp+8], rcx
	push	rdi
	sub	rsp, 48					; 00000030H
	mov	rdi, rsp
	mov	ecx, 12
	mov	eax, -858993460				; ccccccccH
	rep stosd
	mov	rcx, QWORD PTR [rsp+64]
; Line 1077
	cmp	QWORD PTR CursorHidden$[rsp], 0
	jne	SHORT $LN5@IsCursorHi
	mov	eax, -2147467261			; ffffffff80004003H
	jmp	SHORT $LN6@IsCursorHi
$LN5@IsCursorHi:
; Line 1078
	mov	rax, QWORD PTR this$[rsp]
	cmp	QWORD PTR [rax+280], 0
	jne	SHORT $LN4@IsCursorHi
	lea	rax, OFFSET FLAT:$SG82979
	test	rax, rax
	je	SHORT $LN3@IsCursorHi
	mov	r8d, 1078				; 00000436H
	lea	rdx, OFFSET FLAT:$SG82980
	lea	rcx, OFFSET FLAT:$SG82981
	call	?DbgAssert@@YAXPEB_W0H@Z		; DbgAssert
$LN3@IsCursorHi:
	jmp	SHORT $LN2@IsCursorHi
$LN4@IsCursorHi:
	mov	rax, QWORD PTR this$[rsp]
	mov	rcx, QWORD PTR [rax+280]
	call	?IsConnected@CBasePin@@QEAAHXZ		; CBasePin::IsConnected
	test	eax, eax
	jne	SHORT $LN1@IsCursorHi
	mov	eax, -2147220983			; ffffffff80040209H
	jmp	SHORT $LN6@IsCursorHi
$LN1@IsCursorHi:
$LN2@IsCursorHi:
; Line 1079
	mov	rax, QWORD PTR this$[rsp]
	cmp	DWORD PTR [rax+320], 1
	jne	SHORT $LN8@IsCursorHi
	mov	DWORD PTR tv77[rsp], -1
	jmp	SHORT $LN9@IsCursorHi
$LN8@IsCursorHi:
	mov	DWORD PTR tv77[rsp], 0
$LN9@IsCursorHi:
	mov	rax, QWORD PTR CursorHidden$[rsp]
	mov	ecx, DWORD PTR tv77[rsp]
	mov	DWORD PTR [rax], ecx
; Line 1080
	xor	eax, eax
$LN6@IsCursorHi:
; Line 1081
	add	rsp, 48					; 00000030H
	pop	rdi
	ret	0
?IsCursorHidden@CBaseControlWindow@@UEAAJPEAJ@Z ENDP	; CBaseControlWindow::IsCursorHidden
_TEXT	ENDS
PUBLIC	??1CBaseBasicVideo@@UEAA@XZ			; CBaseBasicVideo::~CBaseBasicVideo
PUBLIC	??_7CBaseControlVideo@@6BCUnknown@@@		; CBaseControlVideo::`vftable'
PUBLIC	??_7CBaseControlVideo@@6BIBasicVideo2@@@	; CBaseControlVideo::`vftable'
PUBLIC	??0CBaseControlVideo@@QEAA@PEAVCBaseFilter@@PEAVCCritSec@@PEA_WPEAUIUnknown@@PEAJ@Z ; CBaseControlVideo::CBaseControlVideo
PUBLIC	??_R4CBaseControlVideo@@6BIBasicVideo2@@@	; CBaseControlVideo::`RTTI Complete Object Locator'
PUBLIC	??_R0?AVCBaseControlVideo@@@8			; CBaseControlVideo `RTTI Type Descriptor'
PUBLIC	??_R3CBaseControlVideo@@8			; CBaseControlVideo::`RTTI Class Hierarchy Descriptor'
PUBLIC	??_R2CBaseControlVideo@@8			; CBaseControlVideo::`RTTI Base Class Array'
PUBLIC	??_R1A@?0A@EA@CBaseControlVideo@@8		; CBaseControlVideo::`RTTI Base Class Descriptor at (0,-1,0,64)'
PUBLIC	??_R1A@?0A@EA@CBaseBasicVideo@@8		; CBaseBasicVideo::`RTTI Base Class Descriptor at (0,-1,0,64)'
PUBLIC	??_R0?AVCBaseBasicVideo@@@8			; CBaseBasicVideo `RTTI Type Descriptor'
PUBLIC	??_R3CBaseBasicVideo@@8				; CBaseBasicVideo::`RTTI Class Hierarchy Descriptor'
PUBLIC	??_R2CBaseBasicVideo@@8				; CBaseBasicVideo::`RTTI Base Class Array'
PUBLIC	??_R1A@?0A@EA@IBasicVideo2@@8			; IBasicVideo2::`RTTI Base Class Descriptor at (0,-1,0,64)'
PUBLIC	??_R0?AUIBasicVideo2@@@8			; IBasicVideo2 `RTTI Type Descriptor'
PUBLIC	??_R3IBasicVideo2@@8				; IBasicVideo2::`RTTI Class Hierarchy Descriptor'
PUBLIC	??_R2IBasicVideo2@@8				; IBasicVideo2::`RTTI Base Class Array'
PUBLIC	??_R1A@?0A@EA@IBasicVideo@@8			; IBasicVideo::`RTTI Base Class Descriptor at (0,-1,0,64)'
PUBLIC	??_R0?AUIBasicVideo@@@8				; IBasicVideo `RTTI Type Descriptor'
PUBLIC	??_R3IBasicVideo@@8				; IBasicVideo::`RTTI Class Hierarchy Descriptor'
PUBLIC	??_R2IBasicVideo@@8				; IBasicVideo::`RTTI Base Class Array'
PUBLIC	?QueryInterface@CBaseBasicVideo@@UEAAJAEBU_GUID@@PEAPEAX@Z ; CBaseBasicVideo::QueryInterface
PUBLIC	?AddRef@CBaseBasicVideo@@UEAAKXZ		; CBaseBasicVideo::AddRef
PUBLIC	?Release@CBaseBasicVideo@@UEAAKXZ		; CBaseBasicVideo::Release
PUBLIC	?get_AvgTimePerFrame@CBaseControlVideo@@UEAAJPEAN@Z ; CBaseControlVideo::get_AvgTimePerFrame
PUBLIC	?get_BitRate@CBaseControlVideo@@UEAAJPEAJ@Z	; CBaseControlVideo::get_BitRate
PUBLIC	?get_BitErrorRate@CBaseControlVideo@@UEAAJPEAJ@Z ; CBaseControlVideo::get_BitErrorRate
PUBLIC	?get_VideoWidth@CBaseControlVideo@@UEAAJPEAJ@Z	; CBaseControlVideo::get_VideoWidth
PUBLIC	?get_VideoHeight@CBaseControlVideo@@UEAAJPEAJ@Z	; CBaseControlVideo::get_VideoHeight
PUBLIC	?put_SourceLeft@CBaseControlVideo@@UEAAJJ@Z	; CBaseControlVideo::put_SourceLeft
PUBLIC	?get_SourceLeft@CBaseControlVideo@@UEAAJPEAJ@Z	; CBaseControlVideo::get_SourceLeft
PUBLIC	?put_SourceWidth@CBaseControlVideo@@UEAAJJ@Z	; CBaseControlVideo::put_SourceWidth
PUBLIC	?get_SourceWidth@CBaseControlVideo@@UEAAJPEAJ@Z	; CBaseControlVideo::get_SourceWidth
PUBLIC	?put_SourceTop@CBaseControlVideo@@UEAAJJ@Z	; CBaseControlVideo::put_SourceTop
PUBLIC	?get_SourceTop@CBaseControlVideo@@UEAAJPEAJ@Z	; CBaseControlVideo::get_SourceTop
PUBLIC	?put_SourceHeight@CBaseControlVideo@@UEAAJJ@Z	; CBaseControlVideo::put_SourceHeight
PUBLIC	?get_SourceHeight@CBaseControlVideo@@UEAAJPEAJ@Z ; CBaseControlVideo::get_SourceHeight
PUBLIC	?put_DestinationLeft@CBaseControlVideo@@UEAAJJ@Z ; CBaseControlVideo::put_DestinationLeft
PUBLIC	?get_DestinationLeft@CBaseControlVideo@@UEAAJPEAJ@Z ; CBaseControlVideo::get_DestinationLeft
PUBLIC	?put_DestinationWidth@CBaseControlVideo@@UEAAJJ@Z ; CBaseControlVideo::put_DestinationWidth
PUBLIC	?get_DestinationWidth@CBaseControlVideo@@UEAAJPEAJ@Z ; CBaseControlVideo::get_DestinationWidth
PUBLIC	?put_DestinationTop@CBaseControlVideo@@UEAAJJ@Z	; CBaseControlVideo::put_DestinationTop
PUBLIC	?get_DestinationTop@CBaseControlVideo@@UEAAJPEAJ@Z ; CBaseControlVideo::get_DestinationTop
PUBLIC	?put_DestinationHeight@CBaseControlVideo@@UEAAJJ@Z ; CBaseControlVideo::put_DestinationHeight
PUBLIC	?get_DestinationHeight@CBaseControlVideo@@UEAAJPEAJ@Z ; CBaseControlVideo::get_DestinationHeight
PUBLIC	?SetSourcePosition@CBaseControlVideo@@UEAAJJJJJ@Z ; CBaseControlVideo::SetSourcePosition
PUBLIC	?GetSourcePosition@CBaseControlVideo@@UEAAJPEAJ000@Z ; CBaseControlVideo::GetSourcePosition
PUBLIC	?SetDefaultSourcePosition@CBaseControlVideo@@UEAAJXZ ; CBaseControlVideo::SetDefaultSourcePosition
PUBLIC	?SetDestinationPosition@CBaseControlVideo@@UEAAJJJJJ@Z ; CBaseControlVideo::SetDestinationPosition
PUBLIC	?GetDestinationPosition@CBaseControlVideo@@UEAAJPEAJ000@Z ; CBaseControlVideo::GetDestinationPosition
PUBLIC	?SetDefaultDestinationPosition@CBaseControlVideo@@UEAAJXZ ; CBaseControlVideo::SetDefaultDestinationPosition
PUBLIC	?GetVideoSize@CBaseControlVideo@@UEAAJPEAJ0@Z	; CBaseControlVideo::GetVideoSize
PUBLIC	?GetVideoPaletteEntries@CBaseControlVideo@@UEAAJJJPEAJ0@Z ; CBaseControlVideo::GetVideoPaletteEntries
PUBLIC	?GetCurrentImage@CBaseControlVideo@@UEAAJPEAJ0@Z ; CBaseControlVideo::GetCurrentImage
PUBLIC	?IsUsingDefaultSource@CBaseControlVideo@@UEAAJXZ ; CBaseControlVideo::IsUsingDefaultSource
PUBLIC	?IsUsingDefaultDestination@CBaseControlVideo@@UEAAJXZ ; CBaseControlVideo::IsUsingDefaultDestination
PUBLIC	?GetPreferredAspectRatio@CBaseBasicVideo@@UEAAJPEAJ0@Z ; CBaseBasicVideo::GetPreferredAspectRatio
PUBLIC	?OnUpdateRectangles@CBaseControlVideo@@UEAAJXZ	; CBaseControlVideo::OnUpdateRectangles
PUBLIC	?OnVideoSizeChange@CBaseControlVideo@@UEAAJXZ	; CBaseControlVideo::OnVideoSizeChange
PUBLIC	?CheckSourceRect@CBaseControlVideo@@UEAAJPEAUtagRECT@@@Z ; CBaseControlVideo::CheckSourceRect
PUBLIC	?CheckTargetRect@CBaseControlVideo@@UEAAJPEAUtagRECT@@@Z ; CBaseControlVideo::CheckTargetRect
PUBLIC	??_R4CBaseControlVideo@@6BCUnknown@@@		; CBaseControlVideo::`RTTI Complete Object Locator'
PUBLIC	??_ECBaseControlVideo@@W7EAAPEAXI@Z		; [thunk]:CBaseControlVideo::`vector deleting destructor'
EXTRN	??0CBaseBasicVideo@@QEAA@PEB_WPEAUIUnknown@@@Z:PROC ; CBaseBasicVideo::CBaseBasicVideo
EXTRN	?GetTypeInfoCount@CBaseBasicVideo@@UEAAJPEAI@Z:PROC ; CBaseBasicVideo::GetTypeInfoCount
EXTRN	?GetTypeInfo@CBaseBasicVideo@@UEAAJIKPEAPEAUITypeInfo@@@Z:PROC ; CBaseBasicVideo::GetTypeInfo
EXTRN	?GetIDsOfNames@CBaseBasicVideo@@UEAAJAEBU_GUID@@PEAPEA_WIKPEAJ@Z:PROC ; CBaseBasicVideo::GetIDsOfNames
EXTRN	?Invoke@CBaseBasicVideo@@UEAAJJAEBU_GUID@@KGPEAUtagDISPPARAMS@@PEAUtagVARIANT@@PEAUtagEXCEPINFO@@PEAI@Z:PROC ; CBaseBasicVideo::Invoke
EXTRN	?NonDelegatingQueryInterface@CBaseBasicVideo@@UEAAJAEBU_GUID@@PEAPEAX@Z:PROC ; CBaseBasicVideo::NonDelegatingQueryInterface
;	COMDAT pdata
pdata	SEGMENT
$pdata$??0CBaseControlVideo@@QEAA@PEAVCBaseFilter@@PEAVCCritSec@@PEA_WPEAUIUnknown@@PEAJ@Z DD imagerel $LN7
	DD	imagerel $LN7+266
	DD	imagerel $unwind$??0CBaseControlVideo@@QEAA@PEAVCBaseFilter@@PEAVCCritSec@@PEA_WPEAUIUnknown@@PEAJ@Z
pdata	ENDS
;	COMDAT pdata
pdata	SEGMENT
$pdata$?dtor$0@?0???0CBaseControlVideo@@QEAA@PEAVCBaseFilter@@PEAVCCritSec@@PEA_WPEAUIUnknown@@PEAJ@Z@4HA DD imagerel ?dtor$0@?0???0CBaseControlVideo@@QEAA@PEAVCBaseFilter@@PEAVCCritSec@@PEA_WPEAUIUnknown@@PEAJ@Z@4HA
	DD	imagerel ?dtor$0@?0???0CBaseControlVideo@@QEAA@PEAVCBaseFilter@@PEAVCCritSec@@PEA_WPEAUIUnknown@@PEAJ@Z@4HA+35
	DD	imagerel $unwind$?dtor$0@?0???0CBaseControlVideo@@QEAA@PEAVCBaseFilter@@PEAVCCritSec@@PEA_WPEAUIUnknown@@PEAJ@Z@4HA
pdata	ENDS
;	COMDAT xdata
xdata	SEGMENT
$ip2state$??0CBaseControlVideo@@QEAA@PEAVCBaseFilter@@PEAVCCritSec@@PEA_WPEAUIUnknown@@PEAJ@Z DD imagerel ??0CBaseControlVideo@@QEAA@PEAVCBaseFilter@@PEAVCCritSec@@PEA_WPEAUIUnknown@@PEAJ@Z
	DD	0ffffffffH
	DD	imagerel ??0CBaseControlVideo@@QEAA@PEAVCBaseFilter@@PEAVCCritSec@@PEA_WPEAUIUnknown@@PEAJ@Z+75
	DD	00H
	DD	imagerel ??0CBaseControlVideo@@QEAA@PEAVCBaseFilter@@PEAVCCritSec@@PEA_WPEAUIUnknown@@PEAJ@Z+255
	DD	0ffffffffH
xdata	ENDS
;	COMDAT ??_R4CBaseControlVideo@@6BCUnknown@@@
rdata$r	SEGMENT
??_R4CBaseControlVideo@@6BCUnknown@@@ DD 01H		; CBaseControlVideo::`RTTI Complete Object Locator'
	DD	08H
	DD	00H
	DD	imagerel ??_R0?AVCBaseControlVideo@@@8
	DD	imagerel ??_R3CBaseControlVideo@@8
	DD	imagerel ??_R4CBaseControlVideo@@6BCUnknown@@@
rdata$r	ENDS
;	COMDAT ??_R2IBasicVideo@@8
rdata$r	SEGMENT
??_R2IBasicVideo@@8 DD imagerel ??_R1A@?0A@EA@IBasicVideo@@8 ; IBasicVideo::`RTTI Base Class Array'
	DD	imagerel ??_R1A@?0A@EA@IDispatch@@8
	DD	imagerel ??_R1A@?0A@EA@IUnknown@@8
	ORG $+3
rdata$r	ENDS
;	COMDAT ??_R3IBasicVideo@@8
rdata$r	SEGMENT
??_R3IBasicVideo@@8 DD 00H				; IBasicVideo::`RTTI Class Hierarchy Descriptor'
	DD	00H
	DD	03H
	DD	imagerel ??_R2IBasicVideo@@8
rdata$r	ENDS
;	COMDAT ??_R0?AUIBasicVideo@@@8
_DATA	SEGMENT
??_R0?AUIBasicVideo@@@8 DQ FLAT:??_7type_info@@6B@	; IBasicVideo `RTTI Type Descriptor'
	DQ	0000000000000000H
	DB	'.?AUIBasicVideo@@', 00H
_DATA	ENDS
;	COMDAT ??_R1A@?0A@EA@IBasicVideo@@8
rdata$r	SEGMENT
??_R1A@?0A@EA@IBasicVideo@@8 DD imagerel ??_R0?AUIBasicVideo@@@8 ; IBasicVideo::`RTTI Base Class Descriptor at (0,-1,0,64)'
	DD	02H
	DD	00H
	DD	0ffffffffH
	DD	00H
	DD	040H
	DD	imagerel ??_R3IBasicVideo@@8
rdata$r	ENDS
;	COMDAT ??_R2IBasicVideo2@@8
rdata$r	SEGMENT
??_R2IBasicVideo2@@8 DD imagerel ??_R1A@?0A@EA@IBasicVideo2@@8 ; IBasicVideo2::`RTTI Base Class Array'
	DD	imagerel ??_R1A@?0A@EA@IBasicVideo@@8
	DD	imagerel ??_R1A@?0A@EA@IDispatch@@8
	DD	imagerel ??_R1A@?0A@EA@IUnknown@@8
	ORG $+3
rdata$r	ENDS
;	COMDAT ??_R3IBasicVideo2@@8
rdata$r	SEGMENT
??_R3IBasicVideo2@@8 DD 00H				; IBasicVideo2::`RTTI Class Hierarchy Descriptor'
	DD	00H
	DD	04H
	DD	imagerel ??_R2IBasicVideo2@@8
rdata$r	ENDS
;	COMDAT ??_R0?AUIBasicVideo2@@@8
_DATA	SEGMENT
??_R0?AUIBasicVideo2@@@8 DQ FLAT:??_7type_info@@6B@	; IBasicVideo2 `RTTI Type Descriptor'
	DQ	0000000000000000H
	DB	'.?AUIBasicVideo2@@', 00H
_DATA	ENDS
;	COMDAT ??_R1A@?0A@EA@IBasicVideo2@@8
rdata$r	SEGMENT
??_R1A@?0A@EA@IBasicVideo2@@8 DD imagerel ??_R0?AUIBasicVideo2@@@8 ; IBasicVideo2::`RTTI Base Class Descriptor at (0,-1,0,64)'
	DD	03H
	DD	00H
	DD	0ffffffffH
	DD	00H
	DD	040H
	DD	imagerel ??_R3IBasicVideo2@@8
rdata$r	ENDS
;	COMDAT ??_R2CBaseBasicVideo@@8
rdata$r	SEGMENT
??_R2CBaseBasicVideo@@8 DD imagerel ??_R1A@?0A@EA@CBaseBasicVideo@@8 ; CBaseBasicVideo::`RTTI Base Class Array'
	DD	imagerel ??_R1A@?0A@EA@IBasicVideo2@@8
	DD	imagerel ??_R1A@?0A@EA@IBasicVideo@@8
	DD	imagerel ??_R1A@?0A@EA@IDispatch@@8
	DD	imagerel ??_R1A@?0A@EA@IUnknown@@8
	DD	imagerel ??_R17?0A@EA@CUnknown@@8
	DD	imagerel ??_R17?0A@EA@INonDelegatingUnknown@@8
	DD	imagerel ??_R1BA@?0A@EA@CBaseObject@@8
	ORG $+3
rdata$r	ENDS
;	COMDAT ??_R3CBaseBasicVideo@@8
rdata$r	SEGMENT
??_R3CBaseBasicVideo@@8 DD 00H				; CBaseBasicVideo::`RTTI Class Hierarchy Descriptor'
	DD	01H
	DD	08H
	DD	imagerel ??_R2CBaseBasicVideo@@8
rdata$r	ENDS
;	COMDAT ??_R0?AVCBaseBasicVideo@@@8
_DATA	SEGMENT
??_R0?AVCBaseBasicVideo@@@8 DQ FLAT:??_7type_info@@6B@	; CBaseBasicVideo `RTTI Type Descriptor'
	DQ	0000000000000000H
	DB	'.?AVCBaseBasicVideo@@', 00H
_DATA	ENDS
;	COMDAT ??_R1A@?0A@EA@CBaseBasicVideo@@8
rdata$r	SEGMENT
??_R1A@?0A@EA@CBaseBasicVideo@@8 DD imagerel ??_R0?AVCBaseBasicVideo@@@8 ; CBaseBasicVideo::`RTTI Base Class Descriptor at (0,-1,0,64)'
	DD	07H
	DD	00H
	DD	0ffffffffH
	DD	00H
	DD	040H
	DD	imagerel ??_R3CBaseBasicVideo@@8
rdata$r	ENDS
;	COMDAT ??_R1A@?0A@EA@CBaseControlVideo@@8
rdata$r	SEGMENT
??_R1A@?0A@EA@CBaseControlVideo@@8 DD imagerel ??_R0?AVCBaseControlVideo@@@8 ; CBaseControlVideo::`RTTI Base Class Descriptor at (0,-1,0,64)'
	DD	08H
	DD	00H
	DD	0ffffffffH
	DD	00H
	DD	040H
	DD	imagerel ??_R3CBaseControlVideo@@8
rdata$r	ENDS
;	COMDAT ??_R2CBaseControlVideo@@8
rdata$r	SEGMENT
??_R2CBaseControlVideo@@8 DD imagerel ??_R1A@?0A@EA@CBaseControlVideo@@8 ; CBaseControlVideo::`RTTI Base Class Array'
	DD	imagerel ??_R1A@?0A@EA@CBaseBasicVideo@@8
	DD	imagerel ??_R1A@?0A@EA@IBasicVideo2@@8
	DD	imagerel ??_R1A@?0A@EA@IBasicVideo@@8
	DD	imagerel ??_R1A@?0A@EA@IDispatch@@8
	DD	imagerel ??_R1A@?0A@EA@IUnknown@@8
	DD	imagerel ??_R17?0A@EA@CUnknown@@8
	DD	imagerel ??_R17?0A@EA@INonDelegatingUnknown@@8
	DD	imagerel ??_R1BA@?0A@EA@CBaseObject@@8
	ORG $+3
rdata$r	ENDS
;	COMDAT ??_R3CBaseControlVideo@@8
rdata$r	SEGMENT
??_R3CBaseControlVideo@@8 DD 00H			; CBaseControlVideo::`RTTI Class Hierarchy Descriptor'
	DD	01H
	DD	09H
	DD	imagerel ??_R2CBaseControlVideo@@8
rdata$r	ENDS
;	COMDAT ??_R0?AVCBaseControlVideo@@@8
_DATA	SEGMENT
??_R0?AVCBaseControlVideo@@@8 DQ FLAT:??_7type_info@@6B@ ; CBaseControlVideo `RTTI Type Descriptor'
	DQ	0000000000000000H
	DB	'.?AVCBaseControlVideo@@', 00H
_DATA	ENDS
;	COMDAT ??_R4CBaseControlVideo@@6BIBasicVideo2@@@
rdata$r	SEGMENT
??_R4CBaseControlVideo@@6BIBasicVideo2@@@ DD 01H	; CBaseControlVideo::`RTTI Complete Object Locator'
	DD	00H
	DD	00H
	DD	imagerel ??_R0?AVCBaseControlVideo@@@8
	DD	imagerel ??_R3CBaseControlVideo@@8
	DD	imagerel ??_R4CBaseControlVideo@@6BIBasicVideo2@@@
rdata$r	ENDS
;	COMDAT xdata
xdata	SEGMENT
$unwind$?dtor$0@?0???0CBaseControlVideo@@QEAA@PEAVCBaseFilter@@PEAVCCritSec@@PEA_WPEAUIUnknown@@PEAJ@Z@4HA DD 031001H
	DD	0700c4210H
	DD	0500bH
xdata	ENDS
;	COMDAT xdata
xdata	SEGMENT
$unwind$??0CBaseControlVideo@@QEAA@PEAVCBaseFilter@@PEAVCCritSec@@PEA_WPEAUIUnknown@@PEAJ@Z DD 023611H
	DD	070155219H
	DD	imagerel __CxxFrameHandler3
	DD	imagerel $cppxdata$??0CBaseControlVideo@@QEAA@PEAVCBaseFilter@@PEAVCCritSec@@PEA_WPEAUIUnknown@@PEAJ@Z
xdata	ENDS
;	COMDAT CONST
CONST	SEGMENT
$cppxdata$??0CBaseControlVideo@@QEAA@PEAVCBaseFilter@@PEAVCCritSec@@PEA_WPEAUIUnknown@@PEAJ@Z DD 019930522H
	DD	01H
	DD	imagerel $stateUnwindMap$??0CBaseControlVideo@@QEAA@PEAVCBaseFilter@@PEAVCCritSec@@PEA_WPEAUIUnknown@@PEAJ@Z
	DD	00H
	DD	00H
	DD	03H
	DD	imagerel $ip2state$??0CBaseControlVideo@@QEAA@PEAVCBaseFilter@@PEAVCCritSec@@PEA_WPEAUIUnknown@@PEAJ@Z
	DD	020H
	DD	00H
	DD	01H
CONST	ENDS
;	COMDAT xdata
xdata	SEGMENT
$stateUnwindMap$??0CBaseControlVideo@@QEAA@PEAVCBaseFilter@@PEAVCCritSec@@PEA_WPEAUIUnknown@@PEAJ@Z DD 0ffffffffH
	DD	imagerel ?dtor$0@?0???0CBaseControlVideo@@QEAA@PEAVCBaseFilter@@PEAVCCritSec@@PEA_WPEAUIUnknown@@PEAJ@Z@4HA
xdata	ENDS
;	COMDAT ??_7CBaseControlVideo@@6BCUnknown@@@
CONST	SEGMENT
??_7CBaseControlVideo@@6BCUnknown@@@ DQ FLAT:??_R4CBaseControlVideo@@6BCUnknown@@@ ; CBaseControlVideo::`vftable'
	DQ	FLAT:?NonDelegatingQueryInterface@CBaseBasicVideo@@UEAAJAEBU_GUID@@PEAPEAX@Z
	DQ	FLAT:?NonDelegatingAddRef@CUnknown@@UEAAKXZ
	DQ	FLAT:?NonDelegatingRelease@CUnknown@@UEAAKXZ
	DQ	FLAT:??_ECBaseControlVideo@@W7EAAPEAXI@Z
CONST	ENDS
;	COMDAT ??_7CBaseControlVideo@@6BIBasicVideo2@@@
CONST	SEGMENT
??_7CBaseControlVideo@@6BIBasicVideo2@@@ DQ FLAT:??_R4CBaseControlVideo@@6BIBasicVideo2@@@ ; CBaseControlVideo::`vftable'
	DQ	FLAT:?QueryInterface@CBaseBasicVideo@@UEAAJAEBU_GUID@@PEAPEAX@Z
	DQ	FLAT:?AddRef@CBaseBasicVideo@@UEAAKXZ
	DQ	FLAT:?Release@CBaseBasicVideo@@UEAAKXZ
	DQ	FLAT:?GetTypeInfoCount@CBaseBasicVideo@@UEAAJPEAI@Z
	DQ	FLAT:?GetTypeInfo@CBaseBasicVideo@@UEAAJIKPEAPEAUITypeInfo@@@Z
	DQ	FLAT:?GetIDsOfNames@CBaseBasicVideo@@UEAAJAEBU_GUID@@PEAPEA_WIKPEAJ@Z
	DQ	FLAT:?Invoke@CBaseBasicVideo@@UEAAJJAEBU_GUID@@KGPEAUtagDISPPARAMS@@PEAUtagVARIANT@@PEAUtagEXCEPINFO@@PEAI@Z
	DQ	FLAT:?get_AvgTimePerFrame@CBaseControlVideo@@UEAAJPEAN@Z
	DQ	FLAT:?get_BitRate@CBaseControlVideo@@UEAAJPEAJ@Z
	DQ	FLAT:?get_BitErrorRate@CBaseControlVideo@@UEAAJPEAJ@Z
	DQ	FLAT:?get_VideoWidth@CBaseControlVideo@@UEAAJPEAJ@Z
	DQ	FLAT:?get_VideoHeight@CBaseControlVideo@@UEAAJPEAJ@Z
	DQ	FLAT:?put_SourceLeft@CBaseControlVideo@@UEAAJJ@Z
	DQ	FLAT:?get_SourceLeft@CBaseControlVideo@@UEAAJPEAJ@Z
	DQ	FLAT:?put_SourceWidth@CBaseControlVideo@@UEAAJJ@Z
	DQ	FLAT:?get_SourceWidth@CBaseControlVideo@@UEAAJPEAJ@Z
	DQ	FLAT:?put_SourceTop@CBaseControlVideo@@UEAAJJ@Z
	DQ	FLAT:?get_SourceTop@CBaseControlVideo@@UEAAJPEAJ@Z
	DQ	FLAT:?put_SourceHeight@CBaseControlVideo@@UEAAJJ@Z
	DQ	FLAT:?get_SourceHeight@CBaseControlVideo@@UEAAJPEAJ@Z
	DQ	FLAT:?put_DestinationLeft@CBaseControlVideo@@UEAAJJ@Z
	DQ	FLAT:?get_DestinationLeft@CBaseControlVideo@@UEAAJPEAJ@Z
	DQ	FLAT:?put_DestinationWidth@CBaseControlVideo@@UEAAJJ@Z
	DQ	FLAT:?get_DestinationWidth@CBaseControlVideo@@UEAAJPEAJ@Z
	DQ	FLAT:?put_DestinationTop@CBaseControlVideo@@UEAAJJ@Z
	DQ	FLAT:?get_DestinationTop@CBaseControlVideo@@UEAAJPEAJ@Z
	DQ	FLAT:?put_DestinationHeight@CBaseControlVideo@@UEAAJJ@Z
	DQ	FLAT:?get_DestinationHeight@CBaseControlVideo@@UEAAJPEAJ@Z
	DQ	FLAT:?SetSourcePosition@CBaseControlVideo@@UEAAJJJJJ@Z
	DQ	FLAT:?GetSourcePosition@CBaseControlVideo@@UEAAJPEAJ000@Z
	DQ	FLAT:?SetDefaultSourcePosition@CBaseControlVideo@@UEAAJXZ
	DQ	FLAT:?SetDestinationPosition@CBaseControlVideo@@UEAAJJJJJ@Z
	DQ	FLAT:?GetDestinationPosition@CBaseControlVideo@@UEAAJPEAJ000@Z
	DQ	FLAT:?SetDefaultDestinationPosition@CBaseControlVideo@@UEAAJXZ
	DQ	FLAT:?GetVideoSize@CBaseControlVideo@@UEAAJPEAJ0@Z
	DQ	FLAT:?GetVideoPaletteEntries@CBaseControlVideo@@UEAAJJJPEAJ0@Z
	DQ	FLAT:?GetCurrentImage@CBaseControlVideo@@UEAAJPEAJ0@Z
	DQ	FLAT:?IsUsingDefaultSource@CBaseControlVideo@@UEAAJXZ
	DQ	FLAT:?IsUsingDefaultDestination@CBaseControlVideo@@UEAAJXZ
	DQ	FLAT:?GetPreferredAspectRatio@CBaseBasicVideo@@UEAAJPEAJ0@Z
	DQ	FLAT:_purecall
	DQ	FLAT:_purecall
	DQ	FLAT:_purecall
	DQ	FLAT:_purecall
	DQ	FLAT:_purecall
	DQ	FLAT:_purecall
	DQ	FLAT:_purecall
	DQ	FLAT:_purecall
	DQ	FLAT:_purecall
	DQ	FLAT:_purecall
	DQ	FLAT:?OnUpdateRectangles@CBaseControlVideo@@UEAAJXZ
	DQ	FLAT:?OnVideoSizeChange@CBaseControlVideo@@UEAAJXZ
	DQ	FLAT:?CheckSourceRect@CBaseControlVideo@@UEAAJPEAUtagRECT@@@Z
	DQ	FLAT:?CheckTargetRect@CBaseControlVideo@@UEAAJPEAUtagRECT@@@Z
; Function compile flags: /Odtp /RTCsu
CONST	ENDS
;	COMDAT ??0CBaseControlVideo@@QEAA@PEAVCBaseFilter@@PEAVCCritSec@@PEA_WPEAUIUnknown@@PEAJ@Z
_TEXT	SEGMENT
$T85258 = 32
this$ = 64
pFilter$ = 72
pInterfaceLock$ = 80
pName$ = 88
pUnk$ = 96
phr$ = 104
??0CBaseControlVideo@@QEAA@PEAVCBaseFilter@@PEAVCCritSec@@PEA_WPEAUIUnknown@@PEAJ@Z PROC ; CBaseControlVideo::CBaseControlVideo, COMDAT
; Line 1102
$LN7:
	mov	QWORD PTR [rsp+32], r9
	mov	QWORD PTR [rsp+24], r8
	mov	QWORD PTR [rsp+16], rdx
	mov	QWORD PTR [rsp+8], rcx
	push	rdi
	sub	rsp, 48					; 00000030H
	mov	rdi, rsp
	mov	ecx, 12
	mov	eax, -858993460				; ccccccccH
	rep stosd
	mov	rcx, QWORD PTR [rsp+64]
	mov	QWORD PTR $T85258[rsp], -2
	mov	r8, QWORD PTR pUnk$[rsp]
	mov	rdx, QWORD PTR pName$[rsp]
	mov	rcx, QWORD PTR this$[rsp]
	call	??0CBaseBasicVideo@@QEAA@PEB_WPEAUIUnknown@@@Z ; CBaseBasicVideo::CBaseBasicVideo
	npad	1
	mov	rax, QWORD PTR this$[rsp]
	lea	rcx, OFFSET FLAT:??_7CBaseControlVideo@@6BIBasicVideo2@@@
	mov	QWORD PTR [rax], rcx
	mov	rax, QWORD PTR this$[rsp]
	lea	rcx, OFFSET FLAT:??_7CBaseControlVideo@@6BCUnknown@@@
	mov	QWORD PTR [rax+8], rcx
	mov	rax, QWORD PTR this$[rsp]
	mov	rcx, QWORD PTR pFilter$[rsp]
	mov	QWORD PTR [rax+48], rcx
	mov	rax, QWORD PTR this$[rsp]
	mov	QWORD PTR [rax+56], 0
	mov	rax, QWORD PTR this$[rsp]
	mov	rcx, QWORD PTR pInterfaceLock$[rsp]
	mov	QWORD PTR [rax+64], rcx
; Line 1103
	mov	rax, QWORD PTR this$[rsp]
	cmp	QWORD PTR [rax+48], 0
	jne	SHORT $LN3@CBaseContr@2
	mov	r8d, 1103				; 0000044fH
	lea	rdx, OFFSET FLAT:$SG82994
	lea	rcx, OFFSET FLAT:$SG82995
	call	?DbgAssert@@YAXPEB_W0H@Z		; DbgAssert
$LN3@CBaseContr@2:
; Line 1104
	mov	rax, QWORD PTR this$[rsp]
	cmp	QWORD PTR [rax+64], 0
	jne	SHORT $LN2@CBaseContr@2
	mov	r8d, 1104				; 00000450H
	lea	rdx, OFFSET FLAT:$SG82997
	lea	rcx, OFFSET FLAT:$SG82998
	call	?DbgAssert@@YAXPEB_W0H@Z		; DbgAssert
$LN2@CBaseContr@2:
; Line 1105
	cmp	QWORD PTR phr$[rsp], 0
	jne	SHORT $LN1@CBaseContr@2
	mov	r8d, 1105				; 00000451H
	lea	rdx, OFFSET FLAT:$SG83000
	lea	rcx, OFFSET FLAT:$SG83001
	call	?DbgAssert@@YAXPEB_W0H@Z		; DbgAssert
	npad	1
$LN1@CBaseContr@2:
; Line 1106
	mov	rax, QWORD PTR this$[rsp]
	add	rsp, 48					; 00000030H
	pop	rdi
	ret	0
??0CBaseControlVideo@@QEAA@PEAVCBaseFilter@@PEAVCCritSec@@PEA_WPEAUIUnknown@@PEAJ@Z ENDP ; CBaseControlVideo::CBaseControlVideo
; Function compile flags: /Odtp /RTCsu
_TEXT	ENDS
;	COMDAT text$x
text$x	SEGMENT
$T85258 = 32
this$ = 64
pFilter$ = 72
pInterfaceLock$ = 80
pName$ = 88
pUnk$ = 96
phr$ = 104
?dtor$0@?0???0CBaseControlVideo@@QEAA@PEAVCBaseFilter@@PEAVCCritSec@@PEA_WPEAUIUnknown@@PEAJ@Z@4HA PROC ; `CBaseControlVideo::CBaseControlVideo'::`1'::dtor$0
	mov	QWORD PTR [rsp+8], rcx
	mov	QWORD PTR [rsp+16], rdx
	push	rbp
	push	rdi
	sub	rsp, 40					; 00000028H
	mov	rbp, rdx
	mov	rcx, QWORD PTR this$[rbp]
	call	??1CBaseBasicVideo@@UEAA@XZ
	add	rsp, 40					; 00000028H
	pop	rdi
	pop	rbp
	ret	0
?dtor$0@?0???0CBaseControlVideo@@QEAA@PEAVCBaseFilter@@PEAVCCritSec@@PEA_WPEAUIUnknown@@PEAJ@Z@4HA ENDP ; `CBaseControlVideo::CBaseControlVideo'::`1'::dtor$0
text$x	ENDS
;	COMDAT pdata
; File c:\downloads\wpf mediakit - copy\src\filters\baseclasses\ctlutil.h
pdata	SEGMENT
$pdata$?QueryInterface@CBaseBasicVideo@@UEAAJAEBU_GUID@@PEAPEAX@Z DD imagerel $LN3
	DD	imagerel $LN3+93
	DD	imagerel $unwind$?QueryInterface@CBaseBasicVideo@@UEAAJAEBU_GUID@@PEAPEAX@Z
pdata	ENDS
;	COMDAT xdata
xdata	SEGMENT
$unwind$?QueryInterface@CBaseBasicVideo@@UEAAJAEBU_GUID@@PEAPEAX@Z DD 022801H
	DD	070105214H
; Function compile flags: /Odtp /RTCsu
xdata	ENDS
;	COMDAT ?QueryInterface@CBaseBasicVideo@@UEAAJAEBU_GUID@@PEAPEAX@Z
_TEXT	SEGMENT
tv71 = 32
this$ = 64
riid$ = 72
ppv$ = 80
?QueryInterface@CBaseBasicVideo@@UEAAJAEBU_GUID@@PEAPEAX@Z PROC ; CBaseBasicVideo::QueryInterface, COMDAT
; Line 445
$LN3:
	mov	QWORD PTR [rsp+24], r8
	mov	QWORD PTR [rsp+16], rdx
	mov	QWORD PTR [rsp+8], rcx
	push	rdi
	sub	rsp, 48					; 00000030H
	mov	rdi, rsp
	mov	ecx, 12
	mov	eax, -858993460				; ccccccccH
	rep stosd
	mov	rcx, QWORD PTR [rsp+64]
	mov	rax, QWORD PTR this$[rsp]
	add	rax, 8
	mov	rcx, rax
	call	?GetOwner@CUnknown@@QEBAPEAUIUnknown@@XZ ; CUnknown::GetOwner
	mov	QWORD PTR tv71[rsp], rax
	mov	rax, QWORD PTR tv71[rsp]
	mov	rax, QWORD PTR [rax]
	mov	r8, QWORD PTR ppv$[rsp]
	mov	rdx, QWORD PTR riid$[rsp]
	mov	rcx, QWORD PTR tv71[rsp]
	call	QWORD PTR [rax]
	add	rsp, 48					; 00000030H
	pop	rdi
	ret	0
?QueryInterface@CBaseBasicVideo@@UEAAJAEBU_GUID@@PEAPEAX@Z ENDP ; CBaseBasicVideo::QueryInterface
_TEXT	ENDS
;	COMDAT pdata
pdata	SEGMENT
$pdata$?AddRef@CBaseBasicVideo@@UEAAKXZ DD imagerel $LN3
	DD	imagerel $LN3+74
	DD	imagerel $unwind$?AddRef@CBaseBasicVideo@@UEAAKXZ
pdata	ENDS
;	COMDAT xdata
xdata	SEGMENT
$unwind$?AddRef@CBaseBasicVideo@@UEAAKXZ DD 021e01H
	DD	07006520aH
; Function compile flags: /Odtp /RTCsu
xdata	ENDS
;	COMDAT ?AddRef@CBaseBasicVideo@@UEAAKXZ
_TEXT	SEGMENT
tv71 = 32
this$ = 64
?AddRef@CBaseBasicVideo@@UEAAKXZ PROC			; CBaseBasicVideo::AddRef, COMDAT
; Line 445
$LN3:
	mov	QWORD PTR [rsp+8], rcx
	push	rdi
	sub	rsp, 48					; 00000030H
	mov	rdi, rsp
	mov	ecx, 12
	mov	eax, -858993460				; ccccccccH
	rep stosd
	mov	rcx, QWORD PTR [rsp+64]
	mov	rax, QWORD PTR this$[rsp]
	add	rax, 8
	mov	rcx, rax
	call	?GetOwner@CUnknown@@QEBAPEAUIUnknown@@XZ ; CUnknown::GetOwner
	mov	QWORD PTR tv71[rsp], rax
	mov	rax, QWORD PTR tv71[rsp]
	mov	rax, QWORD PTR [rax]
	mov	rcx, QWORD PTR tv71[rsp]
	call	QWORD PTR [rax+8]
	add	rsp, 48					; 00000030H
	pop	rdi
	ret	0
?AddRef@CBaseBasicVideo@@UEAAKXZ ENDP			; CBaseBasicVideo::AddRef
_TEXT	ENDS
;	COMDAT pdata
pdata	SEGMENT
$pdata$?Release@CBaseBasicVideo@@UEAAKXZ DD imagerel $LN3
	DD	imagerel $LN3+74
	DD	imagerel $unwind$?Release@CBaseBasicVideo@@UEAAKXZ
pdata	ENDS
;	COMDAT xdata
xdata	SEGMENT
$unwind$?Release@CBaseBasicVideo@@UEAAKXZ DD 021e01H
	DD	07006520aH
; Function compile flags: /Odtp /RTCsu
xdata	ENDS
;	COMDAT ?Release@CBaseBasicVideo@@UEAAKXZ
_TEXT	SEGMENT
tv71 = 32
this$ = 64
?Release@CBaseBasicVideo@@UEAAKXZ PROC			; CBaseBasicVideo::Release, COMDAT
; Line 445
$LN3:
	mov	QWORD PTR [rsp+8], rcx
	push	rdi
	sub	rsp, 48					; 00000030H
	mov	rdi, rsp
	mov	ecx, 12
	mov	eax, -858993460				; ccccccccH
	rep stosd
	mov	rcx, QWORD PTR [rsp+64]
	mov	rax, QWORD PTR this$[rsp]
	add	rax, 8
	mov	rcx, rax
	call	?GetOwner@CUnknown@@QEBAPEAUIUnknown@@XZ ; CUnknown::GetOwner
	mov	QWORD PTR tv71[rsp], rax
	mov	rax, QWORD PTR tv71[rsp]
	mov	rax, QWORD PTR [rax]
	mov	rcx, QWORD PTR tv71[rsp]
	call	QWORD PTR [rax+16]
	add	rsp, 48					; 00000030H
	pop	rdi
	ret	0
?Release@CBaseBasicVideo@@UEAAKXZ ENDP			; CBaseBasicVideo::Release
_TEXT	ENDS
;	COMDAT pdata
pdata	SEGMENT
$pdata$?GetPreferredAspectRatio@CBaseBasicVideo@@UEAAJPEAJ0@Z DD imagerel $LN3
	DD	imagerel $LN3+23
	DD	imagerel $unwind$?GetPreferredAspectRatio@CBaseBasicVideo@@UEAAJPEAJ0@Z
pdata	ENDS
;	COMDAT xdata
xdata	SEGMENT
$unwind$?GetPreferredAspectRatio@CBaseBasicVideo@@UEAAJPEAJ0@Z DD 011001H
	DD	07010H
; Function compile flags: /Odtp /RTCsu
xdata	ENDS
;	COMDAT ?GetPreferredAspectRatio@CBaseBasicVideo@@UEAAJPEAJ0@Z
_TEXT	SEGMENT
this$ = 16
plAspectX$ = 24
plAspectY$ = 32
?GetPreferredAspectRatio@CBaseBasicVideo@@UEAAJPEAJ0@Z PROC ; CBaseBasicVideo::GetPreferredAspectRatio, COMDAT
; Line 478
$LN3:
	mov	QWORD PTR [rsp+24], r8
	mov	QWORD PTR [rsp+16], rdx
	mov	QWORD PTR [rsp+8], rcx
	push	rdi
; Line 479
	mov	eax, -2147467263			; ffffffff80004001H
; Line 480
	pop	rdi
	ret	0
?GetPreferredAspectRatio@CBaseBasicVideo@@UEAAJPEAJ0@Z ENDP ; CBaseBasicVideo::GetPreferredAspectRatio
_TEXT	ENDS
;	COMDAT pdata
; File c:\downloads\wpf mediakit - copy\src\filters\baseclasses\winctrl.h
pdata	SEGMENT
$pdata$?OnUpdateRectangles@CBaseControlVideo@@UEAAJXZ DD imagerel $LN3
	DD	imagerel $LN3+10
	DD	imagerel $unwind$?OnUpdateRectangles@CBaseControlVideo@@UEAAJXZ
pdata	ENDS
;	COMDAT xdata
xdata	SEGMENT
$unwind$?OnUpdateRectangles@CBaseControlVideo@@UEAAJXZ DD 010601H
	DD	07006H
; Function compile flags: /Odtp /RTCsu
xdata	ENDS
;	COMDAT ?OnUpdateRectangles@CBaseControlVideo@@UEAAJXZ
_TEXT	SEGMENT
this$ = 16
?OnUpdateRectangles@CBaseControlVideo@@UEAAJXZ PROC	; CBaseControlVideo::OnUpdateRectangles, COMDAT
; Line 159
$LN3:
	mov	QWORD PTR [rsp+8], rcx
	push	rdi
	xor	eax, eax
	pop	rdi
	ret	0
?OnUpdateRectangles@CBaseControlVideo@@UEAAJXZ ENDP	; CBaseControlVideo::OnUpdateRectangles
_TEXT	ENDS
;	COMDAT pdata
pdata	SEGMENT
$pdata$??1CBaseBasicVideo@@UEAA@XZ DD imagerel $LN5
	DD	imagerel $LN5+80
	DD	imagerel $unwind$??1CBaseBasicVideo@@UEAA@XZ
pdata	ENDS
;	COMDAT pdata
pdata	SEGMENT
$pdata$?dtor$0@?0???1CBaseBasicVideo@@UEAA@XZ@4HA DD imagerel ?dtor$0@?0???1CBaseBasicVideo@@UEAA@XZ@4HA
	DD	imagerel ?dtor$0@?0???1CBaseBasicVideo@@UEAA@XZ@4HA+39
	DD	imagerel $unwind$?dtor$0@?0???1CBaseBasicVideo@@UEAA@XZ@4HA
pdata	ENDS
;	COMDAT xdata
xdata	SEGMENT
$ip2state$??1CBaseBasicVideo@@UEAA@XZ DD imagerel ??1CBaseBasicVideo@@UEAA@XZ
	DD	0ffffffffH
	DD	imagerel ??1CBaseBasicVideo@@UEAA@XZ+39
	DD	00H
	DD	imagerel ??1CBaseBasicVideo@@UEAA@XZ+57
	DD	0ffffffffH
xdata	ENDS
;	COMDAT xdata
xdata	SEGMENT
$unwind$?dtor$0@?0???1CBaseBasicVideo@@UEAA@XZ@4HA DD 031001H
	DD	0700c4210H
	DD	0500bH
xdata	ENDS
;	COMDAT xdata
xdata	SEGMENT
$unwind$??1CBaseBasicVideo@@UEAA@XZ DD 022711H
	DD	07006520aH
	DD	imagerel __CxxFrameHandler3
	DD	imagerel $cppxdata$??1CBaseBasicVideo@@UEAA@XZ
xdata	ENDS
;	COMDAT CONST
CONST	SEGMENT
$cppxdata$??1CBaseBasicVideo@@UEAA@XZ DD 019930522H
	DD	01H
	DD	imagerel $stateUnwindMap$??1CBaseBasicVideo@@UEAA@XZ
	DD	00H
	DD	00H
	DD	03H
	DD	imagerel $ip2state$??1CBaseBasicVideo@@UEAA@XZ
	DD	020H
	DD	00H
	DD	01H
CONST	ENDS
;	COMDAT xdata
xdata	SEGMENT
$stateUnwindMap$??1CBaseBasicVideo@@UEAA@XZ DD 0ffffffffH
	DD	imagerel ?dtor$0@?0???1CBaseBasicVideo@@UEAA@XZ@4HA
; Function compile flags: /Odtp /RTCsu
xdata	ENDS
;	COMDAT ??1CBaseBasicVideo@@UEAA@XZ
_TEXT	SEGMENT
$T85318 = 32
this$ = 64
??1CBaseBasicVideo@@UEAA@XZ PROC			; CBaseBasicVideo::~CBaseBasicVideo, COMDAT
$LN5:
	mov	QWORD PTR [rsp+8], rcx
	push	rdi
	sub	rsp, 48					; 00000030H
	mov	rdi, rsp
	mov	ecx, 12
	mov	eax, -858993460				; ccccccccH
	rep stosd
	mov	rcx, QWORD PTR [rsp+64]
	mov	QWORD PTR $T85318[rsp], -2
	mov	rax, QWORD PTR this$[rsp]
	add	rax, 40					; 00000028H
	mov	rcx, rax
	call	??1CBaseDispatch@@QEAA@XZ		; CBaseDispatch::~CBaseDispatch
	npad	1
	mov	rax, QWORD PTR this$[rsp]
	add	rax, 8
	mov	rcx, rax
	call	??1CUnknown@@UEAA@XZ			; CUnknown::~CUnknown
	add	rsp, 48					; 00000030H
	pop	rdi
	ret	0
??1CBaseBasicVideo@@UEAA@XZ ENDP			; CBaseBasicVideo::~CBaseBasicVideo
; Function compile flags: /Odtp /RTCsu
_TEXT	ENDS
;	COMDAT text$x
text$x	SEGMENT
$T85318 = 32
this$ = 64
?dtor$0@?0???1CBaseBasicVideo@@UEAA@XZ@4HA PROC		; `CBaseBasicVideo::~CBaseBasicVideo'::`1'::dtor$0
	mov	QWORD PTR [rsp+8], rcx
	mov	QWORD PTR [rsp+16], rdx
	push	rbp
	push	rdi
	sub	rsp, 40					; 00000028H
	mov	rbp, rdx
	mov	rcx, QWORD PTR this$[rbp]
	add	rcx, 8
	call	??1CUnknown@@UEAA@XZ			; CUnknown::~CUnknown
	add	rsp, 40					; 00000028H
	pop	rdi
	pop	rbp
	ret	0
?dtor$0@?0???1CBaseBasicVideo@@UEAA@XZ@4HA ENDP		; `CBaseBasicVideo::~CBaseBasicVideo'::`1'::dtor$0
text$x	ENDS
PUBLIC	??BCOARefTime@@QEAANXZ				; COARefTime::operator double
PUBLIC	??0COARefTime@@QEAA@_J@Z			; COARefTime::COARefTime
EXTRN	_fltused:DWORD
;	COMDAT pdata
; File c:\downloads\wpf mediakit - copy\src\filters\baseclasses\winctrl.cpp
pdata	SEGMENT
$pdata$?get_AvgTimePerFrame@CBaseControlVideo@@UEAAJPEAN@Z DD imagerel $LN10
	DD	imagerel $LN10+328
