; Listing generated by Microsoft (R) Optimizing Compiler Version 16.00.30319.01 

include listing.inc

INCLUDELIB LIBCMTD
INCLUDELIB OLDNAMES

PUBLIC	?m_dwObjectCount@@3KA				; m_dwObjectCount
PUBLIC	?m_Levels@@3PAKA				; m_Levels
PUBLIC	?GuidNames@@3VCGuidNameList@@A			; GuidNames
PUBLIC	?m_hInst@@3PEAUHINSTANCE__@@EA			; m_hInst
PUBLIC	?m_CSDebug@@3U_RTL_CRITICAL_SECTION@@A		; m_CSDebug
PUBLIC	?m_dwNextCookie@@3KA				; m_dwNextCookie
PUBLIC	?m_ModuleName@@3PA_WA				; m_ModuleName
PUBLIC	?dwTimeOffset@@3KA				; dwTimeOffset
PUBLIC	IID_IAMFilterGraphCallback
PUBLIC	?pKeyNames@@3PAPEA_WA				; pKeyNames
PUBLIC	?_szEntering@CAutoTrace@@0QB_WB			; CAutoTrace::_szEntering
PUBLIC	?_szLeaving@CAutoTrace@@0QB_WB			; CAutoTrace::_szLeaving
PUBLIC	?pListHead@@3PEAUtag_ObjectDesc@@EA		; pListHead
PUBLIC	?m_bInit@@3HA					; m_bInit
PUBLIC	?m_hOutput@@3PEAXEA				; m_hOutput
PUBLIC	?dwWaitTimeout@@3KA				; dwWaitTimeout
PUBLIC	?g_fUseKASSERT@@3_NA				; g_fUseKASSERT
PUBLIC	?g_fDbgInDllEntryPoint@@3_NA			; g_fDbgInDllEntryPoint
PUBLIC	?g_fAutoRefreshLevels@@3_NA			; g_fAutoRefreshLevels
PUBLIC	?pBaseKey@@3PEB_WEB				; pBaseKey
PUBLIC	?pGlobalKey@@3PEB_WEB				; pGlobalKey
PUBLIC	?TimeoutName@@3PEA_WEA				; TimeoutName
PUBLIC	?g_GuidNames@@3PAUGUID_STRING_ENTRY@@A		; g_GuidNames
PUBLIC	?g_cGuidNames@@3HA				; g_cGuidNames
_BSS	SEGMENT
?m_dwObjectCount@@3KA DD 01H DUP (?)			; m_dwObjectCount
?m_Levels@@3PAKA DD 0aH DUP (?)				; m_Levels
?GuidNames@@3VCGuidNameList@@A DB 01H DUP (?)		; GuidNames
	ALIGN	8

?m_hInst@@3PEAUHINSTANCE__@@EA DQ 01H DUP (?)		; m_hInst
?m_CSDebug@@3U_RTL_CRITICAL_SECTION@@A DB 028H DUP (?)	; m_CSDebug
?m_dwNextCookie@@3KA DD 01H DUP (?)			; m_dwNextCookie
?m_ModuleName@@3PA_WA DW 0400H DUP (?)			; m_ModuleName
?dwTimeOffset@@3KA DD 01H DUP (?)			; dwTimeOffset
?pListHead@@3PEAUtag_ObjectDesc@@EA DQ 01H DUP (?)	; pListHead
?m_bInit@@3HA DD 01H DUP (?)				; m_bInit
?g_fUseKASSERT@@3_NA DB 01H DUP (?)			; g_fUseKASSERT
	ALIGN	4

?g_fDbgInDllEntryPoint@@3_NA DB 01H DUP (?)		; g_fDbgInDllEntryPoint
	ALIGN	4

?g_fAutoRefreshLevels@@3_NA DB 01H DUP (?)		; g_fAutoRefreshLevels
_BSS	ENDS
_DATA	SEGMENT
?pKeyNames@@3PAPEA_WA DQ FLAT:$SG84058			; pKeyNames
	DQ	FLAT:$SG84059
	DQ	FLAT:$SG84060
	DQ	FLAT:$SG84061
	DQ	FLAT:$SG84062
	DQ	FLAT:$SG84063
	DQ	FLAT:$SG84064
	DQ	FLAT:$SG84065
	DQ	FLAT:$SG84066
	DQ	FLAT:$SG84067
?m_hOutput@@3PEAXEA DQ ffffffffffffffffH		; m_hOutput
?dwWaitTimeout@@3KA DD 0ffffffffH			; dwWaitTimeout
?g_cGuidNames@@3HA DD 01b8H				; g_cGuidNames
?pBaseKey@@3PEB_WEB DQ FLAT:$SG84086			; pBaseKey
?pGlobalKey@@3PEB_WEB DQ FLAT:$SG84088			; pGlobalKey
pUnknownName DQ	FLAT:$SG84090
?TimeoutName@@3PEA_WEA DQ FLAT:$SG84092			; TimeoutName
?g_GuidNames@@3PAUGUID_STRING_ENTRY@@A DQ FLAT:$SG84505	; g_GuidNames
	DD	0e436eb8eH
	DW	0524fH
	DW	011ceH
	DB	09fH
	DB	053H
	DB	00H
	DB	020H
	DB	0afH
	DB	0bH
	DB	0a7H
	DB	070H
	DQ	FLAT:$SG84506
	DD	073646976H
	DW	00H
	DW	010H
	DB	080H
	DB	00H
	DB	00H
	DB	0aaH
	DB	00H
	DB	038H
	DB	09bH
	DB	071H
	DQ	FLAT:$SG84507
	DD	073647561H
	DW	00H
	DW	010H
	DB	080H
	DB	00H
	DB	00H
	DB	0aaH
	DB	00H
	DB	038H
	DB	09bH
	DB	071H
	DQ	FLAT:$SG84508
	DD	073747874H
	DW	00H
	DW	010H
	DB	080H
	DB	00H
	DB	00H
	DB	0aaH
	DB	00H
	DB	038H
	DB	09bH
	DB	071H
	DQ	FLAT:$SG84509
	DD	07364696dH
	DW	00H
	DW	010H
	DB	080H
	DB	00H
	DB	00H
	DB	0aaH
	DB	00H
	DB	038H
	DB	09bH
	DB	071H
	DQ	FLAT:$SG84510
	DD	0e436eb83H
	DW	0524fH
	DW	011ceH
	DB	09fH
	DB	053H
	DB	00H
	DB	020H
	DB	0afH
	DB	0bH
	DB	0a7H
	DB	070H
	DQ	FLAT:$SG84511
	DD	073766169H
	DW	00H
	DW	010H
	DB	080H
	DB	00H
	DB	00H
	DB	0aaH
	DB	00H
	DB	038H
	DB	09bH
	DB	071H
	DQ	FLAT:$SG84512
	DD	0656c6966H
	DW	00H
	DW	010H
	DB	080H
	DB	00H
	DB	00H
	DB	0aaH
	DB	00H
	DB	038H
	DB	09bH
	DB	071H
	DQ	FLAT:$SG84513
	DD	073636d64H
	DW	00H
	DW	010H
	DB	080H
	DB	00H
	DB	00H
	DB	0aaH
	DB	00H
	DB	038H
	DB	09bH
	DB	071H
	DQ	FLAT:$SG84514
	DD	0670aea80H
	DW	03a82H
	DW	011d0H
	DB	0b7H
	DB	09bH
	DB	00H
	DB	0aaH
	DB	00H
	DB	037H
	DB	067H
	DB	0a7H
	DQ	FLAT:$SG84515
	DD	011264acbH
	DW	037deH
	DW	04ebaH
	DB	08cH
	DB	035H
	DB	07fH
	DB	04H
	DB	0a1H
	DB	0a6H
	DB	083H
	DB	032H
	DQ	FLAT:$SG84516
	DD	0aeb312e9H
	DW	03357H
	DW	043caH
	DB	0b7H
	DB	01H
	DB	097H
	DB	0ecH
	DB	019H
	DB	08eH
	DB	02bH
	DB	062H
	DQ	FLAT:$SG84517
	DD	0fb77e152H
	DW	053b2H
	DW	0499cH
	DB	0b4H
	DB	06bH
	DB	050H
	DB	09fH
	DB	0c3H
	DB	03eH
	DB	0dfH
	DB	0d7H
	DQ	FLAT:$SG84518
	DD	0b88b8a89H
	DW	0b049H
	DW	04c80H
	DB	0adH
	DB	0cfH
	DB	058H
	DB	098H
	DB	098H
	DB	05eH
	DB	022H
	DB	0c1H
	DQ	FLAT:$SG84519
	DD	0f72a76e1H
	DW	0eb0aH
	DW	011d0H
	DB	0acH
	DB	0e4H
	DB	00H
	DB	00H
	DB	0c0H
	DB	0ccH
	DB	016H
	DB	0baH
	DQ	FLAT:$SG84520
	DD	034ffcbc3H
	DW	0d5b3H
	DW	04171H
	DB	090H
	DB	02H
	DB	0d4H
	DB	0c6H
	DB	03H
	DB	01H
	DB	069H
	DB	07fH
	DQ	FLAT:$SG84521
	DD	059dd67dH
	DW	02e55H
	DW	04d41H
	DB	08dH
	DB	01bH
	DB	01H
	DB	0f5H
	DB	0e4H
	DB	0f5H
	DB	06H
	DB	07H
	DQ	FLAT:$SG84522
	DD	036dc6d28H
	DW	0f1a6H
	DW	04216H
	DB	090H
	DB	048H
	DB	09cH
	DB	0fcH
	DB	0efH
	DB	0ebH
	DB	05eH
	DB	0baH
	DQ	FLAT:$SG84523
	DD	0482dee3H
	DW	07817H
	DW	011cfH
	DB	08aH
	DB	03H
	DB	00H
	DB	0aaH
	DB	00H
	DB	06eH
	DB	0cbH
	DB	065H
	DQ	FLAT:$SG84524
	DD	074726c6dH
	DW	00H
	DW	010H
	DB	080H
	DB	00H
	DB	00H
	DB	0aaH
	DB	00H
	DB	038H
	DB	09bH
	DB	071H
	DQ	FLAT:$SG84525
	DD	0736c7275H
	DW	00H
	DW	010H
	DB	080H
	DB	00H
	DB	00H
	DB	0aaH
	DB	00H
	DB	038H
	DB	09bH
	DB	071H
	DQ	FLAT:$SG84526
	DD	04c504c43H
	DW	00H
	DW	010H
	DB	080H
	DB	00H
	DB	00H
	DB	0aaH
	DB	00H
	DB	038H
	DB	09bH
	DB	071H
	DQ	FLAT:$SG84527
	DD	056595559H
	DW	00H
	DW	010H
	DB	080H
	DB	00H
	DB	00H
	DB	0aaH
	DB	00H
	DB	038H
	DB	09bH
	DB	071H
	DQ	FLAT:$SG84528
	DD	056555949H
	DW	00H
	DW	010H
	DB	080H
	DB	00H
	DB	00H
	DB	0aaH
	DB	00H
	DB	038H
	DB	09bH
	DB	071H
	DQ	FLAT:$SG84529
	DD	039555659H
	DW	00H
	DW	010H
	DB	080H
	DB	00H
	DB	00H
	DB	0aaH
	DB	00H
	DB	038H
	DB	09bH
	DB	071H
	DQ	FLAT:$SG84530
	DD	031313459H
	DW	00H
	DW	010H
	DB	080H
	DB	00H
	DB	00H
	DB	0aaH
	DB	00H
	DB	038H
	DB	09bH
	DB	071H
	DQ	FLAT:$SG84531
	DD	050313459H
	DW	00H
	DW	010H
	DB	080H
	DB	00H
	DB	00H
	DB	0aaH
	DB	00H
	DB	038H
	DB	09bH
	DB	071H
	DQ	FLAT:$SG84532
	DD	032595559H
	DW	00H
	DW	010H
	DB	080H
	DB	00H
	DB	00H
	DB	0aaH
	DB	00H
	DB	038H
	DB	09bH
	DB	071H
	DQ	FLAT:$SG84533
	DD	055595659H
	DW	00H
	DW	010H
	DB	080H
	DB	00H
	DB	00H
	DB	0aaH
	DB	00H
	DB	038H
	DB	09bH
	DB	071H
	DQ	FLAT:$SG84534
	DD	059565955H
	DW	00H
	DW	010H
	DB	080H
	DB	00H
	DB	00H
	DB	0aaH
	DB	00H
	DB	038H
	DB	09bH
	DB	071H
	DQ	FLAT:$SG84535
	DD	031313259H
	DW	00H
	DW	010H
	DB	080H
	DB	00H
	DB	00H
	DB	0aaH
	DB	00H
	DB	038H
	DB	09bH
	DB	071H
	DQ	FLAT:$SG84536
	DD	0524a4c43H
	DW	00H
	DW	010H
	DB	080H
	DB	00H
	DB	00H
	DB	0aaH
	DB	00H
	DB	038H
	DB	09bH
	DB	071H
	DQ	FLAT:$SG84537
	DD	039304649H
	DW	00H
	DW	010H
	DB	080H
	DB	00H
	DB	00H
	DB	0aaH
	DB	00H
	DB	038H
	DB	09bH
	DB	071H
	DQ	FLAT:$SG84538
	DD	0414c5043H
	DW	00H
	DW	010H
	DB	080H
	DB	00H
	DB	00H
	DB	0aaH
	DB	00H
	DB	038H
	DB	09bH
	DB	071H
	DQ	FLAT:$SG84539
	DD	047504a4dH
	DW	00H
	DW	010H
	DB	080H
	DB	00H
	DB	00H
	DB	0aaH
	DB	00H
	DB	038H
	DB	09bH
	DB	071H
	DQ	FLAT:$SG84540
	DD	04a4d5654H
	DW	00H
	DW	010H
	DB	080H
	DB	00H
	DB	00H
	DB	0aaH
	DB	00H
	DB	038H
	DB	09bH
	DB	071H
	DQ	FLAT:$SG84541
	DD	0454b4157H
	DW	00H
	DW	010H
	DB	080H
	DB	00H
	DB	00H
	DB	0aaH
	DB	00H
	DB	038H
	DB	09bH
	DB	071H
	DQ	FLAT:$SG84542
	DD	043434643H
	DW	00H
	DW	010H
	DB	080H
	DB	00H
	DB	00H
	DB	0aaH
	DB	00H
	DB	038H
	DB	09bH
	DB	071H
	DQ	FLAT:$SG84543
	DD	047504a49H
	DW	00H
	DW	010H
	DB	080H
	DB	00H
	DB	00H
	DB	0aaH
	DB	00H
	DB	038H
	DB	09bH
	DB	071H
	DQ	FLAT:$SG84544
	DD	06d756c50H
	DW	00H
	DW	010H
	DB	080H
	DB	00H
	DB	00H
	DB	0aaH
	DB	00H
	DB	038H
	DB	09bH
	DB	071H
	DQ	FLAT:$SG84545
	DD	053435644H
	DW	00H
	DW	010H
	DB	080H
	DB	00H
	DB	00H
	DB	0aaH
	DB	00H
	DB	038H
	DB	09bH
	DB	071H
	DQ	FLAT:$SG84546
	DD	034363248H
	DW	00H
	DW	010H
	DB	080H
	DB	00H
	DB	00H
	DB	0aaH
	DB	00H
	DB	038H
	DB	09bH
	DB	071H
	DQ	FLAT:$SG84547
	DD	044535644H
	DW	00H
	DW	010H
	DB	080H
	DB	00H
	DB	00H
	DB	0aaH
	DB	00H
	DB	038H
	DB	09bH
	DB	071H
	DQ	FLAT:$SG84548
	DD	04656444dH
	DW	00H
	DW	010H
	DB	080H
	DB	00H
	DB	00H
	DB	0aaH
	DB	00H
	DB	038H
	DB	09bH
	DB	071H
	DQ	FLAT:$SG84549
	DD	0e436eb78H
	DW	0524fH
	DW	011ceH
	DB	09fH
	DB	053H
	DB	00H
	DB	020H
	DB	0afH
	DB	0bH
	DB	0a7H
	DB	070H
	DQ	FLAT:$SG84550
	DD	0e436eb79H
	DW	0524fH
	DW	011ceH
	DB	09fH
	DB	053H
	DB	00H
	DB	020H
	DB	0afH
	DB	0bH
	DB	0a7H
	DB	070H
	DQ	FLAT:$SG84551
	DD	0e436eb7aH
	DW	0524fH
	DW	011ceH
	DB	09fH
	DB	053H
	DB	00H
	DB	020H
	DB	0afH
	DB	0bH
	DB	0a7H
	DB	070H
	DQ	FLAT:$SG84552
	DD	0e436eb7bH
	DW	0524fH
	DW	011ceH
	DB	09fH
	DB	053H
	DB	00H
	DB	020H
	DB	0afH
	DB	0bH
	DB	0a7H
	DB	070H
	DQ	FLAT:$SG84553
	DD	0e436eb7cH
	DW	0524fH
	DW	011ceH
	DB	09fH
	DB	053H
	DB	00H
	DB	020H
	DB	0afH
	DB	0bH
	DB	0a7H
	DB	070H
	DQ	FLAT:$SG84554
	DD	0e436eb7dH
	DW	0524fH
	DW	011ceH
	DB	09fH
	DB	053H
	DB	00H
	DB	020H
	DB	0afH
	DB	0bH
	DB	0a7H
	DB	070H
	DQ	FLAT:$SG84555
	DD	0e436eb7eH
	DW	0524fH
	DW	011ceH
	DB	09fH
	DB	053H
	DB	00H
	DB	020H
	DB	0afH
	DB	0bH
	DB	0a7H
	DB	070H
	DQ	FLAT:$SG84556
	DD	0297c55afH
	DW	0e209H
	DW	04cb3H
	DB	0b7H
	DB	057H
	DB	0c7H
	DB	06dH
	DB	06bH
	DB	09cH
	DB	088H
	DB	0a8H
	DQ	FLAT:$SG84557
	DD	06e6415e6H
	DW	05c24H
	DW	0425fH
	DB	093H
	DB	0cdH
	DB	080H
	DB	010H
	DB	02bH
	DB	03dH
	DB	01cH
	DB	0caH
	DQ	FLAT:$SG84558
	DD	0773c9ac0H
	DW	03274H
	DW	011d0H
	DB	0b7H
	DB	024H
	DB	00H
	DB	0aaH
	DB	00H
	DB	06cH
	DB	01aH
	DB	01H
	DQ	FLAT:$SG84559
	DD	02f8bb76dH
	DW	0b644H
	DW	04550H
	DB	0acH
	DB	0f3H
	DB	0d3H
	DB	0cH
	DB	0aaH
	DB	065H
	DB	0d5H
	DB	0c5H
	DQ	FLAT:$SG84560
	DD	0576f7893H
	DW	0bdf6H
	DW	048c4H
	DB	087H
	DB	05fH
	DB	0aeH
	DB	07bH
	DB	081H
	DB	083H
	DB	045H
	DB	067H
	DQ	FLAT:$SG84561
	DD	056555941H
	DW	00H
	DW	010H
	DB	080H
	DB	00H
	DB	00H
	DB	0aaH
	DB	00H
	DB	038H
	DB	09bH
	DB	071H
	DQ	FLAT:$SG84562
	DD	034344941H
	DW	00H
	DW	010H
	DB	080H
	DB	00H
	DB	00H
	DB	0aaH
	DB	00H
	DB	038H
	DB	09bH
	DB	071H
	DQ	FLAT:$SG84563
	DD	034344149H
	DW	00H
	DW	010H
	DB	080H
	DB	00H
	DB	00H
	DB	0aaH
	DB	00H
	DB	038H
	DB	09bH
	DB	071H
	DQ	FLAT:$SG84564
	DD	032335237H
	DW	00H
	DW	010H
	DB	080H
	DB	00H
	DB	00H
	DB	0aaH
	DB	00H
	DB	038H
	DB	09bH
	DB	071H
	DQ	FLAT:$SG84565
	DD	036315237H
	DW	00H
	DW	010H
	DB	080H
	DB	00H
	DB	00H
	DB	0aaH
	DB	00H
	DB	038H
	DB	09bH
	DB	071H
	DQ	FLAT:$SG84566
	DD	038384137H
	DW	00H
	DW	010H
	DB	080H
	DB	00H
	DB	00H
	DB	0aaH
	DB	00H
	DB	038H
	DB	09bH
	DB	071H
	DQ	FLAT:$SG84567
	DD	034344137H
	DW	00H
	DW	010H
	DB	080H
	DB	00H
	DB	00H
	DB	0aaH
	DB	00H
	DB	038H
	DB	09bH
	DB	071H
	DQ	FLAT:$SG84568
	DD	035314137H
	DW	00H
	DW	010H
	DB	080H
	DB	00H
	DB	00H
	DB	0aaH
	DB	00H
	DB	038H
	DB	09bH
	DB	071H
	DQ	FLAT:$SG84569
	DD	032335239H
	DW	00H
	DW	010H
	DB	080H
	DB	00H
	DB	00H
	DB	0aaH
	DB	00H
	DB	038H
	DB	09bH
	DB	071H
	DQ	FLAT:$SG84570
	DD	036315239H
	DW	00H
	DW	010H
	DB	080H
	DB	00H
	DB	00H
	DB	0aaH
	DB	00H
	DB	038H
	DB	09bH
	DB	071H
	DQ	FLAT:$SG84571
	DD	038384139H
	DW	00H
	DW	010H
	DB	080H
	DB	00H
	DB	00H
	DB	0aaH
	DB	00H
	DB	038H
	DB	09bH
	DB	071H
	DQ	FLAT:$SG84572
	DD	034344139H
	DW	00H
	DW	010H
	DB	080H
	DB	00H
	DB	00H
	DB	0aaH
	DB	00H
	DB	038H
	DB	09bH
	DB	071H
	DQ	FLAT:$SG84573
	DD	035314139H
	DW	00H
	DW	010H
	DB	080H
	DB	00H
	DB	00H
	DB	0aaH
	DB	00H
	DB	038H
	DB	09bH
	DB	071H
	DQ	FLAT:$SG84574
	DD	032315659H
	DW	00H
	DW	010H
	DB	080H
	DB	00H
	DB	00H
	DB	0aaH
	DB	00H
	DB	038H
	DB	09bH
	DB	071H
	DQ	FLAT:$SG84575
	DD	03231564eH
	DW	00H
	DW	010H
	DB	080H
	DB	00H
	DB	00H
	DB	0aaH
	DB	00H
	DB	038H
	DB	09bH
	DB	071H
	DQ	FLAT:$SG84576
	DD	038303250H
	DW	00H
	DW	010H
	DB	080H
	DB	00H
	DB	00H
	DB	0aaH
	DB	00H
	DB	038H
	DB	09bH
	DB	071H
	DQ	FLAT:$SG84577
	DD	030313250H
	DW	00H
	DW	010H
	DB	080H
	DB	00H
	DB	00H
	DB	0aaH
	DB	00H
	DB	038H
	DB	09bH
	DB	071H
	DQ	FLAT:$SG84578
	DD	036313250H
	DW	00H
	DW	010H
	DB	080H
	DB	00H
	DB	00H
	DB	0aaH
	DB	00H
	DB	038H
	DB	09bH
	DB	071H
	DQ	FLAT:$SG84579
	DD	030313050H
	DW	00H
	DW	010H
	DB	080H
	DB	00H
	DB	00H
	DB	0aaH
	DB	00H
	DB	038H
	DB	09bH
	DB	071H
	DQ	FLAT:$SG84580
	DD	036313050H
	DW	00H
	DW	010H
	DB	080H
	DB	00H
	DB	00H
	DB	0aaH
	DB	00H
	DB	038H
	DB	09bH
	DB	071H
	DQ	FLAT:$SG84581
	DD	030313259H
	DW	00H
	DW	010H
	DB	080H
	DB	00H
	DB	00H
	DB	0aaH
	DB	00H
	DB	038H
	DB	09bH
	DB	071H
	DQ	FLAT:$SG84582
	DD	036313259H
	DW	00H
	DW	010H
	DB	080H
	DB	00H
	DB	00H
	DB	0aaH
	DB	00H
	DB	038H
	DB	09bH
	DB	071H
	DQ	FLAT:$SG84583
	DD	038303450H
	DW	00H
	DW	010H
	DB	080H
	DB	00H
	DB	00H
	DB	0aaH
	DB	00H
	DB	038H
	DB	09bH
	DB	071H
	DQ	FLAT:$SG84584
	DD	03432564eH
	DW	00H
	DW	010H
	DB	080H
	DB	00H
	DB	00H
	DB	0aaH
	DB	00H
	DB	038H
	DB	09bH
	DB	071H
	DQ	FLAT:$SG84585
	DD	031434d49H
	DW	00H
	DW	010H
	DB	080H
	DB	00H
	DB	00H
	DB	0aaH
	DB	00H
	DB	038H
	DB	09bH
	DB	071H
	DQ	FLAT:$SG84586
	DD	032434d49H
	DW	00H
	DW	010H
	DB	080H
	DB	00H
	DB	00H
	DB	0aaH
	DB	00H
	DB	038H
	DB	09bH
	DB	071H
	DQ	FLAT:$SG84587
	DD	033434d49H
	DW	00H
	DW	010H
	DB	080H
	DB	00H
	DB	00H
	DB	0aaH
	DB	00H
	DB	038H
	DB	09bH
	DB	071H
	DQ	FLAT:$SG84588
	DD	034434d49H
	DW	00H
	DW	010H
	DB	080H
	DB	00H
	DB	00H
	DB	0aaH
	DB	00H
	DB	038H
	DB	09bH
	DB	071H
	DQ	FLAT:$SG84589
	DD	030343353H
	DW	00H
	DW	010H
	DB	080H
	DB	00H
	DB	00H
	DB	0aaH
	DB	00H
	DB	038H
	DB	09bH
	DB	071H
	DQ	FLAT:$SG84590
	DD	032343353H
	DW	00H
	DW	010H
	DB	080H
	DB	00H
	DB	00H
	DB	0aaH
	DB	00H
	DB	038H
	DB	09bH
	DB	071H
	DQ	FLAT:$SG84591
	DD	0e436eb7fH
	DW	0524fH
	DW	011ceH
	DB	09fH
	DB	053H
	DB	00H
	DB	020H
	DB	0afH
	DB	0bH
	DB	0a7H
	DB	070H
	DQ	FLAT:$SG84592
	DD	0e436eb80H
	DW	0524fH
	DW	011ceH
	DB	09fH
	DB	053H
	DB	00H
	DB	020H
	DB	0afH
	DB	0bH
	DB	0a7H
	DB	070H
	DQ	FLAT:$SG84593
	DD	0e436eb81H
	DW	0524fH
	DW	011ceH
	DB	09fH
	DB	053H
	DB	00H
	DB	020H
	DB	0afH
	DB	0bH
	DB	0a7H
	DB	070H
	DQ	FLAT:$SG84594
	DD	050H
	DW	00H
	DW	010H
	DB	080H
	DB	00H
	DB	00H
	DB	0aaH
	DB	00H
	DB	038H
	DB	09bH
	DB	071H
	DQ	FLAT:$SG84595
	DD	0e436eb82H
	DW	0524fH
	DW	011ceH
	DB	09fH
	DB	053H
	DB	00H
	DB	020H
	DB	0afH
	DB	0bH
	DB	0a7H
	DB	070H
	DQ	FLAT:$SG84596
	DD	0e436eb84H
	DW	0524fH
	DW	011ceH
	DB	09fH
	DB	053H
	DB	00H
	DB	020H
	DB	0afH
	DB	0bH
	DB	0a7H
	DB	070H
	DQ	FLAT:$SG84597
	DD	0e436eb85H
	DW	0524fH
	DW	011ceH
	DB	09fH
	DB	053H
	DB	00H
	DB	020H
	DB	0afH
	DB	0bH
	DB	0a7H
	DB	070H
	DQ	FLAT:$SG84598
	DD	0e436eb86H
	DW	0524fH
	DW	011ceH
	DB	09fH
	DB	053H
	DB	00H
	DB	020H
	DB	0afH
	DB	0bH
	DB	0a7H
	DB	070H
	DQ	FLAT:$SG84599
	DD	0e436eb87H
	DW	0524fH
	DW	011ceH
	DB	09fH
	DB	053H
	DB	00H
	DB	020H
	DB	0afH
	DB	0bH
	DB	0a7H
	DB	070H
	DQ	FLAT:$SG84600
	DD	0e436eb88H
	DW	0524fH
	DW	011ceH
	DB	09fH
	DB	053H
	DB	00H
	DB	020H
	DB	0afH
	DB	0bH
	DB	0a7H
	DB	070H
	DQ	FLAT:$SG84601
	DD	03db80f90H
	DW	09412H
	DW	011d1H
	DB	0adH
	DB	0edH
	DB	00H
	DB	00H
	DB	0f8H
	DB	075H
	DB	04bH
	DB	099H
	DQ	FLAT:$SG84602
	DD	0e436eb89H
	DW	0524fH
	DW	011ceH
	DB	09fH
	DB	053H
	DB	00H
	DB	020H
	DB	0afH
	DB	0bH
	DB	0a7H
	DB	070H
	DQ	FLAT:$SG84603
	DD	0617a7072H
	DW	00H
	DW	010H
	DB	080H
	DB	00H
	DB	00H
	DB	0aaH
	DB	00H
	DB	038H
	DB	09bH
	DB	071H
	DQ	FLAT:$SG84604
	DD	020636d73H
	DW	00H
	DW	010H
	DB	080H
	DB	00H
	DB	00H
	DB	0aaH
	DB	00H
	DB	038H
	DB	09bH
	DB	071H
	DQ	FLAT:$SG84605
	DD	020656c72H
	DW	00H
	DW	010H
	DB	080H
	DB	00H
	DB	00H
	DB	0aaH
	DB	00H
	DB	038H
	DB	09bH
	DB	071H
	DQ	FLAT:$SG84606
	DD	06765706aH
	DW	00H
	DW	010H
	DB	080H
	DB	00H
	DB	00H
	DB	0aaH
	DB	00H
	DB	038H
	DB	09bH
	DB	071H
	DQ	FLAT:$SG84607
	DD	0e436eb8aH
	DW	0524fH
	DW	011ceH
	DB	09fH
	DB	053H
	DB	00H
	DB	020H
	DB	0afH
	DB	0bH
	DB	0a7H
	DB	070H
	DQ	FLAT:$SG84608
	DD	01H
	DW	00H
	DW	010H
	DB	080H
	DB	00H
	DB	00H
	DB	0aaH
	DB	00H
	DB	038H
	DB	09bH
	DB	071H
	DQ	FLAT:$SG84609
	DD	0e436eb8bH
	DW	0524fH
	DW	011ceH
	DB	09fH
	DB	053H
	DB	00H
	DB	020H
	DB	0afH
	DB	0bH
	DB	0a7H
	DB	070H
	DQ	FLAT:$SG84610
	DD	0e436eb8cH
	DW	0524fH
	DW	011ceH
	DB	09fH
	DB	053H
	DB	00H
	DB	020H
	DB	0afH
	DB	0bH
	DB	0a7H
	DB	070H
	DQ	FLAT:$SG84611
	DD	0e436eb8dH
	DW	0524fH
	DW	011ceH
	DB	09fH
	DB	053H
	DB	00H
	DB	020H
	DB	0afH
	DB	0bH
	DB	0a7H
	DB	070H
	DQ	FLAT:$SG84612
	DD	064737664H
	DW	00H
	DW	010H
	DB	080H
	DB	00H
	DB	00H
	DB	0aaH
	DB	00H
	DB	038H
	DB	09bH
	DB	071H
	DQ	FLAT:$SG84613
	DD	064687664H
	DW	00H
	DW	010H
	DB	080H
	DB	00H
	DB	00H
	DB	0aaH
	DB	00H
	DB	038H
	DB	09bH
	DB	071H
	DQ	FLAT:$SG84614
	DD	06c737664H
	DW	00H
	DW	010H
	DB	080H
	DB	00H
	DB	00H
	DB	0aaH
	DB	00H
	DB	038H
	DB	09bH
	DB	071H
	DQ	FLAT:$SG84615
	DD	035327664H
	DW	00H
	DW	010H
	DB	080H
	DB	00H
	DB	00H
	DB	0aaH
	DB	00H
	DB	038H
	DB	09bH
	DB	071H
	DQ	FLAT:$SG84616
	DD	030357664H
	DW	00H
	DW	010H
	DB	080H
	DB	00H
	DB	00H
	DB	0aaH
	DB	00H
	DB	038H
	DB	09bH
	DB	071H
	DQ	FLAT:$SG84617
	DD	031687664H
	DW	00H
	DW	010H
	DB	080H
	DB	00H
	DB	00H
	DB	0aaH
	DB	00H
	DB	038H
	DB	09bH
	DB	071H
	DQ	FLAT:$SG84618
	DD	06e8d4a22H
	DW	0310cH
	DW	011d0H
	DB	0b7H
	DB	09aH
	DB	00H
	DB	0aaH
	DB	00H
	DB	037H
	DB	067H
	DB	0a7H
	DQ	FLAT:$SG84619
	DD	06e8d4a23H
	DW	0310cH
	DW	011d0H
	DB	0b7H
	DB	09aH
	DB	00H
	DB	0aaH
	DB	00H
	DB	037H
	DB	067H
	DB	0a7H
	DQ	FLAT:$SG84620
	DD	06e8d4a24H
	DW	0310cH
	DW	011d0H
	DB	0b7H
	DB	09aH
	DB	00H
	DB	0aaH
	DB	00H
	DB	037H
	DB	067H
	DB	0a7H
	DQ	FLAT:$SG84621
	DD	0af414bcH
	DW	04ed2H
	DW	0445eH
	DB	098H
	DB	039H
	DB	08fH
	DB	09H
	DB	055H
	DB	068H
	DB	0abH
	DB	03cH
	DQ	FLAT:$SG84622
	DD	0f52addaaH
	DW	036f0H
	DW	043f5H
	DB	095H
	DB	0eaH
	DB	06dH
	DB	086H
	DB	064H
	DB	084H
	DB	026H
	DB	02aH
	DQ	FLAT:$SG84623
	DD	07ea626dbH
	DW	054daH
	DW	0437bH
	DB	0beH
	DB	09fH
	DB	0f7H
	DB	030H
	DB	073H
	DB	0adH
	DB	0faH
	DB	03cH
	DQ	FLAT:$SG84624
	DD	0f72a76e3H
	DW	0eb0aH
	DW	011d0H
	DB	0acH
	DB	0e4H
	DB	00H
	DB	00H
	DB	0c0H
	DB	0ccH
	DB	016H
	DB	0baH
	DQ	FLAT:$SG84625
	DD	0663da43cH
	DW	03e8H
	DW	04e9aH
	DB	09cH
	DB	0d5H
	DB	0bfH
	DB	011H
	DB	0edH
	DB	0dH
	DB	0efH
	DB	076H
	DQ	FLAT:$SG84626
	DD	02791d576H
	DW	08e7aH
	DW	0466fH
	DB	09eH
	DB	090H
	DB	05dH
	DB	03fH
	DB	030H
	DB	083H
	DB	073H
	DB	08bH
	DQ	FLAT:$SG84627
	DD	01ca73e3H
	DW	0dce6H
	DW	04575H
	DB	0afH
	DB	0e1H
	DB	02bH
	DB	0f1H
	DB	0c9H
	DB	02H
	DB	0caH
	DB	0f3H
	DQ	FLAT:$SG84628
	DD	0a1b3f620H
	DW	09792H
	DW	04d8dH
	DB	081H
	DB	0a4H
	DB	086H
	DB	0afH
	DB	025H
	DB	077H
	DB	020H
	DB	090H
	DQ	FLAT:$SG84629
	DD	09H
	DW	00H
	DW	010H
	DB	080H
	DB	00H
	DB	00H
	DB	0aaH
	DB	00H
	DB	038H
	DB	09bH
	DB	071H
	DQ	FLAT:$SG84630
	DD	03H
	DW	00H
	DW	010H
	DB	080H
	DB	00H
	DB	00H
	DB	0aaH
	DB	00H
	DB	038H
	DB	09bH
	DB	071H
	DQ	FLAT:$SG84631
	DD	092H
	DW	00H
	DW	010H
	DB	080H
	DB	00H
	DB	00H
	DB	0aaH
	DB	00H
	DB	038H
	DB	09bH
	DB	071H
	DQ	FLAT:$SG84632
	DD	0240H
	DW	00H
	DW	010H
	DB	080H
	DB	00H
	DB	00H
	DB	0aaH
	DB	00H
	DB	038H
	DB	09bH
	DB	071H
	DQ	FLAT:$SG84633
	DD	0241H
	DW	00H
	DW	010H
	DB	080H
	DB	00H
	DB	00H
	DB	0aaH
	DB	00H
	DB	038H
	DB	09bH
	DB	071H
	DQ	FLAT:$SG84634
	DD	0a0af4f81H
	DW	0e163H
	DW	011d0H
	DB	0baH
	DB	0d9H
	DB	00H
	DB	060H
	DB	097H
	DB	044H
	DB	011H
	DB	01aH
	DQ	FLAT:$SG84635
	DD	0a0af4f82H
	DW	0e163H
	DW	011d0H
	DB	0baH
	DB	0d9H
	DB	00H
	DB	060H
	DB	097H
	DB	044H
	DB	011H
	DB	01aH
	DQ	FLAT:$SG84636
	DD	05a9b6a40H
	DW	01a22H
	DW	011d1H
	DB	0baH
	DB	0d9H
	DB	00H
	DB	060H
	DB	097H
	DB	044H
	DB	011H
	DB	01aH
	DQ	FLAT:$SG84637
	DD	05a9b6a41H
	DW	01a22H
	DW	011d1H
	DB	0baH
	DB	0d9H
	DB	00H
	DB	060H
	DB	097H
	DB	044H
	DB	011H
	DB	01aH
	DQ	FLAT:$SG84638
	DD	0bf87b6e0H
	DW	08c27H
	DW	011d0H
	DB	0b3H
	DB	0f0H
	DB	00H
	DB	0aaH
	DB	00H
	DB	037H
	DB	061H
	DB	0c5H
	DQ	FLAT:$SG84639
	DD	0bf87b6e1H
	DW	08c27H
	DW	011d0H
	DB	0b3H
	DB	0f0H
	DB	00H
	DB	0aaH
	DB	00H
	DB	037H
	DB	061H
	DB	0c5H
	DQ	FLAT:$SG84640
	DD	0e436ebb0H
	DW	0524fH
	DW	011ceH
	DB	09fH
	DB	053H
	DB	00H
	DB	020H
	DB	0afH
	DB	0bH
	DB	0a7H
	DB	070H
	DQ	FLAT:$SG84641
	DD	0e436ebb1H
	DW	0524fH
	DW	011ceH
	DB	09fH
	DB	053H
	DB	00H
	DB	020H
	DB	0afH
	DB	0bH
	DB	0a7H
	DB	070H
	DQ	FLAT:$SG84642
	DD	0e436ebb2H
	DW	0524fH
	DW	011ceH
	DB	09fH
	DB	053H
	DB	00H
	DB	020H
	DB	0afH
	DB	0bH
	DB	0a7H
	DB	070H
	DQ	FLAT:$SG84643
	DD	0e436ebb3H
	DW	0524fH
	DW	011ceH
	DB	09fH
	DB	053H
	DB	00H
	DB	020H
	DB	0afH
	DB	0bH
	DB	0a7H
	DB	070H
	DQ	FLAT:$SG84644
	DD	0e436ebb8H
	DW	0524fH
	DW	011ceH
	DB	09fH
	DB	053H
	DB	00H
	DB	020H
	DB	0afH
	DB	0bH
	DB	0a7H
	DB	070H
	DQ	FLAT:$SG84645
	DD	0a3ecbc41H
	DW	0581aH
	DW	04476H
	DB	0b6H
	DB	093H
	DB	0a6H
	DB	033H
	DB	040H
	DB	046H
	DB	02dH
	DB	08bH
	DQ	FLAT:$SG84646
	DD	0e4bbd160H
	DW	04269H
	DW	011ceH
	DB	083H
	DB	08dH
	DB	00H
	DB	0aaH
	DB	00H
	DB	055H
	DB	059H
	DB	05aH
	DQ	FLAT:$SG84647
	DD	0701722e0H
	DW	08ae3H
	DW	011ceH
	DB	0a8H
	DB	05cH
	DB	00H
	DB	0aaH
	DB	00H
	DB	02fH
	DB	0eaH
	DB	0b5H
	DQ	FLAT:$SG84648
	DD	026c25940H
	DW	04ca9H
	DW	011ceH
	DB	0a8H
	DB	028H
	DB	00H
	DB	0aaH
	DB	00H
	DB	02fH
	DB	0eaH
	DB	0b5H
	DQ	FLAT:$SG84649
	DD	0336475d0H
	DW	0942aH
	DW	011ceH
	DB	0a8H
	DB	070H
	DB	00H
	DB	0aaH
	DB	00H
	DB	02fH
	DB	0eaH
	DB	0b5H
	DQ	FLAT:$SG84650
	DD	0feb50740H
	DW	07befH
	DW	011ceH
	DB	09bH
	DB	0d9H
	DB	00H
	DB	00H
	DB	0e2H
	DB	02H
	DB	059H
	DB	09cH
	DQ	FLAT:$SG84651
	DD	04a2286e0H
	DW	07befH
	DW	011ceH
	DB	09bH
	DB	0d9H
	DB	00H
	DB	00H
	DB	0e2H
	DB	02H
	DB	059H
	DB	09cH
	DQ	FLAT:$SG84652
	DD	0e30629d3H
	DW	027e5H
	DW	011ceH
	DB	087H
	DB	05dH
	DB	00H
	DB	060H
	DB	08cH
	DB	0b7H
	DB	080H
	DB	066H
	DQ	FLAT:$SG84653
	DD	0f8388a40H
	DW	0d5bbH
	DW	011d0H
	DB	0beH
	DB	05aH
	DB	00H
	DB	080H
	DB	0c7H
	DB	06H
	DB	056H
	DB	08eH
	DQ	FLAT:$SG84654
	DD	01b544c20H
	DW	0fd0bH
	DW	011ceH
	DB	08cH
	DB	063H
	DB	00H
	DB	0aaH
	DB	00H
	DB	044H
	DB	0b5H
	DB	01eH
	DQ	FLAT:$SG84655
	DD	01b544c21H
	DW	0fd0bH
	DW	011ceH
	DB	08cH
	DB	063H
	DB	00H
	DB	0aaH
	DB	00H
	DB	044H
	DB	0b5H
	DB	01eH
	DQ	FLAT:$SG84656
	DD	01b544c22H
	DW	0fd0bH
	DW	011ceH
	DB	08cH
	DB	063H
	DB	00H
	DB	0aaH
	DB	00H
	DB	044H
	DB	0b5H
	DB	01eH
	DQ	FLAT:$SG84657
	DD	01b544c22H
	DW	0fd0bH
	DW	011ceH
	DB	08cH
	DB	063H
	DB	00H
	DB	0aaH
	DB	00H
	DB	044H
	DB	0b5H
	DB	01fH
	DQ	FLAT:$SG84658
	DD	0e436ebb4H
	DW	0524fH
	DW	011ceH
	DB	09fH
	DB	053H
	DB	00H
	DB	020H
	DB	0afH
	DB	0bH
	DB	0a7H
	DB	070H
	DQ	FLAT:$SG84659
	DD	044584800H
	DW	0f8eeH
	DW	011ceH
	DB	0b2H
	DB	0d4H
	DB	00H
	DB	0ddH
	DB	01H
	DB	010H
	DB	01bH
	DB	085H
	DQ	FLAT:$SG84660
	DD	0d51bd5a0H
	DW	07548H
	DW	011cfH
	DB	0a5H
	DB	020H
	DB	00H
	DB	080H
	DB	0c7H
	DB	07eH
	DB	0f5H
	DB	08aH
	DQ	FLAT:$SG84661
	DD	0fdfe9681H
	DW	074a3H
	DW	011d0H
	DB	0afH
	DB	0a7H
	DB	00H
	DB	0aaH
	DB	00H
	DB	0b6H
	DB	07aH
	DB	042H
	DQ	FLAT:$SG84662
	DD	0d3588ab0H
	DW	0781H
	DW	011ceH
	DB	0b0H
	DB	03aH
	DB	00H
	DB	020H
	DB	0afH
	DB	0bH
	DB	0a7H
	DB	070H
	DQ	FLAT:$SG84663
	DD	070e102b0H
	DW	05556H
	DW	011ceH
	DB	097H
	DB	0c0H
	DB	00H
	DB	0aaH
	DB	00H
	DB	055H
	DB	059H
	DB	05aH
	DQ	FLAT:$SG84664
	DD	01643e180H
	DW	090f5H
	DW	011ceH
	DB	097H
	DB	0d5H
	DB	00H
	DB	0aaH
	DB	00H
	DB	055H
	DB	059H
	DB	05aH
	DQ	FLAT:$SG84665
	DD	01da08500H
	DW	09edcH
	DW	011cfH
	DB	0bcH
	DB	010H
	DB	00H
	DB	0aaH
	DB	00H
	DB	0acH
	DB	074H
	DB	0f6H
	DQ	FLAT:$SG84666
	DD	07167665H
	DW	05011H
	DW	011cfH
	DB	0bfH
	DB	033H
	DB	00H
	DB	0aaH
	DB	00H
	DB	055H
	DB	059H
	DB	05aH
	DQ	FLAT:$SG84667
	DD	0e30629d1H
	DW	027e5H
	DW	011ceH
	DB	087H
	DB	05dH
	DB	00H
	DB	060H
	DB	08cH
	DB	0b7H
	DB	080H
	DB	066H
	DQ	FLAT:$SG84668
	DD	05589fafH
	DW	0c356H
	DW	011ceH
	DB	0bfH
	DB	01H
	DB	00H
	DB	0aaH
	DB	00H
	DB	055H
	DB	059H
	DB	05aH
	DQ	FLAT:$SG84669
	DD	079376820H
	DW	07d0H
	DW	011cfH
	DB	0a2H
	DB	04dH
	DB	00H
	DB	020H
	DB	0afH
	DB	0d7H
	DB	097H
	DB	067H
	DQ	FLAT:$SG84670
	DD	0e30629d2H
	DW	027e5H
	DW	011ceH
	DB	087H
	DB	05dH
	DB	00H
	DB	060H
	DB	08cH
	DB	0b7H
	DB	080H
	DB	066H
	DQ	FLAT:$SG84671
	DD	02ca8ca52H
	DW	03c3fH
	DW	011d2H
	DB	0b7H
	DB	03dH
	DB	00H
	DB	0c0H
	DB	04fH
	DB	0b6H
	DB	0bdH
	DB	03dH
	DQ	FLAT:$SG84672
	DD	0cf49d4e0H
	DW	01115H
	DW	011ceH
	DB	0b0H
	DB	03aH
	DB	00H
	DB	020H
	DB	0afH
	DB	0bH
	DB	0a7H
	DB	070H
	DQ	FLAT:$SG84673
	DD	0a888df60H
	DW	01e90H
	DW	011cfH
	DB	0acH
	DB	098H
	DB	00H
	DB	0aaH
	DB	00H
	DB	04cH
	DB	0fH
	DB	0a9H
	DQ	FLAT:$SG84674
	DD	06a08cf80H
	DW	0e18H
	DW	011cfH
	DB	0a2H
	DB	04dH
	DB	00H
	DB	020H
	DB	0afH
	DB	0d7H
	DB	097H
	DB	067H
	DQ	FLAT:$SG84675
	DD	0e436ebb5H
	DW	0524fH
	DW	011ceH
	DB	09fH
	DB	053H
	DB	00H
	DB	020H
	DB	0afH
	DB	0bH
	DB	0a7H
	DB	070H
	DQ	FLAT:$SG84676
	DD	0e436ebb6H
	DW	0524fH
	DW	011ceH
	DB	09fH
	DB	053H
	DB	00H
	DB	020H
	DB	0afH
	DB	0bH
	DB	0a7H
	DB	070H
	DQ	FLAT:$SG84677
	DD	0e436ebb7H
	DW	0524fH
	DW	011ceH
	DB	09fH
	DB	053H
	DB	00H
	DB	020H
	DB	0afH
	DB	0bH
	DB	0a7H
	DB	070H
	DQ	FLAT:$SG84678
	DD	0d76e2820H
	DW	01563H
	DW	011cfH
	DB	0acH
	DB	098H
	DB	00H
	DB	0aaH
	DB	00H
	DB	04cH
	DB	0fH
	DB	0a9H
	DQ	FLAT:$SG84679
	DD	08596e5f0H
	DW	0da5H
	DW	011d0H
	DB	0bdH
	DB	021H
	DB	00H
	DB	0a0H
	DB	0c9H
	DB	011H
	DB	0ceH
	DB	086H
	DQ	FLAT:$SG84680
	DD	0e2510970H
	DW	0f137H
	DW	011ceH
	DB	08bH
	DB	067H
	DB	00H
	DB	0aaH
	DB	00H
	DB	0a3H
	DB	0f1H
	DB	0a6H
	DQ	FLAT:$SG84681
	DD	0c647b5c0H
	DW	0157cH
	DW	011d0H
	DB	0bdH
	DB	023H
	DB	00H
	DB	0a0H
	DB	0c9H
	DB	011H
	DB	0ceH
	DB	086H
	DQ	FLAT:$SG84682
	DD	0a9ae910H
	DW	085c0H
	DW	011d0H
	DB	0bdH
	DB	042H
	DB	00H
	DB	0a0H
	DB	0c9H
	DB	011H
	DB	0ceH
	DB	086H
	DQ	FLAT:$SG84683
	DD	07b65360H
	DW	0c445H
	DW	011ceH
	DB	0afH
	DB	0deH
	DB	00H
	DB	0aaH
	DB	00H
	DB	06cH
	DB	014H
	DB	0f4H
	DQ	FLAT:$SG84684
	DD	0187463a0H
	DW	05bb7H
	DW	011d3H
	DB	0acH
	DB	0beH
	DB	00H
	DB	080H
	DB	0c7H
	DB	05eH
	DB	024H
	DB	06eH
	DQ	FLAT:$SG84685
	DD	07c23220eH
	DW	055bbH
	DW	011d3H
	DB	08bH
	DB	016H
	DB	00H
	DB	0c0H
	DB	04fH
	DB	0b6H
	DB	0bdH
	DB	03dH
	DQ	FLAT:$SG84686
	DD	0afb6c280H
	DW	02c41H
	DW	011d3H
	DB	08aH
	DB	060H
	DB	00H
	DB	00H
	DB	0f8H
	DB	01eH
	DB	0eH
	DB	04aH
	DQ	FLAT:$SG84687
	DD	0687d3367H
	DW	03644H
	DW	0467aH
	DB	0adH
	DB	0feH
	DB	06cH
	DB	0d7H
	DB	0a8H
	DB	05cH
	DB	04aH
	DB	02cH
	DQ	FLAT:$SG84688
	DD	03ae86b20H
	DW	07be8H
	DW	011d1H
	DB	0abH
	DB	0e6H
	DB	00H
	DB	0a0H
	DB	0c9H
	DB	05H
	DB	0f3H
	DB	075H
	DQ	FLAT:$SG84689
	DD	02db47ae5H
	DW	0cf39H
	DW	043c2H
	DB	0b4H
	DB	0d6H
	DB	0cH
	DB	0d8H
	DB	0d9H
	DB	09H
	DB	046H
	DB	0f4H
	DQ	FLAT:$SG84690
	DD	0e2448508H
	DW	095daH
	DW	04205H
	DB	09aH
	DB	027H
	DB	07eH
	DB	0c8H
	DB	01eH
	DB	072H
	DB	03bH
	DB	01aH
	DQ	FLAT:$SG84691
	DD	0c9f5fe02H
	DW	0f851H
	DW	04eb5H
	DB	099H
	DB	0eeH
	DB	0adH
	DB	060H
	DB	02aH
	DB	0f1H
	DB	0e6H
	DB	019H
	DQ	FLAT:$SG84692
	DD	0fa8a68b2H
	DW	0c864H
	DW	04ba2H
	DB	0adH
	DB	053H
	DB	0d3H
	DB	087H
	DB	06aH
	DB	087H
	DB	049H
	DB	04bH
	DQ	FLAT:$SG84693
	DD	0e37a73f8H
	DW	0fb01H
	DW	043dcH
	DB	091H
	DB	04eH
	DB	0aaH
	DB	0eeH
	DB	076H
	DB	09H
	DB	05aH
	DB	0b9H
	DQ	FLAT:$SG84694
	DD	0713790eeH
	DW	05ee1H
	DW	045baH
	DB	080H
	DB	070H
	DB	0a1H
	DB	033H
	DB	07dH
	DB	027H
	DB	062H
	DB	0faH
	DQ	FLAT:$SG84695
	DD	06cfad761H
	DW	0735dH
	DW	04aa5H
	DB	08aH
	DB	0fcH
	DB	0afH
	DB	091H
	DB	0a7H
	DB	0d6H
	DB	01eH
	DB	0baH
	DQ	FLAT:$SG84696
	DD	0ccaa63acH
	DW	01057H
	DW	04778H
	DB	0aeH
	DB	092H
	DB	012H
	DB	06H
	DB	0abH
	DB	09aH
	DB	0ceH
	DB	0e6H
	DQ	FLAT:$SG84697
	DD	0d682c4baH
	DW	0a90aH
	DW	042feH
	DB	0b9H
	DB	0e1H
	DB	03H
	DB	010H
	DB	098H
	DB	049H
	DB	0c4H
	DB	023H
	DQ	FLAT:$SG84698
	DD	093a094d7H
	DW	051e8H
	DW	0485bH
	DB	090H
	DB	04aH
	DB	08dH
	DB	06bH
	DB	097H
	DB	0dcH
	DB	06bH
	DB	039H
	DQ	FLAT:$SG84699
	DD	0b1b77c00H
	DW	0c3e4H
	DW	011cfH
	DB	0afH
	DB	079H
	DB	00H
	DB	0aaH
	DB	00H
	DB	0b6H
	DB	07aH
	DB	042H
	DQ	FLAT:$SG84700
	DD	013aa3650H
	DW	0bb6fH
	DW	011d0H
	DB	0afH
	DB	0b9H
	DB	00H
	DB	0aaH
	DB	00H
	DB	0b6H
	DB	07aH
	DB	042H
	DQ	FLAT:$SG84701
	DD	04eb31670H
	DW	09fc6H
	DW	011cfH
	DB	0afH
	DB	06eH
	DB	00H
	DB	0aaH
	DB	00H
	DB	0b6H
	DB	07aH
	DB	042H
	DQ	FLAT:$SG84702
	DD	0129d7e40H
	DW	0c10dH
	DW	011d0H
	DB	0afH
	DB	0b9H
	DB	00H
	DB	0aaH
	DB	00H
	DB	0b6H
	DB	07aH
	DB	042H
	DQ	FLAT:$SG84703
	DD	060af76cH
	DW	068ddH
	DW	011d0H
	DB	08fH
	DB	0c1H
	DB	00H
	DB	0c0H
	DB	04fH
	DB	0d9H
	DB	018H
	DB	09dH
	DQ	FLAT:$SG84704
	DD	06e8d4a20H
	DW	0310cH
	DW	011d0H
	DB	0b7H
	DB	09aH
	DB	00H
	DB	0aaH
	DB	00H
	DB	037H
	DB	067H
	DB	0a7H
	DQ	FLAT:$SG84705
	DD	0e4206432H
	DW	01a1H
	DW	04beeH
	DB	0b3H
	DB	0e1H
	DB	037H
	DB	02H
	DB	0c8H
	DB	0edH
	DB	0c5H
	DB	074H
	DQ	FLAT:$SG84706
	DD	03d07a539H
	DW	035caH
	DW	0447cH
	DB	09bH
	DB	05H
	DB	08dH
	DB	085H
	DB	0ceH
	DB	092H
	DB	04fH
	DB	09eH
	DQ	FLAT:$SG84707
	DD	0cd8743a1H
	DW	03736H
	DW	011d0H
	DB	09eH
	DB	069H
	DB	00H
	DB	0c0H
	DB	04fH
	DB	0d7H
	DB	0c1H
	DB	05bH
	DQ	FLAT:$SG84708
	DD	0814b9800H
	DW	01c88H
	DW	011d1H
	DB	0baH
	DB	0d9H
	DB	00H
	DB	060H
	DB	097H
	DB	044H
	DB	011H
	DB	01aH
	DQ	FLAT:$SG84709
	DD	070bc06e0H
	DW	05666H
	DW	011d3H
	DB	0a1H
	DB	084H
	DB	00H
	DB	010H
	DB	05aH
	DB	0efH
	DB	09fH
	DB	033H
	DQ	FLAT:$SG84710
	DD	0301056d0H
	DW	06dffH
	DW	011d2H
	DB	09eH
	DB	0ebH
	DB	00H
	DB	060H
	DB	08H
	DB	03H
	DB	09eH
	DB	037H
	DQ	FLAT:$SG84711
	DD	0b80ab0a0H
	DW	07416H
	DW	011d2H
	DB	09eH
	DB	0ebH
	DB	00H
	DB	060H
	DB	08H
	DB	03H
	DB	09eH
	DB	037H
	DQ	FLAT:$SG84712
	DD	062be5d10H
	DW	060ebH
	DW	011d0H
	DB	0bdH
	DB	03bH
	DB	00H
	DB	0a0H
	DB	0c9H
	DB	011H
	DB	0ceH
	DB	086H
	DQ	FLAT:$SG84713
	DD	04315d437H
	DW	05b8cH
	DW	011d0H
	DB	0bdH
	DB	03bH
	DB	00H
	DB	0a0H
	DB	0c9H
	DB	011H
	DB	0ceH
	DB	086H
	DQ	FLAT:$SG84714
	DD	0860bb310H
	DW	05d01H
	DW	011d0H
	DB	0bdH
	DB	03bH
	DB	00H
	DB	0a0H
	DB	0c9H
	DB	011H
	DB	0ceH
	DB	086H
	DQ	FLAT:$SG84715
	DD	0860bb310H
	DW	05d01H
	DW	011d0H
	DB	0bdH
	DB	03bH
	DB	00H
	DB	0a0H
	DB	0c9H
	DB	011H
	DB	0ceH
	DB	086H
	DQ	FLAT:$SG84716
	DD	083863f1H
	DW	070deH
	DW	011d0H
	DB	0bdH
	DB	040H
	DB	00H
	DB	0a0H
	DB	0c9H
	DB	011H
	DB	0ceH
	DB	086H
	DQ	FLAT:$SG84717
	DD	083863f1H
	DW	070deH
	DW	011d0H
	DB	0bdH
	DB	040H
	DB	00H
	DB	0a0H
	DB	0c9H
	DB	011H
	DB	0ceH
	DB	086H
	DQ	FLAT:$SG84718
	DD	033d9a760H
	DW	090c8H
	DW	011d0H
	DB	0bdH
	DB	043H
	DB	00H
	DB	0a0H
	DB	0c9H
	DB	011H
	DB	0ceH
	DB	086H
	DQ	FLAT:$SG84719
	DD	033d9a760H
	DW	090c8H
	DW	011d0H
	DB	0bdH
	DB	043H
	DB	00H
	DB	0a0H
	DB	0c9H
	DB	011H
	DB	0ceH
	DB	086H
	DQ	FLAT:$SG84720
	DD	033d9a761H
	DW	090c8H
	DW	011d0H
	DB	0bdH
	DB	043H
	DB	00H
	DB	0a0H
	DB	0c9H
	DB	011H
	DB	0ceH
	DB	086H
	DQ	FLAT:$SG84721
	DD	033d9a761H
	DW	090c8H
	DW	011d0H
	DB	0bdH
	DB	043H
	DB	00H
	DB	0a0H
	DB	0c9H
	DB	011H
	DB	0ceH
	DB	086H
	DQ	FLAT:$SG84722
	DD	033d9a762H
	DW	090c8H
	DW	011d0H
	DB	0bdH
	DB	043H
	DB	00H
	DB	0a0H
	DB	0c9H
	DB	011H
	DB	0ceH
	DB	086H
	DQ	FLAT:$SG84723
	DD	033d9a762H
	DW	090c8H
	DW	011d0H
	DB	0bdH
	DB	043H
	DB	00H
	DB	0a0H
	DB	0c9H
	DB	011H
	DB	0ceH
	DB	086H
	DQ	FLAT:$SG84724
	DD	0e0f158e1H
	DW	0cb04H
	DW	011d0H
	DB	0bdH
	DB	04eH
	DB	00H
	DB	0a0H
	DB	0c9H
	DB	011H
	DB	0ceH
	DB	086H
	DQ	FLAT:$SG84725
	DD	0e0f158e1H
	DW	0cb04H
	DW	011d0H
	DB	0bdH
	DB	04eH
	DB	00H
	DB	0a0H
	DB	0c9H
	DB	011H
	DB	0ceH
	DB	086H
	DQ	FLAT:$SG84726
	DD	04efe2452H
	DW	0168aH
	DW	011d1H
	DB	0bcH
	DB	076H
	DB	00H
	DB	0c0H
	DB	04fH
	DB	0b9H
	DB	045H
	DB	03bH
	DQ	FLAT:$SG84727
	DD	04efe2452H
	DW	0168aH
	DW	011d1H
	DB	0bcH
	DB	076H
	DB	00H
	DB	0c0H
	DB	04fH
	DB	0b9H
	DB	045H
	DB	03bH
	DQ	FLAT:$SG84728
	DD	0cc7bfb41H
	DW	0f175H
	DW	011d1H
	DB	0a3H
	DB	092H
	DB	00H
	DB	0e0H
	DB	029H
	DB	01fH
	DB	039H
	DB	059H
	DQ	FLAT:$SG84729
	DD	0cc7bfb46H
	DW	0f175H
	DW	011d1H
	DB	0a3H
	DB	092H
	DB	00H
	DB	0e0H
	DB	029H
	DB	01fH
	DB	039H
	DB	059H
	DQ	FLAT:$SG84730
	DD	0da4e3da0H
	DW	0d07dH
	DW	011d0H
	DB	0bdH
	DB	050H
	DB	00H
	DB	0a0H
	DB	0c9H
	DB	011H
	DB	0ceH
	DB	086H
	DQ	FLAT:$SG84731
	DD	02721ae20H
	DW	07e70H
	DW	011d0H
	DB	0a5H
	DB	0d6H
	DB	028H
	DB	0dbH
	DB	04H
	DB	0c1H
	DB	00H
	DB	00H
	DQ	FLAT:$SG84732
	DD	07d22e920H
	DW	05ca9H
	DW	04787H
	DB	08cH
	DB	02bH
	DB	0a6H
	DB	077H
	DB	09bH
	DB	0d1H
	DB	017H
	DB	081H
	DQ	FLAT:$SG84733
	DD	0236c9559H
	DW	0adceH
	DW	04736H
	DB	0bfH
	DB	072H
	DB	0baH
	DB	0b3H
	DB	04eH
	DB	039H
	DB	021H
	DB	096H
	DQ	FLAT:$SG84734
	DD	0cda42200H
	DW	0bd88H
	DW	011d0H
	DB	0bdH
	DB	04eH
	DB	00H
	DB	0a0H
	DB	0c9H
	DB	011H
	DB	0ceH
	DB	086H
	DQ	FLAT:$SG84735
	DD	01e651cc0H
	DW	0b199H
	DW	011d0H
	DB	082H
	DB	012H
	DB	00H
	DB	0c0H
	DB	04fH
	DB	0c3H
	DB	02cH
	DB	045H
	DQ	FLAT:$SG84736
	DD	0cdbd8d00H
	DW	0c193H
	DW	011d0H
	DB	0bdH
	DB	04eH
	DB	00H
	DB	0a0H
	DB	0c9H
	DB	011H
	DB	0ceH
	DB	086H
	DQ	FLAT:$SG84737
	DD	0fcc152b7H
	DW	0f372H
	DW	011d0H
	DB	08eH
	DB	00H
	DB	00H
	DB	0c0H
	DB	04fH
	DB	0d7H
	DB	0c0H
	DB	08bH
	DQ	FLAT:$SG84738
	DD	09b8c4620H
	DW	02c1aH
	DW	011d0H
	DB	084H
	DB	093H
	DB	00H
	DB	0a0H
	DB	024H
	DB	038H
	DB	0adH
	DB	048H
	DQ	FLAT:$SG84739
	DD	0f963c5cfH
	DW	0a659H
	DW	04a93H
	DB	096H
	DB	038H
	DB	0caH
	DB	0f3H
	DB	0cdH
	DB	027H
	DB	07dH
	DB	013H
	DQ	FLAT:$SG84740
	DD	0cc58e280H
	DW	08aa1H
	DW	011d1H
	DB	0b3H
	DB	0f1H
	DB	00H
	DB	0aaH
	DB	00H
	DB	037H
	DB	061H
	DB	0c5H
	DQ	FLAT:$SG84741
	DD	0fb056ba0H
	DW	02502H
	DW	045b9H
	DB	08eH
	DB	086H
	DB	02bH
	DB	040H
	DB	0deH
	DB	084H
	DB	0adH
	DB	029H
	DQ	FLAT:$SG84742
	DD	02f7ee4b6H
	DW	06ff5H
	DW	04eb4H
	DB	0b2H
	DB	04aH
	DB	02bH
	DB	0fcH
	DB	041H
	DB	011H
	DB	071H
	DB	071H
	DQ	FLAT:$SG84743
	DD	09f22cfeaH
	DW	0ce07H
	DW	041abH
	DB	08bH
	DB	0a0H
	DB	0c7H
	DB	036H
	DB	04aH
	DB	0f9H
	DB	0aH
	DB	0f9H
	DQ	FLAT:$SG84744
	DD	08670c736H
	DW	0f614H
	DW	0427bH
	DB	08aH
	DB	0daH
	DB	0bbH
	DB	0adH
	DB	0c5H
	DB	087H
	DB	019H
	DB	04bH
	DQ	FLAT:$SG84745
	DD	0f6417d6H
	DW	0c318H
	DW	011d0H
	DB	0a4H
	DB	03fH
	DB	00H
	DB	0a0H
	DB	0c9H
	DB	022H
	DB	031H
	DB	096H
	DQ	FLAT:$SG84746
	DD	05589f80H
	DW	0c356H
	DW	011ceH
	DB	0bfH
	DB	01H
	DB	00H
	DB	0aaH
	DB	00H
	DB	055H
	DB	059H
	DB	05aH
	DQ	FLAT:$SG84747
	DD	0f72a76a0H
	DW	0eb0aH
	DW	011d0H
	DB	0acH
	DB	0e4H
	DB	00H
	DB	00H
	DB	0c0H
	DB	0ccH
	DB	016H
	DB	0baH
	DQ	FLAT:$SG84748
	DD	05589f81H
	DW	0c356H
	DW	011ceH
	DB	0bfH
	DB	01H
	DB	00H
	DB	0aaH
	DB	00H
	DB	055H
	DB	059H
	DB	05aH
	DQ	FLAT:$SG84749
	DD	05589f82H
	DW	0c356H
	DW	011ceH
	DB	0bfH
	DB	01H
	DB	00H
	DB	0aaH
	DB	00H
	DB	055H
	DB	059H
	DB	05aH
	DQ	FLAT:$SG84750
	DD	05589f83H
	DW	0c356H
	DW	011ceH
	DB	0bfH
	DB	01H
	DB	00H
	DB	0aaH
	DB	00H
	DB	055H
	DB	059H
	DB	05aH
	DQ	FLAT:$SG84751
	DD	05589f84H
	DW	0c356H
	DW	011ceH
	DB	0bfH
	DB	01H
	DB	00H
	DB	0aaH
	DB	00H
	DB	055H
	DB	059H
	DB	05aH
	DQ	FLAT:$SG84752
	DD	0c7ecf04dH
	DW	04582H
	DW	04869H
	DB	09aH
	DB	0bbH
	DB	0bfH
	DB	0b5H
	DB	023H
	DB	0b6H
	DB	02eH
	DB	0dfH
	DQ	FLAT:$SG84753
	DD	0944d4c00H
	DW	0dd52H
	DW	011ceH
	DB	0bfH
	DB	0eH
	DB	00H
	DB	0aaH
	DB	00H
	DB	055H
	DB	059H
	DB	05aH
	DQ	FLAT:$SG84754
	DD	059ce6880H
	DW	0acf8H
	DW	011cfH
	DB	0b5H
	DB	06eH
	DB	00H
	DB	080H
	DB	0c7H
	DB	0c4H
	DB	0b6H
	DB	08aH
	DQ	FLAT:$SG84755
	DD	0418afb70H
	DW	0f8b8H
	DW	011ceH
	DB	0aaH
	DB	0c6H
	DB	00H
	DB	020H
	DB	0afH
	DB	0bH
	DB	099H
	DB	0a3H
	DQ	FLAT:$SG84756
	DD	061ded640H
	DW	0e912H
	DW	011ceH
	DB	0a0H
	DB	099H
	DB	00H
	DB	0aaH
	DB	00H
	DB	047H
	DB	09aH
	DB	058H
	DQ	FLAT:$SG84757
	DD	036d39eb0H
	DW	0dd75H
	DW	011ceH
	DB	0bfH
	DB	0eH
	DB	00H
	DB	0aaH
	DB	00H
	DB	055H
	DB	059H
	DB	05aH
	DQ	FLAT:$SG84758
	DD	01bd0ecb0H
	DW	0f8e2H
	DW	011ceH
	DB	0aaH
	DB	0c6H
	DB	00H
	DB	020H
	DB	0afH
	DB	0bH
	DB	099H
	DB	0a3H
	DQ	FLAT:$SG84759
	DD	0ce292861H
	DW	0fc88H
	DW	011d0H
	DB	09eH
	DB	069H
	DB	00H
	DB	0c0H
	DB	04fH
	DB	0d7H
	DB	0c1H
	DB	05bH
	DQ	FLAT:$SG84760
	DD	0ce292862H
	DW	0fc88H
	DW	011d0H
	DB	09eH
	DB	069H
	DB	00H
	DB	0c0H
	DB	04fH
	DB	0d7H
	DB	0c1H
	DB	05bH
	DQ	FLAT:$SG84761
	DD	025df12c1H
	DW	03de0H
	DW	011d1H
	DB	09eH
	DB	069H
	DB	00H
	DB	0c0H
	DB	04fH
	DB	0d7H
	DB	0c1H
	DB	05bH
	DQ	FLAT:$SG84762
	DD	0814b9801H
	DW	01c88H
	DW	011d1H
	DB	0baH
	DB	0d9H
	DB	00H
	DB	060H
	DB	097H
	DB	044H
	DB	011H
	DB	01aH
	DQ	FLAT:$SG84763
	DD	0814b9802H
	DW	01c88H
	DW	011d1H
	DB	0baH
	DB	0d9H
	DB	00H
	DB	060H
	DB	097H
	DB	044H
	DB	011H
	DB	01aH
	DQ	FLAT:$SG84764
	DD	0bc29a660H
	DW	030e3H
	DW	011d0H
	DB	09eH
	DB	069H
	DB	00H
	DB	0c0H
	DB	04fH
	DB	0d7H
	DB	0c1H
	DB	05bH
	DQ	FLAT:$SG84765
	DD	0c76794a1H
	DW	0d6c5H
	DW	011d0H
	DB	09eH
	DB	069H
	DB	00H
	DB	0c0H
	DB	04fH
	DB	0d7H
	DB	0c1H
	DB	05bH
	DQ	FLAT:$SG84766
	DD	0ebf47183H
	DW	08764H
	DW	011d1H
	DB	09eH
	DB	069H
	DB	00H
	DB	0c0H
	DB	04fH
	DB	0d7H
	DB	0c1H
	DB	05bH
	DQ	FLAT:$SG84767
	DD	0ec529b00H
	DW	01a1fH
	DW	011d1H
	DB	0baH
	DB	0d9H
	DB	00H
	DB	060H
	DB	097H
	DB	044H
	DB	011H
	DB	01aH
	DQ	FLAT:$SG84768
	DD	0ec529b01H
	DW	01a1fH
	DW	011d1H
	DB	0baH
	DB	0d9H
	DB	00H
	DB	060H
	DB	097H
	DB	044H
	DB	011H
	DB	01aH
	DQ	FLAT:$SG84769
	DD	0593cdde1H
	DW	0759H
	DW	011d1H
	DB	09eH
	DB	069H
	DB	00H
	DB	0c0H
	DB	04fH
	DB	0d7H
	DB	0c1H
	DB	05bH
	DQ	FLAT:$SG84770
	DD	0ebf47182H
	DW	08764H
	DW	011d1H
	DB	09eH
	DB	069H
	DB	00H
	DB	0c0H
	DB	04fH
	DB	0d7H
	DB	0c1H
	DB	05bH
	DQ	FLAT:$SG84771
	DD	06c142760H
	DW	0a733H
	DW	011ceH
	DB	0a5H
	DB	021H
	DB	00H
	DB	020H
	DB	0afH
	DB	0bH
	DB	0e5H
	DB	060H
	DQ	FLAT:$SG84772
	DD	08d56c120H
	DW	06a08H
	DW	011d0H
	DB	09bH
	DB	06H
	DB	00H
	DB	0a0H
	DB	0c9H
	DB	03H
	DB	0a3H
	DB	0b8H
	DQ	FLAT:$SG84773
	DD	060755da0H
	DW	06a40H
	DW	011d0H
	DB	09bH
	DB	06H
	DB	00H
	DB	0a0H
	DB	0c9H
	DB	03H
	DB	0a3H
	DB	0b8H
	DQ	FLAT:$SG84774
	DD	0618aa30H
	DW	06bc4H
	DW	011cfH
	DB	0bfH
	DB	036H
	DB	00H
	DB	0aaH
	DB	00H
	DB	055H
	DB	059H
	DB	05aH
	DQ	FLAT:$SG84775
	DD	0dd1d7110H
	DW	07836H
	DW	011cfH
	DB	0bfH
	DB	047H
	DB	00H
	DB	0aaH
	DB	00H
	DB	055H
	DB	059H
	DB	05aH
	DQ	FLAT:$SG84776
	DD	053479470H
	DW	0f1ddH
	DW	011cfH
	DB	0bcH
	DB	042H
	DB	00H
	DB	0aaH
	DB	00H
	DB	0acH
	DB	074H
	DB	0f6H
	DQ	FLAT:$SG84777
	DD	0101193c0H
	DW	0bfeH
	DW	011d0H
	DB	0afH
	DB	091H
	DB	00H
	DB	0aaH
	DB	00H
	DB	0b6H
	DB	07aH
	DB	042H
	DQ	FLAT:$SG84778
	DD	04150f050H
	DW	0bb6fH
	DW	011d0H
	DB	0afH
	DB	0b9H
	DB	00H
	DB	0aaH
	DB	00H
	DB	0b6H
	DB	07aH
	DB	042H
	DQ	FLAT:$SG84779
	DD	04db880e0H
	DW	0c10dH
	DW	011d0H
	DB	0afH
	DB	0b9H
	DB	00H
	DB	0aaH
	DB	00H
	DB	0b6H
	DB	07aH
	DB	042H
	DQ	FLAT:$SG84780
	DD	0546f4260H
	DW	0d53eH
	DW	011cfH
	DB	0b3H
	DB	0f0H
	DB	00H
	DB	0aaH
	DB	00H
	DB	037H
	DB	061H
	DB	0c5H
	DQ	FLAT:$SG84781
	DD	0b45dd570H
	DW	03c77H
	DW	011d1H
	DB	0abH
	DB	0e1H
	DB	00H
	DB	0a0H
	DB	0c9H
	DB	05H
	DB	0f3H
	DB	075H
	DQ	FLAT:$SG84782
	DD	06e8d4a21H
	DW	0310cH
	DW	011d0H
	DB	0b7H
	DB	09aH
	DB	00H
	DB	0aaH
	DB	00H
	DB	037H
	DB	067H
	DB	0a7H
	DQ	FLAT:$SG84783
	DD	0c056de21H
	DW	075c2H
	DW	011d3H
	DB	0a1H
	DB	084H
	DB	00H
	DB	010H
	DB	05aH
	DB	0efH
	DB	09fH
	DB	033H
	DQ	FLAT:$SG84784
	DD	04e27f80H
	DW	091e4H
	DW	011d3H
	DB	0a1H
	DB	084H
	DB	00H
	DB	010H
	DB	05aH
	DB	0efH
	DB	09fH
	DB	033H
	DQ	FLAT:$SG84785
	DD	0482dde0H
	DW	07817H
	DW	011cfH
	DB	08aH
	DB	03H
	DB	00H
	DB	0aaH
	DB	00H
	DB	06eH
	DB	0cbH
	DB	065H
	DQ	FLAT:$SG84786
	DD	0482dde1H
	DW	07817H
	DW	011cfH
	DB	08aH
	DB	03H
	DB	00H
	DB	0aaH
	DB	00H
	DB	06eH
	DB	0cbH
	DB	065H
	DQ	FLAT:$SG84787
	DD	0482dde2H
	DW	07817H
	DW	011cfH
	DB	08aH
	DB	03H
	DB	00H
	DB	0aaH
	DB	00H
	DB	06eH
	DB	0cbH
	DB	065H
	DQ	FLAT:$SG84788
	DD	0482dde5H
	DW	07817H
	DW	011cfH
	DB	08aH
	DB	03H
	DB	00H
	DB	0aaH
	DB	00H
	DB	06eH
	DB	0cbH
	DB	065H
	DQ	FLAT:$SG84789
	DD	0482dde6H
	DW	07817H
	DW	011cfH
	DB	08aH
	DB	03H
	DB	00H
	DB	0aaH
	DB	00H
	DB	06eH
	DB	0cbH
	DB	065H
	DQ	FLAT:$SG84790
	DD	0482dde7H
	DW	07817H
	DW	011cfH
	DB	08aH
	DB	03H
	DB	00H
	DB	0aaH
	DB	00H
	DB	06eH
	DB	0cbH
	DB	065H
	DQ	FLAT:$SG84791
	DD	0482dde8H
	DW	07817H
	DW	011cfH
	DB	08aH
	DB	03H
	DB	00H
	DB	0aaH
	DB	00H
	DB	06eH
	DB	0cbH
	DB	065H
	DQ	FLAT:$SG84792
	DD	0482dde9H
	DW	07817H
	DW	011cfH
	DB	08aH
	DB	03H
	DB	00H
	DB	0aaH
	DB	00H
	DB	06eH
	DB	0cbH
	DB	065H
	DQ	FLAT:$SG84793
	DD	0482ddeaH
	DW	07817H
	DW	011cfH
	DB	08aH
	DB	03H
	DB	00H
	DB	0aaH
	DB	00H
	DB	06eH
	DB	0cbH
	DB	065H
	DQ	FLAT:$SG84794
	DD	0482ddebH
	DW	07817H
	DW	011cfH
	DB	08aH
	DB	03H
	DB	00H
	DB	0aaH
	DB	00H
	DB	06eH
	DB	0cbH
	DB	065H
	DQ	FLAT:$SG84795
	DD	0482ddecH
	DW	07817H
	DW	011cfH
	DB	08aH
	DB	03H
	DB	00H
	DB	0aaH
	DB	00H
	DB	06eH
	DB	0cbH
	DB	065H
	DQ	FLAT:$SG84796
	DD	0482ddf0H
	DW	07817H
	DW	011cfH
	DB	08aH
	DB	03H
	DB	00H
	DB	0aaH
	DB	00H
	DB	06eH
	DB	0cbH
	DB	065H
	DQ	FLAT:$SG84797
	DD	0482ddf1H
	DW	07817H
	DW	011cfH
	DB	08aH
	DB	03H
	DB	00H
	DB	0aaH
	DB	00H
	DB	06eH
	DB	0cbH
	DB	065H
	DQ	FLAT:$SG84798
	DD	0482ddf2H
	DW	07817H
	DW	011cfH
	DB	08aH
	DB	03H
	DB	00H
	DB	0aaH
	DB	00H
	DB	06eH
	DB	0cbH
	DB	065H
	DQ	FLAT:$SG84799
	DD	0482ddf3H
	DW	07817H
	DW	011cfH
	DB	08aH
	DB	03H
	DB	00H
	DB	0aaH
	DB	00H
	DB	06eH
	DB	0cbH
	DB	065H
	DQ	FLAT:$SG84800
	DD	0482ddf4H
	DW	07817H
	DW	011cfH
	DB	08aH
	DB	03H
	DB	00H
	DB	0aaH
	DB	00H
	DB	06eH
	DB	0cbH
	DB	065H
	DQ	FLAT:$SG84801
	DD	0482ddf5H
	DW	07817H
	DW	011cfH
	DB	08aH
	DB	03H
	DB	00H
	DB	0aaH
	DB	00H
	DB	06eH
	DB	0cbH
	DB	065H
	DQ	FLAT:$SG84802
	DD	0482ddf6H
	DW	07817H
	DW	011cfH
	DB	08aH
	DB	03H
	DB	00H
	DB	0aaH
	DB	00H
	DB	06eH
	DB	0cbH
	DB	065H
	DQ	FLAT:$SG84803
	DD	0482dee1H
	DW	07817H
	DW	011cfH
	DB	08aH
	DB	03H
	DB	00H
	DB	0aaH
	DB	00H
	DB	06eH
	DB	0cbH
	DB	065H
	DQ	FLAT:$SG84804
	DD	0a4efc024H
	DW	0873eH
	DW	04da3H
	DB	089H
	DB	08bH
	DB	047H
	DB	04dH
	DB	0dbH
	DB	0d7H
	DB	09fH
	DB	0d0H
	DQ	FLAT:$SG84805
	DD	050997a4aH
	DW	0e508H
	DW	04054H
	DB	0a2H
	DB	0b2H
	DB	010H
	DB	0ffH
	DB	0aH
	DB	0c1H
	DB	0a6H
	DB	09aH
	DQ	FLAT:$SG84806
	DD	03ed9cb31H
	DW	0fd10H
	DW	04adeH
	DB	0bcH
	DB	0ccH
	DB	0fbH
	DB	091H
	DB	05H
	DB	0d2H
	DB	0f3H
	DB	0efH
	DQ	FLAT:$SG84807
	DD	012230db4H
	DW	0ff2aH
	DW	0447eH
	DB	0bbH
	DB	088H
	DB	068H
	DB	041H
	DB	0c4H
	DB	016H
	DB	0d0H
	DB	068H
	DQ	FLAT:$SG84808
	DD	0e9ca1ce7H
	DW	0915eH
	DW	047beH
	DB	09bH
	DB	0b9H
	DB	0bfH
	DB	01dH
	DB	08aH
	DB	013H
	DB	0a5H
	DB	0ecH
	DQ	FLAT:$SG84809
	DD	0ebb1a262H
	DW	01158H
	DW	04b99H
	DB	0aeH
	DB	080H
	DB	092H
	DB	0acH
	DB	077H
	DB	069H
	DB	052H
	DB	0c4H
	DQ	FLAT:$SG84810
	DD	07ab2ada2H
	DW	081b6H
	DW	04f14H
	DB	0b3H
	DB	0c8H
	DB	0d0H
	DB	0c4H
	DB	086H
	DB	039H
	DB	03bH
	DB	067H
	DQ	FLAT:$SG84811
	DD	036523b13H
	DW	08ee5H
	DW	011d1H
	DB	08cH
	DB	0a3H
	DB	00H
	DB	060H
	DB	0b0H
	DB	057H
	DB	066H
	DB	04aH
	DQ	FLAT:$SG84812
	DD	0e06d8020H
	DW	0db46H
	DW	011cfH
	DB	0b4H
	DB	0d1H
	DB	00H
	DB	080H
	DB	05fH
	DB	06cH
	DB	0bbH
	DB	0eaH
	DQ	FLAT:$SG84813
	DD	0455f176cH
	DW	04b06H
	DW	047ceH
	DB	09aH
	DB	0efH
	DB	08cH
	DB	0aeH
	DB	0f7H
	DB	03dH
	DB	0f7H
	DB	0b5H
	DQ	FLAT:$SG84814
	DD	01ed988b0H
	DW	03ffcH
	DW	04523H
	DB	087H
	DB	025H
	DB	034H
	DB	07bH
	DB	0eeH
	DB	0c1H
	DB	0a8H
	DB	0a0H
	DQ	FLAT:$SG84815
	DD	0b3c7397cH
	DW	0d303H
	DW	0414dH
	DB	0b3H
	DB	03cH
	DB	04eH
	DB	0d2H
	DB	0c9H
	DB	0d2H
	DB	097H
	DB	033H
	DQ	FLAT:$SG84816
	DD	0e9dd31a3H
	DW	0221dH
	DW	04adbH
	DB	085H
	DB	032H
	DB	09aH
	DB	0f3H
	DB	09H
	DB	0c1H
	DB	0a4H
	DB	08H
	DQ	FLAT:$SG84817
	DD	0e89ad298H
	DW	03601H
	DW	04b06H
	DB	0aaH
	DB	0ecH
	DB	09dH
	DB	0deH
	DB	0edH
	DB	0ccH
	DB	05bH
	DB	0d0H
	DQ	FLAT:$SG84818
	DD	0ec232eb2H
	DW	0cb96H
	DW	04191H
	DB	0b2H
	DB	026H
	DB	0eH
	DB	0a1H
	DB	029H
	DB	0f3H
	DB	082H
	DB	050H
	DQ	FLAT:$SG84819
	DD	0c892e55bH
	DW	0252dH
	DW	042b5H
	DB	0a3H
	DB	016H
	DB	0d9H
	DB	097H
	DB	0e7H
	DB	0a5H
	DB	0d9H
	DB	095H
	DQ	FLAT:$SG84820
	DD	018bec4eaH
	DW	04676H
	DW	0450eH
	DB	0b4H
	DB	078H
	DB	0cH
	DB	0d8H
	DB	04cH
	DB	054H
	DB	0b3H
	DB	027H
	DQ	FLAT:$SG84821
	DD	0e06d8026H
	DW	0db46H
	DW	011cfH
	DB	0b4H
	DB	0d1H
	DB	00H
	DB	080H
	DB	05fH
	DB	06cH
	DB	0bbH
	DB	0eaH
	DQ	FLAT:$SG84822
	DD	0e06d80e3H
	DW	0db46H
	DW	011cfH
	DB	0b4H
	DB	0d1H
	DB	00H
	DB	080H
	DB	05fH
	DB	06cH
	DB	0bbH
	DB	0eaH
	DQ	FLAT:$SG84823
	DD	0f72a76a0H
	DW	0eb0aH
	DW	011d0H
	DB	0acH
	DB	0e4H
	DB	00H
	DB	00H
	DB	0c0H
	DB	0ccH
	DB	016H
	DB	0baH
	DQ	FLAT:$SG84824
	DD	0e06d8022H
	DW	0db46H
	DW	011cfH
	DB	0b4H
	DB	0d1H
	DB	00H
	DB	080H
	DB	05fH
	DB	06cH
	DB	0bbH
	DB	0eaH
	DQ	FLAT:$SG84825
	DD	0e06d8023H
	DW	0db46H
	DW	011cfH
	DB	0b4H
	DB	0d1H
	DB	00H
	DB	080H
	DB	05fH
	DB	06cH
	DB	0bbH
	DB	0eaH
	DQ	FLAT:$SG84826
	DD	0138aa9a4H
	DW	01ee2H
	DW	04c5bH
	DB	098H
	DB	08eH
	DB	019H
	DB	0abH
	DB	0fdH
	DB	0bcH
	DB	08aH
	DB	011H
	DQ	FLAT:$SG84827
	DD	018bec4eaH
	DW	04676H
	DW	0450eH
	DB	0b4H
	DB	078H
	DB	0cH
	DB	0d8H
	DB	04cH
	DB	054H
	DB	0b3H
	DB	027H
	DQ	FLAT:$SG84828
	DD	0d7aed42H
	DW	0cb9aH
	DW	011dbH
	DB	097H
	DB	05H
	DB	00H
	DB	050H
	DB	056H
	DB	0c0H
	DB	00H
	DB	08H
	DQ	FLAT:$SG84829
	DD	0af748dd4H
	DW	0d80H
	DW	011dbH
	DB	097H
	DB	05H
	DB	00H
	DB	050H
	DB	056H
	DB	0c0H
	DB	00H
	DB	08H
	DQ	FLAT:$SG84830
	DD	0e06d802bH
	DW	0db46H
	DW	011cfH
	DB	0b4H
	DB	0d1H
	DB	00H
	DB	080H
	DB	05fH
	DB	06cH
	DB	0bbH
	DB	0eaH
	DQ	FLAT:$SG84831
	DD	0e06d802cH
	DW	0db46H
	DW	011cfH
	DB	0b4H
	DB	0d1H
	DB	00H
	DB	080H
	DB	05fH
	DB	06cH
	DB	0bbH
	DB	0eaH
	DQ	FLAT:$SG84832
	DD	0e06d802dH
	DW	0db46H
	DW	011cfH
	DB	0b4H
	DB	0d1H
	DB	00H
	DB	080H
	DB	05fH
	DB	06cH
	DB	0bbH
	DB	0eaH
	DQ	FLAT:$SG84833
	DD	0e06d8032H
	DW	0db46H
	DW	011cfH
	DB	0b4H
	DB	0d1H
	DB	00H
	DB	080H
	DB	05fH
	DB	06cH
	DB	0bbH
	DB	0eaH
	DQ	FLAT:$SG84834
	DD	0e06d8033H
	DW	0db46H
	DW	011cfH
	DB	0b4H
	DB	0d1H
	DB	00H
	DB	080H
	DB	05fH
	DB	06cH
	DB	0bbH
	DB	0eaH
	DQ	FLAT:$SG84835
	DD	0e06d8034H
	DW	0db46H
	DW	011cfH
	DB	0b4H
	DB	0d1H
	DB	00H
	DB	080H
	DB	05fH
	DB	06cH
	DB	0bbH
	DB	0eaH
	DQ	FLAT:$SG84836
	DD	0ed0b916aH
	DW	044dH
	DW	011d1H
	DB	0aaH
	DB	078H
	DB	00H
	DB	0c0H
	DB	04fH
	DB	0c3H
	DB	01dH
	DB	060H
	DQ	FLAT:$SG84837
	DD	0e06d802eH
	DW	0db46H
	DW	011cfH
	DB	0b4H
	DB	0d1H
	DB	00H
	DB	080H
	DB	05fH
	DB	06cH
	DB	0bbH
	DB	0eaH
	DQ	FLAT:$SG84838
	DD	0e06d802fH
	DW	0db46H
	DW	011cfH
	DB	0b4H
	DB	0d1H
	DB	00H
	DB	080H
	DB	05fH
	DB	06cH
	DB	0bbH
	DB	0eaH
	DQ	FLAT:$SG84839
	DD	0e06d8030H
	DW	0db46H
	DW	011cfH
	DB	0b4H
	DB	0d1H
	DB	00H
	DB	080H
	DB	05fH
	DB	06cH
	DB	0bbH
	DB	0eaH
	DQ	FLAT:$SG84840
	DD	0e06d8031H
	DW	0db46H
	DW	011cfH
	DB	0b4H
	DB	0d1H
	DB	00H
	DB	080H
	DB	05fH
	DB	06cH
	DB	0bbH
	DB	0eaH
	DQ	FLAT:$SG84841
	DD	0e06d80e3H
	DW	0db46H
	DW	011cfH
	DB	0b4H
	DB	0d1H
	DB	00H
	DB	080H
	DB	05fH
	DB	06cH
	DB	0bbH
	DB	0eaH
	DQ	FLAT:$SG84842
	DD	0e06d80e4H
	DW	0db46H
	DW	011cfH
	DB	0b4H
	DB	0d1H
	DB	00H
	DB	080H
	DB	05fH
	DB	06cH
	DB	0bbH
	DB	0eaH
	DQ	FLAT:$SG84843
	DD	0e06d80e5H
	DW	0db46H
	DW	011cfH
	DB	0b4H
	DB	0d1H
	DB	00H
	DB	080H
	DB	05fH
	DB	06cH
	DB	0bbH
	DB	0eaH
	DQ	FLAT:$SG84844
	DD	0e06d80e6H
	DW	0db46H
	DW	011cfH
	DB	0b4H
	DB	0d1H
	DB	00H
	DB	080H
	DB	05fH
	DB	06cH
	DB	0bbH
	DB	0eaH
	DQ	FLAT:$SG84845
	DD	0bfabe720H
	DW	06e1fH
	DW	011d0H
	DB	0bcH
	DB	0f2H
	DB	044H
	DB	045H
	DB	053H
	DB	054H
	DB	00H
	DB	00H
	DQ	FLAT:$SG84846
	DD	0ac390460H
	DW	043afH
	DW	011d0H
	DB	0bdH
	DB	06aH
	DB	00H
	DB	035H
	DB	05H
	DB	0c1H
	DB	03H
	DB	0a9H
	DQ	FLAT:$SG84847
	DD	0e8a0a40H
	DW	06aefH
	DW	011d0H
	DB	09eH
	DB	0d0H
	DB	00H
	DB	0a0H
	DB	024H
	DB	0caH
	DB	019H
	DB	0b3H
	DQ	FLAT:$SG84848
	DD	0a503c5c0H
	DW	01d1dH
	DW	011d1H
	DB	0adH
	DB	080H
	DB	044H
	DB	045H
	DB	053H
	DB	054H
	DB	00H
	DB	00H
	DQ	FLAT:$SG84849
	DD	03577eb09H
	DW	09582H
	DW	0477fH
	DB	0b2H
	DB	09cH
	DB	0b0H
	DB	0c4H
	DB	052H
	DB	0a4H
	DB	0ffH
	DB	09aH
	DQ	FLAT:$SG84850
	DD	0ae4720aeH
	DW	0aa71H
	DW	042d8H
	DB	0b8H
	DB	02aH
	DB	0ffH
	DB	0fdH
	DB	0f5H
	DB	08bH
	DB	076H
	DB	0fdH
	DQ	FLAT:$SG84851
	DD	0c830acbdH
	DW	0ab07H
	DW	0492fH
	DB	088H
	DB	052H
	DB	045H
	DB	0b6H
	DB	098H
	DB	07cH
	DB	029H
	DB	079H
	DQ	FLAT:$SG84852
	DD	0ff6c4bfaH
	DW	07a9H
	DW	04c7bH
	DB	0a2H
	DB	037H
	DB	067H
	DB	02fH
	DB	09dH
	DB	068H
	DB	06H
	DB	05fH
	DQ	FLAT:$SG84853
	DD	065e8773dH
	DW	08f56H
	DW	011d0H
	DB	0a3H
	DB	0b9H
	DB	00H
	DB	0a0H
	DB	0c9H
	DB	022H
	DB	031H
	DB	096H
	DQ	FLAT:$SG84854
	DD	065e8773eH
	DW	08f56H
	DW	011d0H
	DB	0a3H
	DB	0b9H
	DB	00H
	DB	0a0H
	DB	0c9H
	DB	022H
	DB	031H
	DB	096H
	DQ	FLAT:$SG84855
	DD	01e84c900H
	DW	07e70H
	DW	011d0H
	DB	0a5H
	DB	0d6H
	DB	028H
	DB	0dbH
	DB	04H
	DB	0c1H
	DB	00H
	DB	00H
	DQ	FLAT:$SG84856
	DD	06994ad04H
	DW	093efH
	DW	011d0H
	DB	0a3H
	DB	0ccH
	DB	00H
	DB	0a0H
	DB	0c9H
	DB	022H
	DB	031H
	DB	096H
	DQ	FLAT:$SG84857
	DD	06994ad05H
	DW	093efH
	DW	011d0H
	DB	0a3H
	DB	0ccH
	DB	00H
	DB	0a0H
	DB	0c9H
	DB	022H
	DB	031H
	DB	096H
	DQ	FLAT:$SG84858
	DD	0a799a800H
	DW	0a46dH
	DW	011d0H
	DB	0a1H
	DB	08cH
	DB	00H
	DB	0a0H
	DB	024H
	DB	01H
	DB	0dcH
	DB	0d4H
	DQ	FLAT:$SG84859
	DD	0a799a801H
	DW	0a46dH
	DW	011d0H
	DB	0a1H
	DB	08cH
	DB	00H
	DB	0a0H
	DB	024H
	DB	01H
	DB	0dcH
	DB	0d4H
	DQ	FLAT:$SG84860
	DD	0a799a802H
	DW	0a46dH
	DW	011d0H
	DB	0a1H
	DB	08cH
	DB	00H
	DB	0a0H
	DB	024H
	DB	01H
	DB	0dcH
	DB	0d4H
	DQ	FLAT:$SG84861
	DD	07dad660H
	DW	022f1H
	DW	011d1H
	DB	0a9H
	DB	0f4H
	DB	00H
	DB	0c0H
	DB	04fH
	DB	0bbH
	DB	0deH
	DB	08fH
	DQ	FLAT:$SG84862
	DD	09c24a977H
	DW	0951H
	DW	0451aH
	DB	080H
	DB	06H
	DB	0eH
	DB	049H
	DB	0bdH
	DB	028H
	DB	0cdH
	DB	05fH
	DQ	FLAT:$SG84863
	DD	0a4252a0H
	DW	07e70H
	DW	011d0H
	DB	0a5H
	DB	0d6H
	DB	028H
	DB	0dbH
	DB	04H
	DB	0c1H
	DB	00H
	DB	00H
	DQ	FLAT:$SG84864
	DD	0d3abc7e0H
	DW	09a61H
	DW	011d0H
	DB	0a4H
	DB	0dH
	DB	00H
	DB	0a0H
	DB	0c9H
	DB	022H
	DB	031H
	DB	096H
	DQ	FLAT:$SG84865
	DD	05ffbaa02H
	DW	049a3H
	DW	011d0H
	DB	09fH
	DB	036H
	DB	00H
	DB	0aaH
	DB	00H
	DB	0a2H
	DB	016H
	DB	0a1H
	DQ	FLAT:$SG84866
	DD	0b61178d1H
	DW	0a2d9H
	DW	011cfH
	DB	09eH
	DB	053H
	DB	00H
	DB	0aaH
	DB	00H
	DB	0a2H
	DB	016H
	DB	0a1H
	DQ	FLAT:$SG84867
	DD	028f54685H
	DW	06fdH
	DW	011d2H
	DB	0b2H
	DB	07aH
	DB	00H
	DB	0a0H
	DB	0c9H
	DB	022H
	DB	031H
	DB	096H
	DQ	FLAT:$SG84868
	DD	0cd5ebe6bH
	DW	08b6eH
	DW	011d1H
	DB	08aH
	DB	0e0H
	DB	00H
	DB	0a0H
	DB	0c9H
	DB	022H
	DB	031H
	DB	096H
	DQ	FLAT:$SG84869
	DD	01a8766a0H
	DW	062ceH
	DW	011cfH
	DB	0a5H
	DB	0d6H
	DB	028H
	DB	0dbH
	DB	04H
	DB	0c1H
	DB	00H
	DB	00H
	DQ	FLAT:$SG84870
	DD	00H
	DW	00H
	DW	00H
	DB	00H
	DB	00H
	DB	00H
	DB	00H
	DB	00H
	DB	00H
	DB	00H
	DB	00H
	DQ	FLAT:$SG84871
	DD	07b785570H
	DW	08c82H
	DW	011cfH
	DB	0bcH
	DB	0cH
	DB	00H
	DB	0aaH
	DB	00H
	DB	0acH
	DB	074H
	DB	0f6H
	DQ	FLAT:$SG84872
	DD	07b785571H
	DW	08c82H
	DW	011cfH
	DB	0bcH
	DB	0cH
	DB	00H
	DB	0aaH
	DB	00H
	DB	0acH
	DB	074H
	DB	0f6H
	DQ	FLAT:$SG84873
	DD	07b785572H
	DW	08c82H
	DW	011cfH
	DB	0bcH
	DB	0cH
	DB	00H
	DB	0aaH
	DB	00H
	DB	0acH
	DB	074H
	DB	0f6H
	DQ	FLAT:$SG84874
	DD	07b785573H
	DW	08c82H
	DW	011cfH
	DB	0bcH
	DB	0cH
	DB	00H
	DB	0aaH
	DB	00H
	DB	0acH
	DB	074H
	DB	0f6H
	DQ	FLAT:$SG84875
	DD	07b785574H
	DW	08c82H
	DW	011cfH
	DB	0bcH
	DB	0cH
	DB	00H
	DB	0aaH
	DB	00H
	DB	0acH
	DB	074H
	DB	0f6H
	DQ	FLAT:$SG84876
	DD	09b00f101H
	DW	01567H
	DW	011d1H
	DB	0b3H
	DB	0f1H
	DB	00H
	DB	0aaH
	DB	00H
	DB	037H
	DB	061H
	DB	0c5H
	DQ	FLAT:$SG84877
	DD	0fb6c4281H
	DW	0353H
	DW	011d1H
	DB	090H
	DB	05fH
	DB	00H
	DB	00H
	DB	0c0H
	DB	0ccH
	DB	016H
	DB	0baH
	DQ	FLAT:$SG84878
	DD	0fb6c4282H
	DW	0353H
	DW	011d1H
	DB	090H
	DB	05fH
	DB	00H
	DB	00H
	DB	0c0H
	DB	0ccH
	DB	016H
	DB	0baH
	DQ	FLAT:$SG84879
	DD	0fb6c4283H
	DW	0353H
	DW	011d1H
	DB	090H
	DB	05fH
	DB	00H
	DB	00H
	DB	0c0H
	DB	0ccH
	DB	016H
	DB	0baH
	DQ	FLAT:$SG84880
	DD	0fb6c4284H
	DW	0353H
	DW	011d1H
	DB	090H
	DB	05fH
	DB	00H
	DB	00H
	DB	0c0H
	DB	0ccH
	DB	016H
	DB	0baH
	DQ	FLAT:$SG84881
	DD	0fb6c4285H
	DW	0353H
	DW	011d1H
	DB	090H
	DB	05fH
	DB	00H
	DB	00H
	DB	0c0H
	DB	0ccH
	DB	016H
	DB	0baH
	DQ	FLAT:$SG84882
	DD	0fb6c4286H
	DW	0353H
	DW	011d1H
	DB	090H
	DB	05fH
	DB	00H
	DB	00H
	DB	0c0H
	DB	0ccH
	DB	016H
	DB	0baH
	DQ	FLAT:$SG84883
	DD	0fb6c4287H
	DW	0353H
	DW	011d1H
	DB	090H
	DB	05fH
	DB	00H
	DB	00H
	DB	0c0H
	DB	0ccH
	DB	016H
	DB	0baH
	DQ	FLAT:$SG84884
	DD	0fb6c4288H
	DW	0353H
	DW	011d1H
	DB	090H
	DB	05fH
	DB	00H
	DB	00H
	DB	0c0H
	DB	0ccH
	DB	016H
	DB	0baH
	DQ	FLAT:$SG84885
	DD	0fb6c4289H
	DW	0353H
	DW	011d1H
	DB	090H
	DB	05fH
	DB	00H
	DB	00H
	DB	0c0H
	DB	0ccH
	DB	016H
	DB	0baH
	DQ	FLAT:$SG84886
	DD	0fb6c428aH
	DW	0353H
	DW	011d1H
	DB	090H
	DB	05fH
	DB	00H
	DB	00H
	DB	0c0H
	DB	0ccH
	DB	016H
	DB	0baH
	DQ	FLAT:$SG84887
	DD	0fb6c428bH
	DW	0353H
	DW	011d1H
	DB	090H
	DB	05fH
	DB	00H
	DB	00H
	DB	0c0H
	DB	0ccH
	DB	016H
	DB	0baH
	DQ	FLAT:$SG84888
	DD	0fb6c428cH
	DW	0353H
	DW	011d1H
	DB	090H
	DB	05fH
	DB	00H
	DB	00H
	DB	0c0H
	DB	0ccH
	DB	016H
	DB	0baH
	DQ	FLAT:$SG84889
	DD	0ac798be0H
	DW	098e3H
	DW	011d1H
	DB	0b3H
	DB	0f1H
	DB	00H
	DB	0aaH
	DB	00H
	DB	037H
	DB	061H
	DB	0c5H
	DQ	FLAT:$SG84890
	DD	0ac798be1H
	DW	098e3H
	DW	011d1H
	DB	0b3H
	DB	0f1H
	DB	00H
	DB	0aaH
	DB	00H
	DB	037H
	DB	061H
	DB	0c5H
	DQ	FLAT:$SG84891
	DD	0266eee41H
	DW	06c63H
	DW	011cfH
	DB	08aH
	DB	03H
	DB	00H
	DB	0aaH
	DB	00H
	DB	06eH
	DB	0cbH
	DB	065H
	DQ	FLAT:$SG84892
	DD	071f96461H
	DW	078f3H
	DW	011d0H
	DB	0a1H
	DB	08cH
	DB	00H
	DB	0a0H
	DB	0c9H
	DB	011H
	DB	089H
	DB	056H
	DQ	FLAT:$SG84893
	DD	071f96463H
	DW	078f3H
	DW	011d0H
	DB	0a1H
	DB	08cH
	DB	00H
	DB	0a0H
	DB	0c9H
	DB	011H
	DB	089H
	DB	056H
	DQ	FLAT:$SG84894
	DD	071f96464H
	DW	078f3H
	DW	011d0H
	DB	0a1H
	DB	08cH
	DB	00H
	DB	0a0H
	DB	0c9H
	DB	011H
	DB	089H
	DB	056H
	DQ	FLAT:$SG84895
	DD	071f96465H
	DW	078f3H
	DW	011d0H
	DB	0a1H
	DB	08cH
	DB	00H
	DB	0a0H
	DB	0c9H
	DB	011H
	DB	089H
	DB	056H
	DQ	FLAT:$SG84896
	DD	071f96466H
	DW	078f3H
	DW	011d0H
	DB	0a1H
	DB	08cH
	DB	00H
	DB	0a0H
	DB	0c9H
	DB	011H
	DB	089H
	DB	056H
	DQ	FLAT:$SG84897
	DD	071f96467H
	DW	078f3H
	DW	011d0H
	DB	0a1H
	DB	08cH
	DB	00H
	DB	0a0H
	DB	0c9H
	DB	011H
	DB	089H
	DB	056H
	DQ	FLAT:$SG84898
	DD	037e92a92H
	DW	0d9aaH
	DW	011d2H
	DB	0bfH
	DB	084H
	DB	08eH
	DB	0f2H
	DB	0b1H
	DB	055H
	DB	05aH
	DB	0edH
	DQ	FLAT:$SG84899
	DD	0b87beb7bH
	DW	08d29H
	DW	0423fH
	DB	0aeH
	DB	04dH
	DB	065H
	DB	082H
	DB	0c1H
	DB	01H
	DB	075H
	DB	0acH
	DQ	FLAT:$SG84900
	DD	06bc1cffaH
	DW	08fc1H
	DW	04261H
	DB	0acH
	DB	022H
	DB	0cfH
	DB	0b4H
	DB	0ccH
	DB	038H
	DB	0dbH
	DB	050H
	DQ	FLAT:$SG84901
	DD	099d54f63H
	DW	01a69H
	DW	041aeH
	DB	0aaH
	DB	04dH
	DB	0c9H
	DB	076H
	DB	0ebH
	DB	03fH
	DB	07H
	DB	013H
	DQ	FLAT:$SG84902
	DD	04444ac9eH
	DW	0242eH
	DW	0471bH
	DB	0a3H
	DB	0c7H
	DB	045H
	DB	0dcH
	DB	0d4H
	DB	063H
	DB	052H
	DB	0bcH
	DQ	FLAT:$SG84903
	DD	06f26a6cdH
	DW	0967bH
	DW	047fdH
	DB	087H
	DB	04aH
	DB	07aH
	DB	0edH
	DB	02cH
	DB	09dH
	DB	025H
	DB	0a2H
	DQ	FLAT:$SG84904
	DD	051b4abf3H
	DW	0748fH
	DW	04e3bH
	DB	0a2H
	DB	076H
	DB	0c8H
	DB	028H
	DB	033H
	DB	0eH
	DB	092H
	DB	06aH
	DQ	FLAT:$SG84905
	DD	0fa10746cH
	DW	09b63H
	DW	04b6cH
	DB	0bcH
	DB	049H
	DB	0fcH
	DB	030H
	DB	0eH
	DB	0a5H
	DB	0f2H
	DB	056H
	DQ	FLAT:$SG84906
	DD	0e474e05aH
	DW	0ab65H
	DW	04f6aH
	DB	082H
	DB	07cH
	DB	021H
	DB	08bH
	DB	01bH
	DB	0aaH
	DB	0f3H
	DB	01fH
	DQ	FLAT:$SG84907
	DD	098455561H
	DW	05136H
	DW	04d28H
	DB	0abH
	DB	08H
	DB	04cH
	DB	0eeH
	DB	040H
	DB	0eaH
	DB	027H
	DB	081H
	DQ	FLAT:$SG84908
	DD	0a0a7a57bH
	DW	059b2H
	DW	04919H
	DB	0a6H
	DB	094H
	DB	0adH
	DB	0d0H
	DB	0a5H
	DB	026H
	DB	0c3H
	DB	073H
	DQ	FLAT:$SG84909
	DD	062079164H
	DW	0233bH
	DW	041f8H
	DB	0a8H
	DB	0fH
	DB	0f0H
	DB	017H
	DB	05H
	DB	0f5H
	DB	014H
	DB	0a8H
	DQ	FLAT:$SG84910
	DD	0e447df01H
	DW	010caH
	DW	04d17H
	DB	0b1H
	DB	07eH
	DB	06aH
	DB	084H
	DB	0fH
	DB	08aH
	DB	03aH
	DB	04cH
	DQ	FLAT:$SG84911
	DD	0e447df02H
	DW	010caH
	DW	04d17H
	DB	0b1H
	DB	07eH
	DB	06aH
	DB	084H
	DB	0fH
	DB	08aH
	DB	03aH
	DB	04cH
	DQ	FLAT:$SG84912
	DD	0e447df03H
	DW	010caH
	DW	04d17H
	DB	0b1H
	DB	07eH
	DB	06aH
	DB	084H
	DB	0fH
	DB	08aH
	DB	03aH
	DB	04cH
	DQ	FLAT:$SG84913
	DD	0e447df04H
	DW	010caH
	DW	04d17H
	DB	0b1H
	DB	07eH
	DB	06aH
	DB	084H
	DB	0fH
	DB	08aH
	DB	03aH
	DB	04cH
	DQ	FLAT:$SG84914
	DD	0e447df05H
	DW	010caH
	DW	04d17H
	DB	0b1H
	DB	07eH
	DB	06aH
	DB	084H
	DB	0fH
	DB	08aH
	DB	03aH
	DB	04cH
	DQ	FLAT:$SG84915
	DD	0e447df06H
	DW	010caH
	DW	04d17H
	DB	0b1H
	DB	07eH
	DB	06aH
	DB	084H
	DB	0fH
	DB	08aH
	DB	03aH
	DB	04cH
	DQ	FLAT:$SG84916
	DD	0e447df07H
	DW	010caH
	DW	04d17H
	DB	0b1H
	DB	07eH
	DB	06aH
	DB	084H
	DB	0fH
	DB	08aH
	DB	03aH
	DB	04cH
	DQ	FLAT:$SG84917
	DD	0e447df08H
	DW	010caH
	DW	04d17H
	DB	0b1H
	DB	07eH
	DB	06aH
	DB	084H
	DB	0fH
	DB	08aH
	DB	03aH
	DB	04cH
	DQ	FLAT:$SG84918
	DD	0e447df09H
	DW	010caH
	DW	04d17H
	DB	0b1H
	DB	07eH
	DB	06aH
	DB	084H
	DB	0fH
	DB	08aH
	DB	03aH
	DB	04cH
	DQ	FLAT:$SG84919
	DD	0e447df0aH
	DW	010caH
	DW	04d17H
	DB	0b1H
	DB	07eH
	DB	06aH
	DB	084H
	DB	0fH
	DB	08aH
	DB	03aH
	DB	04cH
	DQ	FLAT:$SG84920
	DD	0b2f3a67cH
	DW	029daH
	DW	04c78H
	DB	088H
	DB	031H
	DB	09H
	DB	01eH
	DB	0d5H
	DB	09H
	DB	0a4H
	DB	075H
	DQ	FLAT:$SG84921
	DD	0dad2fddH
	DW	05fd7H
	DW	011d3H
	DB	08fH
	DB	050H
	DB	00H
	DB	0c0H
	DB	04fH
	DB	079H
	DB	071H
	DB	0e2H
	DQ	FLAT:$SG84922
	DD	0e3444d16H
	DW	05ac4H
	DW	04386H
	DB	088H
	DB	0dfH
	DB	013H
	DB	0fdH
	DB	023H
	DB	0eH
	DB	01dH
	DB	0daH
	DQ	FLAT:$SG84923
	DD	0fa4b375aH
	DW	045b4H
	DW	04d45H
	DB	084H
	DB	040H
	DB	026H
	DB	039H
	DB	057H
	DB	0b1H
	DB	016H
	DB	023H
	DQ	FLAT:$SG84924
	DD	0216c62dfH
	DW	06d7fH
	DW	04e9aH
	DB	085H
	DB	071H
	DB	05H
	DB	0f1H
	DB	04eH
	DB	0dbH
	DB	076H
	DB	06aH
	DQ	FLAT:$SG84925
	DD	0dc0c0fe7H
	DW	0485H
	DW	04266H
	DB	0b9H
	DB	03fH
	DB	068H
	DB	0fbH
	DB	0f8H
	DB	0eH
	DB	0d8H
	DB	034H
	DQ	FLAT:$SG84926
	DD	0eb7836caH
	DW	014ffH
	DW	04919H
	DB	0bcH
	DB	0e7H
	DB	03aH
	DB	0f1H
	DB	023H
	DB	019H
	DB	0e5H
	DB	0cH
	DQ	FLAT:$SG84927
	DD	02f5bae02H
	DW	07b8fH
	DW	04f60H
	DB	082H
	DB	0d6H
	DB	0e4H
	DB	0eaH
	DB	02fH
	DB	01fH
	DB	04cH
	DB	099H
	DQ	FLAT:$SG84928
	DD	05a5f08caH
	DW	055c2H
	DW	04033H
	DB	092H
	DB	0abH
	DB	055H
	DB	0dbH
	DB	08fH
	DB	078H
	DB	012H
	DB	026H
	DQ	FLAT:$SG84929
	DD	0e7e050fbH
	DW	0dd5dH
	DW	040ddH
	DB	099H
	DB	015H
	DB	035H
	DB	0dcH
	DB	0b8H
	DB	01bH
	DB	0dcH
	DB	08aH
	DQ	FLAT:$SG84930
	DD	0b622f612H
	DW	047adH
	DW	04671H
	DB	0adH
	DB	06cH
	DB	05H
	DB	0a9H
	DB	08eH
	DB	065H
	DB	0deH
	DB	03aH
	DQ	FLAT:$SG84931
	DD	0e0b56679H
	DW	012b9H
	DW	043ccH
	DB	0b7H
	DB	0dfH
	DB	057H
	DB	08cH
	DB	0aaH
	DB	05aH
	DB	07bH
	DB	063H
	DQ	FLAT:$SG84932
	DD	0c1a5614H
	DW	030cdH
	DW	04f40H
	DB	0bcH
	DB	0bfH
	DB	0d0H
	DB	03eH
	DB	052H
	DB	030H
	DB	062H
	DB	07H
	DQ	FLAT:$SG84933
	DD	05fb5673bH
	DW	0a2aH
	DW	04565H
	DB	082H
	DB	07bH
	DB	068H
	DB	053H
	DB	0fdH
	DB	075H
	DB	0e6H
	DB	011H
	DQ	FLAT:$SG84934
	DD	0892cd111H
	DW	072f3H
	DW	0411dH
	DB	08bH
	DB	091H
	DB	0a9H
	DB	0e9H
	DB	012H
	DB	03aH
	DB	0c2H
	DB	09aH
	DQ	FLAT:$SG84935
	DD	0e1b98d74H
	DW	09778H
	DW	04878H
	DB	0b6H
	DB	064H
	DB	0ebH
	DB	020H
	DB	020H
	DB	036H
	DB	04dH
	DB	088H
	DQ	FLAT:$SG84936
	DD	05dcd1101H
	DW	09263H
	DW	045bbH
	DB	0a4H
	DB	0d5H
	DB	0c4H
	DB	015H
	DB	0abH
	DB	08cH
	DB	058H
	DB	09cH
	DQ	FLAT:$SG84937
	DD	05500280H
	DW	0faa5H
	DW	04df9H
	DB	082H
	DB	046H
	DB	0bfH
	DB	0c2H
	DB	03aH
	DB	0c5H
	DB	0ceH
	DB	0a8H
	DQ	FLAT:$SG84938
	DD	05500281H
	DW	0faa5H
	DW	04df9H
	DB	082H
	DB	046H
	DB	0bfH
	DB	0c2H
	DB	03aH
	DB	0c5H
	DB	0ceH
	DB	0a8H
	DQ	FLAT:$SG84939
	DD	05500282H
	DW	0faa5H
	DW	04df9H
	DB	082H
	DB	046H
	DB	0bfH
	DB	0c2H
	DB	03aH
	DB	0c5H
	DB	0ceH
	DB	0a8H
	DQ	FLAT:$SG84940
	DD	05500283H
	DW	0faa5H
	DW	04df9H
	DB	082H
	DB	046H
	DB	0bfH
	DB	0c2H
	DB	03aH
	DB	0c5H
	DB	0ceH
	DB	0a8H
	DQ	FLAT:$SG84941
	DD	0b43c4eecH
	DW	08c32H
	DW	04791H
	DB	091H
	DB	02H
	DB	050H
	DB	08aH
	DB	0daH
	DB	05eH
	DB	0e8H
	DB	0e7H
	DQ	FLAT:$SG84942
	DD	07ff0997aH
	DW	01999H
	DW	04286H
	DB	0a7H
	DB	03cH
	DB	062H
	DB	02bH
	DB	088H
	DB	014H
	DB	0e7H
	DB	0ebH
	DQ	FLAT:$SG84943
	DD	0b05dabd9H
	DW	056e5H
	DW	04fdcH
	DB	0afH
	DB	0a4H
	DB	08aH
	DB	047H
	DB	0e9H
	DB	01fH
	DB	01cH
	DB	09cH
	DQ	FLAT:$SG84944
	DD	0e0ad4828H
	DW	0df66H
	DW	04893H
	DB	09fH
	DB	033H
	DB	078H
	DB	08aH
	DB	0a4H
	DB	0ecH
	DB	040H
	DB	082H
_DATA	ENDS
CONST	SEGMENT
$SG84058 DB	'T', 00H, 'I', 00H, 'M', 00H, 'I', 00H, 'N', 00H, 'G', 00H
	DB	00H, 00H
	ORG $+2
$SG84059 DB	'T', 00H, 'R', 00H, 'A', 00H, 'C', 00H, 'E', 00H, 00H, 00H
$SG84352 DB	0dH, 0aH, 00H
	ORG $+1
$SG84060 DB	'M', 00H, 'E', 00H, 'M', 00H, 'O', 00H, 'R', 00H, 'Y', 00H
	DB	00H, 00H
	ORG $+2
$SG84061 DB	'L', 00H, 'O', 00H, 'C', 00H, 'K', 00H, 'I', 00H, 'N', 00H
	DB	'G', 00H, 00H, 00H
$SG84062 DB	'E', 00H, 'R', 00H, 'R', 00H, 'O', 00H, 'R', 00H, 00H, 00H
$SG84464 DB	00H, 00H
	ORG $+2
$SG84063 DB	'C', 00H, 'U', 00H, 'S', 00H, 'T', 00H, 'O', 00H, 'M', 00H
	DB	'1', 00H, 00H, 00H
$SG84064 DB	'C', 00H, 'U', 00H, 'S', 00H, 'T', 00H, 'O', 00H, 'M', 00H
	DB	'2', 00H, 00H, 00H
$SG84065 DB	'C', 00H, 'U', 00H, 'S', 00H, 'T', 00H, 'O', 00H, 'M', 00H
	DB	'3', 00H, 00H, 00H
$SG84066 DB	'C', 00H, 'U', 00H, 'S', 00H, 'T', 00H, 'O', 00H, 'M', 00H
	DB	'4', 00H, 00H, 00H
$SG84067 DB	'C', 00H, 'U', 00H, 'S', 00H, 'T', 00H, 'O', 00H, 'M', 00H
	DB	'5', 00H, 00H, 00H
?_szEntering@CAutoTrace@@0QB_WB DB 'E', 00H, 'n', 00H, 't', 00H, 'e', 00H
	DB	'r', 00H, 'i', 00H, 'n', 00H, 'g', 00H, ':', 00H, ' ', 00H, '%'
	DB	00H, 's', 00H, 00H, 00H			; CAutoTrace::_szEntering
	ORG $+2
$SG84466 DB	00H, 00H
	ORG $+2
?_szLeaving@CAutoTrace@@0QB_WB DB 'L', 00H, 'e', 00H, 'a', 00H, 'v', 00H, 'i'
	DB	00H, 'n', 00H, 'g', 00H, ':', 00H, ' ', 00H, '%', 00H, 's', 00H
	DB	00H, 00H					; CAutoTrace::_szLeaving
$SG84086 DB	'S', 00H, 'O', 00H, 'F', 00H, 'T', 00H, 'W', 00H, 'A', 00H
	DB	'R', 00H, 'E', 00H, '\', 00H, 'D', 00H, 'e', 00H, 'b', 00H, 'u'
	DB	00H, 'g', 00H, 00H, 00H
	ORG $+2
$SG84088 DB	'G', 00H, 'L', 00H, 'O', 00H, 'B', 00H, 'A', 00H, 'L', 00H
	DB	00H, 00H
	ORG $+2
$SG84090 DB	'UNKNOWN', 00H
$SG84092 DB	'T', 00H, 'I', 00H, 'M', 00H, 'E', 00H, 'O', 00H, 'U', 00H
	DB	'T', 00H, 00H, 00H
$SG84097 DB	'B', 00H, 'r', 00H, 'e', 00H, 'a', 00H, 'k', 00H, 'O', 00H
	DB	'n', 00H, 'L', 00H, 'o', 00H, 'a', 00H, 'd', 00H, 00H, 00H
$SG84104 DB	'.', 00H, '.', 00H, '\', 00H, 'w', 00H, 'x', 00H, 'd', 00H
	DB	'e', 00H, 'b', 00H, 'u', 00H, 'g', 00H, '.', 00H, 'c', 00H, 'p'
	DB	00H, 'p', 00H, 00H, 00H
	ORG $+2
$SG84105 DB	'C', 00H, 'l', 00H, 'o', 00H, 's', 00H, 'e', 00H, 'H', 00H
	DB	'a', 00H, 'n', 00H, 'd', 00H, 'l', 00H, 'e', 00H, '(', 00H, 'm'
	DB	00H, '_', 00H, 'h', 00H, 'O', 00H, 'u', 00H, 't', 00H, 'p', 00H
	DB	'u', 00H, 't', 00H, ')', 00H, 00H, 00H
	ORG $+2
$SG84128 DB	'C', 00H, 'o', 00H, 'u', 00H, 'l', 00H, 'd', 00H, ' ', 00H
	DB	'n', 00H, 'o', 00H, 't', 00H, ' ', 00H, 'c', 00H, 'r', 00H, 'e'
	DB	00H, 'a', 00H, 't', 00H, 'e', 00H, ' ', 00H, 's', 00H, 'u', 00H
	DB	'b', 00H, 'k', 00H, 'e', 00H, 'y', 00H, ' ', 00H, '%', 00H, 's'
	DB	00H, 00H, 00H
	ORG $+2
$SG84140 DB	'C', 00H, 'o', 00H, 'u', 00H, 'l', 00H, 'd', 00H, ' ', 00H
	DB	'n', 00H, 'o', 00H, 't', 00H, ' ', 00H, 'c', 00H, 'r', 00H, 'e'
	DB	00H, 'a', 00H, 't', 00H, 'e', 00H, ' ', 00H, 's', 00H, 'u', 00H
	DB	'b', 00H, 'k', 00H, 'e', 00H, 'y', 00H, ' ', 00H, '%', 00H, 's'
	DB	00H, 00H, 00H
	ORG $+2
$SG84170 DB	'.', 00H, '.', 00H, '\', 00H, 'w', 00H, 'x', 00H, 'd', 00H
	DB	'e', 00H, 'b', 00H, 'u', 00H, 'g', 00H, '.', 00H, 'c', 00H, 'p'
	DB	00H, 'p', 00H, 00H, 00H
	ORG $+2
$SG84171 DB	'C', 00H, 'l', 00H, 'o', 00H, 's', 00H, 'e', 00H, 'H', 00H
	DB	'a', 00H, 'n', 00H, 'd', 00H, 'l', 00H, 'e', 00H, ' ', 00H, '('
	DB	00H, 'm', 00H, '_', 00H, 'h', 00H, 'O', 00H, 'u', 00H, 't', 00H
	DB	'p', 00H, 'u', 00H, 't', 00H, ')', 00H, 00H, 00H
$SG84176 DB	'C', 00H, 'o', 00H, 'n', 00H, 's', 00H, 'o', 00H, 'l', 00H
	DB	'e', 00H, 00H, 00H
$SG84182 DB	'A', 00H, 'c', 00H, 't', 00H, 'i', 00H, 'v', 00H, 'e', 00H
	DB	'X', 00H, ' ', 00H, 'D', 00H, 'e', 00H, 'b', 00H, 'u', 00H, 'g'
	DB	00H, ' ', 00H, 'O', 00H, 'u', 00H, 't', 00H, 'p', 00H, 'u', 00H
	DB	't', 00H, 00H, 00H
	ORG $+2
$SG84475 DB	00H, 00H
	ORG $+2
$SG84185 DB	'D', 00H, 'e', 00H, 'b', 00H, 'u', 00H, 'g', 00H, 00H, 00H
$SG84995 DB	'-', 00H, 00H, 00H
$SG84186 DB	'D', 00H, 'e', 00H, 'b', 00H, 'u', 00H, 'g', 00H, 'g', 00H
	DB	'e', 00H, 'r', 00H, 00H, 00H
	ORG $+2
$SG85066 DB	00H, 00H
	ORG $+2
$SG84187 DB	'D', 00H, 'e', 00H, 'b', 00H, 00H, 00H
$SG84199 DB	'%', 00H, 's', 00H, '\', 00H, '%', 00H, 's', 00H, 00H, 00H
$SG84409 DB	0dH, 00H, 0aH, 00H, 00H, 00H
	ORG $+6
$SG84206 DB	'C', 00H, 'o', 00H, 'u', 00H, 'l', 00H, 'd', 00H, ' ', 00H
	DB	'n', 00H, 'o', 00H, 't', 00H, ' ', 00H, 'a', 00H, 'c', 00H, 'c'
	DB	00H, 'e', 00H, 's', 00H, 's', 00H, ' ', 00H, 'G', 00H, 'L', 00H
	DB	'O', 00H, 'B', 00H, 'A', 00H, 'L', 00H, ' ', 00H, 'm', 00H, 'o'
	DB	00H, 'd', 00H, 'u', 00H, 'l', 00H, 'e', 00H, ' ', 00H, 'k', 00H
	DB	'e', 00H, 'y', 00H, 00H, 00H
	ORG $+2
$SG84213 DB	'%', 00H, 's', 00H, '\', 00H, '%', 00H, 's', 00H, 00H, 00H
	ORG $+4
$SG84220 DB	'C', 00H, 'o', 00H, 'u', 00H, 'l', 00H, 'd', 00H, ' ', 00H
	DB	'n', 00H, 'o', 00H, 't', 00H, ' ', 00H, 'a', 00H, 'c', 00H, 'c'
	DB	00H, 'e', 00H, 's', 00H, 's', 00H, ' ', 00H, 'm', 00H, 'o', 00H
	DB	'd', 00H, 'u', 00H, 'l', 00H, 'e', 00H, ' ', 00H, 'k', 00H, 'e'
	DB	00H, 'y', 00H, 00H, 00H
$SG84265 DB	'%', 00H, 's', 00H, ' ', 00H, 0aH, 00H, 'A', 00H, 't', 00H
	DB	' ', 00H, 'l', 00H, 'i', 00H, 'n', 00H, 'e', 00H, ' ', 00H, '%'
	DB	00H, 'd', 00H, ' ', 00H, 'o', 00H, 'f', 00H, ' ', 00H, '%', 00H
	DB	's', 00H, 0aH, 00H, 'C', 00H, 'o', 00H, 'n', 00H, 't', 00H, 'i'
	DB	00H, 'n', 00H, 'u', 00H, 'e', 00H, '?', 00H, ' ', 00H, '(', 00H
	DB	'C', 00H, 'a', 00H, 'n', 00H, 'c', 00H, 'e', 00H, 'l', 00H, ' '
	DB	00H, 't', 00H, 'o', 00H, ' ', 00H, 'd', 00H, 'e', 00H, 'b', 00H
	DB	'u', 00H, 'g', 00H, ')', 00H, 00H, 00H
	ORG $+6
$SG84267 DB	'A', 00H, 'S', 00H, 'S', 00H, 'E', 00H, 'R', 00H, 'T', 00H
	DB	' ', 00H, 'F', 00H, 'a', 00H, 'i', 00H, 'l', 00H, 'e', 00H, 'd'
	DB	00H, 00H, 00H
	ORG $+4
$SG84273 DB	'A', 00H, 'p', 00H, 'p', 00H, 'l', 00H, 'i', 00H, 'c', 00H
	DB	'a', 00H, 't', 00H, 'i', 00H, 'o', 00H, 'n', 00H, ' ', 00H, 't'
	DB	00H, 'e', 00H, 'r', 00H, 'm', 00H, 'i', 00H, 'n', 00H, 'a', 00H
	DB	't', 00H, 'e', 00H, 'd', 00H, 00H, 00H
	ORG $+2
$SG84350 DB	'(', 00H, 't', 00H, 'i', 00H, 'd', 00H, ' ', 00H, '%', 00H
	DB	'x', 00H, ')', 00H, ' ', 00H, '%', 00H, '8', 00H, 'd', 00H, ' '
	DB	00H, ':', 00H, ' ', 00H, 00H, 00H
$SG84505 DB	'MEDIASUBTYPE_None', 00H
	ORG $+6
$SG84284 DB	'%', 00H, 's', 00H, ' ', 00H, 0aH, 00H, 'A', 00H, 't', 00H
	DB	' ', 00H, 'l', 00H, 'i', 00H, 'n', 00H, 'e', 00H, ' ', 00H, '%'
	DB	00H, 'd', 00H, ' ', 00H, 'o', 00H, 'f', 00H, ' ', 00H, '%', 00H
	DB	's', 00H, 0aH, 00H, 'C', 00H, 'o', 00H, 'n', 00H, 't', 00H, 'i'
	DB	00H, 'n', 00H, 'u', 00H, 'e', 00H, '?', 00H, ' ', 00H, '(', 00H
	DB	'C', 00H, 'a', 00H, 'n', 00H, 'c', 00H, 'e', 00H, 'l', 00H, ' '
	DB	00H, 't', 00H, 'o', 00H, ' ', 00H, 'd', 00H, 'e', 00H, 'b', 00H
	DB	'u', 00H, 'g', 00H, ')', 00H, 00H, 00H
	ORG $+6
$SG84286 DB	'H', 00H, 'a', 00H, 'r', 00H, 'd', 00H, ' ', 00H, 'c', 00H
	DB	'o', 00H, 'd', 00H, 'e', 00H, 'd', 00H, ' ', 00H, 'b', 00H, 'r'
	DB	00H, 'e', 00H, 'a', 00H, 'k', 00H, ' ', 00H, 'p', 00H, 'o', 00H
	DB	'i', 00H, 'n', 00H, 't', 00H, 00H, 00H
	ORG $+2
$SG84292 DB	'A', 00H, 'p', 00H, 'p', 00H, 'l', 00H, 'i', 00H, 'c', 00H
	DB	'a', 00H, 't', 00H, 'i', 00H, 'o', 00H, 'n', 00H, ' ', 00H, 't'
	DB	00H, 'e', 00H, 'r', 00H, 'm', 00H, 'i', 00H, 'n', 00H, 'a', 00H
	DB	't', 00H, 'e', 00H, 'd', 00H, 00H, 00H
	ORG $+2
$SG84308 DB	'.', 00H, '.', 00H, '\', 00H, 'w', 00H, 'x', 00H, 'd', 00H
	DB	'e', 00H, 'b', 00H, 'u', 00H, 'g', 00H, '.', 00H, 'c', 00H, 'p'
	DB	00H, 'p', 00H, 00H, 00H
	ORG $+2
$SG84408 DB	'(', 00H, 't', 00H, 'i', 00H, 'd', 00H, ' ', 00H, '%', 00H
	DB	'x', 00H, ')', 00H, ' ', 00H, '%', 00H, '8', 00H, 'd', 00H, ' '
	DB	00H, ':', 00H, ' ', 00H, 00H, 00H
$SG84510 DB	'MEDIATYPE_Stream', 00H
	ORG $+3
$SG84976 DB	'%', 00H, 's', 00H, 00H, 00H
	ORG $+6
$SG84365 DB	'A', 00H, 'S', 00H, 'S', 00H, 'E', 00H, 'R', 00H, 'T', 00H
	DB	' ', 00H, 'F', 00H, 'a', 00H, 'i', 00H, 'l', 00H, 'e', 00H, 'd'
	DB	00H, 00H, 00H
$SG85156 DB	'I', 00H, 'n', 00H, 00H, 00H
	ORG $+6
$SG84309 DB	'"', 00H, 'E', 00H, 'R', 00H, 'R', 00H, 'O', 00H, 'R', 00H
	DB	' ', 00H, 'i', 00H, 'n', 00H, ' ', 00H, 'D', 00H, 'b', 00H, 'g'
	DB	00H, 'B', 00H, 'r', 00H, 'e', 00H, 'a', 00H, 'k', 00H, 'P', 00H
	DB	'o', 00H, 'i', 00H, 'n', 00H, 't', 00H, '(', 00H, ')', 00H, '.'
	DB	00H, ' ', 00H, ' ', 00H, 'T', 00H, 'h', 00H, 'e', 00H, ' ', 00H
	DB	'v', 00H, 'a', 00H, 'r', 00H, 'i', 00H, 'a', 00H, 'b', 00H, 'l'
	DB	00H, 'e', 00H, ' ', 00H, 'l', 00H, 'e', 00H, 'n', 00H, 'g', 00H
	DB	't', 00H, 'h', 00H, ' ', 00H, 'd', 00H, 'e', 00H, 'b', 00H, 'u'
	DB	00H, 'g', 00H, ' ', 00H, 'm', 00H, 'e', 00H, 's', 00H, 's', 00H
	DB	'a', 00H, 'g', 00H, 'e', 00H, ' ', 00H, 'c', 00H, 'o', 00H, 'u'
	DB	00H, 'l', 00H, 'd', 00H, ' ', 00H, 'n', 00H, 'o', 00H, 't', 00H
	DB	' ', 00H, 'b', 00H, 'e', 00H, ' ', 00H, 'd', 00H, 'i', 00H, 's'
	DB	00H, 'p', 00H, 'l', 00H, 'a', 00H, 'y', 00H, 'e', 00H, 'd', 00H
	DB	' ', 00H, 'b', 00H, 'e', 00H, 'c', 00H, 'a', 00H, 'u', 00H, 's'
	DB	00H, 'e', 00H, ' ', 00H, '_', 00H, 'v', 00H, 's', 00H, 'n', 00H
	DB	'p', 00H, 'r', 00H, 'i', 00H, 'n', 00H, 't', 00H, 'f', 00H, '('
	DB	00H, ')', 00H, ' ', 00H, 'f', 00H, 'a', 00H, 'i', 00H, 'l', 00H
	DB	'e', 00H, 'd', 00H, '.', 00H, '"', 00H, 00H, 00H
	ORG $+2
$SG84429 DB	'p', 00H, 'O', 00H, 'b', 00H, 'j', 00H, 'e', 00H, 'c', 00H
	DB	't', 00H, 00H, 00H
$SG84511 DB	'MEDIATYPE_Interleaved', 00H
	ORG $+2
$SG84363 DB	'%', 00H, 'h', 00H, 's', 00H, ' ', 00H, 0aH, 00H, 'A', 00H
	DB	't', 00H, ' ', 00H, 'l', 00H, 'i', 00H, 'n', 00H, 'e', 00H, ' '
	DB	00H, '%', 00H, 'd', 00H, ' ', 00H, 'o', 00H, 'f', 00H, ' ', 00H
	DB	'%', 00H, 'h', 00H, 's', 00H, 0aH, 00H, 'C', 00H, 'o', 00H, 'n'
	DB	00H, 't', 00H, 'i', 00H, 'n', 00H, 'u', 00H, 'e', 00H, '?', 00H
	DB	' ', 00H, '(', 00H, 'C', 00H, 'a', 00H, 'n', 00H, 'c', 00H, 'e'
	DB	00H, 'l', 00H, ' ', 00H, 't', 00H, 'o', 00H, ' ', 00H, 'd', 00H
	DB	'e', 00H, 'b', 00H, 'u', 00H, 'g', 00H, ')', 00H, 00H, 00H
	ORG $+2
$SG84371 DB	'A', 00H, 'p', 00H, 'p', 00H, 'l', 00H, 'i', 00H, 'c', 00H
	DB	'a', 00H, 't', 00H, 'i', 00H, 'o', 00H, 'n', 00H, ' ', 00H, 't'
	DB	00H, 'e', 00H, 'r', 00H, 'm', 00H, 'i', 00H, 'n', 00H, 'a', 00H
	DB	't', 00H, 'e', 00H, 'd', 00H, 00H, 00H
	ORG $+2
$SG84471 DB	'%', 00H, '5', 00H, 'd', 00H, ' ', 00H, '(', 00H, '%', 00H
	DB	'8', 00H, 'x', 00H, ')', 00H, ' ', 00H, '%', 00H, '3', 00H, '0'
	DB	00H, 'l', 00H, 's', 00H, 00H, 00H
$SG84513 DB	'MEDIATYPE_ScriptCommand', 00H
$SG84382 DB	'%', 00H, 'h', 00H, 's', 00H, ' ', 00H, 0aH, 00H, 'A', 00H
	DB	't', 00H, ' ', 00H, 'l', 00H, 'i', 00H, 'n', 00H, 'e', 00H, ' '
	DB	00H, '%', 00H, 'd', 00H, ' ', 00H, 'o', 00H, 'f', 00H, ' ', 00H
	DB	'%', 00H, 'h', 00H, 's', 00H, 0aH, 00H, 'C', 00H, 'o', 00H, 'n'
	DB	00H, 't', 00H, 'i', 00H, 'n', 00H, 'u', 00H, 'e', 00H, '?', 00H
	DB	' ', 00H, '(', 00H, 'C', 00H, 'a', 00H, 'n', 00H, 'c', 00H, 'e'
	DB	00H, 'l', 00H, ' ', 00H, 't', 00H, 'o', 00H, ' ', 00H, 'd', 00H
	DB	'e', 00H, 'b', 00H, 'u', 00H, 'g', 00H, ')', 00H, 00H, 00H
	ORG $+2
$SG84384 DB	'H', 00H, 'a', 00H, 'r', 00H, 'd', 00H, ' ', 00H, 'c', 00H
	DB	'o', 00H, 'd', 00H, 'e', 00H, 'd', 00H, ' ', 00H, 'b', 00H, 'r'
	DB	00H, 'e', 00H, 'a', 00H, 'k', 00H, ' ', 00H, 'p', 00H, 'o', 00H
	DB	'i', 00H, 'n', 00H, 't', 00H, 00H, 00H
	ORG $+2
$SG84390 DB	'A', 00H, 'p', 00H, 'p', 00H, 'l', 00H, 'i', 00H, 'c', 00H
	DB	'a', 00H, 't', 00H, 'i', 00H, 'o', 00H, 'n', 00H, ' ', 00H, 't'
	DB	00H, 'e', 00H, 'r', 00H, 'm', 00H, 'i', 00H, 'n', 00H, 'a', 00H
	DB	't', 00H, 'e', 00H, 'd', 00H, 00H, 00H
	ORG $+2
$SG84473 DB	'%', 00H, '5', 00H, 'd', 00H, ' ', 00H, '(', 00H, '%', 00H
	DB	'8', 00H, 'x', 00H, ')', 00H, ' ', 00H, '%', 00H, '3', 00H, '0'
	DB	00H, 'h', 00H, 's', 00H, 00H, 00H
$SG84514 DB	'MEDIATYPE_AUXLine21Data', 00H
$SG84398 DB	'A', 00H, 's', 00H, 's', 00H, 'e', 00H, 'r', 00H, 't', 00H
	DB	'i', 00H, 'o', 00H, 'n', 00H, ' ', 00H, 'F', 00H, 'A', 00H, 'I'
	DB	00H, 'L', 00H, 'E', 00H, 'D', 00H, ' ', 00H, '(', 00H, '%', 00H
	DB	'h', 00H, 's', 00H, ')', 00H, ' ', 00H, 'a', 00H, 't', 00H, ' '
	DB	00H, 'l', 00H, 'i', 00H, 'n', 00H, 'e', 00H, ' ', 00H, '%', 00H
	DB	'd', 00H, ' ', 00H, 'i', 00H, 'n', 00H, ' ', 00H, 'f', 00H, 'i'
	DB	00H, 'l', 00H, 'e', 00H, ' ', 00H, '%', 00H, 'h', 00H, 's', 00H
	DB	00H, 00H
	ORG $+4
$SG84416 DB	'A', 00H, 's', 00H, 's', 00H, 'e', 00H, 'r', 00H, 't', 00H
	DB	'i', 00H, 'o', 00H, 'n', 00H, ' ', 00H, 'F', 00H, 'A', 00H, 'I'
	DB	00H, 'L', 00H, 'E', 00H, 'D', 00H, ' ', 00H, '(', 00H, '%', 00H
	DB	's', 00H, ')', 00H, ' ', 00H, 'a', 00H, 't', 00H, ' ', 00H, 'l'
	DB	00H, 'i', 00H, 'n', 00H, 'e', 00H, ' ', 00H, '%', 00H, 'd', 00H
	DB	' ', 00H, 'i', 00H, 'n', 00H, ' ', 00H, 'f', 00H, 'i', 00H, 'l'
	DB	00H, 'e', 00H, ' ', 00H, '%', 00H, 's', 00H, 00H, 00H
$SG84422 DB	'.', 00H, '.', 00H, '\', 00H, 'w', 00H, 'x', 00H, 'd', 00H
	DB	'e', 00H, 'b', 00H, 'u', 00H, 'g', 00H, '.', 00H, 'c', 00H, 'p'
	DB	00H, 'p', 00H, 00H, 00H
	ORG $+2
$SG84506 DB	'MEDIATYPE_Video', 00H
$SG84516 DB	'MEDIATYPE_CC_CONTAINER', 00H
	ORG $+1
$SG84423 DB	'!', 00H, '!', 00H, 's', 00H, 'z', 00H, 'O', 00H, 'b', 00H
	DB	'j', 00H, 'e', 00H, 'c', 00H, 't', 00H, 'N', 00H, 'a', 00H, 'm'
	DB	00H, 'e', 00H, ' ', 00H, '^', 00H, ' ', 00H, '!', 00H, '!', 00H
	DB	'w', 00H, 's', 00H, 'z', 00H, 'O', 00H, 'b', 00H, 'j', 00H, 'e'
	DB	00H, 'c', 00H, 't', 00H, 'N', 00H, 'a', 00H, 'm', 00H, 'e', 00H
	DB	00H, 00H
	ORG $+6
$SG84428 DB	'.', 00H, '.', 00H, '\', 00H, 'w', 00H, 'x', 00H, 'd', 00H
	DB	'e', 00H, 'b', 00H, 'u', 00H, 'g', 00H, '.', 00H, 'c', 00H, 'p'
	DB	00H, 'p', 00H, 00H, 00H
	ORG $+2
$SG84435 DB	'.', 00H, '.', 00H, '\', 00H, 'w', 00H, 'x', 00H, 'd', 00H
	DB	'e', 00H, 'b', 00H, 'u', 00H, 'g', 00H, '.', 00H, 'c', 00H, 'p'
	DB	00H, 'p', 00H, 00H, 00H
	ORG $+2
$SG84436 DB	'O', 00H, 'b', 00H, 'j', 00H, 'e', 00H, 'c', 00H, 't', 00H
	DB	'C', 00H, 'o', 00H, 'o', 00H, 'k', 00H, 'i', 00H, 'e', 00H, 00H
	DB	00H
	ORG $+6
$SG84451 DB	'.', 00H, '.', 00H, '\', 00H, 'w', 00H, 'x', 00H, 'd', 00H
	DB	'e', 00H, 'b', 00H, 'u', 00H, 'g', 00H, '.', 00H, 'c', 00H, 'p'
	DB	00H, 'p', 00H, 00H, 00H
	ORG $+2
$SG84507 DB	'MEDIATYPE_Audio', 00H
$SG84517 DB	'MEDIATYPE_DTVCCData', 00H
	ORG $+4
$SG84438 DB	'O', 00H, 'b', 00H, 'j', 00H, 'e', 00H, 'c', 00H, 't', 00H
	DB	' ', 00H, 'c', 00H, 'r', 00H, 'e', 00H, 'a', 00H, 't', 00H, 'e'
	DB	00H, 'd', 00H, ' ', 00H, ' ', 00H, ' ', 00H, '%', 00H, 'd', 00H
	DB	' ', 00H, '(', 00H, '%', 00H, 'l', 00H, 's', 00H, ')', 00H, ' '
	DB	00H, '%', 00H, 'd', 00H, ' ', 00H, 'A', 00H, 'c', 00H, 't', 00H
	DB	'i', 00H, 'v', 00H, 'e', 00H, 00H, 00H
$SG84518 DB	'MEDIATYPE_MSTVCaption', 00H
	ORG $+2
$SG84440 DB	'O', 00H, 'b', 00H, 'j', 00H, 'e', 00H, 'c', 00H, 't', 00H
	DB	' ', 00H, 'c', 00H, 'r', 00H, 'e', 00H, 'a', 00H, 't', 00H, 'e'
	DB	00H, 'd', 00H, ' ', 00H, ' ', 00H, ' ', 00H, '%', 00H, 'd', 00H
	DB	' ', 00H, '(', 00H, '%', 00H, 'h', 00H, 's', 00H, ')', 00H, ' '
	DB	00H, '%', 00H, 'd', 00H, ' ', 00H, 'A', 00H, 'c', 00H, 't', 00H
	DB	'i', 00H, 'v', 00H, 'e', 00H, 00H, 00H
$SG84523 DB	'MEDIATYPE_Timecode', 00H
	ORG $+5
$SG84452 DB	'"', 00H, 'A', 00H, 'p', 00H, 'p', 00H, 'a', 00H, 'r', 00H
	DB	'e', 00H, 'n', 00H, 't', 00H, 'l', 00H, 'y', 00H, ' ', 00H, 'd'
	DB	00H, 'e', 00H, 's', 00H, 't', 00H, 'r', 00H, 'o', 00H, 'y', 00H
	DB	'i', 00H, 'n', 00H, 'g', 00H, ' ', 00H, 'a', 00H, ' ', 00H, 'b'
	DB	00H, 'o', 00H, 'g', 00H, 'u', 00H, 's', 00H, ' ', 00H, 'o', 00H
	DB	'b', 00H, 'j', 00H, 'e', 00H, 'c', 00H, 't', 00H, '"', 00H, 00H
	DB	00H
	ORG $+2
$SG84456 DB	'O', 00H, 'b', 00H, 'j', 00H, 'e', 00H, 'c', 00H, 't', 00H
	DB	' ', 00H, 'd', 00H, 'e', 00H, 's', 00H, 't', 00H, 'r', 00H, 'o'
	DB	00H, 'y', 00H, 'e', 00H, 'd', 00H, ' ', 00H, '%', 00H, 'd', 00H
	DB	' ', 00H, '(', 00H, '%', 00H, 'l', 00H, 's', 00H, ')', 00H, ' '
	DB	00H, '%', 00H, 'd', 00H, ' ', 00H, 'A', 00H, 'c', 00H, 't', 00H
	DB	'i', 00H, 'v', 00H, 'e', 00H, 00H, 00H
$SG84525 DB	'MEDIATYPE_URL_STREAM', 00H
	ORG $+3
$SG84458 DB	'O', 00H, 'b', 00H, 'j', 00H, 'e', 00H, 'c', 00H, 't', 00H
	DB	' ', 00H, 'd', 00H, 'e', 00H, 's', 00H, 't', 00H, 'r', 00H, 'o'
	DB	00H, 'y', 00H, 'e', 00H, 'd', 00H, ' ', 00H, '%', 00H, 'd', 00H
	DB	' ', 00H, '(', 00H, '%', 00H, 'h', 00H, 's', 00H, ')', 00H, ' '
	DB	00H, '%', 00H, 'd', 00H, ' ', 00H, 'A', 00H, 'c', 00H, 't', 00H
	DB	'i', 00H, 'v', 00H, 'e', 00H, 00H, 00H
$SG84526 DB	'MEDIASUBTYPE_CLPL', 00H
	ORG $+6
$SG84465 DB	' ', 00H, ' ', 00H, ' ', 00H, 'I', 00H, 'D', 00H, ' ', 00H
	DB	' ', 00H, ' ', 00H, ' ', 00H, ' ', 00H, ' ', 00H, ' ', 00H, ' '
	DB	00H, ' ', 00H, ' ', 00H, ' ', 00H, ' ', 00H, ' ', 00H, 'O', 00H
	DB	'b', 00H, 'j', 00H, 'e', 00H, 'c', 00H, 't', 00H, ' ', 00H, 'D'
	DB	00H, 'e', 00H, 's', 00H, 'c', 00H, 'r', 00H, 'i', 00H, 'p', 00H
	DB	't', 00H, 'i', 00H, 'o', 00H, 'n', 00H, 00H, 00H
	ORG $+6
$SG84474 DB	'T', 00H, 'o', 00H, 't', 00H, 'a', 00H, 'l', 00H, ' ', 00H
	DB	'o', 00H, 'b', 00H, 'j', 00H, 'e', 00H, 'c', 00H, 't', 00H, ' '
	DB	00H, 'c', 00H, 'o', 00H, 'u', 00H, 'n', 00H, 't', 00H, ' ', 00H
	DB	'%', 00H, '5', 00H, 'd', 00H, 00H, 00H
	ORG $+2
$SG84485 DB	'.', 00H, '.', 00H, '\', 00H, 'w', 00H, 'x', 00H, 'd', 00H
	DB	'e', 00H, 'b', 00H, 'u', 00H, 'g', 00H, '.', 00H, 'c', 00H, 'p'
	DB	00H, 'p', 00H, 00H, 00H
	ORG $+2
$SG84486 DB	'd', 00H, 'w', 00H, 'W', 00H, 'a', 00H, 'i', 00H, 't', 00H
	DB	'R', 00H, 'e', 00H, 's', 00H, 'u', 00H, 'l', 00H, 't', 00H, ' '
	DB	00H, '=', 00H, '=', 00H, ' ', 00H, 'W', 00H, 'A', 00H, 'I', 00H
	DB	'T', 00H, '_', 00H, 'O', 00H, 'B', 00H, 'J', 00H, 'E', 00H, 'C'
	DB	00H, 'T', 00H, '_', 00H, '0', 00H, 00H, 00H
	ORG $+4
$SG84499 DB	'.', 00H, '.', 00H, '\', 00H, 'w', 00H, 'x', 00H, 'd', 00H
	DB	'e', 00H, 'b', 00H, 'u', 00H, 'g', 00H, '.', 00H, 'c', 00H, 'p'
	DB	00H, 'p', 00H, 00H, 00H
	ORG $+2
$SG84500 DB	'(', 00H, 'D', 00H, 'W', 00H, 'O', 00H, 'R', 00H, 'D', 00H
	DB	')', 00H, '(', 00H, 'd', 00H, 'w', 00H, 'W', 00H, 'a', 00H, 'i'
	DB	00H, 't', 00H, 'R', 00H, 'e', 00H, 's', 00H, 'u', 00H, 'l', 00H
	DB	't', 00H, ' ', 00H, '-', 00H, ' ', 00H, 'W', 00H, 'A', 00H, 'I'
	DB	00H, 'T', 00H, '_', 00H, 'O', 00H, 'B', 00H, 'J', 00H, 'E', 00H
	DB	'C', 00H, 'T', 00H, '_', 00H, '0', 00H, ')', 00H, ' ', 00H, '<'
	DB	00H, ' ', 00H, 'M', 00H, 'A', 00H, 'X', 00H, 'I', 00H, 'M', 00H
	DB	'U', 00H, 'M', 00H, '_', 00H, 'W', 00H, 'A', 00H, 'I', 00H, 'T'
	DB	00H, '_', 00H, 'O', 00H, 'B', 00H, 'J', 00H, 'E', 00H, 'C', 00H
	DB	'T', 00H, 'S', 00H, 00H, 00H
	ORG $+6
$SG84508 DB	'MEDIATYPE_Text', 00H
	ORG $+1
$SG84509 DB	'MEDIATYPE_Midi', 00H
	ORG $+1
$SG84512 DB	'MEDIATYPE_File', 00H
	ORG $+1
$SG84515 DB	'MEDIATYPE_AUXTeletextPage', 00H
	ORG $+6
$SG84519 DB	'MEDIATYPE_VBI', 00H
	ORG $+2
$SG84520 DB	'MEDIASUBTYPE_DVB_SUBTITLES', 00H
	ORG $+5
$SG84521 DB	'MEDIASUBTYPE_ISDB_CAPTIONS', 00H
	ORG $+5
$SG84522 DB	'MEDIASUBTYPE_ISDB_SUPERIMPOSE', 00H
	ORG $+2
$SG84524 DB	'MEDIATYPE_LMRT', 00H
	ORG $+1
$SG84527 DB	'MEDIASUBTYPE_YUYV', 00H
	ORG $+6
$SG84528 DB	'MEDIASUBTYPE_IYUV', 00H
	ORG $+6
$SG84529 DB	'MEDIASUBTYPE_YVU9', 00H
	ORG $+6
$SG84530 DB	'MEDIASUBTYPE_Y411', 00H
	ORG $+6
$SG84531 DB	'MEDIASUBTYPE_Y41P', 00H
	ORG $+6
$SG84532 DB	'MEDIASUBTYPE_YUY2', 00H
	ORG $+6
$SG84533 DB	'MEDIASUBTYPE_YVYU', 00H
	ORG $+6
$SG84534 DB	'MEDIASUBTYPE_UYVY', 00H
	ORG $+6
$SG84535 DB	'MEDIASUBTYPE_Y211', 00H
	ORG $+6
$SG84536 DB	'MEDIASUBTYPE_CLJR', 00H
	ORG $+6
$SG84537 DB	'MEDIASUBTYPE_IF09', 00H
	ORG $+6
$SG84538 DB	'MEDIASUBTYPE_CPLA', 00H
	ORG $+6
$SG84539 DB	'MEDIASUBTYPE_MJPG', 00H
	ORG $+6
$SG84540 DB	'MEDIASUBTYPE_TVMJ', 00H
	ORG $+6
$SG84541 DB	'MEDIASUBTYPE_WAKE', 00H
	ORG $+6
$SG84542 DB	'MEDIASUBTYPE_CFCC', 00H
	ORG $+6
$SG84543 DB	'MEDIASUBTYPE_IJPG', 00H
	ORG $+6
$SG84544 DB	'MEDIASUBTYPE_Plum', 00H
	ORG $+6
$SG84545 DB	'MEDIASUBTYPE_DVCS', 00H
	ORG $+6
$SG84546 DB	'MEDIASUBTYPE_H264', 00H
	ORG $+6
$SG84547 DB	'MEDIASUBTYPE_DVSD', 00H
	ORG $+6
$SG84548 DB	'MEDIASUBTYPE_MDVF', 00H
	ORG $+6
$SG84549 DB	'MEDIASUBTYPE_RGB1', 00H
	ORG $+6
$SG84550 DB	'MEDIASUBTYPE_RGB4', 00H
	ORG $+6
$SG84551 DB	'MEDIASUBTYPE_RGB8', 00H
	ORG $+6
$SG84552 DB	'MEDIASUBTYPE_RGB565', 00H
	ORG $+4
$SG84553 DB	'MEDIASUBTYPE_RGB555', 00H
	ORG $+4
$SG84554 DB	'MEDIASUBTYPE_RGB24', 00H
	ORG $+5
$SG84555 DB	'MEDIASUBTYPE_RGB32', 00H
	ORG $+5
$SG84556 DB	'MEDIASUBTYPE_ARGB1555', 00H
	ORG $+2
$SG84557 DB	'MEDIASUBTYPE_ARGB4444', 00H
	ORG $+2
$SG84558 DB	'MEDIASUBTYPE_ARGB32', 00H
	ORG $+4
$SG84559 DB	'MEDIASUBTYPE_A2R10G10B10', 00H
	ORG $+3
$SG85165 DB	'I', 00H, 'n', 00H, 00H, 00H
	ORG $+6
$SG84560 DB	'MEDIASUBTYPE_A2B10G10R10', 00H
	ORG $+7
$SG84561 DB	'MEDIASUBTYPE_AYUV', 00H
	ORG $+6
$SG84562 DB	'MEDIASUBTYPE_AI44', 00H
	ORG $+6
$SG84563 DB	'MEDIASUBTYPE_IA44', 00H
	ORG $+6
$SG84564 DB	'MEDIASUBTYPE_RGB32_D3D_DX7_RT', 00H
	ORG $+2
$SG84565 DB	'MEDIASUBTYPE_RGB16_D3D_DX7_RT', 00H
	ORG $+2
$SG84566 DB	'MEDIASUBTYPE_ARGB32_D3D_DX7_RT', 00H
	ORG $+1
$SG84567 DB	'MEDIASUBTYPE_ARGB4444_D3D_DX7_RT', 00H
	ORG $+7
$SG84568 DB	'MEDIASUBTYPE_ARGB1555_D3D_DX7_RT', 00H
	ORG $+7
$SG84569 DB	'MEDIASUBTYPE_RGB32_D3D_DX9_RT', 00H
	ORG $+2
$SG84570 DB	'MEDIASUBTYPE_RGB16_D3D_DX9_RT', 00H
	ORG $+2
$SG84571 DB	'MEDIASUBTYPE_ARGB32_D3D_DX9_RT', 00H
	ORG $+1
$SG84572 DB	'MEDIASUBTYPE_ARGB4444_D3D_DX9_RT', 00H
	ORG $+7
$SG84573 DB	'MEDIASUBTYPE_ARGB1555_D3D_DX9_RT', 00H
	ORG $+7
$SG84574 DB	'MEDIASUBTYPE_YV12', 00H
	ORG $+6
$SG84575 DB	'MEDIASUBTYPE_NV12', 00H
	ORG $+6
$SG84576 DB	'MEDIASUBTYPE_P208', 00H
	ORG $+6
$SG84577 DB	'MEDIASUBTYPE_P210', 00H
	ORG $+6
$SG84578 DB	'MEDIASUBTYPE_P216', 00H
	ORG $+6
$SG84579 DB	'MEDIASUBTYPE_P010', 00H
	ORG $+6
$SG84580 DB	'MEDIASUBTYPE_P016', 00H
	ORG $+6
$SG84581 DB	'MEDIASUBTYPE_Y210', 00H
	ORG $+6
$SG84582 DB	'MEDIASUBTYPE_Y216', 00H
	ORG $+6
$SG84583 DB	'MEDIASUBTYPE_P408', 00H
	ORG $+6
$SG84584 DB	'MEDIASUBTYPE_NV24', 00H
	ORG $+6
$SG84585 DB	'MEDIASUBTYPE_IMC1', 00H
	ORG $+6
$SG84586 DB	'MEDIASUBTYPE_IMC2', 00H
	ORG $+6
$SG84587 DB	'MEDIASUBTYPE_IMC3', 00H
	ORG $+6
$SG84588 DB	'MEDIASUBTYPE_IMC4', 00H
	ORG $+6
$SG84589 DB	'MEDIASUBTYPE_S340', 00H
	ORG $+6
$SG84590 DB	'MEDIASUBTYPE_S342', 00H
	ORG $+6
$SG84591 DB	'MEDIASUBTYPE_Overlay', 00H
	ORG $+3
$SG84592 DB	'MEDIASUBTYPE_MPEG1Packet', 00H
	ORG $+7
$SG84593 DB	'MEDIASUBTYPE_MPEG1Payload', 00H
	ORG $+6
$SG84594 DB	'MEDIASUBTYPE_MPEG1AudioPayload', 00H
	ORG $+1
$SG84595 DB	'MEDIATYPE_MPEG1SystemStream', 00H
	ORG $+4
$SG84596 DB	'MEDIASUBTYPE_MPEG1System', 00H
	ORG $+7
$SG84597 DB	'MEDIASUBTYPE_MPEG1VideoCD', 00H
	ORG $+6
$SG84598 DB	'MEDIASUBTYPE_MPEG1Video', 00H
$SG84599 DB	'MEDIASUBTYPE_MPEG1Audio', 00H
$SG84600 DB	'MEDIASUBTYPE_Avi', 00H
	ORG $+7
$SG84601 DB	'MEDIASUBTYPE_Asf', 00H
	ORG $+7
$SG84602 DB	'MEDIASUBTYPE_QTMovie', 00H
	ORG $+3
$SG84603 DB	'MEDIASUBTYPE_QTRpza', 00H
	ORG $+4
$SG84604 DB	'MEDIASUBTYPE_QTSmc', 00H
	ORG $+5
$SG84605 DB	'MEDIASUBTYPE_QTRle', 00H
	ORG $+5
$SG84606 DB	'MEDIASUBTYPE_QTJpeg', 00H
	ORG $+4
$SG84607 DB	'MEDIASUBTYPE_PCMAudio_Obsolete', 00H
	ORG $+1
$SG84608 DB	'MEDIASUBTYPE_PCM', 00H
	ORG $+7
$SG84609 DB	'MEDIASUBTYPE_WAVE', 00H
	ORG $+6
$SG84610 DB	'MEDIASUBTYPE_AU', 00H
$SG84611 DB	'MEDIASUBTYPE_AIFF', 00H
	ORG $+6
$SG84612 DB	'MEDIASUBTYPE_dvsd', 00H
	ORG $+6
$SG84613 DB	'MEDIASUBTYPE_dvhd', 00H
	ORG $+6
$SG84614 DB	'MEDIASUBTYPE_dvsl', 00H
	ORG $+6
$SG84615 DB	'MEDIASUBTYPE_dv25', 00H
	ORG $+6
$SG84616 DB	'MEDIASUBTYPE_dv50', 00H
	ORG $+6
$SG84617 DB	'MEDIASUBTYPE_dvh1', 00H
	ORG $+6
$SG84618 DB	'MEDIASUBTYPE_Line21_BytePair', 00H
	ORG $+3
$SG84619 DB	'MEDIASUBTYPE_Line21_GOPPacket', 00H
	ORG $+2
$SG84620 DB	'MEDIASUBTYPE_Line21_VBIRawData', 00H
	ORG $+1
$SG84621 DB	'MEDIASUBTYPE_708_608Data', 00H
	ORG $+7
$SG84622 DB	'MEDIASUBTYPE_DtvCcData', 00H
	ORG $+1
$SG84623 DB	'MEDIASUBTYPE_CC_CONTAINER', 00H
	ORG $+6
$SG84624 DB	'MEDIASUBTYPE_TELETEXT', 00H
	ORG $+2
$SG84625 DB	'MEDIASUBTYPE_VBI', 00H
	ORG $+7
$SG84626 DB	'MEDIASUBTYPE_WSS', 00H
	ORG $+7
$SG84627 DB	'MEDIASUBTYPE_XDS', 00H
	ORG $+7
$SG84628 DB	'MEDIASUBTYPE_VPS', 00H
	ORG $+7
$SG84629 DB	'MEDIASUBTYPE_DRM_Audio', 00H
	ORG $+1
$SG84630 DB	'MEDIASUBTYPE_IEEE_FLOAT', 00H
$SG84631 DB	'MEDIASUBTYPE_DOLBY_AC3_SPDIF', 00H
	ORG $+3
$SG84632 DB	'MEDIASUBTYPE_RAW_SPORT', 00H
	ORG $+1
$SG84633 DB	'MEDIASUBTYPE_SPDIF_TAG_241h', 00H
	ORG $+4
$SG84634 DB	'MEDIASUBTYPE_DssVideo', 00H
	ORG $+2
$SG84635 DB	'MEDIASUBTYPE_DssAudio', 00H
	ORG $+2
$SG84636 DB	'MEDIASUBTYPE_VPVideo', 00H
	ORG $+3
$SG84637 DB	'MEDIASUBTYPE_VPVBI', 00H
	ORG $+5
$SG84638 DB	'CLSID_CaptureGraphBuilder', 00H
	ORG $+6
$SG84639 DB	'CLSID_CaptureGraphBuilder2', 00H
	ORG $+5
$SG84640 DB	'CLSID_ProtoFilterGraph', 00H
	ORG $+1
$SG84641 DB	'CLSID_SystemClock', 00H
	ORG $+6
$SG84642 DB	'CLSID_FilterMapper', 00H
	ORG $+5
$SG84643 DB	'CLSID_FilterGraph', 00H
	ORG $+6
$SG84644 DB	'CLSID_FilterGraphNoThread', 00H
	ORG $+6
$SG84645 DB	'CLSID_FilterGraphPrivateThread', 00H
	ORG $+1
$SG84646 DB	'CLSID_MPEG1Doc', 00H
	ORG $+1
$SG84647 DB	'CLSID_FileSource', 00H
	ORG $+7
$SG84648 DB	'CLSID_MPEG1PacketPlayer', 00H
$SG84649 DB	'CLSID_MPEG1Splitter', 00H
	ORG $+4
$SG84650 DB	'CLSID_CMpegVideoCodec', 00H
	ORG $+2
$SG84651 DB	'CLSID_CMpegAudioCodec', 00H
	ORG $+2
$SG84652 DB	'CLSID_TextRender', 00H
	ORG $+7
$SG84653 DB	'CLSID_InfTee', 00H
	ORG $+3
$SG84654 DB	'CLSID_AviSplitter', 00H
	ORG $+6
$SG84655 DB	'CLSID_AviReader', 00H
$SG84656 DB	'CLSID_VfwCapture', 00H
	ORG $+7
$SG84657 DB	'CLSID_CaptureProperties', 00H
$SG84658 DB	'CLSID_FGControl', 00H
$SG84659 DB	'CLSID_MOVReader', 00H
$SG84660 DB	'CLSID_QuickTimeParser', 00H
	ORG $+2
$SG84661 DB	'CLSID_QTDec', 00H
	ORG $+4
$SG84662 DB	'CLSID_AVIDoc', 00H
	ORG $+3
$SG84663 DB	'CLSID_VideoRenderer', 00H
	ORG $+4
$SG84664 DB	'CLSID_Colour', 00H
	ORG $+3
$SG84665 DB	'CLSID_Dither', 00H
	ORG $+3
$SG84666 DB	'CLSID_ModexRenderer', 00H
	ORG $+4
$SG84667 DB	'CLSID_AudioRender', 00H
	ORG $+6
$SG84668 DB	'CLSID_AudioProperties', 00H
	ORG $+2
$SG84669 DB	'CLSID_DSoundRender', 00H
	ORG $+5
$SG84670 DB	'CLSID_AudioRecord', 00H
	ORG $+6
$SG84671 DB	'CLSID_AudioInputMixerProperties', 00H
$SG84672 DB	'CLSID_AVIDec', 00H
	ORG $+3
$SG84673 DB	'CLSID_AVIDraw', 00H
	ORG $+2
$SG84674 DB	'CLSID_ACMWrapper', 00H
	ORG $+7
$SG84675 DB	'CLSID_AsyncReader', 00H
	ORG $+6
$SG84676 DB	'CLSID_URLReader', 00H
$SG84677 DB	'CLSID_PersistMonikerPID', 00H
$SG84678 DB	'CLSID_AVICo', 00H
	ORG $+4
$SG84679 DB	'CLSID_FileWriter', 00H
	ORG $+7
$SG84680 DB	'CLSID_AviDest', 00H
	ORG $+2
$SG84681 DB	'CLSID_AviMuxProptyPage', 00H
	ORG $+1
$SG84682 DB	'CLSID_AviMuxProptyPage1', 00H
$SG84683 DB	'CLSID_AVIMIDIRender', 00H
	ORG $+4
$SG84684 DB	'CLSID_WMAsfReader', 00H
	ORG $+6
$SG84685 DB	'CLSID_WMAsfWriter', 00H
	ORG $+6
$SG84686 DB	'CLSID_MPEG2Demultiplexer', 00H
	ORG $+7
$SG84687 DB	'CLSID_MPEG2Demultiplexer_NoClock', 00H
	ORG $+7
$SG84688 DB	'CLSID_MMSPLITTER', 00H
	ORG $+7
$SG84689 DB	'CLSID_StreamBufferSink', 00H
	ORG $+1
$SG84690 DB	'CLSID_SBE2Sink', 00H
	ORG $+1
$SG84691 DB	'CLSID_StreamBufferSource', 00H
	ORG $+7
$SG84692 DB	'CLSID_StreamBufferConfig', 00H
	ORG $+7
$SG84693 DB	'CLSID_StreamBufferPropertyHandler', 00H
	ORG $+6
$SG84694 DB	'CLSID_StreamBufferThumbnailHandler', 00H
	ORG $+5
$SG84695 DB	'CLSID_Mpeg2VideoStreamAnalyzer', 00H
	ORG $+1
$SG84696 DB	'CLSID_StreamBufferRecordingAttributes', 00H
	ORG $+2
$SG84697 DB	'CLSID_StreamBufferComposeRecording', 00H
	ORG $+5
$SG84698 DB	'CLSID_SBE2File', 00H
	ORG $+1
$SG84699 DB	'CLSID_DVVideoCodec', 00H
	ORG $+5
$SG84700 DB	'CLSID_DVVideoEnc', 00H
	ORG $+7
$SG84701 DB	'CLSID_DVSplitter', 00H
	ORG $+7
$SG84702 DB	'CLSID_DVMux', 00H
	ORG $+4
$SG84703 DB	'CLSID_SeekingPassThru', 00H
	ORG $+2
$SG84704 DB	'CLSID_Line21Decoder', 00H
	ORG $+4
$SG84705 DB	'CLSID_Line21Decoder2', 00H
	ORG $+3
$SG84706 DB	'CLSID_CCAFilter', 00H
$SG84707 DB	'CLSID_OverlayMixer', 00H
	ORG $+5
$SG84708 DB	'CLSID_VBISurfaces', 00H
	ORG $+6
$SG84709 DB	'CLSID_WSTDecoder', 00H
	ORG $+7
$SG84710 DB	'CLSID_MjpegDec', 00H
	ORG $+1
$SG84711 DB	'CLSID_MJPGEnc', 00H
	ORG $+2
$SG84712 DB	'CLSID_SystemDeviceEnum', 00H
	ORG $+1
$SG84713 DB	'CLSID_CDeviceMoniker', 00H
	ORG $+3
$SG84714 DB	'CLSID_VideoInputDeviceCategory', 00H
	ORG $+1
$SG84715 DB	'CLSID_CVidCapClassManager', 00H
	ORG $+6
$SG84716 DB	'CLSID_LegacyAmFilterCategory', 00H
	ORG $+3
$SG84717 DB	'CLSID_CQzFilterClassManager', 00H
	ORG $+4
$SG84718 DB	'CLSID_VideoCompressorCategory', 00H
	ORG $+2
$SG84719 DB	'CLSID_CIcmCoClassManager', 00H
	ORG $+7
$SG84720 DB	'CLSID_AudioCompressorCategory', 00H
	ORG $+2
$SG84721 DB	'CLSID_CAcmCoClassManager', 00H
	ORG $+7
$SG84722 DB	'CLSID_AudioInputDeviceCategory', 00H
	ORG $+1
$SG84723 DB	'CLSID_CWaveinClassManager', 00H
	ORG $+6
$SG84724 DB	'CLSID_AudioRendererCategory', 00H
	ORG $+4
$SG84725 DB	'CLSID_CWaveOutClassManager', 00H
	ORG $+5
$SG84726 DB	'CLSID_MidiRendererCategory', 00H
	ORG $+5
$SG84727 DB	'CLSID_CMidiOutClassManager', 00H
	ORG $+5
$SG84728 DB	'CLSID_TransmitCategory', 00H
	ORG $+1
$SG84729 DB	'CLSID_DeviceControlCategory', 00H
	ORG $+4
$SG84730 DB	'CLSID_ActiveMovieCategories', 00H
	ORG $+4
$SG84731 DB	'CLSID_DVDHWDecodersCategory', 00H
	ORG $+4
$SG84732 DB	'CLSID_MediaEncoderCategory', 00H
	ORG $+5
$SG84733 DB	'CLSID_MediaMultiplexerCategory', 00H
	ORG $+1
$SG84734 DB	'CLSID_FilterMapper2', 00H
	ORG $+4
$SG84735 DB	'CLSID_MemoryAllocator', 00H
	ORG $+2
$SG84736 DB	'CLSID_MediaPropertyBag', 00H
	ORG $+1
$SG84737 DB	'CLSID_DvdGraphBuilder', 00H
	ORG $+2
$SG84738 DB	'CLSID_DVDNavigator', 00H
	ORG $+5
$SG84739 DB	'CLSID_DVDState', 00H
	ORG $+1
$SG84740 DB	'CLSID_SmartTee', 00H
	ORG $+1
$SG84741 DB	'CLSID_DtvCcFilter', 00H
	ORG $+6
$SG84742 DB	'CLSID_CaptionsFilter', 00H
	ORG $+3
$SG84743 DB	'CLSID_SubtitlesFilter', 00H
	ORG $+2
$SG84744 DB	'CLSID_DirectShowPluginControl', 00H
	ORG $+2
$SG84745 DB	'FORMAT_None', 00H
	ORG $+4
$SG84746 DB	'FORMAT_VideoInfo', 00H
	ORG $+7
$SG84747 DB	'FORMAT_VideoInfo2', 00H
	ORG $+6
$SG84748 DB	'FORMAT_WaveFormatEx', 00H
	ORG $+4
$SG84749 DB	'FORMAT_MPEGVideo', 00H
	ORG $+7
$SG84750 DB	'FORMAT_MPEGStreams', 00H
	ORG $+5
$SG84751 DB	'FORMAT_DvInfo', 00H
	ORG $+2
$SG84752 DB	'FORMAT_525WSS', 00H
	ORG $+2
$SG84753 DB	'CLSID_DirectDrawProperties', 00H
	ORG $+5
$SG84754 DB	'CLSID_PerformanceProperties', 00H
	ORG $+4
$SG84755 DB	'CLSID_QualityProperties', 00H
$SG84756 DB	'IID_IBaseVideoMixer', 00H
	ORG $+4
$SG84757 DB	'IID_IDirectDrawVideo', 00H
	ORG $+3
$SG84758 DB	'IID_IQualProp', 00H
	ORG $+2
$SG84759 DB	'CLSID_VPObject', 00H
	ORG $+1
$SG84760 DB	'IID_IVPObject', 00H
	ORG $+2
$SG84761 DB	'IID_IVPControl', 00H
	ORG $+1
$SG84762 DB	'CLSID_VPVBIObject', 00H
	ORG $+6
$SG84763 DB	'IID_IVPVBIObject', 00H
	ORG $+7
$SG84764 DB	'IID_IVPConfig', 00H
	ORG $+2
$SG84765 DB	'IID_IVPNotify', 00H
	ORG $+2
$SG84766 DB	'IID_IVPNotify2', 00H
	ORG $+1
$SG84767 DB	'IID_IVPVBIConfig', 00H
	ORG $+7
$SG84768 DB	'IID_IVPVBINotify', 00H
	ORG $+7
$SG84769 DB	'IID_IMixerPinConfig', 00H
	ORG $+4
$SG84770 DB	'IID_IMixerPinConfig2', 00H
	ORG $+3
$SG84771 DB	'IID_IDDVideoPortContainer', 00H
	ORG $+6
$SG84772 DB	'IID_IDirectDrawKernel', 00H
	ORG $+2
$SG84773 DB	'IID_IDirectDrawSurfaceKernel', 00H
	ORG $+3
$SG84774 DB	'CLSID_ModexProperties', 00H
	ORG $+2
$SG84775 DB	'IID_IFullScreenVideo', 00H
	ORG $+3
$SG84776 DB	'IID_IFullScreenVideoEx', 00H
	ORG $+1
$SG84777 DB	'CLSID_DVDecPropertiesPage', 00H
	ORG $+6
$SG84778 DB	'CLSID_DVEncPropertiesPage', 00H
	ORG $+6
$SG84779 DB	'CLSID_DVMuxPropertyPage', 00H
$SG84780 DB	'IID_IAMDirectSound', 00H
	ORG $+5
$SG84781 DB	'IID_IMpegAudioDecoder', 00H
	ORG $+2
$SG84782 DB	'IID_IAMLine21Decoder', 00H
	ORG $+3
$SG84783 DB	'IID_IAMWstDecoder', 00H
	ORG $+6
$SG84784 DB	'CLSID_WstDecoderPropertyPage', 00H
	ORG $+3
$SG84785 DB	'FORMAT_AnalogVideo', 00H
	ORG $+5
$SG84786 DB	'MEDIATYPE_AnalogVideo', 00H
	ORG $+2
$SG84787 DB	'MEDIASUBTYPE_AnalogVideo_NTSC_M', 00H
$SG84788 DB	'MEDIASUBTYPE_AnalogVideo_PAL_B', 00H
	ORG $+1
$SG84789 DB	'MEDIASUBTYPE_AnalogVideo_PAL_D', 00H
	ORG $+1
$SG84790 DB	'MEDIASUBTYPE_AnalogVideo_PAL_G', 00H
	ORG $+1
$SG84791 DB	'MEDIASUBTYPE_AnalogVideo_PAL_H', 00H
	ORG $+1
$SG84792 DB	'MEDIASUBTYPE_AnalogVideo_PAL_I', 00H
	ORG $+1
$SG84793 DB	'MEDIASUBTYPE_AnalogVideo_PAL_M', 00H
	ORG $+1
$SG84794 DB	'MEDIASUBTYPE_AnalogVideo_PAL_N', 00H
	ORG $+1
$SG84795 DB	'MEDIASUBTYPE_AnalogVideo_PAL_N_COMBO', 00H
	ORG $+3
$SG84796 DB	'MEDIASUBTYPE_AnalogVideo_SECAM_B', 00H
	ORG $+7
$SG84797 DB	'MEDIASUBTYPE_AnalogVideo_SECAM_D', 00H
	ORG $+7
$SG84798 DB	'MEDIASUBTYPE_AnalogVideo_SECAM_G', 00H
	ORG $+7
$SG84799 DB	'MEDIASUBTYPE_AnalogVideo_SECAM_H', 00H
	ORG $+7
$SG84800 DB	'MEDIASUBTYPE_AnalogVideo_SECAM_K', 00H
	ORG $+7
$SG84801 DB	'MEDIASUBTYPE_AnalogVideo_SECAM_K1', 00H
	ORG $+6
$SG84802 DB	'MEDIASUBTYPE_AnalogVideo_SECAM_L', 00H
	ORG $+7
$SG84803 DB	'MEDIATYPE_AnalogAudio', 00H
	ORG $+2
$SG84804 DB	'FORMAT_CAPTIONED_H264VIDEO', 00H
	ORG $+5
$SG84805 DB	'FORMAT_CC_CONTAINER', 00H
	ORG $+4
$SG84806 DB	'CAPTION_FORMAT_ATSC', 00H
	ORG $+4
$SG84807 DB	'CAPTION_FORMAT_DVB', 00H
	ORG $+5
$SG84808 DB	'CAPTION_FORMAT_DIRECTV', 00H
	ORG $+1
$SG84809 DB	'CAPTION_FORMAT_ECHOSTAR', 00H
$SG84810 DB	'FORMAT_CAPTIONED_MPEG2VIDEO', 00H
	ORG $+4
$SG84811 DB	'MEDIATYPE_MPEG2_PACK', 00H
	ORG $+3
$SG84812 DB	'MEDIATYPE_MPEG2_PES', 00H
	ORG $+4
$SG84813 DB	'MEDIATYPE_MPEG2_SECTIONS', 00H
	ORG $+7
$SG84814 DB	'MEDIASUBTYPE_MPEG2_VERSIONED_TABLES', 00H
	ORG $+4
$SG84815 DB	'MEDIASUBTYPE_ATSC_SI', 00H
	ORG $+3
$SG84816 DB	'MEDIASUBTYPE_DVB_SI', 00H
	ORG $+4
$SG84817 DB	'MEDIASUBTYPE_ISDB_SI', 00H
	ORG $+3
$SG84818 DB	'MEDIASUBTYPE_TIF_SI', 00H
	ORG $+4
$SG84819 DB	'MEDIASUBTYPE_MPEG2DATA', 00H
	ORG $+1
$SG84820 DB	'MEDIASUBTYPE_MPEG2_WMDRM_TRANSPORT', 00H
	ORG $+5
$SG84821 DB	'MEDIASUBTYPE_MPEG2_VIDEO', 00H
	ORG $+7
$SG84822 DB	'FORMAT_MPEG2_VIDEO', 00H
	ORG $+5
$SG84823 DB	'FORMAT_VIDEOINFO2', 00H
	ORG $+6
$SG84824 DB	'MEDIASUBTYPE_MPEG2_PROGRAM', 00H
	ORG $+5
$SG84825 DB	'MEDIASUBTYPE_MPEG2_TRANSPORT', 00H
	ORG $+3
$SG84826 DB	'MEDIASUBTYPE_MPEG2_TRANSPORT_STRIDE', 00H
	ORG $+4
$SG84827 DB	'MEDIASUBTYPE_MPEG2_UDCR_TRANSPORT', 00H
	ORG $+6
$SG84828 DB	'MEDIASUBTYPE_MPEG2_PBDA_TRANSPORT_RAW', 00H
	ORG $+2
$SG84829 DB	'MEDIASUBTYPE_MPEG2_PBDA_TRANSPORT_PROCESSED', 00H
	ORG $+4
$SG84830 DB	'MEDIASUBTYPE_MPEG2_AUDIO', 00H
	ORG $+7
$SG84831 DB	'MEDIASUBTYPE_DOLBY_AC3', 00H
	ORG $+1
$SG84832 DB	'MEDIASUBTYPE_DVD_SUBPICTURE', 00H
	ORG $+4
$SG84833 DB	'MEDIASUBTYPE_DVD_LPCM_AUDIO', 00H
	ORG $+4
$SG84834 DB	'MEDIASUBTYPE_DTS', 00H
	ORG $+7
$SG84835 DB	'MEDIASUBTYPE_SDDS', 00H
	ORG $+6
$SG84836 DB	'MEDIATYPE_DVD_ENCRYPTED_PACK', 00H
	ORG $+3
$SG84837 DB	'MEDIATYPE_DVD_NAVIGATION', 00H
	ORG $+7
$SG84838 DB	'MEDIASUBTYPE_DVD_NAVIGATION_PCI', 00H
$SG84839 DB	'MEDIASUBTYPE_DVD_NAVIGATION_DSI', 00H
$SG84840 DB	'MEDIASUBTYPE_DVD_NAVIGATION_PROVIDER', 00H
	ORG $+3
$SG84841 DB	'FORMAT_MPEG2Video', 00H
	ORG $+6
$SG84842 DB	'FORMAT_DolbyAC3', 00H
$SG84843 DB	'FORMAT_MPEG2Audio', 00H
	ORG $+6
$SG84844 DB	'FORMAT_DVD_LPCMAudio', 00H
	ORG $+3
$SG84845 DB	'AM_KSPROPSETID_AC3', 00H
	ORG $+5
$SG84846 DB	'AM_KSPROPSETID_DvdSubPic', 00H
	ORG $+7
$SG84847 DB	'AM_KSPROPSETID_CopyProt', 00H
$SG84848 DB	'AM_KSPROPSETID_TSRateChange', 00H
	ORG $+4
$SG84849 DB	'AM_KSPROPSETID_DVD_RateChange', 00H
	ORG $+2
$SG84850 DB	'AM_KSPROPSETID_DvdKaraoke', 00H
	ORG $+6
$SG84851 DB	'AM_KSPROPSETID_FrameStep', 00H
	ORG $+7
$SG84852 DB	'AM_KSPROPSETID_MPEG4_MediaType_Attributes', 00H
	ORG $+6
$SG84853 DB	'AM_KSCATEGORY_CAPTURE', 00H
	ORG $+2
$SG84854 DB	'AM_KSCATEGORY_RENDER', 00H
	ORG $+3
$SG84855 DB	'AM_KSCATEGORY_DATACOMPRESSOR', 00H
	ORG $+3
$SG84856 DB	'AM_KSCATEGORY_AUDIO', 00H
	ORG $+4
$SG84857 DB	'AM_KSCATEGORY_VIDEO', 00H
	ORG $+4
$SG84858 DB	'AM_KSCATEGORY_TVTUNER', 00H
	ORG $+2
$SG84859 DB	'AM_KSCATEGORY_CROSSBAR', 00H
	ORG $+1
$SG84860 DB	'AM_KSCATEGORY_TVAUDIO', 00H
	ORG $+2
$SG84861 DB	'AM_KSCATEGORY_VBICODEC', 00H
	ORG $+1
$SG84862 DB	'AM_KSCATEGORY_VBICODEC_MI', 00H
	ORG $+6
$SG84863 DB	'AM_KSCATEGORY_SPLITTER', 00H
	ORG $+1
$SG84864 DB	'IID_IKsInterfaceHandler', 00H
$SG84865 DB	'IID_IKsDataTypeHandler', 00H
	ORG $+1
$SG84866 DB	'IID_IKsPin', 00H
	ORG $+5
$SG84867 DB	'IID_IKsControl', 00H
	ORG $+1
$SG84868 DB	'IID_IKsPinFactory', 00H
	ORG $+6
$SG84869 DB	'AM_INTERFACESETID_Standard', 00H
	ORG $+5
$SG84870 DB	'TIME_FORMAT_NONE', 00H
	ORG $+7
$SG84871 DB	'TIME_FORMAT_FRAME', 00H
	ORG $+6
$SG84872 DB	'TIME_FORMAT_BYTE', 00H
	ORG $+7
$SG84873 DB	'TIME_FORMAT_SAMPLE', 00H
	ORG $+5
$SG84874 DB	'TIME_FORMAT_FIELD', 00H
	ORG $+6
$SG84875 DB	'TIME_FORMAT_MEDIA_TIME', 00H
	ORG $+1
$SG84876 DB	'AMPROPSETID_Pin', 00H
$SG84877 DB	'PIN_CATEGORY_CAPTURE', 00H
	ORG $+3
$SG84878 DB	'PIN_CATEGORY_PREVIEW', 00H
	ORG $+3
$SG84879 DB	'PIN_CATEGORY_ANALOGVIDEOIN', 00H
	ORG $+5
$SG84880 DB	'PIN_CATEGORY_VBI', 00H
	ORG $+7
$SG84881 DB	'PIN_CATEGORY_VIDEOPORT', 00H
	ORG $+1
$SG84882 DB	'PIN_CATEGORY_NABTS', 00H
	ORG $+5
$SG84883 DB	'PIN_CATEGORY_EDS', 00H
	ORG $+7
$SG84884 DB	'PIN_CATEGORY_TELETEXT', 00H
	ORG $+2
$SG84885 DB	'PIN_CATEGORY_CC', 00H
$SG84886 DB	'PIN_CATEGORY_STILL', 00H
	ORG $+5
$SG84887 DB	'PIN_CATEGORY_TIMECODE', 00H
	ORG $+2
$SG84888 DB	'PIN_CATEGORY_VIDEOPORT_VBI', 00H
	ORG $+5
$SG84889 DB	'LOOK_UPSTREAM_ONLY', 00H
	ORG $+5
$SG84890 DB	'LOOK_DOWNSTREAM_ONLY', 00H
	ORG $+3
$SG84891 DB	'CLSID_TVTunerFilterPropertyPage', 00H
$SG84892 DB	'CLSID_CrossbarFilterPropertyPage', 00H
	ORG $+7
$SG84893 DB	'CLSID_TVAudioFilterPropertyPage', 00H
$SG84894 DB	'CLSID_VideoProcAmpPropertyPage', 00H
	ORG $+1
$SG84895 DB	'CLSID_CameraControlPropertyPage', 00H
$SG84896 DB	'CLSID_AnalogVideoDecoderPropertyPage', 00H
	ORG $+3
$SG84897 DB	'CLSID_VideoStreamConfigPropertyPage', 00H
	ORG $+4
$SG84898 DB	'CLSID_AudioRendererAdvancedProperties', 00H
	ORG $+2
$SG84899 DB	'CLSID_VideoMixingRenderer', 00H
	ORG $+6
$SG84900 DB	'CLSID_VideoRendererDefault', 00H
	ORG $+5
$SG84901 DB	'CLSID_AllocPresenter', 00H
	ORG $+3
$SG84902 DB	'CLSID_AllocPresenterDDXclMode', 00H
	ORG $+2
$SG84903 DB	'CLSID_VideoPortManager', 00H
	ORG $+1
$SG84904 DB	'CLSID_VideoMixingRenderer9', 00H
	ORG $+5
$SG84905 DB	'CLSID_EnhancedVideoRenderer', 00H
	ORG $+4
$SG84906 DB	'CLSID_MFVideoMixer9', 00H
	ORG $+4
$SG84907 DB	'CLSID_MFVideoPresenter9', 00H
$SG84908 DB	'CLSID_EVRTearlessWindowPresenter9', 00H
	ORG $+6
$SG84909 DB	'CLSID_EVRPlaybackPipelineOptimizer', 00H
	ORG $+5
$SG84910 DB	'EVRConfig_ForceBob', 00H
	ORG $+5
$SG84911 DB	'EVRConfig_AllowDropToBob', 00H
	ORG $+7
$SG84912 DB	'EVRConfig_ForceThrottle', 00H
$SG84913 DB	'EVRConfig_AllowDropToThrottle', 00H
	ORG $+2
$SG84914 DB	'EVRConfig_ForceHalfInterlace', 00H
	ORG $+3
$SG84915 DB	'EVRConfig_AllowDropToHalfInterlace', 00H
	ORG $+5
$SG84916 DB	'EVRConfig_ForceScaling', 00H
	ORG $+1
$SG84917 DB	'EVRConfig_AllowScaling', 00H
	ORG $+1
$SG84918 DB	'EVRConfig_ForceBatching', 00H
$SG84919 DB	'EVRConfig_AllowBatching', 00H
$SG84920 DB	'CLSID_NetworkProvider', 00H
	ORG $+2
$SG84921 DB	'CLSID_ATSCNetworkProvider', 00H
	ORG $+6
$SG84922 DB	'CLSID_ATSCNetworkPropertyPage', 00H
	ORG $+2
$SG84923 DB	'CLSID_DVBSNetworkProvider', 00H
	ORG $+6
$SG84924 DB	'CLSID_DVBTNetworkProvider', 00H
	ORG $+6
$SG84925 DB	'CLSID_DVBCNetworkProvider', 00H
	ORG $+6
$SG84926 DB	'DSATTRIB_UDCRTag', 00H
	ORG $+7
$SG84927 DB	'DSATTRIB_PicSampleSeq', 00H
	ORG $+2
$SG84928 DB	'DSATTRIB_OptionalVideoAttributes', 00H
	ORG $+7
$SG84929 DB	'DSATTRIB_CC_CONTAINER_INFO', 00H
	ORG $+5
$SG84930 DB	'DSATTRIB_TRANSPORT_PROPERTIES', 00H
	ORG $+2
$SG84931 DB	'DSATTRIB_PBDATAG_ATTRIBUTE', 00H
	ORG $+5
$SG84932 DB	'DSATTRIB_CAPTURE_STREAMTIME', 00H
	ORG $+4
$SG84933 DB	'DSATTRIB_DSHOW_STREAM_DESC', 00H
	ORG $+5
$SG84934 DB	'DSATTRIB_SAMPLE_LIVE_STREAM_TIME', 00H
	ORG $+7
$SG84935 DB	'UUID_UdriTagTables', 00H
	ORG $+5
$SG84936 DB	'UUID_WMDRMTagTables', 00H
	ORG $+4
$SG84937 DB	'CLSID_DShowTVEFilter', 00H
	ORG $+3
$SG84938 DB	'CLSID_TVEFilterTuneProperties', 00H
	ORG $+2
$SG84939 DB	'CLSID_TVEFilterCCProperties', 00H
	ORG $+4
$SG84940 DB	'CLSID_TVEFilterStatsProperties', 00H
	ORG $+1
$SG84941 DB	'CLSID_IVideoEncoderProxy', 00H
	ORG $+7
$SG84942 DB	'CLSID_ICodecAPIProxy', 00H
	ORG $+3
$SG84943 DB	'CLSID_IVideoEncoderCodecAPIProxy', 00H
	ORG $+7
$SG84944 DB	'CODECAPI_AVDecMmcssClass', 00H
	ORG $+7
$SG84956 DB	'GUID_NULL', 00H
	ORG $+6
$SG84957 DB	'Unknown GUID Name', 00H
	ORG $+6
$SG84978 DB	'0', 00H, 'x', 00H, '%', 00H, 'X', 00H, '%', 00H, '8', 00H
	DB	'.', 00H, '8', 00H, 'X', 00H, 00H, 00H
	ORG $+4
$SG84985 DB	'.', 00H, '.', 00H, '\', 00H, 'w', 00H, 'x', 00H, 'd', 00H
	DB	'e', 00H, 'b', 00H, 'u', 00H, 'g', 00H, '.', 00H, 'c', 00H, 'p'
	DB	00H, 'p', 00H, 00H, 00H
	ORG $+2
$SG84987 DB	'%', 00H, 'l', 00H, 's', 00H, 00H, 00H
$SG84986 DB	's', 00H, 'i', 00H, 'z', 00H, 'e', 00H, 'o', 00H, 'f', 00H
	DB	'(', 00H, 'm', 00H, '_', 00H, 'S', 00H, 't', 00H, 'r', 00H, 'i'
	DB	00H, 'n', 00H, 'g', 00H, ')', 00H, '/', 00H, 's', 00H, 'i', 00H
	DB	'z', 00H, 'e', 00H, 'o', 00H, 'f', 00H, '(', 00H, 'm', 00H, '_'
	DB	00H, 'S', 00H, 't', 00H, 'r', 00H, 'i', 00H, 'n', 00H, 'g', 00H
	DB	'[', 00H, '0', 00H, ']', 00H, ')', 00H, ' ', 00H, '>', 00H, '='
	DB	00H, ' ', 00H, 'C', 00H, 'H', 00H, 'A', 00H, 'R', 00H, 'S', 00H
	DB	'_', 00H, 'I', 00H, 'N', 00H, '_', 00H, 'G', 00H, 'U', 00H, 'I'
	DB	00H, 'D', 00H, '+', 00H, '1', 00H, 00H, 00H
$SG84999 DB	'%', 00H, 'd', 00H, ' ', 00H, 'd', 00H, 'a', 00H, 'y', 00H
	DB	's', 00H, ' ', 00H, 00H, 00H
	ORG $+6
$SG85003 DB	'%', 00H, 'd', 00H, ' ', 00H, 'h', 00H, 'r', 00H, 's', 00H
	DB	' ', 00H, 00H, 00H
$SG85007 DB	'%', 00H, 'd', 00H, ' ', 00H, 'm', 00H, 'i', 00H, 'n', 00H
	DB	's', 00H, ' ', 00H, 00H, 00H
	ORG $+6
$SG85010 DB	'%', 00H, 'd', 00H, '.', 00H, '%', 00H, '3', 00H, '.', 00H
	DB	'3', 00H, 'd', 00H, ' ', 00H, 's', 00H, 'e', 00H, 'c', 00H, 00H
	DB	00H
	ORG $+6
$SG85021 DB	'N', 00H, 'U', 00H, 'L', 00H, 'L', 00H, ' ', 00H, 'I', 00H
	DB	'P', 00H, 'i', 00H, 'n', 00H, 00H, 00H
	ORG $+4
$SG85026 DB	'%', 00H, 'h', 00H, 's', 00H, '(', 00H, '%', 00H, 's', 00H
	DB	')', 00H, 00H, 00H
$SG85043 DB	'%', 00H, 'l', 00H, 's', 00H, 00H, 00H
$SG85061 DB	'%', 00H, '.', 00H, '1', 00H, '6', 00H, 'g', 00H, 00H, 00H
	ORG $+4
$SG85067 DB	'%', 00H, 's', 00H, ' ', 00H, ' ', 00H, 'M', 00H, ' ', 00H
	DB	't', 00H, 'y', 00H, 'p', 00H, 'e', 00H, ' ', 00H, '%', 00H, 'h'
	DB	00H, 's', 00H, ' ', 00H, ' ', 00H, 'S', 00H, ' ', 00H, 't', 00H
	DB	'y', 00H, 'p', 00H, 'e', 00H, ' ', 00H, '%', 00H, 'h', 00H, 's'
	DB	00H, 00H, 00H
	ORG $+2
$SG85068 DB	'S', 00H, 'u', 00H, 'b', 00H, 't', 00H, 'y', 00H, 'p', 00H
	DB	'e', 00H, ' ', 00H, 'd', 00H, 'e', 00H, 's', 00H, 'c', 00H, 'r'
	DB	00H, 'i', 00H, 'p', 00H, 't', 00H, 'i', 00H, 'o', 00H, 'n', 00H
	DB	' ', 00H, '%', 00H, 's', 00H, 00H, 00H
	ORG $+2
$SG85070 DB	'T', 00H, 'e', 00H, 'm', 00H, 'p', 00H, 'o', 00H, 'r', 00H
	DB	'a', 00H, 'l', 00H, 'l', 00H, 'y', 00H, ' ', 00H, 'c', 00H, 'o'
	DB	00H, 'm', 00H, 'p', 00H, 'r', 00H, 'e', 00H, 's', 00H, 's', 00H
	DB	'e', 00H, 'd', 00H, 00H, 00H
	ORG $+4
$SG85072 DB	'N', 00H, 'o', 00H, 't', 00H, ' ', 00H, 't', 00H, 'e', 00H
	DB	'm', 00H, 'p', 00H, 'o', 00H, 'r', 00H, 'a', 00H, 'l', 00H, 'l'
	DB	00H, 'y', 00H, ' ', 00H, 'c', 00H, 'o', 00H, 'm', 00H, 'p', 00H
	DB	'r', 00H, 'e', 00H, 's', 00H, 's', 00H, 'e', 00H, 'd', 00H, 00H
	DB	00H
	ORG $+4
$SG85074 DB	'S', 00H, 'a', 00H, 'm', 00H, 'p', 00H, 'l', 00H, 'e', 00H
	DB	' ', 00H, 's', 00H, 'i', 00H, 'z', 00H, 'e', 00H, ' ', 00H, '%'
	DB	00H, 'd', 00H, 00H, 00H
	ORG $+2
$SG85076 DB	'V', 00H, 'a', 00H, 'r', 00H, 'i', 00H, 'a', 00H, 'b', 00H
	DB	'l', 00H, 'e', 00H, ' ', 00H, 's', 00H, 'i', 00H, 'z', 00H, 'e'
	DB	00H, ' ', 00H, 's', 00H, 'a', 00H, 'm', 00H, 'p', 00H, 'l', 00H
	DB	'e', 00H, 's', 00H, 00H, 00H
	ORG $+4
$SG85082 DB	'S', 00H, 'o', 00H, 'u', 00H, 'r', 00H, 'c', 00H, 'e', 00H
	DB	' ', 00H, 'r', 00H, 'e', 00H, 'c', 00H, 't', 00H, 'a', 00H, 'n'
	DB	00H, 'g', 00H, 'l', 00H, 'e', 00H, ' ', 00H, '(', 00H, 'L', 00H
	DB	'e', 00H, 'f', 00H, 't', 00H, ' ', 00H, '%', 00H, 'd', 00H, ' '
	DB	00H, 'T', 00H, 'o', 00H, 'p', 00H, ' ', 00H, '%', 00H, 'd', 00H
	DB	' ', 00H, 'R', 00H, 'i', 00H, 'g', 00H, 'h', 00H, 't', 00H, ' '
	DB	00H, '%', 00H, 'd', 00H, ' ', 00H, 'B', 00H, 'o', 00H, 't', 00H
	DB	't', 00H, 'o', 00H, 'm', 00H, ' ', 00H, '%', 00H, 'd', 00H, ')'
	DB	00H, 00H, 00H
	ORG $+6
$SG85083 DB	'T', 00H, 'a', 00H, 'r', 00H, 'g', 00H, 'e', 00H, 't', 00H
	DB	' ', 00H, 'r', 00H, 'e', 00H, 'c', 00H, 't', 00H, 'a', 00H, 'n'
	DB	00H, 'g', 00H, 'l', 00H, 'e', 00H, ' ', 00H, '(', 00H, 'L', 00H
	DB	'e', 00H, 'f', 00H, 't', 00H, ' ', 00H, '%', 00H, 'd', 00H, ' '
	DB	00H, 'T', 00H, 'o', 00H, 'p', 00H, ' ', 00H, '%', 00H, 'd', 00H
	DB	' ', 00H, 'R', 00H, 'i', 00H, 'g', 00H, 'h', 00H, 't', 00H, ' '
	DB	00H, '%', 00H, 'd', 00H, ' ', 00H, 'B', 00H, 'o', 00H, 't', 00H
	DB	't', 00H, 'o', 00H, 'm', 00H, ' ', 00H, '%', 00H, 'd', 00H, ')'
	DB	00H, 00H, 00H
	ORG $+6
$SG85084 DB	'S', 00H, 'i', 00H, 'z', 00H, 'e', 00H, ' ', 00H, 'o', 00H
	DB	'f', 00H, ' ', 00H, 'B', 00H, 'I', 00H, 'T', 00H, 'M', 00H, 'A'
	DB	00H, 'P', 00H, 'I', 00H, 'N', 00H, 'F', 00H, 'O', 00H, ' ', 00H
	DB	's', 00H, 't', 00H, 'r', 00H, 'u', 00H, 'c', 00H, 't', 00H, 'u'
	DB	00H, 'r', 00H, 'e', 00H, ' ', 00H, '%', 00H, 'd', 00H, 00H, 00H
$SG85086 DB	'%', 00H, 'd', 00H, 'x', 00H, '%', 00H, 'd', 00H, 'x', 00H
	DB	'%', 00H, 'd', 00H, ' ', 00H, 'b', 00H, 'i', 00H, 't', 00H, ' '
	DB	00H, ' ', 00H, '(', 00H, '%', 00H, 'd', 00H, ')', 00H, 00H, 00H
	ORG $+2
$SG85088 DB	'%', 00H, 'd', 00H, 'x', 00H, '%', 00H, 'd', 00H, 'x', 00H
	DB	'%', 00H, 'd', 00H, ' ', 00H, 'b', 00H, 'i', 00H, 't', 00H, ' '
	DB	00H, '''', 00H, '%', 00H, '4', 00H, '.', 00H, '4', 00H, 'h', 00H
	DB	's', 00H, '''', 00H, 00H, 00H
	ORG $+4
$SG85089 DB	'I', 00H, 'm', 00H, 'a', 00H, 'g', 00H, 'e', 00H, ' ', 00H
	DB	's', 00H, 'i', 00H, 'z', 00H, 'e', 00H, ' ', 00H, '%', 00H, 'd'
	DB	00H, 00H, 00H
	ORG $+4
$SG85090 DB	'P', 00H, 'l', 00H, 'a', 00H, 'n', 00H, 'e', 00H, 's', 00H
	DB	' ', 00H, '%', 00H, 'd', 00H, 00H, 00H
	ORG $+4
$SG85091 DB	'X', 00H, ' ', 00H, 'P', 00H, 'e', 00H, 'l', 00H, 's', 00H
	DB	' ', 00H, 'p', 00H, 'e', 00H, 'r', 00H, ' ', 00H, 'm', 00H, 'e'
	DB	00H, 't', 00H, 'r', 00H, 'e', 00H, ' ', 00H, '%', 00H, 'd', 00H
	DB	00H, 00H
$SG85092 DB	'Y', 00H, ' ', 00H, 'P', 00H, 'e', 00H, 'l', 00H, 's', 00H
	DB	' ', 00H, 'p', 00H, 'e', 00H, 'r', 00H, ' ', 00H, 'm', 00H, 'e'
	DB	00H, 't', 00H, 'r', 00H, 'e', 00H, ' ', 00H, '%', 00H, 'd', 00H
	DB	00H, 00H
$SG85093 DB	'C', 00H, 'o', 00H, 'l', 00H, 'o', 00H, 'u', 00H, 'r', 00H
	DB	's', 00H, ' ', 00H, 'u', 00H, 's', 00H, 'e', 00H, 'd', 00H, ' '
	DB	00H, '%', 00H, 'd', 00H, 00H, 00H
$SG85096 DB	' ', 00H, ' ', 00H, ' ', 00H, ' ', 00H, ' ', 00H, 'F', 00H
	DB	'o', 00H, 'r', 00H, 'm', 00H, 'a', 00H, 't', 00H, ' ', 00H, 't'
	DB	00H, 'y', 00H, 'p', 00H, 'e', 00H, ' ', 00H, '%', 00H, 'h', 00H
	DB	's', 00H, 00H, 00H
	ORG $+6
$SG85097 DB	' ', 00H, ' ', 00H, ' ', 00H, ' ', 00H, ' ', 00H, 'S', 00H
	DB	'u', 00H, 'b', 00H, 't', 00H, 'y', 00H, 'p', 00H, 'e', 00H, ' '
	DB	00H, '%', 00H, 'h', 00H, 's', 00H, 00H, 00H
	ORG $+6
$SG85102 DB	'w', 00H, 'F', 00H, 'o', 00H, 'r', 00H, 'm', 00H, 'a', 00H
	DB	't', 00H, 'T', 00H, 'a', 00H, 'g', 00H, ' ', 00H, '%', 00H, 'u'
	DB	00H, 00H, 00H
	ORG $+4
$SG85103 DB	'n', 00H, 'C', 00H, 'h', 00H, 'a', 00H, 'n', 00H, 'n', 00H
	DB	'e', 00H, 'l', 00H, 's', 00H, ' ', 00H, '%', 00H, 'u', 00H, 00H
	DB	00H
	ORG $+6
$SG85104 DB	'n', 00H, 'S', 00H, 'a', 00H, 'm', 00H, 'p', 00H, 'l', 00H
	DB	'e', 00H, 's', 00H, 'P', 00H, 'e', 00H, 'r', 00H, 'S', 00H, 'e'
	DB	00H, 'c', 00H, ' ', 00H, '%', 00H, 'l', 00H, 'u', 00H, 00H, 00H
	ORG $+2
$SG85105 DB	'n', 00H, 'A', 00H, 'v', 00H, 'g', 00H, 'B', 00H, 'y', 00H
	DB	't', 00H, 'e', 00H, 's', 00H, 'P', 00H, 'e', 00H, 'r', 00H, 'S'
	DB	00H, 'e', 00H, 'c', 00H, ' ', 00H, '%', 00H, 'l', 00H, 'u', 00H
	DB	00H, 00H
$SG85106 DB	'n', 00H, 'B', 00H, 'l', 00H, 'o', 00H, 'c', 00H, 'k', 00H
	DB	'A', 00H, 'l', 00H, 'i', 00H, 'g', 00H, 'n', 00H, ' ', 00H, '%'
	DB	00H, 'u', 00H, 00H, 00H
	ORG $+2
$SG85107 DB	'w', 00H, 'B', 00H, 'i', 00H, 't', 00H, 's', 00H, 'P', 00H
	DB	'e', 00H, 'r', 00H, 'S', 00H, 'a', 00H, 'm', 00H, 'p', 00H, 'l'
	DB	00H, 'e', 00H, ' ', 00H, '%', 00H, 'u', 00H, 00H, 00H
	ORG $+4
$SG85110 DB	'c', 00H, 'b', 00H, 'S', 00H, 'i', 00H, 'z', 00H, 'e', 00H
	DB	' ', 00H, '%', 00H, 'u', 00H, 00H, 00H
	ORG $+4
$SG85113 DB	' ', 00H, ' ', 00H, ' ', 00H, ' ', 00H, ' ', 00H, 'F', 00H
	DB	'o', 00H, 'r', 00H, 'm', 00H, 'a', 00H, 't', 00H, ' ', 00H, 't'
	DB	00H, 'y', 00H, 'p', 00H, 'e', 00H, ' ', 00H, '%', 00H, 'h', 00H
	DB	's', 00H, 00H, 00H
	ORG $+6
$SG85120 DB	'D', 00H, 'u', 00H, 'm', 00H, 'p', 00H, 'G', 00H, 'r', 00H
	DB	'a', 00H, 'p', 00H, 'h', 00H, ' ', 00H, '[', 00H, '%', 00H, 'x'
	DB	00H, ']', 00H, 00H, 00H
	ORG $+2
$SG85123 DB	'E', 00H, 'n', 00H, 'u', 00H, 'm', 00H, 'F', 00H, 'i', 00H
	DB	'l', 00H, 't', 00H, 'e', 00H, 'r', 00H, 's', 00H, ' ', 00H, 'f'
	DB	00H, 'a', 00H, 'i', 00H, 'l', 00H, 'e', 00H, 'd', 00H, '!', 00H
	DB	00H, 00H
$SG85133 DB	' ', 00H, ' ', 00H, ' ', 00H, ' ', 00H, 'F', 00H, 'i', 00H
	DB	'l', 00H, 't', 00H, 'e', 00H, 'r', 00H, ' ', 00H, '[', 00H, '%'
	DB	00H, 'x', 00H, ']', 00H, ' ', 00H, ' ', 00H, '-', 00H, '-', 00H
	DB	' ', 00H, 'f', 00H, 'a', 00H, 'i', 00H, 'l', 00H, 'e', 00H, 'd'
	DB	00H, ' ', 00H, 'Q', 00H, 'u', 00H, 'e', 00H, 'r', 00H, 'y', 00H
	DB	'F', 00H, 'i', 00H, 'l', 00H, 't', 00H, 'e', 00H, 'r', 00H, 'I'
	DB	00H, 'n', 00H, 'f', 00H, 'o', 00H, 00H, 00H
	ORG $+2
$SG85136 DB	' ', 00H, ' ', 00H, ' ', 00H, ' ', 00H, 'F', 00H, 'i', 00H
	DB	'l', 00H, 't', 00H, 'e', 00H, 'r', 00H, ' ', 00H, '[', 00H, '%'
	DB	00H, 'x', 00H, ']', 00H, ' ', 00H, ' ', 00H, '''', 00H, '%', 00H
	DB	'l', 00H, 's', 00H, '''', 00H, 00H, 00H
	ORG $+2
$SG85140 DB	'E', 00H, 'n', 00H, 'u', 00H, 'm', 00H, 'P', 00H, 'i', 00H
	DB	'n', 00H, 's', 00H, ' ', 00H, 'f', 00H, 'a', 00H, 'i', 00H, 'l'
	DB	00H, 'e', 00H, 'd', 00H, '!', 00H, 00H, 00H
	ORG $+6
$SG85150 DB	' ', 00H, ' ', 00H, ' ', 00H, ' ', 00H, ' ', 00H, ' ', 00H
	DB	' ', 00H, ' ', 00H, ' ', 00H, ' ', 00H, 'P', 00H, 'i', 00H, 'n'
	DB	00H, ' ', 00H, '[', 00H, '%', 00H, 'x', 00H, ']', 00H, ' ', 00H
	DB	' ', 00H, '-', 00H, '-', 00H, ' ', 00H, 'f', 00H, 'a', 00H, 'i'
	DB	00H, 'l', 00H, 'e', 00H, 'd', 00H, ' ', 00H, 'Q', 00H, 'u', 00H
	DB	'e', 00H, 'r', 00H, 'y', 00H, 'P', 00H, 'i', 00H, 'n', 00H, 'I'
	DB	00H, 'n', 00H, 'f', 00H, 'o', 00H, 00H, 00H
	ORG $+2
$SG85157 DB	'O', 00H, 'u', 00H, 't', 00H, 00H, 00H
$SG85158 DB	' ', 00H, ' ', 00H, ' ', 00H, ' ', 00H, ' ', 00H, ' ', 00H
	DB	' ', 00H, ' ', 00H, ' ', 00H, ' ', 00H, 'P', 00H, 'i', 00H, 'n'
	DB	00H, ' ', 00H, '[', 00H, '%', 00H, 'x', 00H, ']', 00H, ' ', 00H
	DB	' ', 00H, '''', 00H, '%', 00H, 'l', 00H, 's', 00H, '''', 00H, ' '
	DB	00H, '[', 00H, '%', 00H, 's', 00H, 'p', 00H, 'u', 00H, 't', 00H
	DB	']', 00H, ' ', 00H, ' ', 00H, 'C', 00H, 'o', 00H, 'n', 00H, 'n'
	DB	00H, 'e', 00H, 'c', 00H, 't', 00H, 'e', 00H, 'd', 00H, ' ', 00H
	DB	't', 00H, 'o', 00H, ' ', 00H, 'p', 00H, 'i', 00H, 'n', 00H, ' '
	DB	00H, '[', 00H, '%', 00H, 'x', 00H, ']', 00H, 00H, 00H
	ORG $+6
$SG85163 DB	'C', 00H, 'o', 00H, 'n', 00H, 'n', 00H, 'e', 00H, 'c', 00H
	DB	't', 00H, 'i', 00H, 'o', 00H, 'n', 00H, ' ', 00H, 't', 00H, 'y'
	DB	00H, 'p', 00H, 'e', 00H, 00H, 00H
$SG85166 DB	'O', 00H, 'u', 00H, 't', 00H, 00H, 00H
$SG85167 DB	' ', 00H, ' ', 00H, ' ', 00H, ' ', 00H, ' ', 00H, ' ', 00H
	DB	' ', 00H, ' ', 00H, ' ', 00H, ' ', 00H, 'P', 00H, 'i', 00H, 'n'
	DB	00H, ' ', 00H, '[', 00H, '%', 00H, 'x', 00H, ']', 00H, ' ', 00H
	DB	' ', 00H, '''', 00H, '%', 00H, 'l', 00H, 's', 00H, '''', 00H, ' '
	DB	00H, '[', 00H, '%', 00H, 's', 00H, 'p', 00H, 'u', 00H, 't', 00H
	DB	']', 00H, 00H, 00H
CONST	ENDS
;	COMDAT IID_IAMFilterGraphCallback
CONST	SEGMENT
IID_IAMFilterGraphCallback DD 056a868fdH
	DW	0ad4H
	DW	011ceH
	DB	0b0H
	DB	0a3H
	DB	00H
	DB	020H
	DB	0afH
	DB	0bH
	DB	0a7H
	DB	070H
CONST	ENDS
PUBLIC	?DbgInitGlobalSettings@@YAX_N@Z			; DbgInitGlobalSettings
PUBLIC	?DbgInitModuleSettings@@YAX_N@Z			; DbgInitModuleSettings
PUBLIC	?DbgInitModuleName@@YAXXZ			; DbgInitModuleName
PUBLIC	?DbgInitialise@@YAXPEAUHINSTANCE__@@@Z		; DbgInitialise
EXTRN	__imp_timeGetTime:PROC
EXTRN	__imp_DebugBreak:PROC
EXTRN	__imp_GetProfileIntW:PROC
EXTRN	__imp_InitializeCriticalSection:PROC
EXTRN	_RTC_Shutdown:PROC
EXTRN	_RTC_InitBase:PROC
;	COMDAT pdata
; File c:\downloads\wpf mediakit - copy\src\filters\baseclasses\wxdebug.cpp
pdata	SEGMENT
$pdata$?DbgInitialise@@YAXPEAUHINSTANCE__@@@Z DD imagerel $LN4
	DD	imagerel $LN4+135
	DD	imagerel $unwind$?DbgInitialise@@YAXPEAUHINSTANCE__@@@Z
pdata	ENDS
;	COMDAT xdata
xdata	SEGMENT
$unwind$?DbgInitialise@@YAXPEAUHINSTANCE__@@@Z DD 021e01H
	DD	07006320aH
xdata	ENDS
;	COMDAT rtc$TMZ
rtc$TMZ	SEGMENT
_RTC_Shutdown.rtc$TMZ DQ FLAT:_RTC_Shutdown
rtc$TMZ	ENDS
;	COMDAT rtc$IMZ
rtc$IMZ	SEGMENT
_RTC_InitBase.rtc$IMZ DQ FLAT:_RTC_InitBase
; Function compile flags: /Odtp /RTCsu
rtc$IMZ	ENDS
;	COMDAT ?DbgInitialise@@YAXPEAUHINSTANCE__@@@Z
_TEXT	SEGMENT
hInst$ = 48
?DbgInitialise@@YAXPEAUHINSTANCE__@@@Z PROC		; DbgInitialise, COMDAT
; Line 83
$LN4:
	mov	QWORD PTR [rsp+8], rcx
	push	rdi
	sub	rsp, 32					; 00000020H
	mov	rdi, rsp
	mov	ecx, 8
	mov	eax, -858993460				; ccccccccH
	rep stosd
	mov	rcx, QWORD PTR [rsp+48]
; Line 84
	lea	rcx, OFFSET FLAT:?m_CSDebug@@3U_RTL_CRITICAL_SECTION@@A ; m_CSDebug
	call	QWORD PTR __imp_InitializeCriticalSection
; Line 85
	mov	DWORD PTR ?m_bInit@@3HA, 1		; m_bInit
; Line 87
	mov	rax, QWORD PTR hInst$[rsp]
	mov	QWORD PTR ?m_hInst@@3PEAUHINSTANCE__@@EA, rax ; m_hInst
; Line 88
	call	?DbgInitModuleName@@YAXXZ		; DbgInitModuleName
; Line 89
	xor	r8d, r8d
	lea	rdx, OFFSET FLAT:$SG84097
	lea	rcx, OFFSET FLAT:?m_ModuleName@@3PA_WA	; m_ModuleName
	call	QWORD PTR __imp_GetProfileIntW
	test	eax, eax
	je	SHORT $LN1@DbgInitial
; Line 90
	call	QWORD PTR __imp_DebugBreak
$LN1@DbgInitial:
; Line 91
	xor	ecx, ecx
	call	?DbgInitModuleSettings@@YAX_N@Z		; DbgInitModuleSettings
; Line 92
	mov	cl, 1
	call	?DbgInitGlobalSettings@@YAX_N@Z		; DbgInitGlobalSettings
; Line 93
	call	QWORD PTR __imp_timeGetTime
	mov	DWORD PTR ?dwTimeOffset@@3KA, eax	; dwTimeOffset
; Line 94
	add	rsp, 32					; 00000020H
	pop	rdi
	ret	0
?DbgInitialise@@YAXPEAUHINSTANCE__@@@Z ENDP		; DbgInitialise
_TEXT	ENDS
PUBLIC	?DbgAssert@@YAXPEB_W0H@Z			; DbgAssert
PUBLIC	?DbgTerminate@@YAXXZ				; DbgTerminate
EXTRN	__imp_DeleteCriticalSection:PROC
EXTRN	__imp_CloseHandle:PROC
;	COMDAT pdata
pdata	SEGMENT
$pdata$?DbgTerminate@@YAXXZ DD imagerel $LN5
	DD	imagerel $LN5+113
	DD	imagerel $unwind$?DbgTerminate@@YAXXZ
pdata	ENDS
;	COMDAT xdata
xdata	SEGMENT
$unwind$?DbgTerminate@@YAXXZ DD 021501H
	DD	070023206H
; Function compile flags: /Odtp /RTCsu
xdata	ENDS
;	COMDAT ?DbgTerminate@@YAXXZ
_TEXT	SEGMENT
?DbgTerminate@@YAXXZ PROC				; DbgTerminate, COMDAT
; Line 104
$LN5:
	push	rdi
	sub	rsp, 32					; 00000020H
	mov	rdi, rsp
	mov	ecx, 8
	mov	eax, -858993460				; ccccccccH
	rep stosd
; Line 105
	cmp	QWORD PTR ?m_hOutput@@3PEAXEA, -1	; m_hOutput
	je	SHORT $LN2@DbgTermina
; Line 106
	mov	rcx, QWORD PTR ?m_hOutput@@3PEAXEA	; m_hOutput
	call	QWORD PTR __imp_CloseHandle
	test	eax, eax
	jne	SHORT $LN1@DbgTermina
	mov	r8d, 106				; 0000006aH
	lea	rdx, OFFSET FLAT:$SG84104
	lea	rcx, OFFSET FLAT:$SG84105
	call	?DbgAssert@@YAXPEB_W0H@Z		; DbgAssert
$LN1@DbgTermina:
; Line 107
	mov	QWORD PTR ?m_hOutput@@3PEAXEA, -1	; m_hOutput
$LN2@DbgTermina:
; Line 109
	lea	rcx, OFFSET FLAT:?m_CSDebug@@3U_RTL_CRITICAL_SECTION@@A ; m_CSDebug
	call	QWORD PTR __imp_DeleteCriticalSection
; Line 110
	mov	DWORD PTR ?m_bInit@@3HA, 0		; m_bInit
; Line 111
	add	rsp, 32					; 00000020H
	pop	rdi
	ret	0
?DbgTerminate@@YAXXZ ENDP				; DbgTerminate
_TEXT	ENDS
PUBLIC	?DbgLogInfo@@YAXKKPEB_WZZ			; DbgLogInfo
PUBLIC	?DbgInitKeyLevels@@YAXPEAUHKEY__@@_N@Z		; DbgInitKeyLevels
EXTRN	__imp_RegSetValueExW:PROC
EXTRN	__imp_RegQueryValueExW:PROC
EXTRN	_RTC_CheckStackVars:PROC
;	COMDAT pdata
pdata	SEGMENT
$pdata$?DbgInitKeyLevels@@YAXPEAUHKEY__@@_N@Z DD imagerel $LN17
	DD	imagerel $LN17+656
	DD	imagerel $unwind$?DbgInitKeyLevels@@YAXPEAUHKEY__@@_N@Z
pdata	ENDS
;	COMDAT xdata
xdata	SEGMENT
$unwind$?DbgInitKeyLevels@@YAXPEAUHKEY__@@_N@Z DD 032801H
	DD	0140111H
	DD	0700aH
xdata	ENDS
;	COMDAT CONST
CONST	SEGMENT
?DbgInitKeyLevels@@YAXPEAUHKEY__@@_N@Z$rtcName$0 DB 064H ; DbgInitKeyLevels
	DB	077H
	DB	04bH
	DB	065H
	DB	079H
	DB	053H
	DB	069H
	DB	07aH
	DB	065H
	DB	00H
	ORG $+6
?DbgInitKeyLevels@@YAXPEAUHKEY__@@_N@Z$rtcName$1 DB 064H ; DbgInitKeyLevels
	DB	077H
	DB	04bH
	DB	065H
	DB	079H
	DB	054H
	DB	079H
	DB	070H
	DB	065H
	DB	00H
	ORG $+6
?DbgInitKeyLevels@@YAXPEAUHKEY__@@_N@Z$rtcName$2 DB 064H ; DbgInitKeyLevels
	DB	077H
	DB	04bH
	DB	065H
	DB	079H
	DB	056H
	DB	061H
	DB	06cH
	DB	075H
	DB	065H
	DB	00H
	ORG $+5
?DbgInitKeyLevels@@YAXPEAUHKEY__@@_N@Z$rtcVarDesc DD 084H ; DbgInitKeyLevels
	DD	04H
	DQ	FLAT:?DbgInitKeyLevels@@YAXPEAUHKEY__@@_N@Z$rtcName$2
	DD	064H
	DD	04H
	DQ	FLAT:?DbgInitKeyLevels@@YAXPEAUHKEY__@@_N@Z$rtcName$1
	DD	044H
	DD	04H
	DQ	FLAT:?DbgInitKeyLevels@@YAXPEAUHKEY__@@_N@Z$rtcName$0
	ORG $+144
?DbgInitKeyLevels@@YAXPEAUHKEY__@@_N@Z$rtcFrameData DD 03H ; DbgInitKeyLevels
	DD	00H
	DQ	FLAT:?DbgInitKeyLevels@@YAXPEAUHKEY__@@_N@Z$rtcVarDesc
; Function compile flags: /Odtp /RTCsu
CONST	ENDS
;	COMDAT ?DbgInitKeyLevels@@YAXPEAUHKEY__@@_N@Z
_TEXT	SEGMENT
lReturn$ = 48
lKeyPos$ = 52
dwKeySize$ = 68
dwKeyType$ = 100
dwKeyValue$ = 132
tv140 = 148
hKey$ = 176
fTakeMax$ = 184
?DbgInitKeyLevels@@YAXPEAUHKEY__@@_N@Z PROC		; DbgInitKeyLevels, COMDAT
; Line 118
$LN17:
	mov	BYTE PTR [rsp+16], dl
	mov	QWORD PTR [rsp+8], rcx
	push	rdi
	sub	rsp, 160				; 000000a0H
	mov	rdi, rsp
	mov	ecx, 40					; 00000028H
	mov	eax, -858993460				; ccccccccH
	rep stosd
	mov	rcx, QWORD PTR [rsp+176]
; Line 126
	mov	DWORD PTR lKeyPos$[rsp], 0
	jmp	SHORT $LN12@DbgInitKey
$LN11@DbgInitKey:
	mov	eax, DWORD PTR lKeyPos$[rsp]
	inc	eax
	mov	DWORD PTR lKeyPos$[rsp], eax
$LN12@DbgInitKey:
	cmp	DWORD PTR lKeyPos$[rsp], 10
	jge	$LN10@DbgInitKey
; Line 128
	mov	DWORD PTR dwKeySize$[rsp], 4
; Line 135
	movsxd	rax, DWORD PTR lKeyPos$[rsp]
	lea	rcx, OFFSET FLAT:?pKeyNames@@3PAPEA_WA	; pKeyNames
	lea	rdx, QWORD PTR dwKeySize$[rsp]
	mov	QWORD PTR [rsp+40], rdx
	lea	rdx, QWORD PTR dwKeyValue$[rsp]
	mov	QWORD PTR [rsp+32], rdx
	lea	r9, QWORD PTR dwKeyType$[rsp]
	xor	r8d, r8d
	mov	rdx, QWORD PTR [rcx+rax*8]
	mov	rcx, QWORD PTR hKey$[rsp]
	call	QWORD PTR __imp_RegQueryValueExW
	mov	DWORD PTR lReturn$[rsp], eax
; Line 141
	cmp	DWORD PTR lReturn$[rsp], 0
	jne	SHORT $LN8@DbgInitKey
	cmp	DWORD PTR dwKeyType$[rsp], 4
	je	$LN9@DbgInitKey
$LN8@DbgInitKey:
; Line 143
	mov	DWORD PTR dwKeyValue$[rsp], 0
; Line 150
	movsxd	rax, DWORD PTR lKeyPos$[rsp]
	lea	rcx, OFFSET FLAT:?pKeyNames@@3PAPEA_WA	; pKeyNames
	mov	DWORD PTR [rsp+40], 4
	lea	rdx, QWORD PTR dwKeyValue$[rsp]
	mov	QWORD PTR [rsp+32], rdx
	mov	r9d, 4
	xor	r8d, r8d
	mov	rdx, QWORD PTR [rcx+rax*8]
	mov	rcx, QWORD PTR hKey$[rsp]
	call	QWORD PTR __imp_RegSetValueExW
	mov	DWORD PTR lReturn$[rsp], eax
; Line 152
	cmp	DWORD PTR lReturn$[rsp], 0
	je	SHORT $LN7@DbgInitKey
; Line 153
	movsxd	rax, DWORD PTR lKeyPos$[rsp]
	lea	rcx, OFFSET FLAT:?pKeyNames@@3PAPEA_WA	; pKeyNames
	mov	r9, QWORD PTR [rcx+rax*8]
	lea	r8, OFFSET FLAT:$SG84128
	xor	edx, edx
	mov	ecx, 16
	call	?DbgLogInfo@@YAXKKPEB_WZZ		; DbgLogInfo
; Line 154
	mov	DWORD PTR dwKeyValue$[rsp], 0
$LN7@DbgInitKey:
$LN9@DbgInitKey:
; Line 157
	movzx	eax, BYTE PTR fTakeMax$[rsp]
	test	eax, eax
	je	SHORT $LN6@DbgInitKey
; Line 159
	movsxd	rax, DWORD PTR lKeyPos$[rsp]
	lea	rcx, OFFSET FLAT:?m_Levels@@3PAKA	; m_Levels
	mov	eax, DWORD PTR [rcx+rax*4]
	cmp	DWORD PTR dwKeyValue$[rsp], eax
	jbe	SHORT $LN15@DbgInitKey
	mov	eax, DWORD PTR dwKeyValue$[rsp]
	mov	DWORD PTR tv140[rsp], eax
	jmp	SHORT $LN16@DbgInitKey
$LN15@DbgInitKey:
	movsxd	rax, DWORD PTR lKeyPos$[rsp]
	lea	rcx, OFFSET FLAT:?m_Levels@@3PAKA	; m_Levels
	mov	eax, DWORD PTR [rcx+rax*4]
	mov	DWORD PTR tv140[rsp], eax
$LN16@DbgInitKey:
	movsxd	rax, DWORD PTR lKeyPos$[rsp]
	lea	rcx, OFFSET FLAT:?m_Levels@@3PAKA	; m_Levels
	mov	edx, DWORD PTR tv140[rsp]
	mov	DWORD PTR [rcx+rax*4], edx
; Line 161
	jmp	SHORT $LN5@DbgInitKey
$LN6@DbgInitKey:
; Line 163
	movsxd	rax, DWORD PTR lKeyPos$[rsp]
	lea	rcx, OFFSET FLAT:?m_Levels@@3PAKA	; m_Levels
	mov	eax, DWORD PTR [rcx+rax*4]
	and	eax, -2147483648			; 80000000H
	test	eax, eax
	jne	SHORT $LN4@DbgInitKey
; Line 164
	movsxd	rax, DWORD PTR lKeyPos$[rsp]
	lea	rcx, OFFSET FLAT:?m_Levels@@3PAKA	; m_Levels
	mov	edx, DWORD PTR dwKeyValue$[rsp]
	mov	DWORD PTR [rcx+rax*4], edx
$LN4@DbgInitKey:
$LN5@DbgInitKey:
; Line 167
	jmp	$LN11@DbgInitKey
$LN10@DbgInitKey:
; Line 170
	mov	DWORD PTR dwKeySize$[rsp], 4
; Line 177
	lea	rax, QWORD PTR dwKeySize$[rsp]
	mov	QWORD PTR [rsp+40], rax
	lea	rax, OFFSET FLAT:?dwWaitTimeout@@3KA	; dwWaitTimeout
	mov	QWORD PTR [rsp+32], rax
	lea	r9, QWORD PTR dwKeyType$[rsp]
	xor	r8d, r8d
	mov	rdx, QWORD PTR ?TimeoutName@@3PEA_WEA	; TimeoutName
	mov	rcx, QWORD PTR hKey$[rsp]
	call	QWORD PTR __imp_RegQueryValueExW
	mov	DWORD PTR lReturn$[rsp], eax
; Line 183
	cmp	DWORD PTR lReturn$[rsp], 0
	jne	SHORT $LN2@DbgInitKey
	cmp	DWORD PTR dwKeyType$[rsp], 4
	je	SHORT $LN3@DbgInitKey
$LN2@DbgInitKey:
; Line 185
	mov	DWORD PTR ?dwWaitTimeout@@3KA, -1	; dwWaitTimeout, ffffffffH
; Line 192
	mov	DWORD PTR [rsp+40], 4
	lea	rax, OFFSET FLAT:?dwWaitTimeout@@3KA	; dwWaitTimeout
	mov	QWORD PTR [rsp+32], rax
	mov	r9d, 4
	xor	r8d, r8d
	mov	rdx, QWORD PTR ?TimeoutName@@3PEA_WEA	; TimeoutName
	mov	rcx, QWORD PTR hKey$[rsp]
	call	QWORD PTR __imp_RegSetValueExW
	mov	DWORD PTR lReturn$[rsp], eax
; Line 194
	cmp	DWORD PTR lReturn$[rsp], 0
	je	SHORT $LN1@DbgInitKey
; Line 195
	movsxd	rax, DWORD PTR lKeyPos$[rsp]
	lea	rcx, OFFSET FLAT:?pKeyNames@@3PAPEA_WA	; pKeyNames
	mov	r9, QWORD PTR [rcx+rax*8]
	lea	r8, OFFSET FLAT:$SG84140
	xor	edx, edx
	mov	ecx, 16
	call	?DbgLogInfo@@YAXKKPEB_WZZ		; DbgLogInfo
; Line 196
	mov	DWORD PTR ?dwWaitTimeout@@3KA, -1	; dwWaitTimeout, ffffffffH
$LN1@DbgInitKey:
$LN3@DbgInitKey:
; Line 199
	mov	rcx, rsp
	lea	rdx, OFFSET FLAT:?DbgInitKeyLevels@@YAXPEAUHKEY__@@_N@Z$rtcFrameData
	call	_RTC_CheckStackVars
	add	rsp, 160				; 000000a0H
	pop	rdi
	ret	0
?DbgInitKeyLevels@@YAXPEAUHKEY__@@_N@Z ENDP		; DbgInitKeyLevels
_TEXT	ENDS
PUBLIC	__$ArrayPad$
PUBLIC	?DbgOutString@@YAXPEB_W@Z			; DbgOutString
EXTRN	__GSHandlerCheck:PROC
EXTRN	__imp_OutputDebugStringW:PROC
EXTRN	__imp_WriteFile:PROC
EXTRN	__imp_WideCharToMultiByte:PROC
EXTRN	__imp_lstrlenW:PROC
EXTRN	__security_cookie:QWORD
EXTRN	__security_check_cookie:PROC
;	COMDAT pdata
pdata	SEGMENT
$pdata$?DbgOutString@@YAXPEB_W@Z DD imagerel $LN5
	DD	imagerel $LN5+241
	DD	imagerel $unwind$?DbgOutString@@YAXPEB_W@Z
pdata	ENDS
;	COMDAT xdata
xdata	SEGMENT
$unwind$?DbgOutString@@YAXPEB_W@Z DD 033619H
	DD	0114010dH
	DD	07006H
	DD	imagerel __GSHandlerCheck
	DD	0890H
xdata	ENDS
;	COMDAT CONST
CONST	SEGMENT
?DbgOutString@@YAXPEB_W@Z$rtcName$0 DB 064H		; DbgOutString
	DB	077H
	DB	00H
	ORG $+1
?DbgOutString@@YAXPEB_W@Z$rtcName$1 DB 073H		; DbgOutString
	DB	07aH
	DB	044H
	DB	065H
	DB	073H
	DB	074H
	DB	00H
	ORG $+5
?DbgOutString@@YAXPEB_W@Z$rtcVarDesc DD 080H		; DbgOutString
	DD	0800H
	DQ	FLAT:?DbgOutString@@YAXPEB_W@Z$rtcName$1
	DD	054H
	DD	04H
	DQ	FLAT:?DbgOutString@@YAXPEB_W@Z$rtcName$0
	ORG $+96
?DbgOutString@@YAXPEB_W@Z$rtcFrameData DD 02H		; DbgOutString
	DD	00H
	DQ	FLAT:?DbgOutString@@YAXPEB_W@Z$rtcVarDesc
; Function compile flags: /Odtp /RTCsu
CONST	ENDS
;	COMDAT ?DbgOutString@@YAXPEB_W@Z
_TEXT	SEGMENT
cb$84147 = 64
dw$84148 = 84
szDest$84149 = 128
__$ArrayPad$ = 2192
psz$ = 2224
?DbgOutString@@YAXPEB_W@Z PROC				; DbgOutString, COMDAT
; Line 202
$LN5:
	mov	QWORD PTR [rsp+8], rcx
	push	rdi
	sub	rsp, 2208				; 000008a0H
	mov	rdi, rsp
	mov	ecx, 552				; 00000228H
	mov	eax, -858993460				; ccccccccH
	rep stosd
	mov	rcx, QWORD PTR [rsp+2224]
	mov	rax, QWORD PTR __security_cookie
	xor	rax, rsp
	mov	QWORD PTR __$ArrayPad$[rsp], rax
; Line 203
	cmp	QWORD PTR ?m_hOutput@@3PEAXEA, -1	; m_hOutput
	je	SHORT $LN2@DbgOutStri
; Line 204
	mov	rcx, QWORD PTR psz$[rsp]
	call	QWORD PTR __imp_lstrlenW
	mov	DWORD PTR cb$84147[rsp], eax
; Line 208
	mov	QWORD PTR [rsp+56], 0
	mov	QWORD PTR [rsp+48], 0
	mov	DWORD PTR [rsp+40], 2048		; 00000800H
	lea	rax, QWORD PTR szDest$84149[rsp]
	mov	QWORD PTR [rsp+32], rax
	mov	r9d, -1
	mov	r8, QWORD PTR psz$[rsp]
	xor	edx, edx
	xor	ecx, ecx
	call	QWORD PTR __imp_WideCharToMultiByte
; Line 209
	mov	QWORD PTR [rsp+32], 0
	lea	r9, QWORD PTR dw$84148[rsp]
	mov	r8d, DWORD PTR cb$84147[rsp]
	lea	rdx, QWORD PTR szDest$84149[rsp]
	mov	rcx, QWORD PTR ?m_hOutput@@3PEAXEA	; m_hOutput
	call	QWORD PTR __imp_WriteFile
; Line 213
	jmp	SHORT $LN1@DbgOutStri
$LN2@DbgOutStri:
; Line 214
	mov	rcx, QWORD PTR psz$[rsp]
	call	QWORD PTR __imp_OutputDebugStringW
$LN1@DbgOutStri:
; Line 216
	mov	rcx, rsp
	lea	rdx, OFFSET FLAT:?DbgOutString@@YAXPEB_W@Z$rtcFrameData
	call	_RTC_CheckStackVars
	mov	rcx, QWORD PTR __$ArrayPad$[rsp]
	xor	rcx, rsp
	call	__security_check_cookie
	add	rsp, 2208				; 000008a0H
	pop	rdi
	ret	0
?DbgOutString@@YAXPEB_W@Z ENDP				; DbgOutString
_TEXT	ENDS
PUBLIC	__$ArrayPad$
PUBLIC	?DbgInitLogTo@@YAXPEAUHKEY__@@@Z		; DbgInitLogTo
EXTRN	__imp_SetFilePointer:PROC
EXTRN	__imp_CreateFileW:PROC
EXTRN	__imp_SetConsoleTitleW:PROC
EXTRN	__imp_AllocConsole:PROC
EXTRN	__imp_GetStdHandle:PROC
EXTRN	__imp_lstrcmpiW:PROC
;	COMDAT pdata
pdata	SEGMENT
$pdata$?DbgInitLogTo@@YAXPEAUHKEY__@@@Z DD imagerel $LN13
	DD	imagerel $LN13+644
	DD	imagerel $unwind$?DbgInitLogTo@@YAXPEAUHKEY__@@@Z
pdata	ENDS
;	COMDAT xdata
xdata	SEGMENT
$unwind$?DbgInitLogTo@@YAXPEAUHKEY__@@@Z DD 033619H
	DD	05a010dH
	DD	07006H
	DD	imagerel __GSHandlerCheck
	DD	02c0H
xdata	ENDS
;	COMDAT ?cszBar@?BK@??DbgInitLogTo@@YAXPEAUHKEY__@@@Z@4QB_WB
CONST	SEGMENT
?cszBar@?BK@??DbgInitLogTo@@YAXPEAUHKEY__@@@Z@4QB_WB DB 0dH, 00H, 0aH, 00H
	DB	0dH, 00H, 0aH, 00H, '=', 00H, '=', 00H, '=', 00H, '=', 00H, '='
	DB	00H, 'D', 00H, 'b', 00H, 'g', 00H, 'I', 00H, 'n', 00H, 'i', 00H
	DB	't', 00H, 'i', 00H, 'a', 00H, 'l', 00H, 'i', 00H, 'z', 00H, 'e'
	DB	00H, '(', 00H, ')', 00H, '=', 00H, '=', 00H, '=', 00H, '=', 00H
	DB	'=', 00H, 0dH, 00H, 0aH, 00H, 0dH, 00H, 0aH, 00H, 00H, 00H ; `DbgInitLogTo'::`26'::cszBar
CONST	ENDS
;	COMDAT ?cszKey@?1??DbgInitLogTo@@YAXPEAUHKEY__@@@Z@4QB_WB
CONST	SEGMENT
?cszKey@?1??DbgInitLogTo@@YAXPEAUHKEY__@@@Z@4QB_WB DB 'L', 00H, 'o', 00H, 'g'
	DB	00H, 'T', 00H, 'o', 00H, 'F', 00H, 'i', 00H, 'l', 00H, 'e', 00H
	DB	00H, 00H					; `DbgInitLogTo'::`2'::cszKey
CONST	ENDS
;	COMDAT CONST
CONST	SEGMENT
?DbgInitLogTo@@YAXPEAUHKEY__@@@Z$rtcName$0 DB 064H	; DbgInitLogTo
	DB	077H
	DB	04bH
	DB	065H
	DB	079H
	DB	054H
	DB	079H
	DB	070H
	DB	065H
	DB	00H
	ORG $+6
?DbgInitLogTo@@YAXPEAUHKEY__@@@Z$rtcName$1 DB 064H	; DbgInitLogTo
	DB	077H
	DB	04bH
	DB	065H
	DB	079H
	DB	053H
	DB	069H
	DB	07aH
	DB	065H
	DB	00H
	ORG $+2
?DbgInitLogTo@@YAXPEAUHKEY__@@@Z$rtcName$2 DB 073H	; DbgInitLogTo
	DB	07aH
	DB	046H
	DB	069H
	DB	06cH
	DB	065H
	DB	00H
	ORG $+5
?DbgInitLogTo@@YAXPEAUHKEY__@@@Z$rtcFrameData DD 03H	; DbgInitLogTo
	DD	00H
	DQ	FLAT:?DbgInitLogTo@@YAXPEAUHKEY__@@@Z$rtcVarDesc
	ORG $+8
?DbgInitLogTo@@YAXPEAUHKEY__@@@Z$rtcVarDesc DD 0a0H	; DbgInitLogTo
	DD	0208H
	DQ	FLAT:?DbgInitLogTo@@YAXPEAUHKEY__@@@Z$rtcName$2
	DD	074H
	DD	04H
	DQ	FLAT:?DbgInitLogTo@@YAXPEAUHKEY__@@@Z$rtcName$1
	DD	054H
	DD	04H
	DQ	FLAT:?DbgInitLogTo@@YAXPEAUHKEY__@@@Z$rtcName$0
; Function compile flags: /Odtp /RTCsu
CONST	ENDS
;	COMDAT ?DbgInitLogTo@@YAXPEAUHKEY__@@@Z
_TEXT	SEGMENT
lReturn$ = 64
dwKeyType$ = 84
dwKeySize$ = 116
szFile$ = 160
__$ArrayPad$ = 704
hKey$ = 736
?DbgInitLogTo@@YAXPEAUHKEY__@@@Z PROC			; DbgInitLogTo, COMDAT
; Line 223
$LN13:
	mov	QWORD PTR [rsp+8], rcx
	push	rdi
	sub	rsp, 720				; 000002d0H
	mov	rdi, rsp
	mov	ecx, 180				; 000000b4H
	mov	eax, -858993460				; ccccccccH
	rep stosd
	mov	rcx, QWORD PTR [rsp+736]
	mov	rax, QWORD PTR __security_cookie
	xor	rax, rsp
	mov	QWORD PTR __$ArrayPad$[rsp], rax
; Line 227
	xor	eax, eax
	mov	WORD PTR szFile$[rsp], ax
	lea	rax, QWORD PTR szFile$[rsp+2]
	mov	rdi, rax
	xor	eax, eax
	mov	ecx, 518				; 00000206H
	rep stosb
; Line 230
	mov	DWORD PTR dwKeySize$[rsp], 260		; 00000104H
; Line 237
	lea	rax, QWORD PTR dwKeySize$[rsp]
	mov	QWORD PTR [rsp+40], rax
	lea	rax, QWORD PTR szFile$[rsp]
	mov	QWORD PTR [rsp+32], rax
	lea	r9, QWORD PTR dwKeyType$[rsp]
	xor	r8d, r8d
	lea	rdx, OFFSET FLAT:?cszKey@?1??DbgInitLogTo@@YAXPEAUHKEY__@@@Z@4QB_WB
	mov	rcx, QWORD PTR hKey$[rsp]
	call	QWORD PTR __imp_RegQueryValueExW
	mov	DWORD PTR lReturn$[rsp], eax
; Line 241
	cmp	DWORD PTR lReturn$[rsp], 0
	jne	SHORT $LN9@DbgInitLog
	cmp	DWORD PTR dwKeyType$[rsp], 1
	je	SHORT $LN10@DbgInitLog
$LN9@DbgInitLog:
; Line 243
	mov	DWORD PTR dwKeySize$[rsp], 2
; Line 250
	mov	eax, DWORD PTR dwKeySize$[rsp]
	mov	DWORD PTR [rsp+40], eax
	lea	rax, QWORD PTR szFile$[rsp]
	mov	QWORD PTR [rsp+32], rax
	mov	r9d, 1
	xor	r8d, r8d
	lea	rdx, OFFSET FLAT:?cszKey@?1??DbgInitLogTo@@YAXPEAUHKEY__@@@Z@4QB_WB
	mov	rcx, QWORD PTR hKey$[rsp]
	call	QWORD PTR __imp_RegSetValueExW
	mov	DWORD PTR lReturn$[rsp], eax
$LN10@DbgInitLog:
; Line 255
	cmp	QWORD PTR ?m_hOutput@@3PEAXEA, -1	; m_hOutput
	je	SHORT $LN8@DbgInitLog
; Line 256
	mov	rcx, QWORD PTR ?m_hOutput@@3PEAXEA	; m_hOutput
	call	QWORD PTR __imp_CloseHandle
	test	eax, eax
	jne	SHORT $LN7@DbgInitLog
	mov	r8d, 256				; 00000100H
	lea	rdx, OFFSET FLAT:$SG84170
	lea	rcx, OFFSET FLAT:$SG84171
	call	?DbgAssert@@YAXPEB_W0H@Z		; DbgAssert
$LN7@DbgInitLog:
; Line 257
	mov	QWORD PTR ?m_hOutput@@3PEAXEA, -1	; m_hOutput
$LN8@DbgInitLog:
; Line 259
	movzx	eax, WORD PTR szFile$[rsp]
	test	eax, eax
	je	$LN6@DbgInitLog
; Line 261
	lea	rdx, OFFSET FLAT:$SG84176
	lea	rcx, QWORD PTR szFile$[rsp]
	call	QWORD PTR __imp_lstrcmpiW
	test	eax, eax
	jne	SHORT $LN5@DbgInitLog
; Line 262
	mov	ecx, -11				; fffffff5H
	call	QWORD PTR __imp_GetStdHandle
	mov	QWORD PTR ?m_hOutput@@3PEAXEA, rax	; m_hOutput
; Line 263
	cmp	QWORD PTR ?m_hOutput@@3PEAXEA, -1	; m_hOutput
	jne	SHORT $LN4@DbgInitLog
; Line 264
	call	QWORD PTR __imp_AllocConsole
; Line 265
	mov	ecx, -11				; fffffff5H
	call	QWORD PTR __imp_GetStdHandle
	mov	QWORD PTR ?m_hOutput@@3PEAXEA, rax	; m_hOutput
$LN4@DbgInitLog:
; Line 267
	lea	rcx, OFFSET FLAT:$SG84182
	call	QWORD PTR __imp_SetConsoleTitleW
; Line 268
	jmp	$LN3@DbgInitLog
$LN5@DbgInitLog:
; Line 271
	movzx	eax, WORD PTR szFile$[rsp]
	test	eax, eax
	je	$LN2@DbgInitLog
	lea	rdx, OFFSET FLAT:$SG84185
	lea	rcx, QWORD PTR szFile$[rsp]
	call	QWORD PTR __imp_lstrcmpiW
	test	eax, eax
	je	$LN2@DbgInitLog
	lea	rdx, OFFSET FLAT:$SG84186
	lea	rcx, QWORD PTR szFile$[rsp]
	call	QWORD PTR __imp_lstrcmpiW
	test	eax, eax
	je	$LN2@DbgInitLog
	lea	rdx, OFFSET FLAT:$SG84187
	lea	rcx, QWORD PTR szFile$[rsp]
	call	QWORD PTR __imp_lstrcmpiW
	test	eax, eax
	je	SHORT $LN2@DbgInitLog
; Line 277
	mov	QWORD PTR [rsp+48], 0
	mov	DWORD PTR [rsp+40], 128			; 00000080H
	mov	DWORD PTR [rsp+32], 4
	xor	r9d, r9d
	mov	r8d, 1
	mov	edx, 1073741824				; 40000000H
	lea	rcx, QWORD PTR szFile$[rsp]
	call	QWORD PTR __imp_CreateFileW
	mov	QWORD PTR ?m_hOutput@@3PEAXEA, rax	; m_hOutput
; Line 278
	cmp	QWORD PTR ?m_hOutput@@3PEAXEA, -1	; m_hOutput
	je	SHORT $LN1@DbgInitLog
; Line 281
	mov	r9d, 2
	xor	r8d, r8d
	xor	edx, edx
	mov	rcx, QWORD PTR ?m_hOutput@@3PEAXEA	; m_hOutput
	call	QWORD PTR __imp_SetFilePointer
; Line 282
	lea	rcx, OFFSET FLAT:?cszBar@?BK@??DbgInitLogTo@@YAXPEAUHKEY__@@@Z@4QB_WB
	call	?DbgOutString@@YAXPEB_W@Z		; DbgOutString
$LN1@DbgInitLog:
$LN2@DbgInitLog:
$LN3@DbgInitLog:
$LN6@DbgInitLog:
; Line 286
	mov	rcx, rsp
	lea	rdx, OFFSET FLAT:?DbgInitLogTo@@YAXPEAUHKEY__@@@Z$rtcFrameData
	call	_RTC_CheckStackVars
	mov	rcx, QWORD PTR __$ArrayPad$[rsp]
	xor	rcx, rsp
	call	__security_check_cookie
	add	rsp, 720				; 000002d0H
	pop	rdi
	ret	0
?DbgInitLogTo@@YAXPEAUHKEY__@@@Z ENDP			; DbgInitLogTo
_TEXT	ENDS
PUBLIC	__$ArrayPad$
EXTRN	__imp_RegCloseKey:PROC
EXTRN	__imp_RegCreateKeyExW:PROC
EXTRN	__imp_wsprintfW:PROC
;	COMDAT pdata
pdata	SEGMENT
$pdata$?DbgInitGlobalSettings@@YAX_N@Z DD imagerel $LN4
	DD	imagerel $LN4+263
	DD	imagerel $unwind$?DbgInitGlobalSettings@@YAX_N@Z
pdata	ENDS
;	COMDAT xdata
xdata	SEGMENT
$unwind$?DbgInitGlobalSettings@@YAX_N@Z DD 033519H
	DD	0116010cH
	DD	07005H
	DD	imagerel __GSHandlerCheck
	DD	08a0H
xdata	ENDS
;	COMDAT CONST
CONST	SEGMENT
?DbgInitGlobalSettings@@YAX_N@Z$rtcName$0 DB 073H	; DbgInitGlobalSettings
	DB	07aH
	DB	049H
	DB	06eH
	DB	066H
	DB	06fH
	DB	00H
	ORG $+1
?DbgInitGlobalSettings@@YAX_N@Z$rtcName$1 DB 068H	; DbgInitGlobalSettings
	DB	047H
	DB	06cH
	DB	06fH
	DB	062H
	DB	061H
	DB	06cH
	DB	04bH
	DB	065H
	DB	079H
	DB	00H
	ORG $+13
?DbgInitGlobalSettings@@YAX_N@Z$rtcVarDesc DD 0888H	; DbgInitGlobalSettings
	DD	08H
	DQ	FLAT:?DbgInitGlobalSettings@@YAX_N@Z$rtcName$1
	DD	070H
	DD	0800H
	DQ	FLAT:?DbgInitGlobalSettings@@YAX_N@Z$rtcName$0
	ORG $+96
?DbgInitGlobalSettings@@YAX_N@Z$rtcFrameData DD 02H	; DbgInitGlobalSettings
	DD	00H
	DQ	FLAT:?DbgInitGlobalSettings@@YAX_N@Z$rtcVarDesc
; Function compile flags: /Odtp /RTCsu
CONST	ENDS
;	COMDAT ?DbgInitGlobalSettings@@YAX_N@Z
_TEXT	SEGMENT
lReturn$ = 80
szInfo$ = 112
hGlobalKey$ = 2184
__$ArrayPad$ = 2208
fTakeMax$ = 2240
?DbgInitGlobalSettings@@YAX_N@Z PROC			; DbgInitGlobalSettings, COMDAT
; Line 296
$LN4:
	mov	BYTE PTR [rsp+8], cl
	push	rdi
	sub	rsp, 2224				; 000008b0H
	mov	rdi, rsp
	mov	ecx, 556				; 0000022cH
	mov	eax, -858993460				; ccccccccH
	rep stosd
	movzx	ecx, BYTE PTR [rsp+2240]
	mov	rax, QWORD PTR __security_cookie
	xor	rax, rsp
	mov	QWORD PTR __$ArrayPad$[rsp], rax
; Line 302
	mov	r9, QWORD PTR ?pGlobalKey@@3PEB_WEB	; pGlobalKey
	mov	r8, QWORD PTR ?pBaseKey@@3PEB_WEB	; pBaseKey
	lea	rdx, OFFSET FLAT:$SG84199
	lea	rcx, QWORD PTR szInfo$[rsp]
	call	QWORD PTR __imp_wsprintfW
; Line 313
	mov	QWORD PTR [rsp+64], 0
	lea	rax, QWORD PTR hGlobalKey$[rsp]
	mov	QWORD PTR [rsp+56], rax
	mov	QWORD PTR [rsp+48], 0
	mov	DWORD PTR [rsp+40], 983103		; 000f003fH
	mov	DWORD PTR [rsp+32], 0
	xor	r9d, r9d
	xor	r8d, r8d
	lea	rdx, QWORD PTR szInfo$[rsp]
	mov	rcx, -2147483646			; ffffffff80000002H
	call	QWORD PTR __imp_RegCreateKeyExW
	mov	DWORD PTR lReturn$[rsp], eax
; Line 315
	cmp	DWORD PTR lReturn$[rsp], 0
	je	SHORT $LN1@DbgInitGlo
; Line 316
	lea	r8, OFFSET FLAT:$SG84206
	xor	edx, edx
	mov	ecx, 16
	call	?DbgLogInfo@@YAXKKPEB_WZZ		; DbgLogInfo
; Line 317
	jmp	SHORT $LN2@DbgInitGlo
$LN1@DbgInitGlo:
; Line 320
	movzx	edx, BYTE PTR fTakeMax$[rsp]
	mov	rcx, QWORD PTR hGlobalKey$[rsp]
	call	?DbgInitKeyLevels@@YAXPEAUHKEY__@@_N@Z	; DbgInitKeyLevels
; Line 321
	mov	rcx, QWORD PTR hGlobalKey$[rsp]
	call	QWORD PTR __imp_RegCloseKey
$LN2@DbgInitGlo:
; Line 322
	mov	rcx, rsp
	lea	rdx, OFFSET FLAT:?DbgInitGlobalSettings@@YAX_N@Z$rtcFrameData
	call	_RTC_CheckStackVars
	mov	rcx, QWORD PTR __$ArrayPad$[rsp]
	xor	rcx, rsp
	call	__security_check_cookie
	add	rsp, 2224				; 000008b0H
	pop	rdi
	ret	0
?DbgInitGlobalSettings@@YAX_N@Z ENDP			; DbgInitGlobalSettings
_TEXT	ENDS
PUBLIC	__$ArrayPad$
;	COMDAT pdata
pdata	SEGMENT
$pdata$?DbgInitModuleSettings@@YAX_N@Z DD imagerel $LN4
	DD	imagerel $LN4+276
	DD	imagerel $unwind$?DbgInitModuleSettings@@YAX_N@Z
pdata	ENDS
;	COMDAT xdata
xdata	SEGMENT
$unwind$?DbgInitModuleSettings@@YAX_N@Z DD 033519H
	DD	0116010cH
	DD	07005H
	DD	imagerel __GSHandlerCheck
	DD	08a0H
xdata	ENDS
;	COMDAT CONST
CONST	SEGMENT
?DbgInitModuleSettings@@YAX_N@Z$rtcName$0 DB 073H	; DbgInitModuleSettings
	DB	07aH
	DB	049H
	DB	06eH
	DB	066H
	DB	06fH
	DB	00H
	ORG $+1
?DbgInitModuleSettings@@YAX_N@Z$rtcName$1 DB 068H	; DbgInitModuleSettings
	DB	04dH
	DB	06fH
	DB	064H
	DB	075H
	DB	06cH
	DB	065H
	DB	04bH
	DB	065H
	DB	079H
	DB	00H
	ORG $+13
?DbgInitModuleSettings@@YAX_N@Z$rtcVarDesc DD 0888H	; DbgInitModuleSettings
	DD	08H
	DQ	FLAT:?DbgInitModuleSettings@@YAX_N@Z$rtcName$1
	DD	070H
	DD	0800H
	DQ	FLAT:?DbgInitModuleSettings@@YAX_N@Z$rtcName$0
	ORG $+96
?DbgInitModuleSettings@@YAX_N@Z$rtcFrameData DD 02H	; DbgInitModuleSettings
	DD	00H
	DQ	FLAT:?DbgInitModuleSettings@@YAX_N@Z$rtcVarDesc
; Function compile flags: /Odtp /RTCsu
CONST	ENDS
;	COMDAT ?DbgInitModuleSettings@@YAX_N@Z
_TEXT	SEGMENT
lReturn$ = 80
szInfo$ = 112
hModuleKey$ = 2184
__$ArrayPad$ = 2208
fTakeMax$ = 2240
?DbgInitModuleSettings@@YAX_N@Z PROC			; DbgInitModuleSettings, COMDAT
; Line 332
$LN4:
	mov	BYTE PTR [rsp+8], cl
	push	rdi
	sub	rsp, 2224				; 000008b0H
	mov	rdi, rsp
	mov	ecx, 556				; 0000022cH
	mov	eax, -858993460				; ccccccccH
	rep stosd
	movzx	ecx, BYTE PTR [rsp+2240]
	mov	rax, QWORD PTR __security_cookie
	xor	rax, rsp
	mov	QWORD PTR __$ArrayPad$[rsp], rax
; Line 338
	lea	r9, OFFSET FLAT:?m_ModuleName@@3PA_WA	; m_ModuleName
	mov	r8, QWORD PTR ?pBaseKey@@3PEB_WEB	; pBaseKey
	lea	rdx, OFFSET FLAT:$SG84213
	lea	rcx, QWORD PTR szInfo$[rsp]
	call	QWORD PTR __imp_wsprintfW
; Line 349
	mov	QWORD PTR [rsp+64], 0
	lea	rax, QWORD PTR hModuleKey$[rsp]
	mov	QWORD PTR [rsp+56], rax
	mov	QWORD PTR [rsp+48], 0
	mov	DWORD PTR [rsp+40], 983103		; 000f003fH
	mov	DWORD PTR [rsp+32], 0
	xor	r9d, r9d
	xor	r8d, r8d
	lea	rdx, QWORD PTR szInfo$[rsp]
	mov	rcx, -2147483646			; ffffffff80000002H
	call	QWORD PTR __imp_RegCreateKeyExW
	mov	DWORD PTR lReturn$[rsp], eax
; Line 351
	cmp	DWORD PTR lReturn$[rsp], 0
	je	SHORT $LN1@DbgInitMod
; Line 352
	lea	r8, OFFSET FLAT:$SG84220
	xor	edx, edx
	mov	ecx, 16
	call	?DbgLogInfo@@YAXKKPEB_WZZ		; DbgLogInfo
; Line 353
	jmp	SHORT $LN2@DbgInitMod
$LN1@DbgInitMod:
; Line 356
	mov	rcx, QWORD PTR hModuleKey$[rsp]
	call	?DbgInitLogTo@@YAXPEAUHKEY__@@@Z	; DbgInitLogTo
; Line 357
	movzx	edx, BYTE PTR fTakeMax$[rsp]
	mov	rcx, QWORD PTR hModuleKey$[rsp]
	call	?DbgInitKeyLevels@@YAXPEAUHKEY__@@_N@Z	; DbgInitKeyLevels
; Line 358
	mov	rcx, QWORD PTR hModuleKey$[rsp]
	call	QWORD PTR __imp_RegCloseKey
$LN2@DbgInitMod:
; Line 359
	mov	rcx, rsp
	lea	rdx, OFFSET FLAT:?DbgInitModuleSettings@@YAX_N@Z$rtcFrameData
	call	_RTC_CheckStackVars
	mov	rcx, QWORD PTR __$ArrayPad$[rsp]
	xor	rcx, rsp
	call	__security_check_cookie
	add	rsp, 2224				; 000008b0H
	pop	rdi
	ret	0
?DbgInitModuleSettings@@YAX_N@Z ENDP			; DbgInitModuleSettings
_TEXT	ENDS
PUBLIC	?wcsrchr@@YAPEA_WPEA_W_W@Z			; wcsrchr
PUBLIC	__$ArrayPad$
EXTRN	__imp_lstrcpyW:PROC
EXTRN	__imp_GetModuleFileNameW:PROC
;	COMDAT pdata
pdata	SEGMENT
$pdata$?DbgInitModuleName@@YAXXZ DD imagerel $LN5
	DD	imagerel $LN5+195
	DD	imagerel $unwind$?DbgInitModuleName@@YAXXZ
pdata	ENDS
;	COMDAT xdata
xdata	SEGMENT
$unwind$?DbgInitModuleName@@YAXXZ DD 032a19H
	DD	010a0109H
	DD	07002H
	DD	imagerel __GSHandlerCheck
	DD	0848H
xdata	ENDS
;	COMDAT CONST
CONST	SEGMENT
?DbgInitModuleName@@YAXXZ$rtcName$0 DB 046H		; DbgInitModuleName
	DB	075H
	DB	06cH
	DB	06cH
	DB	04eH
	DB	061H
	DB	06dH
	DB	065H
	DB	00H
	ORG $+7
?DbgInitModuleName@@YAXXZ$rtcVarDesc DD 030H		; DbgInitModuleName
	DD	0800H
	DQ	FLAT:?DbgInitModuleName@@YAXXZ$rtcName$0
	ORG $+48
?DbgInitModuleName@@YAXXZ$rtcFrameData DD 01H		; DbgInitModuleName
	DD	00H
	DQ	FLAT:?DbgInitModuleName@@YAXXZ$rtcVarDesc
; Function compile flags: /Odtp /RTCsu
CONST	ENDS
;	COMDAT ?DbgInitModuleName@@YAXXZ
_TEXT	SEGMENT
FullName$ = 48
pName$ = 2104
__$ArrayPad$ = 2120
?DbgInitModuleName@@YAXXZ PROC				; DbgInitModuleName, COMDAT
; Line 365
$LN5:
	push	rdi
	sub	rsp, 2128				; 00000850H
	mov	rdi, rsp
	mov	ecx, 532				; 00000214H
	mov	eax, -858993460				; ccccccccH
	rep stosd
	mov	rax, QWORD PTR __security_cookie
	xor	rax, rsp
	mov	QWORD PTR __$ArrayPad$[rsp], rax
; Line 369
	mov	r8d, 1024				; 00000400H
	lea	rdx, QWORD PTR FullName$[rsp]
	mov	rcx, QWORD PTR ?m_hInst@@3PEAUHINSTANCE__@@EA ; m_hInst
	call	QWORD PTR __imp_GetModuleFileNameW
; Line 370
	mov	dx, 92					; 0000005cH
	lea	rcx, QWORD PTR FullName$[rsp]
	call	?wcsrchr@@YAPEA_WPEA_W_W@Z		; wcsrchr
	mov	QWORD PTR pName$[rsp], rax
; Line 371
	cmp	QWORD PTR pName$[rsp], 0
	jne	SHORT $LN2@DbgInitMod@2
; Line 372
	lea	rax, QWORD PTR FullName$[rsp]
	mov	QWORD PTR pName$[rsp], rax
; Line 373
	jmp	SHORT $LN1@DbgInitMod@2
$LN2@DbgInitMod@2:
; Line 374
	mov	rax, QWORD PTR pName$[rsp]
	add	rax, 2
	mov	QWORD PTR pName$[rsp], rax
$LN1@DbgInitMod@2:
; Line 376
	mov	rdx, QWORD PTR pName$[rsp]
	lea	rcx, OFFSET FLAT:?m_ModuleName@@3PA_WA	; m_ModuleName
	call	QWORD PTR __imp_lstrcpyW
; Line 377
	mov	rcx, rsp
	lea	rdx, OFFSET FLAT:?DbgInitModuleName@@YAXXZ$rtcFrameData
	call	_RTC_CheckStackVars
	mov	rcx, QWORD PTR __$ArrayPad$[rsp]
	xor	rcx, rsp
	call	__security_check_cookie
	add	rsp, 2128				; 00000850H
	pop	rdi
	ret	0
?DbgInitModuleName@@YAXXZ ENDP				; DbgInitModuleName
_TEXT	ENDS
EXTRN	wcsrchr:PROC
;	COMDAT pdata
; File c:\program files (x86)\microsoft visual studio 10.0\vc\include\string.h
pdata	SEGMENT
$pdata$?wcsrchr@@YAPEA_WPEA_W_W@Z DD imagerel $LN3
	DD	imagerel $LN3+56
	DD	imagerel $unwind$?wcsrchr@@YAPEA_WPEA_W_W@Z
pdata	ENDS
;	COMDAT xdata
xdata	SEGMENT
$unwind$?wcsrchr@@YAPEA_WPEA_W_W@Z DD 022301H
	DD	0700b320fH
; Function compile flags: /Odtp /RTCsu
xdata	ENDS
;	COMDAT ?wcsrchr@@YAPEA_WPEA_W_W@Z
_TEXT	SEGMENT
_Str$ = 48
_Ch$ = 56
?wcsrchr@@YAPEA_WPEA_W_W@Z PROC				; wcsrchr, COMDAT
; Line 366
$LN3:
	mov	WORD PTR [rsp+16], dx
	mov	QWORD PTR [rsp+8], rcx
	push	rdi
	sub	rsp, 32					; 00000020H
	mov	rdi, rsp
	mov	ecx, 8
	mov	eax, -858993460				; ccccccccH
	rep stosd
	mov	rcx, QWORD PTR [rsp+48]
	movzx	edx, WORD PTR _Ch$[rsp]
	mov	rcx, QWORD PTR _Str$[rsp]
	call	wcsrchr
	add	rsp, 32					; 00000020H
	pop	rdi
	ret	0
?wcsrchr@@YAPEA_WPEA_W_W@Z ENDP				; wcsrchr
_TEXT	ENDS
PUBLIC	?MsgBoxThread@@YAKPEAX@Z			; MsgBoxThread
EXTRN	__imp_MessageBoxW:PROC
;	COMDAT pdata
; File c:\downloads\wpf mediakit - copy\src\filters\baseclasses\wxdebug.cpp
pdata	SEGMENT
$pdata$?MsgBoxThread@@YAKPEAX@Z DD imagerel $LN3
	DD	imagerel $LN3+97
	DD	imagerel $unwind$?MsgBoxThread@@YAKPEAX@Z
pdata	ENDS
;	COMDAT xdata
xdata	SEGMENT
$unwind$?MsgBoxThread@@YAKPEAX@Z DD 021e01H
	DD	07006520aH
; Function compile flags: /Odtp /RTCsu
xdata	ENDS
;	COMDAT ?MsgBoxThread@@YAKPEAX@Z
_TEXT	SEGMENT
pmsg$ = 32
lpParameter$ = 64
?MsgBoxThread@@YAKPEAX@Z PROC				; MsgBoxThread, COMDAT
; Line 395
$LN3:
	mov	QWORD PTR [rsp+8], rcx
	push	rdi
	sub	rsp, 48					; 00000030H
	mov	rdi, rsp
	mov	ecx, 12
	mov	eax, -858993460				; ccccccccH
	rep stosd
	mov	rcx, QWORD PTR [rsp+64]
; Line 396
	mov	rax, QWORD PTR lpParameter$[rsp]
	mov	QWORD PTR pmsg$[rsp], rax
; Line 401
	mov	rax, QWORD PTR pmsg$[rsp]
	mov	r9d, DWORD PTR [rax+24]
	mov	rax, QWORD PTR pmsg$[rsp]
	mov	r8, QWORD PTR [rax+16]
	mov	rax, QWORD PTR pmsg$[rsp]
	mov	rdx, QWORD PTR [rax+8]
	mov	rax, QWORD PTR pmsg$[rsp]
	mov	rcx, QWORD PTR [rax]
	call	QWORD PTR __imp_MessageBoxW
	mov	rcx, QWORD PTR pmsg$[rsp]
	mov	DWORD PTR [rcx+28], eax
; Line 403
	xor	eax, eax
; Line 404
	add	rsp, 48					; 00000030H
	pop	rdi
	ret	0
?MsgBoxThread@@YAKPEAX@Z ENDP				; MsgBoxThread
_TEXT	ENDS
PUBLIC	?MessageBoxOtherThread@@YAHPEAUHWND__@@PEA_W1K@Z ; MessageBoxOtherThread
EXTRN	__imp_WaitForSingleObject:PROC
EXTRN	__imp_CreateThread:PROC
;	COMDAT pdata
pdata	SEGMENT
$pdata$?MessageBoxOtherThread@@YAHPEAUHWND__@@PEA_W1K@Z DD imagerel $LN6
	DD	imagerel $LN6+301
	DD	imagerel $unwind$?MessageBoxOtherThread@@YAHPEAUHWND__@@PEA_W1K@Z
pdata	ENDS
;	COMDAT xdata
xdata	SEGMENT
$unwind$?MessageBoxOtherThread@@YAHPEAUHWND__@@PEA_W1K@Z DD 033301H
	DD	012011cH
	DD	07015H
xdata	ENDS
;	COMDAT CONST
CONST	SEGMENT
?MessageBoxOtherThread@@YAHPEAUHWND__@@PEA_W1K@Z$rtcName$0 DB 06dH ; MessageBoxOtherThread
	DB	073H
	DB	067H
	DB	00H
?MessageBoxOtherThread@@YAHPEAUHWND__@@PEA_W1K@Z$rtcName$1 DB 064H ; MessageBoxOtherThread
	DB	077H
	DB	069H
	DB	064H
	DB	00H
	ORG $+7
?MessageBoxOtherThread@@YAHPEAUHWND__@@PEA_W1K@Z$rtcVarDesc DD 074H ; MessageBoxOtherThread
	DD	04H
	DQ	FLAT:?MessageBoxOtherThread@@YAHPEAUHWND__@@PEA_W1K@Z$rtcName$1
	DD	038H
	DD	020H
	DQ	FLAT:?MessageBoxOtherThread@@YAHPEAUHWND__@@PEA_W1K@Z$rtcName$0
	ORG $+96
?MessageBoxOtherThread@@YAHPEAUHWND__@@PEA_W1K@Z$rtcFrameData DD 02H ; MessageBoxOtherThread
	DD	00H
	DQ	FLAT:?MessageBoxOtherThread@@YAHPEAUHWND__@@PEA_W1K@Z$rtcVarDesc
; Function compile flags: /Odtp /RTCsu
CONST	ENDS
;	COMDAT ?MessageBoxOtherThread@@YAHPEAUHWND__@@PEA_W1K@Z
_TEXT	SEGMENT
msg$84252 = 56
dwid$84253 = 116
hThread$84254 = 136
hwnd$ = 160
szTitle$ = 168
szMessage$ = 176
dwFlags$ = 184
?MessageBoxOtherThread@@YAHPEAUHWND__@@PEA_W1K@Z PROC	; MessageBoxOtherThread, COMDAT
; Line 411
$LN6:
	mov	DWORD PTR [rsp+32], r9d
	mov	QWORD PTR [rsp+24], r8
	mov	QWORD PTR [rsp+16], rdx
	mov	QWORD PTR [rsp+8], rcx
	push	rdi
	sub	rsp, 144				; 00000090H
	mov	rdi, rsp
	mov	ecx, 36					; 00000024H
	mov	eax, -858993460				; ccccccccH
	rep stosd
	mov	rcx, QWORD PTR [rsp+160]
; Line 412
	movzx	eax, BYTE PTR ?g_fDbgInDllEntryPoint@@3_NA ; g_fDbgInDllEntryPoint
	test	eax, eax
	je	SHORT $LN3@MessageBox
; Line 416
	mov	r9d, DWORD PTR dwFlags$[rsp]
	mov	r8, QWORD PTR szMessage$[rsp]
	mov	rdx, QWORD PTR szTitle$[rsp]
	mov	rcx, QWORD PTR hwnd$[rsp]
	call	QWORD PTR __imp_MessageBoxW
	jmp	$LN4@MessageBox
; Line 418
	jmp	$LN2@MessageBox
$LN3@MessageBox:
; Line 420
	mov	rax, QWORD PTR hwnd$[rsp]
	mov	QWORD PTR msg$84252[rsp], rax
	mov	rax, QWORD PTR szTitle$[rsp]
	mov	QWORD PTR msg$84252[rsp+8], rax
	mov	rax, QWORD PTR szMessage$[rsp]
	mov	QWORD PTR msg$84252[rsp+16], rax
	mov	eax, DWORD PTR dwFlags$[rsp]
	mov	DWORD PTR msg$84252[rsp+24], eax
	mov	DWORD PTR msg$84252[rsp+28], 0
; Line 428
	lea	rax, QWORD PTR dwid$84253[rsp]
	mov	QWORD PTR [rsp+40], rax
	mov	DWORD PTR [rsp+32], 0
	lea	r9, QWORD PTR msg$84252[rsp]
	lea	r8, OFFSET FLAT:?MsgBoxThread@@YAKPEAX@Z ; MsgBoxThread
	xor	edx, edx
	xor	ecx, ecx
	call	QWORD PTR __imp_CreateThread
	mov	QWORD PTR hThread$84254[rsp], rax
; Line 429
	cmp	QWORD PTR hThread$84254[rsp], 0
	je	SHORT $LN1@MessageBox
; Line 431
	mov	edx, -1					; ffffffffH
	mov	rcx, QWORD PTR hThread$84254[rsp]
	call	QWORD PTR __imp_WaitForSingleObject
; Line 432
	mov	rcx, QWORD PTR hThread$84254[rsp]
	call	QWORD PTR __imp_CloseHandle
; Line 433
	mov	eax, DWORD PTR msg$84252[rsp+28]
	jmp	SHORT $LN4@MessageBox
$LN1@MessageBox:
; Line 437
	mov	eax, 2
$LN2@MessageBox:
$LN4@MessageBox:
; Line 439
	mov	rdi, rax
	mov	rcx, rsp
	lea	rdx, OFFSET FLAT:?MessageBoxOtherThread@@YAHPEAUHWND__@@PEA_W1K@Z$rtcFrameData
	call	_RTC_CheckStackVars
	mov	rax, rdi
	add	rsp, 144				; 00000090H
	pop	rdi
	ret	0
?MessageBoxOtherThread@@YAHPEAUHWND__@@PEA_W1K@Z ENDP	; MessageBoxOtherThread
_TEXT	ENDS
PUBLIC	?DbgKernelAssert@@YAXPEB_W0H@Z			; DbgKernelAssert
PUBLIC	__$ArrayPad$
EXTRN	__imp_FatalAppExitW:PROC
;	COMDAT pdata
pdata	SEGMENT
$pdata$?DbgAssert@@YAXPEB_W0H@Z DD imagerel $LN10
	DD	imagerel $LN10+287
	DD	imagerel $unwind$?DbgAssert@@YAXPEB_W0H@Z
pdata	ENDS
;	COMDAT xdata
xdata	SEGMENT
$unwind$?DbgAssert@@YAXPEB_W0H@Z DD 034019H
	DD	010c0117H
	DD	07010H
	DD	imagerel __GSHandlerCheck
	DD	0858H
xdata	ENDS
;	COMDAT CONST
CONST	SEGMENT
?DbgAssert@@YAXPEB_W0H@Z$rtcName$0 DB 073H		; DbgAssert
	DB	07aH
	DB	049H
	DB	06eH
	DB	066H
	DB	06fH
	DB	00H
	ORG $+9
?DbgAssert@@YAXPEB_W0H@Z$rtcVarDesc DD 040H		; DbgAssert
	DD	0800H
	DQ	FLAT:?DbgAssert@@YAXPEB_W0H@Z$rtcName$0
	ORG $+48
?DbgAssert@@YAXPEB_W0H@Z$rtcFrameData DD 01H		; DbgAssert
	DD	00H
	DQ	FLAT:?DbgAssert@@YAXPEB_W0H@Z$rtcVarDesc
; Function compile flags: /Odtp /RTCsu
CONST	ENDS
;	COMDAT ?DbgAssert@@YAXPEB_W0H@Z
_TEXT	SEGMENT
szInfo$84264 = 64
MsgId$84266 = 2116
tv79 = 2128
__$ArrayPad$ = 2136
pCondition$ = 2160
pFileName$ = 2168
iLine$ = 2176
?DbgAssert@@YAXPEB_W0H@Z PROC				; DbgAssert, COMDAT
; Line 444
$LN10:
	mov	DWORD PTR [rsp+24], r8d
	mov	QWORD PTR [rsp+16], rdx
	mov	QWORD PTR [rsp+8], rcx
	push	rdi
	sub	rsp, 2144				; 00000860H
	mov	rdi, rsp
	mov	ecx, 536				; 00000218H
	mov	eax, -858993460				; ccccccccH
	rep stosd
	mov	rcx, QWORD PTR [rsp+2160]
	mov	rax, QWORD PTR __security_cookie
	xor	rax, rsp
	mov	QWORD PTR __$ArrayPad$[rsp], rax
; Line 445
	movzx	eax, BYTE PTR ?g_fUseKASSERT@@3_NA	; g_fUseKASSERT
	test	eax, eax
	je	SHORT $LN7@DbgAssert
; Line 447
	mov	r8d, DWORD PTR iLine$[rsp]
	mov	rdx, QWORD PTR pFileName$[rsp]
	mov	rcx, QWORD PTR pCondition$[rsp]
	call	?DbgKernelAssert@@YAXPEB_W0H@Z		; DbgKernelAssert
; Line 449
	jmp	$LN6@DbgAssert
$LN7@DbgAssert:
; Line 455
	mov	rax, QWORD PTR pFileName$[rsp]
	mov	QWORD PTR [rsp+32], rax
	mov	r9d, DWORD PTR iLine$[rsp]
	mov	r8, QWORD PTR pCondition$[rsp]
	lea	rdx, OFFSET FLAT:$SG84265
	lea	rcx, QWORD PTR szInfo$84264[rsp]
	call	QWORD PTR __imp_wsprintfW
; Line 461
	mov	r9d, 69651				; 00011013H
	lea	r8, OFFSET FLAT:$SG84267
	lea	rdx, QWORD PTR szInfo$84264[rsp]
	xor	ecx, ecx
	call	?MessageBoxOtherThread@@YAHPEAUHWND__@@PEA_W1K@Z ; MessageBoxOtherThread
	mov	DWORD PTR MsgId$84266[rsp], eax
; Line 462
	mov	eax, DWORD PTR MsgId$84266[rsp]
	mov	DWORD PTR tv79[rsp], eax
	cmp	DWORD PTR tv79[rsp], 2
	je	SHORT $LN2@DbgAssert
	cmp	DWORD PTR tv79[rsp], 7
	je	SHORT $LN3@DbgAssert
	jmp	SHORT $LN4@DbgAssert
$LN3@DbgAssert:
; Line 466
	lea	rdx, OFFSET FLAT:$SG84273
	xor	ecx, ecx
	call	QWORD PTR __imp_FatalAppExitW
; Line 467
	jmp	SHORT $LN4@DbgAssert
$LN2@DbgAssert:
; Line 471
	call	QWORD PTR __imp_DebugBreak
$LN4@DbgAssert:
$LN6@DbgAssert:
; Line 478
	mov	rcx, rsp
	lea	rdx, OFFSET FLAT:?DbgAssert@@YAXPEB_W0H@Z$rtcFrameData
	call	_RTC_CheckStackVars
	mov	rcx, QWORD PTR __$ArrayPad$[rsp]
	xor	rcx, rsp
	call	__security_check_cookie
	add	rsp, 2144				; 00000860H
	pop	rdi
	ret	0
?DbgAssert@@YAXPEB_W0H@Z ENDP				; DbgAssert
_TEXT	ENDS
PUBLIC	__$ArrayPad$
PUBLIC	?DbgBreakPoint@@YAXPEB_W0H@Z			; DbgBreakPoint
;	COMDAT pdata
pdata	SEGMENT
$pdata$?DbgBreakPoint@@YAXPEB_W0H@Z DD imagerel $LN10
	DD	imagerel $LN10+287
	DD	imagerel $unwind$?DbgBreakPoint@@YAXPEB_W0H@Z
pdata	ENDS
;	COMDAT xdata
xdata	SEGMENT
$unwind$?DbgBreakPoint@@YAXPEB_W0H@Z DD 034019H
	DD	010c0117H
	DD	07010H
	DD	imagerel __GSHandlerCheck
	DD	0858H
xdata	ENDS
;	COMDAT CONST
CONST	SEGMENT
?DbgBreakPoint@@YAXPEB_W0H@Z$rtcName$0 DB 073H		; DbgBreakPoint
	DB	07aH
	DB	049H
	DB	06eH
	DB	066H
	DB	06fH
	DB	00H
	ORG $+9
?DbgBreakPoint@@YAXPEB_W0H@Z$rtcVarDesc DD 040H		; DbgBreakPoint
	DD	0800H
	DQ	FLAT:?DbgBreakPoint@@YAXPEB_W0H@Z$rtcName$0
	ORG $+48
?DbgBreakPoint@@YAXPEB_W0H@Z$rtcFrameData DD 01H	; DbgBreakPoint
	DD	00H
	DQ	FLAT:?DbgBreakPoint@@YAXPEB_W0H@Z$rtcVarDesc
; Function compile flags: /Odtp /RTCsu
CONST	ENDS
;	COMDAT ?DbgBreakPoint@@YAXPEB_W0H@Z
_TEXT	SEGMENT
szInfo$84283 = 64
MsgId$84285 = 2116
tv79 = 2128
__$ArrayPad$ = 2136
pCondition$ = 2160
pFileName$ = 2168
iLine$ = 2176
?DbgBreakPoint@@YAXPEB_W0H@Z PROC			; DbgBreakPoint, COMDAT
; Line 483
$LN10:
	mov	DWORD PTR [rsp+24], r8d
	mov	QWORD PTR [rsp+16], rdx
	mov	QWORD PTR [rsp+8], rcx
	push	rdi
	sub	rsp, 2144				; 00000860H
	mov	rdi, rsp
	mov	ecx, 536				; 00000218H
	mov	eax, -858993460				; ccccccccH
	rep stosd
	mov	rcx, QWORD PTR [rsp+2160]
	mov	rax, QWORD PTR __security_cookie
	xor	rax, rsp
	mov	QWORD PTR __$ArrayPad$[rsp], rax
; Line 484
	movzx	eax, BYTE PTR ?g_fUseKASSERT@@3_NA	; g_fUseKASSERT
	test	eax, eax
	je	SHORT $LN7@DbgBreakPo
; Line 486
	mov	r8d, DWORD PTR iLine$[rsp]
	mov	rdx, QWORD PTR pFileName$[rsp]
	mov	rcx, QWORD PTR pCondition$[rsp]
	call	?DbgKernelAssert@@YAXPEB_W0H@Z		; DbgKernelAssert
; Line 488
	jmp	$LN6@DbgBreakPo
$LN7@DbgBreakPo:
; Line 493
	mov	rax, QWORD PTR pFileName$[rsp]
	mov	QWORD PTR [rsp+32], rax
	mov	r9d, DWORD PTR iLine$[rsp]
	mov	r8, QWORD PTR pCondition$[rsp]
	lea	rdx, OFFSET FLAT:$SG84284
	lea	rcx, QWORD PTR szInfo$84283[rsp]
	call	QWORD PTR __imp_wsprintfW
; Line 499
	mov	r9d, 69651				; 00011013H
	lea	r8, OFFSET FLAT:$SG84286
	lea	rdx, QWORD PTR szInfo$84283[rsp]
	xor	ecx, ecx
	call	?MessageBoxOtherThread@@YAHPEAUHWND__@@PEA_W1K@Z ; MessageBoxOtherThread
	mov	DWORD PTR MsgId$84285[rsp], eax
; Line 500
	mov	eax, DWORD PTR MsgId$84285[rsp]
	mov	DWORD PTR tv79[rsp], eax
	cmp	DWORD PTR tv79[rsp], 2
	je	SHORT $LN2@DbgBreakPo
	cmp	DWORD PTR tv79[rsp], 7
	je	SHORT $LN3@DbgBreakPo
	jmp	SHORT $LN4@DbgBreakPo
$LN3@DbgBreakPo:
; Line 504
	lea	rdx, OFFSET FLAT:$SG84292
	xor	ecx, ecx
	call	QWORD PTR __imp_FatalAppExitW
; Line 505
	jmp	SHORT $LN4@DbgBreakPo
$LN2@DbgBreakPo:
; Line 509
	call	QWORD PTR __imp_DebugBreak
$LN4@DbgBreakPo:
$LN6@DbgBreakPo:
; Line 516
	mov	rcx, rsp
	lea	rdx, OFFSET FLAT:?DbgBreakPoint@@YAXPEB_W0H@Z$rtcFrameData
	call	_RTC_CheckStackVars
	mov	rcx, QWORD PTR __$ArrayPad$[rsp]
	xor	rcx, rsp
	call	__security_check_cookie
	add	rsp, 2144				; 00000860H
	pop	rdi
	ret	0
?DbgBreakPoint@@YAXPEB_W0H@Z ENDP			; DbgBreakPoint
_TEXT	ENDS
PUBLIC	__$ArrayPad$
PUBLIC	?DbgBreakPoint@@YAXPEB_WH0ZZ			; DbgBreakPoint
EXTRN	_vsnwprintf:PROC
EXTRN	__chkstk:PROC
;	COMDAT pdata
pdata	SEGMENT
$pdata$?DbgBreakPoint@@YAXPEB_WH0ZZ DD imagerel $LN4
	DD	imagerel $LN4+262
	DD	imagerel $unwind$?DbgBreakPoint@@YAXPEB_WH0ZZ
pdata	ENDS
;	COMDAT xdata
xdata	SEGMENT
$unwind$?DbgBreakPoint@@YAXPEB_WH0ZZ DD 034a19H
	DD	02040121H
	DD	07014H
	DD	imagerel __GSHandlerCheck
	DD	01010H
xdata	ENDS
;	COMDAT CONST
CONST	SEGMENT
?DbgBreakPoint@@YAXPEB_WH0ZZ$rtcName$0 DB 073H		; DbgBreakPoint
	DB	07aH
	DB	042H
	DB	072H
	DB	065H
	DB	061H
	DB	06bH
	DB	050H
	DB	06fH
	DB	069H
	DB	06eH
	DB	074H
	DB	04dH
	DB	065H
	DB	073H
	DB	073H
	DB	061H
	DB	067H
	DB	065H
	DB	00H
?DbgBreakPoint@@YAXPEB_WH0ZZ$rtcName$1 DB 076H		; DbgBreakPoint
	DB	061H
	DB	00H
	ORG $+9
?DbgBreakPoint@@YAXPEB_WH0ZZ$rtcVarDesc DD 0ff8H	; DbgBreakPoint
	DD	08H
	DQ	FLAT:?DbgBreakPoint@@YAXPEB_WH0ZZ$rtcName$1
	DD	040H
	DD	0fa0H
	DQ	FLAT:?DbgBreakPoint@@YAXPEB_WH0ZZ$rtcName$0
	ORG $+96
?DbgBreakPoint@@YAXPEB_WH0ZZ$rtcFrameData DD 02H	; DbgBreakPoint
	DD	00H
	DQ	FLAT:?DbgBreakPoint@@YAXPEB_WH0ZZ$rtcVarDesc
; Function compile flags: /Odtp /RTCsu
CONST	ENDS
;	COMDAT ?DbgBreakPoint@@YAXPEB_WH0ZZ
_TEXT	SEGMENT
MAX_BREAK_POINT_MESSAGE_SIZE$ = 32
szBreakPointMessage$ = 64
MAX_CHARS_IN_BREAK_POINT_MESSAGE$ = 4068
va$ = 4088
nReturnValue$ = 4100
__$ArrayPad$ = 4112
pFileName$ = 4144
iLine$ = 4152
szFormatString$ = 4160
?DbgBreakPoint@@YAXPEB_WH0ZZ PROC			; DbgBreakPoint, COMDAT
; Line 519
$LN4:
	mov	QWORD PTR [rsp+24], r8
	mov	DWORD PTR [rsp+16], edx
	mov	QWORD PTR [rsp+8], rcx
	mov	QWORD PTR [rsp+32], r9
	push	rdi
	mov	eax, 4128				; 00001020H
	call	__chkstk
	sub	rsp, rax
	mov	rdi, rsp
	mov	ecx, 1032				; 00000408H
	mov	eax, -858993460				; ccccccccH
	rep stosd
	mov	rcx, QWORD PTR [rsp+4144]
	mov	rax, QWORD PTR __security_cookie
	xor	rax, rsp
	mov	QWORD PTR __$ArrayPad$[rsp], rax
; Line 525
	mov	DWORD PTR MAX_BREAK_POINT_MESSAGE_SIZE$[rsp], 2000 ; 000007d0H
; Line 529
	mov	DWORD PTR MAX_CHARS_IN_BREAK_POINT_MESSAGE$[rsp], 2000 ; 000007d0H
; Line 532
	lea	rax, QWORD PTR szFormatString$[rsp+8]
	mov	QWORD PTR va$[rsp], rax
; Line 534
	mov	r9, QWORD PTR va$[rsp]
	mov	r8, QWORD PTR szFormatString$[rsp]
	mov	edx, 2000				; 000007d0H
	lea	rcx, QWORD PTR szBreakPointMessage$[rsp]
	call	_vsnwprintf
	mov	DWORD PTR nReturnValue$[rsp], eax
; Line 536
	mov	QWORD PTR va$[rsp], 0
; Line 539
	cmp	DWORD PTR nReturnValue$[rsp], -1
	jne	SHORT $LN1@DbgBreakPo@2
; Line 540
	mov	r8d, 540				; 0000021cH
	lea	rdx, OFFSET FLAT:$SG84308
	lea	rcx, OFFSET FLAT:$SG84309
	call	?DbgBreakPoint@@YAXPEB_W0H@Z		; DbgBreakPoint
; Line 541
	jmp	SHORT $LN2@DbgBreakPo@2
$LN1@DbgBreakPo@2:
; Line 544
	mov	r8d, DWORD PTR iLine$[rsp]
	mov	rdx, QWORD PTR pFileName$[rsp]
	lea	rcx, QWORD PTR szBreakPointMessage$[rsp]
	call	?DbgBreakPoint@@YAXPEB_W0H@Z		; DbgBreakPoint
$LN2@DbgBreakPo@2:
; Line 545
	mov	rcx, rsp
	lea	rdx, OFFSET FLAT:?DbgBreakPoint@@YAXPEB_WH0ZZ$rtcFrameData
	call	_RTC_CheckStackVars
	mov	rcx, QWORD PTR __$ArrayPad$[rsp]
	xor	rcx, rsp
	call	__security_check_cookie
	add	rsp, 4128				; 00001020H
	pop	rdi
	ret	0
?DbgBreakPoint@@YAXPEB_WH0ZZ ENDP			; DbgBreakPoint
_TEXT	ENDS
PUBLIC	?DbgCheckModuleLevel@@YAHKK@Z			; DbgCheckModuleLevel
;	COMDAT ?g_dwLastRefresh@?4??DbgCheckModuleLevel@@YAHKK@Z@4KA
_BSS	SEGMENT
?g_dwLastRefresh@?4??DbgCheckModuleLevel@@YAHKK@Z@4KA DD 01H DUP (?) ; `DbgCheckModuleLevel'::`5'::g_dwLastRefresh
_BSS	ENDS
;	COMDAT pdata
pdata	SEGMENT
$pdata$?DbgCheckModuleLevel@@YAHKK@Z DD imagerel $LN12
	DD	imagerel $LN12+221
	DD	imagerel $unwind$?DbgCheckModuleLevel@@YAHKK@Z
pdata	ENDS
;	COMDAT xdata
xdata	SEGMENT
$unwind$?DbgCheckModuleLevel@@YAHKK@Z DD 022001H
	DD	07009520dH
; Function compile flags: /Odtp /RTCsu
xdata	ENDS
;	COMDAT ?DbgCheckModuleLevel@@YAHKK@Z
_TEXT	SEGMENT
dwTime$84317 = 32
Mask$ = 36
lKeyPos$84322 = 40
Type$ = 64
Level$ = 72
?DbgCheckModuleLevel@@YAHKK@Z PROC			; DbgCheckModuleLevel, COMDAT
; Line 562
$LN12:
	mov	DWORD PTR [rsp+16], edx
	mov	DWORD PTR [rsp+8], ecx
	push	rdi
	sub	rsp, 48					; 00000030H
	mov	rdi, rsp
	mov	ecx, 12
	mov	eax, -858993460				; ccccccccH
	rep stosd
	mov	ecx, DWORD PTR [rsp+64]
; Line 563
	movzx	eax, BYTE PTR ?g_fAutoRefreshLevels@@3_NA ; g_fAutoRefreshLevels
	test	eax, eax
	je	SHORT $LN9@DbgCheckMo
; Line 568
	call	QWORD PTR __imp_timeGetTime
	mov	DWORD PTR dwTime$84317[rsp], eax
; Line 569
	mov	eax, DWORD PTR ?g_dwLastRefresh@?4??DbgCheckModuleLevel@@YAHKK@Z@4KA
	mov	ecx, DWORD PTR dwTime$84317[rsp]
	sub	ecx, eax
	mov	eax, ecx
	cmp	eax, 1000				; 000003e8H
	jbe	SHORT $LN8@DbgCheckMo
; Line 570
	mov	eax, DWORD PTR dwTime$84317[rsp]
	mov	DWORD PTR ?g_dwLastRefresh@?4??DbgCheckModuleLevel@@YAHKK@Z@4KA, eax
; Line 575
	xor	ecx, ecx
	call	?DbgInitModuleSettings@@YAX_N@Z		; DbgInitModuleSettings
$LN8@DbgCheckMo:
$LN9@DbgCheckMo:
; Line 580
	mov	DWORD PTR Mask$[rsp], 1
; Line 583
	mov	eax, DWORD PTR Type$[rsp]
	and	eax, 1023				; 000003ffH
	test	eax, eax
	je	SHORT $LN7@DbgCheckMo
; Line 586
	cmp	DWORD PTR Level$[rsp], 0
	jne	SHORT $LN6@DbgCheckMo
; Line 587
	mov	eax, 1
	jmp	SHORT $LN10@DbgCheckMo
$LN6@DbgCheckMo:
; Line 589
	mov	DWORD PTR lKeyPos$84322[rsp], 0
	jmp	SHORT $LN5@DbgCheckMo
$LN4@DbgCheckMo:
	mov	eax, DWORD PTR lKeyPos$84322[rsp]
	inc	eax
	mov	DWORD PTR lKeyPos$84322[rsp], eax
$LN5@DbgCheckMo:
	cmp	DWORD PTR lKeyPos$84322[rsp], 10
	jge	SHORT $LN3@DbgCheckMo
; Line 590
	mov	eax, DWORD PTR Mask$[rsp]
	mov	ecx, DWORD PTR Type$[rsp]
	and	ecx, eax
	mov	eax, ecx
	test	eax, eax
	je	SHORT $LN2@DbgCheckMo
; Line 591
	movsxd	rax, DWORD PTR lKeyPos$84322[rsp]
	lea	rcx, OFFSET FLAT:?m_Levels@@3PAKA	; m_Levels
	mov	eax, DWORD PTR [rcx+rax*4]
	btr	eax, 31
	cmp	DWORD PTR Level$[rsp], eax
	ja	SHORT $LN1@DbgCheckMo
; Line 592
	mov	eax, 1
	jmp	SHORT $LN10@DbgCheckMo
$LN1@DbgCheckMo:
$LN2@DbgCheckMo:
; Line 595
	mov	eax, DWORD PTR Mask$[rsp]
	shl	eax, 1
	mov	DWORD PTR Mask$[rsp], eax
; Line 596
	jmp	SHORT $LN4@DbgCheckMo
$LN3@DbgCheckMo:
$LN7@DbgCheckMo:
; Line 598
	xor	eax, eax
$LN10@DbgCheckMo:
; Line 599
	add	rsp, 48					; 00000030H
	pop	rdi
	ret	0
?DbgCheckModuleLevel@@YAHKK@Z ENDP			; DbgCheckModuleLevel
_TEXT	ENDS
PUBLIC	?DbgSetModuleLevel@@YAXKK@Z			; DbgSetModuleLevel
;	COMDAT pdata
pdata	SEGMENT
$pdata$?DbgSetModuleLevel@@YAXKK@Z DD imagerel $LN7
	DD	imagerel $LN7+120
	DD	imagerel $unwind$?DbgSetModuleLevel@@YAXKK@Z
pdata	ENDS
;	COMDAT xdata
xdata	SEGMENT
$unwind$?DbgSetModuleLevel@@YAXKK@Z DD 022001H
	DD	07009120dH
; Function compile flags: /Odtp /RTCsu
xdata	ENDS
;	COMDAT ?DbgSetModuleLevel@@YAXKK@Z
_TEXT	SEGMENT
Mask$ = 0
lKeyPos$84333 = 4
Type$ = 32
Level$ = 40
?DbgSetModuleLevel@@YAXKK@Z PROC			; DbgSetModuleLevel, COMDAT
; Line 605
$LN7:
	mov	DWORD PTR [rsp+16], edx
	mov	DWORD PTR [rsp+8], ecx
	push	rdi
	sub	rsp, 16
	mov	rdi, rsp
	mov	ecx, 4
	mov	eax, -858993460				; ccccccccH
	rep stosd
	mov	ecx, DWORD PTR [rsp+32]
; Line 606
	mov	DWORD PTR Mask$[rsp], 1
; Line 608
	mov	DWORD PTR lKeyPos$84333[rsp], 0
	jmp	SHORT $LN4@DbgSetModu
$LN3@DbgSetModu:
	mov	eax, DWORD PTR lKeyPos$84333[rsp]
	inc	eax
	mov	DWORD PTR lKeyPos$84333[rsp], eax
$LN4@DbgSetModu:
	cmp	DWORD PTR lKeyPos$84333[rsp], 10
	jge	SHORT $LN2@DbgSetModu
; Line 609
	mov	eax, DWORD PTR Mask$[rsp]
	mov	ecx, DWORD PTR Type$[rsp]
	and	ecx, eax
	mov	eax, ecx
	test	eax, eax
	je	SHORT $LN1@DbgSetModu
; Line 610
	mov	eax, DWORD PTR Level$[rsp]
	bts	eax, 31
	movsxd	rcx, DWORD PTR lKeyPos$84333[rsp]
	lea	rdx, OFFSET FLAT:?m_Levels@@3PAKA	; m_Levels
	mov	DWORD PTR [rdx+rcx*4], eax
$LN1@DbgSetModu:
; Line 612
	mov	eax, DWORD PTR Mask$[rsp]
	shl	eax, 1
	mov	DWORD PTR Mask$[rsp], eax
; Line 613
	jmp	SHORT $LN3@DbgSetModu
$LN2@DbgSetModu:
; Line 614
	add	rsp, 16
	pop	rdi
	ret	0
?DbgSetModuleLevel@@YAXKK@Z ENDP			; DbgSetModuleLevel
_TEXT	ENDS
PUBLIC	?DbgSetAutoRefreshLevels@@YAX_N@Z		; DbgSetAutoRefreshLevels
;	COMDAT pdata
pdata	SEGMENT
$pdata$?DbgSetAutoRefreshLevels@@YAX_N@Z DD imagerel $LN3
	DD	imagerel $LN3+18
	DD	imagerel $unwind$?DbgSetAutoRefreshLevels@@YAX_N@Z
pdata	ENDS
;	COMDAT xdata
xdata	SEGMENT
$unwind$?DbgSetAutoRefreshLevels@@YAX_N@Z DD 010501H
	DD	07005H
; Function compile flags: /Odtp /RTCsu
xdata	ENDS
;	COMDAT ?DbgSetAutoRefreshLevels@@YAX_N@Z
_TEXT	SEGMENT
fAuto$ = 16
?DbgSetAutoRefreshLevels@@YAX_N@Z PROC			; DbgSetAutoRefreshLevels, COMDAT
; Line 619
$LN3:
	mov	BYTE PTR [rsp+8], cl
	push	rdi
; Line 620
	movzx	eax, BYTE PTR fAuto$[rsp]
	mov	BYTE PTR ?g_fAutoRefreshLevels@@3_NA, al ; g_fAutoRefreshLevels
; Line 621
	pop	rdi
	ret	0
?DbgSetAutoRefreshLevels@@YAX_N@Z ENDP			; DbgSetAutoRefreshLevels
_TEXT	ENDS
PUBLIC	__$ArrayPad$
PUBLIC	?DbgLogInfo@@YAXKKPEBDZZ			; DbgLogInfo
EXTRN	__imp_MultiByteToWideChar:PROC
EXTRN	__imp_lstrcatA:PROC
EXTRN	__imp_wvsprintfA:PROC
EXTRN	__imp_lstrlenA:PROC
EXTRN	__imp_GetCurrentThreadId:PROC
;	COMDAT pdata
pdata	SEGMENT
$pdata$?DbgLogInfo@@YAXKKPEBDZZ DD imagerel $LN4
	DD	imagerel $LN4+467
	DD	imagerel $unwind$?DbgLogInfo@@YAXKKPEBDZZ
pdata	ENDS
;	COMDAT xdata
xdata	SEGMENT
$unwind$?DbgLogInfo@@YAXKKPEBDZZ DD 034819H
	DD	04fe0120H
	DD	07013H
	DD	imagerel __GSHandlerCheck
	DD	027e8H
xdata	ENDS
;	COMDAT CONST
CONST	SEGMENT
?DbgLogInfo@@YAXKKPEBDZZ$rtcName$0 DB 073H		; DbgLogInfo
	DB	07aH
	DB	049H
	DB	06eH
	DB	066H
	DB	06fH
	DB	00H
	ORG $+1
?DbgLogInfo@@YAXKKPEBDZZ$rtcName$1 DB 076H		; DbgLogInfo
	DB	061H
	DB	00H
	ORG $+5
?DbgLogInfo@@YAXKKPEBDZZ$rtcName$2 DB 073H		; DbgLogInfo
	DB	07aH
	DB	049H
	DB	06eH
	DB	066H
	DB	06fH
	DB	041H
	DB	00H
?DbgLogInfo@@YAXKKPEBDZZ$rtcName$3 DB 077H		; DbgLogInfo
	DB	073H
	DB	07aH
	DB	04fH
	DB	075H
	DB	074H
	DB	053H
	DB	074H
	DB	072H
	DB	069H
	DB	06eH
	DB	067H
	DB	00H
	ORG $+3
?DbgLogInfo@@YAXKKPEBDZZ$rtcFrameData DD 04H		; DbgLogInfo
	DD	00H
	DQ	FLAT:?DbgLogInfo@@YAXKKPEBDZZ$rtcVarDesc
	ORG $+8
?DbgLogInfo@@YAXKKPEBDZZ$rtcVarDesc DD 01830H		; DbgLogInfo
	DD	0fa0H
	DQ	FLAT:?DbgLogInfo@@YAXKKPEBDZZ$rtcName$3
	DD	01040H
	DD	07d0H
	DQ	FLAT:?DbgLogInfo@@YAXKKPEBDZZ$rtcName$2
	DD	01018H
	DD	08H
	DQ	FLAT:?DbgLogInfo@@YAXKKPEBDZZ$rtcName$1
	DD	060H
	DD	0fa0H
	DQ	FLAT:?DbgLogInfo@@YAXKKPEBDZZ$rtcName$0
; Function compile flags: /Odtp /RTCsu
CONST	ENDS
;	COMDAT ?DbgLogInfo@@YAXKKPEBDZZ
_TEXT	SEGMENT
bAccept$ = 64
szInfo$ = 96
va$ = 4120
szInfoA$ = 4160
wszOutString$ = 6192
tv75 = 10208
tv77 = 10212
__$ArrayPad$ = 10216
Type$ = 10240
Level$ = 10248
pFormat$ = 10256
?DbgLogInfo@@YAXKKPEBDZZ PROC				; DbgLogInfo, COMDAT
; Line 629
$LN4:
	mov	QWORD PTR [rsp+24], r8
	mov	DWORD PTR [rsp+16], edx
	mov	DWORD PTR [rsp+8], ecx
	mov	QWORD PTR [rsp+32], r9
	push	rdi
	mov	eax, 10224				; 000027f0H
	call	__chkstk
	sub	rsp, rax
	mov	rdi, rsp
	mov	ecx, 2556				; 000009fcH
	mov	eax, -858993460				; ccccccccH
	rep stosd
	mov	ecx, DWORD PTR [rsp+10240]
	mov	rax, QWORD PTR __security_cookie
	xor	rax, rsp
	mov	QWORD PTR __$ArrayPad$[rsp], rax
; Line 632
	mov	edx, DWORD PTR Level$[rsp]
	mov	ecx, DWORD PTR Type$[rsp]
	call	?DbgCheckModuleLevel@@YAHKK@Z		; DbgCheckModuleLevel
	mov	DWORD PTR bAccept$[rsp], eax
; Line 633
	cmp	DWORD PTR bAccept$[rsp], 0
	jne	SHORT $LN1@DbgLogInfo
; Line 634
	jmp	$LN2@DbgLogInfo
$LN1@DbgLogInfo:
; Line 642
	lea	rax, QWORD PTR pFormat$[rsp+8]
	mov	QWORD PTR va$[rsp], rax
; Line 644
	lea	rdx, OFFSET FLAT:?m_ModuleName@@3PA_WA	; m_ModuleName
	lea	rcx, QWORD PTR szInfo$[rsp]
	call	QWORD PTR __imp_lstrcpyW
; Line 647
	call	QWORD PTR __imp_timeGetTime
	sub	eax, DWORD PTR ?dwTimeOffset@@3KA	; dwTimeOffset
	mov	DWORD PTR tv75[rsp], eax
	call	QWORD PTR __imp_GetCurrentThreadId
	mov	DWORD PTR tv77[rsp], eax
	lea	rcx, QWORD PTR szInfo$[rsp]
	call	QWORD PTR __imp_lstrlenW
	cdqe
	lea	rax, QWORD PTR szInfo$[rsp+rax*2]
	mov	ecx, DWORD PTR tv75[rsp]
	mov	r9d, ecx
	mov	ecx, DWORD PTR tv77[rsp]
	mov	r8d, ecx
	lea	rdx, OFFSET FLAT:$SG84350
	mov	rcx, rax
	call	QWORD PTR __imp_wsprintfW
; Line 650
	mov	QWORD PTR [rsp+56], 0
	mov	QWORD PTR [rsp+48], 0
	mov	DWORD PTR [rsp+40], 2000		; 000007d0H
	lea	rax, QWORD PTR szInfoA$[rsp]
	mov	QWORD PTR [rsp+32], rax
	mov	r9d, -1
	lea	r8, QWORD PTR szInfo$[rsp]
	xor	edx, edx
	xor	ecx, ecx
	call	QWORD PTR __imp_WideCharToMultiByte
; Line 652
	lea	rcx, QWORD PTR szInfoA$[rsp]
	call	QWORD PTR __imp_lstrlenA
	cdqe
	lea	rax, QWORD PTR szInfoA$[rsp+rax]
	mov	r8, QWORD PTR va$[rsp]
	mov	rdx, QWORD PTR pFormat$[rsp]
	mov	rcx, rax
	call	QWORD PTR __imp_wvsprintfA
; Line 653
	lea	rdx, OFFSET FLAT:$SG84352
	lea	rcx, QWORD PTR szInfoA$[rsp]
	call	QWORD PTR __imp_lstrcatA
; Line 656
	mov	DWORD PTR [rsp+40], 2000		; 000007d0H
	lea	rax, QWORD PTR wszOutString$[rsp]
	mov	QWORD PTR [rsp+32], rax
	mov	r9d, -1
	lea	r8, QWORD PTR szInfoA$[rsp]
	xor	edx, edx
	xor	ecx, ecx
	call	QWORD PTR __imp_MultiByteToWideChar
; Line 657
	lea	rcx, QWORD PTR wszOutString$[rsp]
	call	?DbgOutString@@YAXPEB_W@Z		; DbgOutString
; Line 659
	mov	QWORD PTR va$[rsp], 0
$LN2@DbgLogInfo:
; Line 660
	mov	rcx, rsp
	lea	rdx, OFFSET FLAT:?DbgLogInfo@@YAXKKPEBDZZ$rtcFrameData
	call	_RTC_CheckStackVars
	mov	rcx, QWORD PTR __$ArrayPad$[rsp]
	xor	rcx, rsp
	call	__security_check_cookie
	add	rsp, 10224				; 000027f0H
	pop	rdi
	ret	0
?DbgLogInfo@@YAXKKPEBDZZ ENDP				; DbgLogInfo
_TEXT	ENDS
PUBLIC	?DbgKernelAssert@@YAXPEBD0H@Z			; DbgKernelAssert
PUBLIC	__$ArrayPad$
PUBLIC	?DbgAssert@@YAXPEBD0H@Z				; DbgAssert
;	COMDAT pdata
pdata	SEGMENT
$pdata$?DbgAssert@@YAXPEBD0H@Z DD imagerel $LN10
	DD	imagerel $LN10+287
	DD	imagerel $unwind$?DbgAssert@@YAXPEBD0H@Z
pdata	ENDS
;	COMDAT xdata
xdata	SEGMENT
$unwind$?DbgAssert@@YAXPEBD0H@Z DD 034019H
	DD	010c0117H
	DD	07010H
	DD	imagerel __GSHandlerCheck
	DD	0858H
xdata	ENDS
;	COMDAT CONST
CONST	SEGMENT
?DbgAssert@@YAXPEBD0H@Z$rtcName$0 DB 073H		; DbgAssert
	DB	07aH
	DB	049H
	DB	06eH
	DB	066H
	DB	06fH
	DB	00H
	ORG $+9
?DbgAssert@@YAXPEBD0H@Z$rtcVarDesc DD 040H		; DbgAssert
	DD	0800H
	DQ	FLAT:?DbgAssert@@YAXPEBD0H@Z$rtcName$0
	ORG $+48
?DbgAssert@@YAXPEBD0H@Z$rtcFrameData DD 01H		; DbgAssert
	DD	00H
	DQ	FLAT:?DbgAssert@@YAXPEBD0H@Z$rtcVarDesc
; Function compile flags: /Odtp /RTCsu
CONST	ENDS
;	COMDAT ?DbgAssert@@YAXPEBD0H@Z
_TEXT	SEGMENT
szInfo$84362 = 64
MsgId$84364 = 2116
tv79 = 2128
__$ArrayPad$ = 2136
pCondition$ = 2160
pFileName$ = 2168
iLine$ = 2176
?DbgAssert@@YAXPEBD0H@Z PROC				; DbgAssert, COMDAT
; Line 663
$LN10:
	mov	DWORD PTR [rsp+24], r8d
	mov	QWORD PTR [rsp+16], rdx
	mov	QWORD PTR [rsp+8], rcx
	push	rdi
	sub	rsp, 2144				; 00000860H
	mov	rdi, rsp
	mov	ecx, 536				; 00000218H
	mov	eax, -858993460				; ccccccccH
	rep stosd
	mov	rcx, QWORD PTR [rsp+2160]
	mov	rax, QWORD PTR __security_cookie
	xor	rax, rsp
	mov	QWORD PTR __$ArrayPad$[rsp], rax
; Line 664
	movzx	eax, BYTE PTR ?g_fUseKASSERT@@3_NA	; g_fUseKASSERT
	test	eax, eax
	je	SHORT $LN7@DbgAssert@2
; Line 666
	mov	r8d, DWORD PTR iLine$[rsp]
	mov	rdx, QWORD PTR pFileName$[rsp]
	mov	rcx, QWORD PTR pCondition$[rsp]
	call	?DbgKernelAssert@@YAXPEBD0H@Z		; DbgKernelAssert
; Line 668
	jmp	$LN6@DbgAssert@2
$LN7@DbgAssert@2:
; Line 674
	mov	rax, QWORD PTR pFileName$[rsp]
	mov	QWORD PTR [rsp+32], rax
	mov	r9d, DWORD PTR iLine$[rsp]
	mov	r8, QWORD PTR pCondition$[rsp]
	lea	rdx, OFFSET FLAT:$SG84363
	lea	rcx, QWORD PTR szInfo$84362[rsp]
	call	QWORD PTR __imp_wsprintfW
; Line 680
	mov	r9d, 69651				; 00011013H
	lea	r8, OFFSET FLAT:$SG84365
	lea	rdx, QWORD PTR szInfo$84362[rsp]
	xor	ecx, ecx
	call	?MessageBoxOtherThread@@YAHPEAUHWND__@@PEA_W1K@Z ; MessageBoxOtherThread
	mov	DWORD PTR MsgId$84364[rsp], eax
; Line 681
	mov	eax, DWORD PTR MsgId$84364[rsp]
	mov	DWORD PTR tv79[rsp], eax
	cmp	DWORD PTR tv79[rsp], 2
	je	SHORT $LN2@DbgAssert@2
	cmp	DWORD PTR tv79[rsp], 7
	je	SHORT $LN3@DbgAssert@2
	jmp	SHORT $LN4@DbgAssert@2
$LN3@DbgAssert@2:
; Line 685
	lea	rdx, OFFSET FLAT:$SG84371
	xor	ecx, ecx
	call	QWORD PTR __imp_FatalAppExitW
; Line 686
	jmp	SHORT $LN4@DbgAssert@2
$LN2@DbgAssert@2:
; Line 690
	call	QWORD PTR __imp_DebugBreak
$LN4@DbgAssert@2:
$LN6@DbgAssert@2:
; Line 697
	mov	rcx, rsp
	lea	rdx, OFFSET FLAT:?DbgAssert@@YAXPEBD0H@Z$rtcFrameData
	call	_RTC_CheckStackVars
	mov	rcx, QWORD PTR __$ArrayPad$[rsp]
	xor	rcx, rsp
	call	__security_check_cookie
	add	rsp, 2144				; 00000860H
	pop	rdi
	ret	0
?DbgAssert@@YAXPEBD0H@Z ENDP				; DbgAssert
_TEXT	ENDS
PUBLIC	__$ArrayPad$
PUBLIC	?DbgBreakPoint@@YAXPEBD0H@Z			; DbgBreakPoint
;	COMDAT pdata
pdata	SEGMENT
$pdata$?DbgBreakPoint@@YAXPEBD0H@Z DD imagerel $LN10
	DD	imagerel $LN10+287
	DD	imagerel $unwind$?DbgBreakPoint@@YAXPEBD0H@Z
pdata	ENDS
;	COMDAT xdata
xdata	SEGMENT
$unwind$?DbgBreakPoint@@YAXPEBD0H@Z DD 034019H
	DD	010c0117H
	DD	07010H
	DD	imagerel __GSHandlerCheck
	DD	0858H
xdata	ENDS
;	COMDAT CONST
CONST	SEGMENT
?DbgBreakPoint@@YAXPEBD0H@Z$rtcName$0 DB 073H		; DbgBreakPoint
	DB	07aH
	DB	049H
	DB	06eH
	DB	066H
	DB	06fH
	DB	00H
	ORG $+9
?DbgBreakPoint@@YAXPEBD0H@Z$rtcVarDesc DD 040H		; DbgBreakPoint
	DD	0800H
	DQ	FLAT:?DbgBreakPoint@@YAXPEBD0H@Z$rtcName$0
	ORG $+48
?DbgBreakPoint@@YAXPEBD0H@Z$rtcFrameData DD 01H		; DbgBreakPoint
	DD	00H
	DQ	FLAT:?DbgBreakPoint@@YAXPEBD0H@Z$rtcVarDesc
; Function compile flags: /Odtp /RTCsu
CONST	ENDS
;	COMDAT ?DbgBreakPoint@@YAXPEBD0H@Z
_TEXT	SEGMENT
szInfo$84381 = 64
MsgId$84383 = 2116
tv79 = 2128
__$ArrayPad$ = 2136
pCondition$ = 2160
pFileName$ = 2168
iLine$ = 2176
?DbgBreakPoint@@YAXPEBD0H@Z PROC			; DbgBreakPoint, COMDAT
; Line 702
$LN10:
	mov	DWORD PTR [rsp+24], r8d
	mov	QWORD PTR [rsp+16], rdx
	mov	QWORD PTR [rsp+8], rcx
	push	rdi
	sub	rsp, 2144				; 00000860H
	mov	rdi, rsp
	mov	ecx, 536				; 00000218H
	mov	eax, -858993460				; ccccccccH
	rep stosd
	mov	rcx, QWORD PTR [rsp+2160]
	mov	rax, QWORD PTR __security_cookie
	xor	rax, rsp
	mov	QWORD PTR __$ArrayPad$[rsp], rax
; Line 703
	movzx	eax, BYTE PTR ?g_fUseKASSERT@@3_NA	; g_fUseKASSERT
	test	eax, eax
	je	SHORT $LN7@DbgBreakPo@3
; Line 705
	mov	r8d, DWORD PTR iLine$[rsp]
	mov	rdx, QWORD PTR pFileName$[rsp]
	mov	rcx, QWORD PTR pCondition$[rsp]
	call	?DbgKernelAssert@@YAXPEBD0H@Z		; DbgKernelAssert
; Line 707
	jmp	$LN6@DbgBreakPo@3
$LN7@DbgBreakPo@3:
; Line 712
	mov	rax, QWORD PTR pFileName$[rsp]
	mov	QWORD PTR [rsp+32], rax
	mov	r9d, DWORD PTR iLine$[rsp]
	mov	r8, QWORD PTR pCondition$[rsp]
	lea	rdx, OFFSET FLAT:$SG84382
	lea	rcx, QWORD PTR szInfo$84381[rsp]
	call	QWORD PTR __imp_wsprintfW
; Line 718
	mov	r9d, 69651				; 00011013H
	lea	r8, OFFSET FLAT:$SG84384
	lea	rdx, QWORD PTR szInfo$84381[rsp]
	xor	ecx, ecx
	call	?MessageBoxOtherThread@@YAHPEAUHWND__@@PEA_W1K@Z ; MessageBoxOtherThread
	mov	DWORD PTR MsgId$84383[rsp], eax
; Line 719
	mov	eax, DWORD PTR MsgId$84383[rsp]
	mov	DWORD PTR tv79[rsp], eax
	cmp	DWORD PTR tv79[rsp], 2
	je	SHORT $LN2@DbgBreakPo@3
	cmp	DWORD PTR tv79[rsp], 7
	je	SHORT $LN3@DbgBreakPo@3
	jmp	SHORT $LN4@DbgBreakPo@3
$LN3@DbgBreakPo@3:
; Line 723
	lea	rdx, OFFSET FLAT:$SG84390
	xor	ecx, ecx
	call	QWORD PTR __imp_FatalAppExitW
; Line 724
	jmp	SHORT $LN4@DbgBreakPo@3
$LN2@DbgBreakPo@3:
; Line 728
	call	QWORD PTR __imp_DebugBreak
$LN4@DbgBreakPo@3:
$LN6@DbgBreakPo@3:
; Line 735
	mov	rcx, rsp
	lea	rdx, OFFSET FLAT:?DbgBreakPoint@@YAXPEBD0H@Z$rtcFrameData
	call	_RTC_CheckStackVars
	mov	rcx, QWORD PTR __$ArrayPad$[rsp]
	xor	rcx, rsp
	call	__security_check_cookie
	add	rsp, 2144				; 00000860H
	pop	rdi
	ret	0
?DbgBreakPoint@@YAXPEBD0H@Z ENDP			; DbgBreakPoint
_TEXT	ENDS
;	COMDAT pdata
pdata	SEGMENT
$pdata$?DbgKernelAssert@@YAXPEBD0H@Z DD imagerel $LN3
	DD	imagerel $LN3+94
	DD	imagerel $unwind$?DbgKernelAssert@@YAXPEBD0H@Z
pdata	ENDS
;	COMDAT xdata
xdata	SEGMENT
$unwind$?DbgKernelAssert@@YAXPEBD0H@Z DD 022801H
	DD	070105214H
; Function compile flags: /Odtp /RTCsu
xdata	ENDS
;	COMDAT ?DbgKernelAssert@@YAXPEBD0H@Z
_TEXT	SEGMENT
pCondition$ = 64
pFileName$ = 72
iLine$ = 80
?DbgKernelAssert@@YAXPEBD0H@Z PROC			; DbgKernelAssert, COMDAT
; Line 738
$LN3:
	mov	DWORD PTR [rsp+24], r8d
	mov	QWORD PTR [rsp+16], rdx
	mov	QWORD PTR [rsp+8], rcx
	push	rdi
	sub	rsp, 48					; 00000030H
	mov	rdi, rsp
	mov	ecx, 12
	mov	eax, -858993460				; ccccccccH
	rep stosd
	mov	rcx, QWORD PTR [rsp+64]
; Line 740
	mov	rax, QWORD PTR pFileName$[rsp]
	mov	QWORD PTR [rsp+40], rax
	mov	eax, DWORD PTR iLine$[rsp]
	mov	DWORD PTR [rsp+32], eax
	mov	r9, QWORD PTR pCondition$[rsp]
	lea	r8, OFFSET FLAT:$SG84398
	xor	edx, edx
	mov	ecx, 16
	call	?DbgLogInfo@@YAXKKPEB_WZZ		; DbgLogInfo
; Line 741
	call	QWORD PTR __imp_DebugBreak
; Line 742
	add	rsp, 48					; 00000030H
	pop	rdi
	ret	0
?DbgKernelAssert@@YAXPEBD0H@Z ENDP			; DbgKernelAssert
_TEXT	ENDS
PUBLIC	?vswprintf@@YAHPEA_WPEB_WPEAD@Z			; vswprintf
PUBLIC	__$ArrayPad$
EXTRN	__imp_lstrcatW:PROC
;	COMDAT pdata
pdata	SEGMENT
$pdata$?DbgLogInfo@@YAXKKPEB_WZZ DD imagerel $LN4
	DD	imagerel $LN4+349
	DD	imagerel $unwind$?DbgLogInfo@@YAXKKPEB_WZZ
pdata	ENDS
;	COMDAT xdata
xdata	SEGMENT
$unwind$?DbgLogInfo@@YAXKKPEB_WZZ DD 034819H
	DD	02040120H
	DD	07013H
	DD	imagerel __GSHandlerCheck
	DD	01018H
xdata	ENDS
;	COMDAT CONST
CONST	SEGMENT
?DbgLogInfo@@YAXKKPEB_WZZ$rtcName$0 DB 073H		; DbgLogInfo
	DB	07aH
	DB	049H
	DB	06eH
	DB	066H
	DB	06fH
	DB	00H
	ORG $+1
?DbgLogInfo@@YAXKKPEB_WZZ$rtcName$1 DB 076H		; DbgLogInfo
	DB	061H
	DB	00H
	ORG $+5
?DbgLogInfo@@YAXKKPEB_WZZ$rtcVarDesc DD 0ff8H		; DbgLogInfo
	DD	08H
	DQ	FLAT:?DbgLogInfo@@YAXKKPEB_WZZ$rtcName$1
	DD	040H
	DD	0fa0H
	DQ	FLAT:?DbgLogInfo@@YAXKKPEB_WZZ$rtcName$0
	ORG $+96
?DbgLogInfo@@YAXKKPEB_WZZ$rtcFrameData DD 02H		; DbgLogInfo
	DD	00H
	DQ	FLAT:?DbgLogInfo@@YAXKKPEB_WZZ$rtcVarDesc
; Function compile flags: /Odtp /RTCsu
CONST	ENDS
;	COMDAT ?DbgLogInfo@@YAXKKPEB_WZZ
_TEXT	SEGMENT
bAccept$ = 32
szInfo$ = 64
va$ = 4088
tv75 = 4112
tv77 = 4116
__$ArrayPad$ = 4120
Type$ = 4144
Level$ = 4152
pFormat$ = 4160
?DbgLogInfo@@YAXKKPEB_WZZ PROC				; DbgLogInfo, COMDAT
; Line 756
$LN4:
	mov	QWORD PTR [rsp+24], r8
	mov	DWORD PTR [rsp+16], edx
	mov	DWORD PTR [rsp+8], ecx
	mov	QWORD PTR [rsp+32], r9
	push	rdi
	mov	eax, 4128				; 00001020H
	call	__chkstk
	sub	rsp, rax
	mov	rdi, rsp
	mov	ecx, 1032				; 00000408H
	mov	eax, -858993460				; ccccccccH
	rep stosd
	mov	ecx, DWORD PTR [rsp+4144]
	mov	rax, QWORD PTR __security_cookie
	xor	rax, rsp
	mov	QWORD PTR __$ArrayPad$[rsp], rax
; Line 760
	mov	edx, DWORD PTR Level$[rsp]
	mov	ecx, DWORD PTR Type$[rsp]
	call	?DbgCheckModuleLevel@@YAHKK@Z		; DbgCheckModuleLevel
	mov	DWORD PTR bAccept$[rsp], eax
; Line 761
	cmp	DWORD PTR bAccept$[rsp], 0
	jne	SHORT $LN1@DbgLogInfo@2
; Line 762
	jmp	$LN2@DbgLogInfo@2
$LN1@DbgLogInfo@2:
; Line 770
	lea	rax, QWORD PTR pFormat$[rsp+8]
	mov	QWORD PTR va$[rsp], rax
; Line 772
	lea	rdx, OFFSET FLAT:?m_ModuleName@@3PA_WA	; m_ModuleName
	lea	rcx, QWORD PTR szInfo$[rsp]
	call	QWORD PTR __imp_lstrcpyW
; Line 775
	call	QWORD PTR __imp_timeGetTime
	sub	eax, DWORD PTR ?dwTimeOffset@@3KA	; dwTimeOffset
	mov	DWORD PTR tv75[rsp], eax
	call	QWORD PTR __imp_GetCurrentThreadId
	mov	DWORD PTR tv77[rsp], eax
	lea	rcx, QWORD PTR szInfo$[rsp]
	call	QWORD PTR __imp_lstrlenW
	cdqe
	lea	rax, QWORD PTR szInfo$[rsp+rax*2]
	mov	ecx, DWORD PTR tv75[rsp]
	mov	r9d, ecx
	mov	ecx, DWORD PTR tv77[rsp]
	mov	r8d, ecx
	lea	rdx, OFFSET FLAT:$SG84408
	mov	rcx, rax
	call	QWORD PTR __imp_wsprintfW
; Line 777
	lea	rcx, QWORD PTR szInfo$[rsp]
	call	QWORD PTR __imp_lstrlenW
	cdqe
	lea	rax, QWORD PTR szInfo$[rsp+rax*2]
	mov	r8, QWORD PTR va$[rsp]
	mov	rdx, QWORD PTR pFormat$[rsp]
	mov	rcx, rax
	call	?vswprintf@@YAHPEA_WPEB_WPEAD@Z		; vswprintf
; Line 778
	lea	rdx, OFFSET FLAT:$SG84409
	lea	rcx, QWORD PTR szInfo$[rsp]
	call	QWORD PTR __imp_lstrcatW
; Line 779
	lea	rcx, QWORD PTR szInfo$[rsp]
	call	?DbgOutString@@YAXPEB_W@Z		; DbgOutString
; Line 781
	mov	QWORD PTR va$[rsp], 0
$LN2@DbgLogInfo@2:
; Line 782
	mov	rcx, rsp
	lea	rdx, OFFSET FLAT:?DbgLogInfo@@YAXKKPEB_WZZ$rtcFrameData
	call	_RTC_CheckStackVars
	mov	rcx, QWORD PTR __$ArrayPad$[rsp]
	xor	rcx, rsp
	call	__security_check_cookie
	add	rsp, 4128				; 00001020H
	pop	rdi
	ret	0
?DbgLogInfo@@YAXKKPEB_WZZ ENDP				; DbgLogInfo
_TEXT	ENDS
EXTRN	_vswprintf:PROC
;	COMDAT pdata
; File c:\program files (x86)\microsoft visual studio 10.0\vc\include\swprintf.inl
pdata	SEGMENT
$pdata$?vswprintf@@YAHPEA_WPEB_WPEAD@Z DD imagerel $LN3
	DD	imagerel $LN3+66
	DD	imagerel $unwind$?vswprintf@@YAHPEA_WPEB_WPEAD@Z
pdata	ENDS
;	COMDAT xdata
xdata	SEGMENT
$unwind$?vswprintf@@YAHPEA_WPEB_WPEAD@Z DD 022801H
	DD	070103214H
; Function compile flags: /Odtp /RTCsu
xdata	ENDS
;	COMDAT ?vswprintf@@YAHPEA_WPEB_WPEAD@Z
_TEXT	SEGMENT
_String$ = 48
_Format$ = 56
_Ap$ = 64
?vswprintf@@YAHPEA_WPEB_WPEAD@Z PROC			; vswprintf, COMDAT
; Line 98
$LN3:
	mov	QWORD PTR [rsp+24], r8
	mov	QWORD PTR [rsp+16], rdx
	mov	QWORD PTR [rsp+8], rcx
	push	rdi
	sub	rsp, 32					; 00000020H
	mov	rdi, rsp
	mov	ecx, 8
	mov	eax, -858993460				; ccccccccH
	rep stosd
	mov	rcx, QWORD PTR [rsp+48]
; Line 99
	mov	r8, QWORD PTR _Ap$[rsp]
	mov	rdx, QWORD PTR _Format$[rsp]
	mov	rcx, QWORD PTR _String$[rsp]
	call	_vswprintf
; Line 100
	add	rsp, 32					; 00000020H
	pop	rdi
	ret	0
?vswprintf@@YAHPEA_WPEB_WPEAD@Z ENDP			; vswprintf
_TEXT	ENDS
;	COMDAT pdata
; File c:\downloads\wpf mediakit - copy\src\filters\baseclasses\wxdebug.cpp
pdata	SEGMENT
$pdata$?DbgKernelAssert@@YAXPEB_W0H@Z DD imagerel $LN3
	DD	imagerel $LN3+94
	DD	imagerel $unwind$?DbgKernelAssert@@YAXPEB_W0H@Z
pdata	ENDS
;	COMDAT xdata
xdata	SEGMENT
$unwind$?DbgKernelAssert@@YAXPEB_W0H@Z DD 022801H
	DD	070105214H
; Function compile flags: /Odtp /RTCsu
xdata	ENDS
;	COMDAT ?DbgKernelAssert@@YAXPEB_W0H@Z
_TEXT	SEGMENT
pCondition$ = 64
pFileName$ = 72
iLine$ = 80
?DbgKernelAssert@@YAXPEB_W0H@Z PROC			; DbgKernelAssert, COMDAT
; Line 790
$LN3:
	mov	DWORD PTR [rsp+24], r8d
	mov	QWORD PTR [rsp+16], rdx
	mov	QWORD PTR [rsp+8], rcx
	push	rdi
	sub	rsp, 48					; 00000030H
	mov	rdi, rsp
	mov	ecx, 12
	mov	eax, -858993460				; ccccccccH
	rep stosd
	mov	rcx, QWORD PTR [rsp+64]
; Line 792
	mov	rax, QWORD PTR pFileName$[rsp]
	mov	QWORD PTR [rsp+40], rax
	mov	eax, DWORD PTR iLine$[rsp]
	mov	DWORD PTR [rsp+32], eax
	mov	r9, QWORD PTR pCondition$[rsp]
	lea	r8, OFFSET FLAT:$SG84416
	xor	edx, edx
	mov	ecx, 16
	call	?DbgLogInfo@@YAXKKPEB_WZZ		; DbgLogInfo
; Line 793
	call	QWORD PTR __imp_DebugBreak
; Line 794
	add	rsp, 48					; 00000030H
	pop	rdi
	ret	0
?DbgKernelAssert@@YAXPEB_W0H@Z ENDP			; DbgKernelAssert
_TEXT	ENDS
PUBLIC	?DbgRegisterObjectCreation@@YAKPEBDPEB_W@Z	; DbgRegisterObjectCreation
EXTRN	__imp_LeaveCriticalSection:PROC
EXTRN	__imp_EnterCriticalSection:PROC
EXTRN	__imp_GetModuleHandleW:PROC
EXTRN	??2@YAPEAX_K@Z:PROC				; operator new
;	COMDAT pdata
pdata	SEGMENT
$pdata$?DbgRegisterObjectCreation@@YAKPEBDPEB_W@Z DD imagerel $LN15
	DD	imagerel $LN15+543
	DD	imagerel $unwind$?DbgRegisterObjectCreation@@YAKPEBDPEB_W@Z
pdata	ENDS
;	COMDAT xdata
xdata	SEGMENT
$unwind$?DbgRegisterObjectCreation@@YAKPEBDPEB_W@Z DD 022301H
	DD	0700b920fH
; Function compile flags: /Odtp /RTCsu
xdata	ENDS
;	COMDAT ?DbgRegisterObjectCreation@@YAKPEBDPEB_W@Z
_TEXT	SEGMENT
pObject$ = 48
ObjectCookie$ = 56
$T86030 = 64
tv65 = 72
tv67 = 76
szObjectName$ = 96
wszObjectName$ = 104
?DbgRegisterObjectCreation@@YAKPEBDPEB_W@Z PROC		; DbgRegisterObjectCreation, COMDAT
; Line 806
$LN15:
	mov	QWORD PTR [rsp+16], rdx
	mov	QWORD PTR [rsp+8], rcx
	push	rdi
	sub	rsp, 80					; 00000050H
	mov	rdi, rsp
	mov	ecx, 20
	mov	eax, -858993460				; ccccccccH
	rep stosd
	mov	rcx, QWORD PTR [rsp+96]
; Line 809
	cmp	QWORD PTR szObjectName$[rsp], 0
	je	SHORT $LN11@DbgRegiste
	mov	DWORD PTR tv65[rsp], 1
	jmp	SHORT $LN12@DbgRegiste
$LN11@DbgRegiste:
	mov	DWORD PTR tv65[rsp], 0
$LN12@DbgRegiste:
	cmp	QWORD PTR wszObjectName$[rsp], 0
	je	SHORT $LN13@DbgRegiste
	mov	DWORD PTR tv67[rsp], 1
	jmp	SHORT $LN14@DbgRegiste
$LN13@DbgRegiste:
	mov	DWORD PTR tv67[rsp], 0
$LN14@DbgRegiste:
	mov	eax, DWORD PTR tv67[rsp]
	mov	ecx, DWORD PTR tv65[rsp]
	xor	ecx, eax
	mov	eax, ecx
	test	eax, eax
	jne	SHORT $LN8@DbgRegiste
	mov	r8d, 809				; 00000329H
	lea	rdx, OFFSET FLAT:$SG84422
	lea	rcx, OFFSET FLAT:$SG84423
	call	?DbgAssert@@YAXPEB_W0H@Z		; DbgAssert
$LN8@DbgRegiste:
; Line 813
	mov	ecx, 32					; 00000020H
	call	??2@YAPEAX_K@Z				; operator new
	mov	QWORD PTR $T86030[rsp], rax
	mov	rax, QWORD PTR $T86030[rsp]
	mov	QWORD PTR pObject$[rsp], rax
; Line 814
	cmp	QWORD PTR pObject$[rsp], 0
	jne	SHORT $LN7@DbgRegiste
	mov	r8d, 814				; 0000032eH
	lea	rdx, OFFSET FLAT:$SG84428
	lea	rcx, OFFSET FLAT:$SG84429
	call	?DbgAssert@@YAXPEB_W0H@Z		; DbgAssert
$LN7@DbgRegiste:
; Line 817
	cmp	QWORD PTR pObject$[rsp], 0
	jne	SHORT $LN6@DbgRegiste
; Line 818
	xor	eax, eax
	jmp	$LN9@DbgRegiste
$LN6@DbgRegiste:
; Line 825
	cmp	DWORD PTR ?m_bInit@@3HA, 0		; m_bInit
	jne	SHORT $LN5@DbgRegiste
; Line 826
	xor	ecx, ecx
	call	QWORD PTR __imp_GetModuleHandleW
	mov	rcx, rax
	call	?DbgInitialise@@YAXPEAUHINSTANCE__@@@Z	; DbgInitialise
$LN5@DbgRegiste:
; Line 830
	lea	rcx, OFFSET FLAT:?m_CSDebug@@3U_RTL_CRITICAL_SECTION@@A ; m_CSDebug
	call	QWORD PTR __imp_EnterCriticalSection
; Line 833
	cmp	QWORD PTR szObjectName$[rsp], 0
	jne	SHORT $LN4@DbgRegiste
	cmp	QWORD PTR wszObjectName$[rsp], 0
	jne	SHORT $LN4@DbgRegiste
; Line 834
	mov	rax, QWORD PTR pUnknownName
	mov	QWORD PTR szObjectName$[rsp], rax
$LN4@DbgRegiste:
; Line 839
	mov	rax, QWORD PTR pObject$[rsp]
	mov	rcx, QWORD PTR szObjectName$[rsp]
	mov	QWORD PTR [rax], rcx
; Line 840
	mov	rax, QWORD PTR pObject$[rsp]
	mov	rcx, QWORD PTR wszObjectName$[rsp]
	mov	QWORD PTR [rax+8], rcx
; Line 841
	mov	eax, DWORD PTR ?m_dwNextCookie@@3KA	; m_dwNextCookie
	inc	eax
	mov	DWORD PTR ?m_dwNextCookie@@3KA, eax	; m_dwNextCookie
	mov	rax, QWORD PTR pObject$[rsp]
	mov	ecx, DWORD PTR ?m_dwNextCookie@@3KA	; m_dwNextCookie
	mov	DWORD PTR [rax+16], ecx
; Line 842
	mov	rax, QWORD PTR pObject$[rsp]
	mov	rcx, QWORD PTR ?pListHead@@3PEAUtag_ObjectDesc@@EA ; pListHead
	mov	QWORD PTR [rax+24], rcx
; Line 844
	mov	rax, QWORD PTR pObject$[rsp]
	mov	QWORD PTR ?pListHead@@3PEAUtag_ObjectDesc@@EA, rax ; pListHead
; Line 845
	mov	eax, DWORD PTR ?m_dwObjectCount@@3KA	; m_dwObjectCount
	inc	eax
	mov	DWORD PTR ?m_dwObjectCount@@3KA, eax	; m_dwObjectCount
; Line 847
	mov	rax, QWORD PTR pObject$[rsp]
	mov	eax, DWORD PTR [rax+16]
	mov	DWORD PTR ObjectCookie$[rsp], eax
; Line 848
	cmp	DWORD PTR ObjectCookie$[rsp], 0
	jne	SHORT $LN3@DbgRegiste
	mov	r8d, 848				; 00000350H
	lea	rdx, OFFSET FLAT:$SG84435
	lea	rcx, OFFSET FLAT:$SG84436
	call	?DbgAssert@@YAXPEB_W0H@Z		; DbgAssert
$LN3@DbgRegiste:
; Line 850
	cmp	QWORD PTR wszObjectName$[rsp], 0
	je	SHORT $LN2@DbgRegiste
; Line 852
	mov	eax, DWORD PTR ?m_dwObjectCount@@3KA	; m_dwObjectCount
	mov	DWORD PTR [rsp+40], eax
	mov	rax, QWORD PTR wszObjectName$[rsp]
	mov	QWORD PTR [rsp+32], rax
	mov	rax, QWORD PTR pObject$[rsp]
	mov	r9d, DWORD PTR [rax+16]
	lea	r8, OFFSET FLAT:$SG84438
	mov	edx, 2
	mov	ecx, 4
	call	?DbgLogInfo@@YAXKKPEB_WZZ		; DbgLogInfo
; Line 853
	jmp	SHORT $LN1@DbgRegiste
$LN2@DbgRegiste:
; Line 855
	mov	eax, DWORD PTR ?m_dwObjectCount@@3KA	; m_dwObjectCount
	mov	DWORD PTR [rsp+40], eax
	mov	rax, QWORD PTR szObjectName$[rsp]
	mov	QWORD PTR [rsp+32], rax
	mov	rax, QWORD PTR pObject$[rsp]
	mov	r9d, DWORD PTR [rax+16]
	lea	r8, OFFSET FLAT:$SG84440
	mov	edx, 2
	mov	ecx, 4
	call	?DbgLogInfo@@YAXKKPEB_WZZ		; DbgLogInfo
$LN1@DbgRegiste:
; Line 858
	lea	rcx, OFFSET FLAT:?m_CSDebug@@3U_RTL_CRITICAL_SECTION@@A ; m_CSDebug
	call	QWORD PTR __imp_LeaveCriticalSection
; Line 859
	mov	eax, DWORD PTR ObjectCookie$[rsp]
$LN9@DbgRegiste:
; Line 860
	add	rsp, 80					; 00000050H
	pop	rdi
	ret	0
?DbgRegisterObjectCreation@@YAKPEBDPEB_W@Z ENDP		; DbgRegisterObjectCreation
_TEXT	ENDS
PUBLIC	?DbgRegisterObjectDestruction@@YAHK@Z		; DbgRegisterObjectDestruction
EXTRN	??3@YAXPEAX@Z:PROC				; operator delete
;	COMDAT pdata
pdata	SEGMENT
$pdata$?DbgRegisterObjectDestruction@@YAHK@Z DD imagerel $LN11
	DD	imagerel $LN11+390
	DD	imagerel $unwind$?DbgRegisterObjectDestruction@@YAHK@Z
pdata	ENDS
;	COMDAT xdata
xdata	SEGMENT
$unwind$?DbgRegisterObjectDestruction@@YAHK@Z DD 021c01H
	DD	070059209H
; Function compile flags: /Odtp /RTCsu
xdata	ENDS
;	COMDAT ?DbgRegisterObjectDestruction@@YAHK@Z
_TEXT	SEGMENT
pObject$ = 48
pPrevious$ = 56
$T86038 = 64
dwCookie$ = 96
?DbgRegisterObjectDestruction@@YAHK@Z PROC		; DbgRegisterObjectDestruction, COMDAT
; Line 869
$LN11:
	mov	DWORD PTR [rsp+8], ecx
	push	rdi
	sub	rsp, 80					; 00000050H
	mov	rdi, rsp
	mov	ecx, 20
	mov	eax, -858993460				; ccccccccH
	rep stosd
	mov	ecx, DWORD PTR [rsp+96]
; Line 871
	lea	rcx, OFFSET FLAT:?m_CSDebug@@3U_RTL_CRITICAL_SECTION@@A ; m_CSDebug
	call	QWORD PTR __imp_EnterCriticalSection
; Line 873
	mov	rax, QWORD PTR ?pListHead@@3PEAUtag_ObjectDesc@@EA ; pListHead
	mov	QWORD PTR pObject$[rsp], rax
; Line 874
	mov	QWORD PTR pPrevious$[rsp], 0
$LN8@DbgRegiste@2:
; Line 878
	cmp	QWORD PTR pObject$[rsp], 0
	je	SHORT $LN7@DbgRegiste@2
; Line 879
	mov	rax, QWORD PTR pObject$[rsp]
	mov	ecx, DWORD PTR dwCookie$[rsp]
	cmp	DWORD PTR [rax+16], ecx
	jne	SHORT $LN6@DbgRegiste@2
; Line 880
	jmp	SHORT $LN7@DbgRegiste@2
$LN6@DbgRegiste@2:
; Line 882
	mov	rax, QWORD PTR pObject$[rsp]
	mov	QWORD PTR pPrevious$[rsp], rax
; Line 883
	mov	rax, QWORD PTR pObject$[rsp]
	mov	rax, QWORD PTR [rax+24]
	mov	QWORD PTR pObject$[rsp], rax
; Line 884
	jmp	SHORT $LN8@DbgRegiste@2
$LN7@DbgRegiste@2:
; Line 886
	cmp	QWORD PTR pObject$[rsp], 0
	jne	SHORT $LN5@DbgRegiste@2
; Line 887
	mov	r8d, 887				; 00000377H
	lea	rdx, OFFSET FLAT:$SG84451
	lea	rcx, OFFSET FLAT:$SG84452
	call	?DbgBreakPoint@@YAXPEB_W0H@Z		; DbgBreakPoint
; Line 888
	lea	rcx, OFFSET FLAT:?m_CSDebug@@3U_RTL_CRITICAL_SECTION@@A ; m_CSDebug
	call	QWORD PTR __imp_LeaveCriticalSection
; Line 889
	xor	eax, eax
	jmp	$LN9@DbgRegiste@2
$LN5@DbgRegiste@2:
; Line 894
	cmp	QWORD PTR pPrevious$[rsp], 0
	jne	SHORT $LN4@DbgRegiste@2
; Line 895
	mov	rax, QWORD PTR pObject$[rsp]
	mov	rax, QWORD PTR [rax+24]
	mov	QWORD PTR ?pListHead@@3PEAUtag_ObjectDesc@@EA, rax ; pListHead
; Line 896
	jmp	SHORT $LN3@DbgRegiste@2
$LN4@DbgRegiste@2:
; Line 897
	mov	rax, QWORD PTR pPrevious$[rsp]
	mov	rcx, QWORD PTR pObject$[rsp]
	mov	rcx, QWORD PTR [rcx+24]
	mov	QWORD PTR [rax+24], rcx
$LN3@DbgRegiste@2:
; Line 902
	mov	eax, DWORD PTR ?m_dwObjectCount@@3KA	; m_dwObjectCount
	dec	eax
	mov	DWORD PTR ?m_dwObjectCount@@3KA, eax	; m_dwObjectCount
; Line 904
	mov	rax, QWORD PTR pObject$[rsp]
	cmp	QWORD PTR [rax+8], 0
	je	SHORT $LN2@DbgRegiste@2
; Line 906
	mov	eax, DWORD PTR ?m_dwObjectCount@@3KA	; m_dwObjectCount
	mov	DWORD PTR [rsp+40], eax
	mov	rax, QWORD PTR pObject$[rsp]
	mov	rax, QWORD PTR [rax+8]
	mov	QWORD PTR [rsp+32], rax
	mov	rax, QWORD PTR pObject$[rsp]
	mov	r9d, DWORD PTR [rax+16]
	lea	r8, OFFSET FLAT:$SG84456
	mov	edx, 2
	mov	ecx, 4
	call	?DbgLogInfo@@YAXKKPEB_WZZ		; DbgLogInfo
; Line 907
	jmp	SHORT $LN1@DbgRegiste@2
$LN2@DbgRegiste@2:
; Line 909
	mov	eax, DWORD PTR ?m_dwObjectCount@@3KA	; m_dwObjectCount
	mov	DWORD PTR [rsp+40], eax
	mov	rax, QWORD PTR pObject$[rsp]
	mov	rax, QWORD PTR [rax]
	mov	QWORD PTR [rsp+32], rax
	mov	rax, QWORD PTR pObject$[rsp]
	mov	r9d, DWORD PTR [rax+16]
	lea	r8, OFFSET FLAT:$SG84458
	mov	edx, 2
	mov	ecx, 4
	call	?DbgLogInfo@@YAXKKPEB_WZZ		; DbgLogInfo
$LN1@DbgRegiste@2:
; Line 912
	mov	rax, QWORD PTR pObject$[rsp]
	mov	QWORD PTR $T86038[rsp], rax
	mov	rcx, QWORD PTR $T86038[rsp]
	call	??3@YAXPEAX@Z				; operator delete
; Line 913
	lea	rcx, OFFSET FLAT:?m_CSDebug@@3U_RTL_CRITICAL_SECTION@@A ; m_CSDebug
	call	QWORD PTR __imp_LeaveCriticalSection
; Line 914
	mov	eax, 1
$LN9@DbgRegiste@2:
; Line 915
	add	rsp, 80					; 00000050H
	pop	rdi
	ret	0
?DbgRegisterObjectDestruction@@YAHK@Z ENDP		; DbgRegisterObjectDestruction
_TEXT	ENDS
PUBLIC	__$ArrayPad$
PUBLIC	?DbgDumpObjectRegister@@YAXXZ			; DbgDumpObjectRegister
;	COMDAT pdata
pdata	SEGMENT
$pdata$?DbgDumpObjectRegister@@YAXXZ DD imagerel $LN7
	DD	imagerel $LN7+442
	DD	imagerel $unwind$?DbgDumpObjectRegister@@YAXXZ
pdata	ENDS
;	COMDAT xdata
xdata	SEGMENT
$unwind$?DbgDumpObjectRegister@@YAXXZ DD 032a19H
	DD	01100109H
	DD	07002H
	DD	imagerel __GSHandlerCheck
	DD	0870H
xdata	ENDS
;	COMDAT CONST
CONST	SEGMENT
?DbgDumpObjectRegister@@YAXXZ$rtcName$0 DB 073H		; DbgDumpObjectRegister
	DB	07aH
	DB	049H
	DB	06eH
	DB	066H
	DB	06fH
	DB	00H
	ORG $+1
?DbgDumpObjectRegister@@YAXXZ$rtcName$1 DB 070H		; DbgDumpObjectRegister
	DB	04fH
	DB	062H
	DB	06aH
	DB	065H
	DB	063H
	DB	074H
	DB	00H
?DbgDumpObjectRegister@@YAXXZ$rtcVarDesc DD 0858H	; DbgDumpObjectRegister
	DD	08H
	DQ	FLAT:?DbgDumpObjectRegister@@YAXXZ$rtcName$1
	DD	040H
	DD	0800H
	DQ	FLAT:?DbgDumpObjectRegister@@YAXXZ$rtcName$0
	ORG $+96
?DbgDumpObjectRegister@@YAXXZ$rtcFrameData DD 02H	; DbgDumpObjectRegister
	DD	00H
	DQ	FLAT:?DbgDumpObjectRegister@@YAXXZ$rtcVarDesc
; Function compile flags: /Odtp /RTCsu
CONST	ENDS
;	COMDAT ?DbgDumpObjectRegister@@YAXXZ
_TEXT	SEGMENT
szInfo$ = 64
pObject$ = 2136
__$ArrayPad$ = 2160
?DbgDumpObjectRegister@@YAXXZ PROC			; DbgDumpObjectRegister, COMDAT
; Line 921
$LN7:
	push	rdi
	sub	rsp, 2176				; 00000880H
	mov	rdi, rsp
	mov	ecx, 544				; 00000220H
	mov	eax, -858993460				; ccccccccH
	rep stosd
	mov	rax, QWORD PTR __security_cookie
	xor	rax, rsp
	mov	QWORD PTR __$ArrayPad$[rsp], rax
; Line 926
	lea	rcx, OFFSET FLAT:?m_CSDebug@@3U_RTL_CRITICAL_SECTION@@A ; m_CSDebug
	call	QWORD PTR __imp_EnterCriticalSection
; Line 927
	mov	rax, QWORD PTR ?pListHead@@3PEAUtag_ObjectDesc@@EA ; pListHead
	mov	QWORD PTR pObject$[rsp], rax
; Line 931
	lea	r8, OFFSET FLAT:$SG84464
	mov	edx, 2
	mov	ecx, 4
	call	?DbgLogInfo@@YAXKKPEB_WZZ		; DbgLogInfo
; Line 932
	lea	r8, OFFSET FLAT:$SG84465
	mov	edx, 2
	mov	ecx, 4
	call	?DbgLogInfo@@YAXKKPEB_WZZ		; DbgLogInfo
; Line 933
	lea	r8, OFFSET FLAT:$SG84466
	mov	edx, 2
	mov	ecx, 4
	call	?DbgLogInfo@@YAXKKPEB_WZZ		; DbgLogInfo
$LN4@DbgDumpObj:
; Line 935
	cmp	QWORD PTR pObject$[rsp], 0
	je	$LN3@DbgDumpObj
; Line 936
	mov	rax, QWORD PTR pObject$[rsp]
	cmp	QWORD PTR [rax+8], 0
	je	SHORT $LN2@DbgDumpObj
; Line 937
	mov	rax, QWORD PTR pObject$[rsp]
	mov	rax, QWORD PTR [rax+8]
	mov	QWORD PTR [rsp+32], rax
	lea	r9, QWORD PTR pObject$[rsp]
	mov	rax, QWORD PTR pObject$[rsp]
	mov	r8d, DWORD PTR [rax+16]
	lea	rdx, OFFSET FLAT:$SG84471
	lea	rcx, QWORD PTR szInfo$[rsp]
	call	QWORD PTR __imp_wsprintfW
; Line 938
	jmp	SHORT $LN1@DbgDumpObj
$LN2@DbgDumpObj:
; Line 939
	mov	rax, QWORD PTR pObject$[rsp]
	mov	rax, QWORD PTR [rax]
	mov	QWORD PTR [rsp+32], rax
	lea	r9, QWORD PTR pObject$[rsp]
	mov	rax, QWORD PTR pObject$[rsp]
	mov	r8d, DWORD PTR [rax+16]
	lea	rdx, OFFSET FLAT:$SG84473
	lea	rcx, QWORD PTR szInfo$[rsp]
	call	QWORD PTR __imp_wsprintfW
$LN1@DbgDumpObj:
; Line 941
	lea	r8, QWORD PTR szInfo$[rsp]
	mov	edx, 2
	mov	ecx, 4
	call	?DbgLogInfo@@YAXKKPEB_WZZ		; DbgLogInfo
; Line 942
	mov	rax, QWORD PTR pObject$[rsp]
	mov	rax, QWORD PTR [rax+24]
	mov	QWORD PTR pObject$[rsp], rax
; Line 943
	jmp	$LN4@DbgDumpObj
$LN3@DbgDumpObj:
; Line 945
	mov	r8d, DWORD PTR ?m_dwObjectCount@@3KA	; m_dwObjectCount
	lea	rdx, OFFSET FLAT:$SG84474
	lea	rcx, QWORD PTR szInfo$[rsp]
	call	QWORD PTR __imp_wsprintfW
; Line 946
	lea	r8, OFFSET FLAT:$SG84475
	mov	edx, 2
	mov	ecx, 4
	call	?DbgLogInfo@@YAXKKPEB_WZZ		; DbgLogInfo
; Line 947
	lea	r8, QWORD PTR szInfo$[rsp]
	mov	edx, 1
	mov	ecx, 4
	call	?DbgLogInfo@@YAXKKPEB_WZZ		; DbgLogInfo
; Line 948
	lea	rcx, OFFSET FLAT:?m_CSDebug@@3U_RTL_CRITICAL_SECTION@@A ; m_CSDebug
	call	QWORD PTR __imp_LeaveCriticalSection
; Line 949
	mov	rcx, rsp
	lea	rdx, OFFSET FLAT:?DbgDumpObjectRegister@@YAXXZ$rtcFrameData
	call	_RTC_CheckStackVars
	mov	rcx, QWORD PTR __$ArrayPad$[rsp]
	xor	rcx, rsp
	call	__security_check_cookie
	add	rsp, 2176				; 00000880H
	pop	rdi
	ret	0
?DbgDumpObjectRegister@@YAXXZ ENDP			; DbgDumpObjectRegister
_TEXT	ENDS
PUBLIC	?DbgWaitForSingleObject@@YAKPEAX@Z		; DbgWaitForSingleObject
;	COMDAT pdata
pdata	SEGMENT
$pdata$?DbgWaitForSingleObject@@YAKPEAX@Z DD imagerel $LN7
	DD	imagerel $LN7+103
	DD	imagerel $unwind$?DbgWaitForSingleObject@@YAKPEAX@Z
pdata	ENDS
;	COMDAT xdata
xdata	SEGMENT
$unwind$?DbgWaitForSingleObject@@YAKPEAX@Z DD 021e01H
	DD	07006520aH
; Function compile flags: /Odtp /RTCsu
xdata	ENDS
;	COMDAT ?DbgWaitForSingleObject@@YAKPEAX@Z
_TEXT	SEGMENT
dwWaitResult$ = 32
h$ = 64
?DbgWaitForSingleObject@@YAKPEAX@Z PROC			; DbgWaitForSingleObject, COMDAT
; Line 953
$LN7:
	mov	QWORD PTR [rsp+8], rcx
	push	rdi
	sub	rsp, 48					; 00000030H
	mov	rdi, rsp
	mov	ecx, 12
	mov	eax, -858993460				; ccccccccH
	rep stosd
	mov	rcx, QWORD PTR [rsp+64]
$LN4@DbgWaitFor:
; Line 956
	mov	edx, DWORD PTR ?dwWaitTimeout@@3KA	; dwWaitTimeout
	mov	rcx, QWORD PTR h$[rsp]
	call	QWORD PTR __imp_WaitForSingleObject
	mov	DWORD PTR dwWaitResult$[rsp], eax
; Line 957
	cmp	DWORD PTR dwWaitResult$[rsp], 0
	je	SHORT $LN1@DbgWaitFor
	mov	r8d, 957				; 000003bdH
	lea	rdx, OFFSET FLAT:$SG84485
	lea	rcx, OFFSET FLAT:$SG84486
	call	?DbgAssert@@YAXPEB_W0H@Z		; DbgAssert
$LN1@DbgWaitFor:
; Line 958
	cmp	DWORD PTR dwWaitResult$[rsp], 258	; 00000102H
	je	SHORT $LN4@DbgWaitFor
; Line 959
	mov	eax, DWORD PTR dwWaitResult$[rsp]
; Line 960
	add	rsp, 48					; 00000030H
	pop	rdi
	ret	0
?DbgWaitForSingleObject@@YAKPEAX@Z ENDP			; DbgWaitForSingleObject
_TEXT	ENDS
PUBLIC	?DbgWaitForMultipleObjects@@YAKKPEBQEAXH@Z	; DbgWaitForMultipleObjects
EXTRN	__imp_WaitForMultipleObjects:PROC
;	COMDAT pdata
pdata	SEGMENT
$pdata$?DbgWaitForMultipleObjects@@YAKKPEBQEAXH@Z DD imagerel $LN7
	DD	imagerel $LN7+121
	DD	imagerel $unwind$?DbgWaitForMultipleObjects@@YAKKPEBQEAXH@Z
pdata	ENDS
;	COMDAT xdata
xdata	SEGMENT
$unwind$?DbgWaitForMultipleObjects@@YAKKPEBQEAXH@Z DD 022601H
	DD	0700f5213H
; Function compile flags: /Odtp /RTCsu
xdata	ENDS
;	COMDAT ?DbgWaitForMultipleObjects@@YAKKPEBQEAXH@Z
_TEXT	SEGMENT
dwWaitResult$ = 32
nCount$ = 64
lpHandles$ = 72
bWaitAll$ = 80
?DbgWaitForMultipleObjects@@YAKKPEBQEAXH@Z PROC		; DbgWaitForMultipleObjects, COMDAT
; Line 964
$LN7:
	mov	DWORD PTR [rsp+24], r8d
	mov	QWORD PTR [rsp+16], rdx
	mov	DWORD PTR [rsp+8], ecx
	push	rdi
	sub	rsp, 48					; 00000030H
	mov	rdi, rsp
	mov	ecx, 12
	mov	eax, -858993460				; ccccccccH
	rep stosd
	mov	ecx, DWORD PTR [rsp+64]
$LN4@DbgWaitFor@2:
; Line 970
	mov	r9d, DWORD PTR ?dwWaitTimeout@@3KA	; dwWaitTimeout
	mov	r8d, DWORD PTR bWaitAll$[rsp]
	mov	rdx, QWORD PTR lpHandles$[rsp]
	mov	ecx, DWORD PTR nCount$[rsp]
	call	QWORD PTR __imp_WaitForMultipleObjects
	mov	DWORD PTR dwWaitResult$[rsp], eax
; Line 971
	cmp	DWORD PTR dwWaitResult$[rsp], 64	; 00000040H
	jb	SHORT $LN1@DbgWaitFor@2
	mov	r8d, 971				; 000003cbH
	lea	rdx, OFFSET FLAT:$SG84499
	lea	rcx, OFFSET FLAT:$SG84500
	call	?DbgAssert@@YAXPEB_W0H@Z		; DbgAssert
$LN1@DbgWaitFor@2:
; Line 972
	cmp	DWORD PTR dwWaitResult$[rsp], 258	; 00000102H
	je	SHORT $LN4@DbgWaitFor@2
; Line 973
	mov	eax, DWORD PTR dwWaitResult$[rsp]
; Line 974
	add	rsp, 48					; 00000030H
	pop	rdi
	ret	0
?DbgWaitForMultipleObjects@@YAKKPEBQEAXH@Z ENDP		; DbgWaitForMultipleObjects
_TEXT	ENDS
PUBLIC	?DbgSetWaitTimeout@@YAXK@Z			; DbgSetWaitTimeout
;	COMDAT pdata
pdata	SEGMENT
$pdata$?DbgSetWaitTimeout@@YAXK@Z DD imagerel $LN3
	DD	imagerel $LN3+17
	DD	imagerel $unwind$?DbgSetWaitTimeout@@YAXK@Z
pdata	ENDS
;	COMDAT xdata
xdata	SEGMENT
$unwind$?DbgSetWaitTimeout@@YAXK@Z DD 010501H
	DD	07005H
; Function compile flags: /Odtp /RTCsu
xdata	ENDS
;	COMDAT ?DbgSetWaitTimeout@@YAXK@Z
_TEXT	SEGMENT
dwTimeout$ = 16
?DbgSetWaitTimeout@@YAXK@Z PROC				; DbgSetWaitTimeout, COMDAT
; Line 977
$LN3:
	mov	DWORD PTR [rsp+8], ecx
	push	rdi
; Line 978
	mov	eax, DWORD PTR dwTimeout$[rsp]
	mov	DWORD PTR ?dwWaitTimeout@@3KA, eax	; dwWaitTimeout
; Line 979
	pop	rdi
	ret	0
?DbgSetWaitTimeout@@YAXK@Z ENDP				; DbgSetWaitTimeout
_TEXT	ENDS
PUBLIC	==
PUBLIC	??ACGuidNameList@@QEAAPEADAEBU_GUID@@@Z		; CGuidNameList::operator[]
EXTRN	GUID_NULL:BYTE
;	COMDAT pdata
pdata	SEGMENT
$pdata$??ACGuidNameList@@QEAAPEADAEBU_GUID@@@Z DD imagerel $LN8
	DD	imagerel $LN8+172
	DD	imagerel $unwind$??ACGuidNameList@@QEAAPEADAEBU_GUID@@@Z
pdata	ENDS
;	COMDAT xdata
xdata	SEGMENT
$unwind$??ACGuidNameList@@QEAAPEADAEBU_GUID@@@Z DD 022301H
	DD	0700b520fH
; Function compile flags: /Odtp /RTCsu
xdata	ENDS
;	COMDAT ??ACGuidNameList@@QEAAPEADAEBU_GUID@@@Z
_TEXT	SEGMENT
i$84950 = 32
this$ = 64
guid$ = 72
??ACGuidNameList@@QEAAPEADAEBU_GUID@@@Z PROC		; CGuidNameList::operator[], COMDAT
; Line 997
$LN8:
	mov	QWORD PTR [rsp+16], rdx
	mov	QWORD PTR [rsp+8], rcx
	push	rdi
	sub	rsp, 48					; 00000030H
	mov	rdi, rsp
	mov	ecx, 12
	mov	eax, -858993460				; ccccccccH
	rep stosd
	mov	rcx, QWORD PTR [rsp+64]
; Line 998
	mov	DWORD PTR i$84950[rsp], 0
	jmp	SHORT $LN5@operator
$LN4@operator:
	mov	eax, DWORD PTR i$84950[rsp]
	inc	eax
	mov	DWORD PTR i$84950[rsp], eax
$LN5@operator:
	mov	eax, DWORD PTR ?g_cGuidNames@@3HA	; g_cGuidNames
	cmp	DWORD PTR i$84950[rsp], eax
	jge	SHORT $LN3@operator
; Line 999
	movsxd	rax, DWORD PTR i$84950[rsp]
	imul	rax, 24
	lea	rcx, OFFSET FLAT:?g_GuidNames@@3PAUGUID_STRING_ENTRY@@A ; g_GuidNames
	lea	rax, QWORD PTR [rcx+rax+8]
	mov	rdx, QWORD PTR guid$[rsp]
	mov	rcx, rax
	call	==
	test	eax, eax
	je	SHORT $LN2@operator
; Line 1000
	movsxd	rax, DWORD PTR i$84950[rsp]
	imul	rax, 24
	lea	rcx, OFFSET FLAT:?g_GuidNames@@3PAUGUID_STRING_ENTRY@@A ; g_GuidNames
	mov	rax, QWORD PTR [rcx+rax]
	jmp	SHORT $LN6@operator
$LN2@operator:
; Line 1002
	jmp	SHORT $LN4@operator
$LN3@operator:
; Line 1003
	lea	rdx, OFFSET FLAT:GUID_NULL
	mov	rcx, QWORD PTR guid$[rsp]
	call	==
	test	eax, eax
	je	SHORT $LN1@operator
; Line 1004
	lea	rax, OFFSET FLAT:$SG84956
	jmp	SHORT $LN6@operator
$LN1@operator:
; Line 1010
	lea	rax, OFFSET FLAT:$SG84957
$LN6@operator:
; Line 1011
	add	rsp, 48					; 00000030H
	pop	rdi
	ret	0
??ACGuidNameList@@QEAAPEADAEBU_GUID@@@Z ENDP		; CGuidNameList::operator[]
_TEXT	ENDS
PUBLIC	IsEqualGUID
;	COMDAT pdata
; File c:\program files (x86)\microsoft sdks\windows\v7.0a\include\guiddef.h
pdata	SEGMENT
$pdata$== DD	imagerel $LN3
	DD	imagerel $LN3+56
	DD	imagerel $unwind$==
pdata	ENDS
;	COMDAT xdata
xdata	SEGMENT
$unwind$== DD	022301H
	DD	0700b320fH
; Function compile flags: /Odtp /RTCsu
xdata	ENDS
;	COMDAT ==
_TEXT	SEGMENT
guidOne$ = 48
guidOther$ = 56
==	PROC						; COMDAT
; Line 193
$LN3:
	mov	QWORD PTR [rsp+16], rdx
	mov	QWORD PTR [rsp+8], rcx
	push	rdi
	sub	rsp, 32					; 00000020H
	mov	rdi, rsp
	mov	ecx, 8
	mov	eax, -858993460				; ccccccccH
	rep stosd
	mov	rcx, QWORD PTR [rsp+48]
; Line 194
	mov	rdx, QWORD PTR guidOther$[rsp]
	mov	rcx, QWORD PTR guidOne$[rsp]
	call	IsEqualGUID
; Line 195
	add	rsp, 32					; 00000020H
	pop	rdi
	ret	0
==	ENDP
_TEXT	ENDS
EXTRN	memcmp:PROC
;	COMDAT pdata
pdata	SEGMENT
$pdata$IsEqualGUID DD imagerel $LN5
	DD	imagerel $LN5+88
	DD	imagerel $unwind$IsEqualGUID
pdata	ENDS
;	COMDAT xdata
xdata	SEGMENT
$unwind$IsEqualGUID DD 022301H
	DD	0700b520fH
; Function compile flags: /Odtp /RTCsu
xdata	ENDS
;	COMDAT IsEqualGUID
_TEXT	SEGMENT
tv69 = 32
rguid1$ = 64
rguid2$ = 72
IsEqualGUID PROC					; COMDAT
; Line 160
$LN5:
	mov	QWORD PTR [rsp+16], rdx
	mov	QWORD PTR [rsp+8], rcx
	push	rdi
	sub	rsp, 48					; 00000030H
	mov	rdi, rsp
	mov	ecx, 12
	mov	eax, -858993460				; ccccccccH
	rep stosd
	mov	rcx, QWORD PTR [rsp+64]
; Line 161
	mov	r8d, 16
	mov	rdx, QWORD PTR rguid2$[rsp]
	mov	rcx, QWORD PTR rguid1$[rsp]
	call	memcmp
	test	eax, eax
	jne	SHORT $LN3@IsEqualGUI
	mov	DWORD PTR tv69[rsp], 1
	jmp	SHORT $LN4@IsEqualGUI
$LN3@IsEqualGUI:
	mov	DWORD PTR tv69[rsp], 0
$LN4@IsEqualGUI:
	mov	eax, DWORD PTR tv69[rsp]
; Line 162
	add	rsp, 48					; 00000030H
	pop	rdi
	ret	0
IsEqualGUID ENDP
_TEXT	ENDS
PUBLIC	??0CDispBasic@@QEAA@XZ				; CDispBasic::CDispBasic
PUBLIC	__$ArrayPad$
PUBLIC	??0CDisp@@QEAA@_JH@Z				; CDisp::CDisp
;	COMDAT pdata
; File c:\downloads\wpf mediakit - copy\src\filters\baseclasses\wxdebug.cpp
pdata	SEGMENT
$pdata$??0CDisp@@QEAA@_JH@Z DD imagerel $LN11
	DD	imagerel $LN11+356
	DD	imagerel $unwind$??0CDisp@@QEAA@_JH@Z
pdata	ENDS
;	COMDAT xdata
xdata	SEGMENT
$unwind$??0CDisp@@QEAA@_JH@Z DD 034019H
	DD	0140117H
	DD	07010H
	DD	imagerel __GSHandlerCheck
	DD	090H
xdata	ENDS
;	COMDAT CONST
CONST	SEGMENT
??0CDisp@@QEAA@_JH@Z$rtcName$0 DB 06cH			; CDisp::CDisp
	DB	069H
	DB	00H
	ORG $+1
??0CDisp@@QEAA@_JH@Z$rtcName$1 DB 074H			; CDisp::CDisp
	DB	065H
	DB	06dH
	DB	070H
	DB	00H
	ORG $+7
??0CDisp@@QEAA@_JH@Z$rtcVarDesc DD 048H			; CDisp::CDisp
	DD	028H
	DQ	FLAT:??0CDisp@@QEAA@_JH@Z$rtcName$1
	DD	028H
	DD	08H
	DQ	FLAT:??0CDisp@@QEAA@_JH@Z$rtcName$0
	ORG $+96
??0CDisp@@QEAA@_JH@Z$rtcFrameData DD 02H		; CDisp::CDisp
	DD	00H
	DQ	FLAT:??0CDisp@@QEAA@_JH@Z$rtcVarDesc
; Function compile flags: /Odtp /RTCsu
CONST	ENDS
;	COMDAT ??0CDisp@@QEAA@_JH@Z
_TEXT	SEGMENT
li$ = 40
temp$84969 = 72
pos$84970 = 116
digit$84971 = 120
tv75 = 136
__$ArrayPad$ = 144
this$ = 176
ll$ = 184
Format$ = 192
??0CDisp@@QEAA@_JH@Z PROC				; CDisp::CDisp, COMDAT
; Line 1019
$LN11:
	mov	DWORD PTR [rsp+24], r8d
	mov	QWORD PTR [rsp+16], rdx
	mov	QWORD PTR [rsp+8], rcx
	push	rdi
	sub	rsp, 160				; 000000a0H
	mov	rdi, rsp
	mov	ecx, 40					; 00000028H
	mov	eax, -858993460				; ccccccccH
	rep stosd
	mov	rcx, QWORD PTR [rsp+176]
	mov	rax, QWORD PTR __security_cookie
	xor	rax, rsp
	mov	QWORD PTR __$ArrayPad$[rsp], rax
	mov	rcx, QWORD PTR this$[rsp]
	call	??0CDispBasic@@QEAA@XZ			; CDispBasic::CDispBasic
; Line 1023
	mov	rax, QWORD PTR ll$[rsp]
	mov	QWORD PTR li$[rsp], rax
; Line 1024
	mov	eax, DWORD PTR Format$[rsp]
	mov	DWORD PTR tv75[rsp], eax
	cmp	DWORD PTR tv75[rsp], 2
	je	SHORT $LN5@CDisp
	jmp	$LN1@CDisp
$LN5@CDisp:
; Line 1028
	mov	DWORD PTR pos$84970[rsp], 20
; Line 1029
	mov	eax, DWORD PTR pos$84970[rsp]
	dec	eax
	mov	DWORD PTR pos$84970[rsp], eax
	movsxd	rax, DWORD PTR pos$84970[rsp]
	xor	ecx, ecx
	mov	WORD PTR temp$84969[rsp+rax*2], cx
$LN4@CDisp:
; Line 1034
	xor	edx, edx
	mov	eax, DWORD PTR li$[rsp]
	mov	ecx, 10
	div	ecx
	mov	eax, edx
	mov	DWORD PTR digit$84971[rsp], eax
; Line 1035
	mov	rax, QWORD PTR li$[rsp]
	cdq
	mov	ecx, 10
	idiv	rcx
	mov	QWORD PTR li$[rsp], rax
; Line 1036
	mov	eax, DWORD PTR pos$84970[rsp]
	dec	eax
	mov	DWORD PTR pos$84970[rsp], eax
	movsxd	rax, DWORD PTR pos$84970[rsp]
	movzx	ecx, WORD PTR digit$84971[rsp]
	add	ecx, 48					; 00000030H
	mov	WORD PTR temp$84969[rsp+rax*2], cx
; Line 1037
	cmp	QWORD PTR li$[rsp], 0
	jne	SHORT $LN4@CDisp
; Line 1038
	movsxd	rax, DWORD PTR pos$84970[rsp]
	lea	rax, QWORD PTR temp$84969[rsp+rax*2]
	mov	rcx, QWORD PTR this$[rsp]
	add	rcx, 8
	mov	r8, rax
	lea	rdx, OFFSET FLAT:$SG84976
	call	QWORD PTR __imp_wsprintfW
; Line 1039
	jmp	SHORT $LN6@CDisp
$LN1@CDisp:
; Line 1043
	mov	rax, QWORD PTR this$[rsp]
	add	rax, 8
	mov	r9d, DWORD PTR li$[rsp]
	mov	r8d, DWORD PTR li$[rsp+4]
	lea	rdx, OFFSET FLAT:$SG84978
	mov	rcx, rax
	call	QWORD PTR __imp_wsprintfW
$LN6@CDisp:
; Line 1045
	mov	rax, QWORD PTR this$[rsp]
	mov	rdi, rax
	mov	rcx, rsp
	lea	rdx, OFFSET FLAT:??0CDisp@@QEAA@_JH@Z$rtcFrameData
	call	_RTC_CheckStackVars
	mov	rax, rdi
	mov	rcx, QWORD PTR __$ArrayPad$[rsp]
	xor	rcx, rsp
	call	__security_check_cookie
	add	rsp, 160				; 000000a0H
	pop	rdi
	ret	0
??0CDisp@@QEAA@_JH@Z ENDP				; CDisp::CDisp
_TEXT	ENDS
;	COMDAT pdata
; File c:\downloads\wpf mediakit - copy\src\filters\baseclasses\wxdebug.h
pdata	SEGMENT
$pdata$??0CDispBasic@@QEAA@XZ DD imagerel $LN3
	DD	imagerel $LN3+30
	DD	imagerel $unwind$??0CDispBasic@@QEAA@XZ
pdata	ENDS
;	COMDAT xdata
xdata	SEGMENT
$unwind$??0CDispBasic@@QEAA@XZ DD 010601H
	DD	07006H
; Function compile flags: /Odtp /RTCsu
xdata	ENDS
;	COMDAT ??0CDispBasic@@QEAA@XZ
_TEXT	SEGMENT
this$ = 16
??0CDispBasic@@QEAA@XZ PROC				; CDispBasic::CDispBasic, COMDAT
; Line 326
$LN3:
	mov	QWORD PTR [rsp+8], rcx
	push	rdi
	mov	rax, QWORD PTR this$[rsp]
	add	rax, 8
	mov	rcx, QWORD PTR this$[rsp]
	mov	QWORD PTR [rcx], rax
	mov	rax, QWORD PTR this$[rsp]
	pop	rdi
	ret	0
??0CDispBasic@@QEAA@XZ ENDP				; CDispBasic::CDispBasic
_TEXT	ENDS
PUBLIC	??1CDispBasic@@QEAA@XZ				; CDispBasic::~CDispBasic
PUBLIC	__$ArrayPad$
PUBLIC	??0CDisp@@QEAA@AEBU_GUID@@@Z			; CDisp::CDisp
EXTRN	__GSHandlerCheck_EH:PROC
EXTRN	__imp_StringFromGUID2:PROC
;	COMDAT pdata
; File c:\downloads\wpf mediakit - copy\src\filters\baseclasses\wxdebug.cpp
pdata	SEGMENT
$pdata$??0CDisp@@QEAA@AEBU_GUID@@@Z DD imagerel $LN5
	DD	imagerel $LN5+229
	DD	imagerel $unwind$??0CDisp@@QEAA@AEBU_GUID@@@Z
pdata	ENDS
;	COMDAT pdata
pdata	SEGMENT
$pdata$?dtor$0@?0???0CDisp@@QEAA@AEBU_GUID@@@Z@4HA DD imagerel ?dtor$0@?0???0CDisp@@QEAA@AEBU_GUID@@@Z@4HA
	DD	imagerel ?dtor$0@?0???0CDisp@@QEAA@AEBU_GUID@@@Z@4HA+38
	DD	imagerel $unwind$?dtor$0@?0???0CDisp@@QEAA@AEBU_GUID@@@Z@4HA
pdata	ENDS
;	COMDAT xdata
xdata	SEGMENT
$ip2state$??0CDisp@@QEAA@AEBU_GUID@@@Z DD imagerel ??0CDisp@@QEAA@AEBU_GUID@@@Z
	DD	0ffffffffH
	DD	imagerel ??0CDisp@@QEAA@AEBU_GUID@@@Z+85
	DD	00H
	DD	imagerel ??0CDisp@@QEAA@AEBU_GUID@@@Z+175
	DD	0ffffffffH
xdata	ENDS
;	COMDAT xdata
xdata	SEGMENT
$unwind$?dtor$0@?0???0CDisp@@QEAA@AEBU_GUID@@@Z@4HA DD 031001H
	DD	0700c4210H
	DD	0500bH
xdata	ENDS
;	COMDAT xdata
xdata	SEGMENT
$unwind$??0CDisp@@QEAA@AEBU_GUID@@@Z DD 034719H
	DD	0140112H
	DD	0700bH
	DD	imagerel __GSHandlerCheck_EH
	DD	imagerel $cppxdata$??0CDisp@@QEAA@AEBU_GUID@@@Z
	DD	09aH
xdata	ENDS
;	COMDAT xdata
xdata	SEGMENT
$stateUnwindMap$??0CDisp@@QEAA@AEBU_GUID@@@Z DD 0ffffffffH
	DD	imagerel ?dtor$0@?0???0CDisp@@QEAA@AEBU_GUID@@@Z@4HA
xdata	ENDS
;	COMDAT CONST
CONST	SEGMENT
??0CDisp@@QEAA@AEBU_GUID@@@Z$rtcName$0 DB 073H		; CDisp::CDisp
	DB	074H
	DB	072H
	DB	043H
	DB	06cH
	DB	061H
	DB	073H
	DB	073H
	DB	00H
	ORG $+7
??0CDisp@@QEAA@AEBU_GUID@@@Z$rtcVarDesc DD 030H		; CDisp::CDisp
	DD	050H
	DQ	FLAT:??0CDisp@@QEAA@AEBU_GUID@@@Z$rtcName$0
	ORG $+48
??0CDisp@@QEAA@AEBU_GUID@@@Z$rtcFrameData DD 01H	; CDisp::CDisp
	DD	00H
	DQ	FLAT:??0CDisp@@QEAA@AEBU_GUID@@@Z$rtcVarDesc
$cppxdata$??0CDisp@@QEAA@AEBU_GUID@@@Z DD 019930522H
	DD	01H
	DD	imagerel $stateUnwindMap$??0CDisp@@QEAA@AEBU_GUID@@@Z
	DD	00H
	DD	00H
	DD	03H
	DD	imagerel $ip2state$??0CDisp@@QEAA@AEBU_GUID@@@Z
	DD	090H
	DD	00H
	DD	01H
; Function compile flags: /Odtp /RTCsu
CONST	ENDS
;	COMDAT ??0CDisp@@QEAA@AEBU_GUID@@@Z
_TEXT	SEGMENT
strClass$ = 48
$T86135 = 144
__$ArrayPad$ = 152
this$ = 176
clsid$ = 184
??0CDisp@@QEAA@AEBU_GUID@@@Z PROC			; CDisp::CDisp, COMDAT
; Line 1048
$LN5:
	mov	QWORD PTR [rsp+16], rdx
	mov	QWORD PTR [rsp+8], rcx
	push	rdi
	sub	rsp, 160				; 000000a0H
	mov	rdi, rsp
	mov	ecx, 40					; 00000028H
	mov	eax, -858993460				; ccccccccH
	rep stosd
	mov	rcx, QWORD PTR [rsp+176]
	mov	QWORD PTR $T86135[rsp], -2
	mov	rax, QWORD PTR __security_cookie
	xor	rax, rsp
	mov	QWORD PTR __$ArrayPad$[rsp], rax
	mov	rcx, QWORD PTR this$[rsp]
	call	??0CDispBasic@@QEAA@XZ			; CDispBasic::CDispBasic
	npad	1
; Line 1050
	mov	r8d, 40					; 00000028H
	lea	rdx, QWORD PTR strClass$[rsp]
	mov	rcx, QWORD PTR clsid$[rsp]
	call	QWORD PTR __imp_StringFromGUID2
; Line 1051
	xor	eax, eax
	test	eax, eax
	je	SHORT $LN1@CDisp@2
	mov	r8d, 1051				; 0000041bH
	lea	rdx, OFFSET FLAT:$SG84985
	lea	rcx, OFFSET FLAT:$SG84986
	call	?DbgAssert@@YAXPEB_W0H@Z		; DbgAssert
$LN1@CDisp@2:
; Line 1052
	mov	rax, QWORD PTR this$[rsp]
	add	rax, 8
	lea	r8, QWORD PTR strClass$[rsp]
	lea	rdx, OFFSET FLAT:$SG84987
	mov	rcx, rax
	call	QWORD PTR __imp_wsprintfW
	npad	1
; Line 1053
	mov	rax, QWORD PTR this$[rsp]
	mov	rdi, rax
	mov	rcx, rsp
	lea	rdx, OFFSET FLAT:??0CDisp@@QEAA@AEBU_GUID@@@Z$rtcFrameData
	call	_RTC_CheckStackVars
	mov	rax, rdi
	mov	rcx, QWORD PTR __$ArrayPad$[rsp]
	xor	rcx, rsp
	call	__security_check_cookie
	add	rsp, 160				; 000000a0H
	pop	rdi
	ret	0
??0CDisp@@QEAA@AEBU_GUID@@@Z ENDP			; CDisp::CDisp
; Function compile flags: /Odtp /RTCsu
_TEXT	ENDS
;	COMDAT text$x
text$x	SEGMENT
strClass$ = 48
$T86135 = 144
__$ArrayPad$ = 152
this$ = 176
clsid$ = 184
?dtor$0@?0???0CDisp@@QEAA@AEBU_GUID@@@Z@4HA PROC	; `CDisp::CDisp'::`1'::dtor$0
	mov	QWORD PTR [rsp+8], rcx
	mov	QWORD PTR [rsp+16], rdx
	push	rbp
	push	rdi
	sub	rsp, 40					; 00000028H
	mov	rbp, rdx
	mov	rcx, QWORD PTR this$[rbp]
	call	??1CDispBasic@@QEAA@XZ			; CDispBasic::~CDispBasic
	add	rsp, 40					; 00000028H
	pop	rdi
	pop	rbp
	ret	0
?dtor$0@?0???0CDisp@@QEAA@AEBU_GUID@@@Z@4HA ENDP	; `CDisp::CDisp'::`1'::dtor$0
text$x	ENDS
PUBLIC	??4CRefTime@@QEAAAEAV0@_J@Z			; CRefTime::operator=
PUBLIC	??BCRefTime@@QEBA_JXZ				; CRefTime::operator __int64
PUBLIC	??0CDisp@@QEAA@VCRefTime@@@Z			; CDisp::CDisp
EXTRN	__CxxFrameHandler3:PROC
;	COMDAT pdata
pdata	SEGMENT
$pdata$??0CDisp@@QEAA@VCRefTime@@@Z DD imagerel $LN8
	DD	imagerel $LN8+592
	DD	imagerel $unwind$??0CDisp@@QEAA@VCRefTime@@@Z
pdata	ENDS
;	COMDAT pdata
pdata	SEGMENT
$pdata$?dtor$0@?0???0CDisp@@QEAA@VCRefTime@@@Z@4HA DD imagerel ?dtor$0@?0???0CDisp@@QEAA@VCRefTime@@@Z@4HA
	DD	imagerel ?dtor$0@?0???0CDisp@@QEAA@VCRefTime@@@Z@4HA+35
	DD	imagerel $unwind$?dtor$0@?0???0CDisp@@QEAA@VCRefTime@@@Z@4HA
pdata	ENDS
;	COMDAT xdata
xdata	SEGMENT
$ip2state$??0CDisp@@QEAA@VCRefTime@@@Z DD imagerel ??0CDisp@@QEAA@VCRefTime@@@Z
	DD	0ffffffffH
	DD	imagerel ??0CDisp@@QEAA@VCRefTime@@@Z+55
	DD	00H
	DD	imagerel ??0CDisp@@QEAA@VCRefTime@@@Z+581
	DD	0ffffffffH
xdata	ENDS
;	COMDAT xdata
xdata	SEGMENT
$unwind$?dtor$0@?0???0CDisp@@QEAA@VCRefTime@@@Z@4HA DD 031001H
	DD	0700c4210H
	DD	0500bH
xdata	ENDS
;	COMDAT xdata
xdata	SEGMENT
$unwind$??0CDisp@@QEAA@VCRefTime@@@Z DD 022c11H
	DD	0700b720fH
	DD	imagerel __CxxFrameHandler3
	DD	imagerel $cppxdata$??0CDisp@@QEAA@VCRefTime@@@Z
xdata	ENDS
;	COMDAT CONST
CONST	SEGMENT
$cppxdata$??0CDisp@@QEAA@VCRefTime@@@Z DD 019930522H
	DD	01H
	DD	imagerel $stateUnwindMap$??0CDisp@@QEAA@VCRefTime@@@Z
	DD	00H
	DD	00H
	DD	03H
	DD	imagerel $ip2state$??0CDisp@@QEAA@VCRefTime@@@Z
	DD	030H
	DD	00H
	DD	01H
CONST	ENDS
;	COMDAT xdata
xdata	SEGMENT
$stateUnwindMap$??0CDisp@@QEAA@VCRefTime@@@Z DD 0ffffffffH
	DD	imagerel ?dtor$0@?0???0CDisp@@QEAA@VCRefTime@@@Z@4HA
; Function compile flags: /Odtp /RTCsu
xdata	ENDS
;	COMDAT ??0CDisp@@QEAA@VCRefTime@@@Z
_TEXT	SEGMENT
lpsz$ = 32
llDiv$ = 40
$T86162 = 48
tv187 = 56
this$ = 80
llTime$ = 88
??0CDisp@@QEAA@VCRefTime@@@Z PROC			; CDisp::CDisp, COMDAT
; Line 1058
$LN8:
	mov	QWORD PTR [rsp+16], rdx
	mov	QWORD PTR [rsp+8], rcx
	push	rdi
	sub	rsp, 64					; 00000040H
	mov	rdi, rsp
	mov	ecx, 16
	mov	eax, -858993460				; ccccccccH
	rep stosd
	mov	rcx, QWORD PTR [rsp+80]
	mov	QWORD PTR $T86162[rsp], -2
	mov	rcx, QWORD PTR this$[rsp]
	call	??0CDispBasic@@QEAA@XZ			; CDispBasic::CDispBasic
	npad	1
; Line 1059
	mov	rax, QWORD PTR this$[rsp]
	add	rax, 8
	mov	QWORD PTR lpsz$[rsp], rax
; Line 1061
	lea	rcx, QWORD PTR llTime$[rsp]
	call	??BCRefTime@@QEBA_JXZ			; CRefTime::operator __int64
	test	rax, rax
	jge	SHORT $LN4@CDisp@3
; Line 1062
	lea	rcx, QWORD PTR llTime$[rsp]
	call	??BCRefTime@@QEBA_JXZ			; CRefTime::operator __int64
	neg	rax
	mov	rdx, rax
	lea	rcx, QWORD PTR llTime$[rsp]
	call	??4CRefTime@@QEAAAEAV0@_J@Z		; CRefTime::operator=
; Line 1063
	lea	rdx, OFFSET FLAT:$SG84995
	mov	rcx, QWORD PTR lpsz$[rsp]
	call	QWORD PTR __imp_wsprintfW
	cdqe
	mov	rcx, QWORD PTR lpsz$[rsp]
	lea	rax, QWORD PTR [rcx+rax*2]
	mov	QWORD PTR lpsz$[rsp], rax
$LN4@CDisp@3:
; Line 1065
	mov	rax, 864000000000			; 000000c92a69c000H
	mov	QWORD PTR llDiv$[rsp], rax
; Line 1066
	lea	rcx, QWORD PTR llTime$[rsp]
	call	??BCRefTime@@QEBA_JXZ			; CRefTime::operator __int64
	cmp	rax, QWORD PTR llDiv$[rsp]
	jl	SHORT $LN3@CDisp@3
; Line 1067
	lea	rcx, QWORD PTR llTime$[rsp]
	call	??BCRefTime@@QEBA_JXZ			; CRefTime::operator __int64
	cdq
	idiv	QWORD PTR llDiv$[rsp]
	mov	r8d, eax
	lea	rdx, OFFSET FLAT:$SG84999
	mov	rcx, QWORD PTR lpsz$[rsp]
	call	QWORD PTR __imp_wsprintfW
	cdqe
	mov	rcx, QWORD PTR lpsz$[rsp]
	lea	rax, QWORD PTR [rcx+rax*2]
	mov	QWORD PTR lpsz$[rsp], rax
; Line 1068
	lea	rcx, QWORD PTR llTime$[rsp]
	call	??BCRefTime@@QEBA_JXZ			; CRefTime::operator __int64
	cdq
	idiv	QWORD PTR llDiv$[rsp]
	mov	rax, rdx
	mov	rdx, rax
	lea	rcx, QWORD PTR llTime$[rsp]
	call	??4CRefTime@@QEAAAEAV0@_J@Z		; CRefTime::operator=
$LN3@CDisp@3:
; Line 1070
	mov	rax, 36000000000			; 0000000861c46800H
	mov	QWORD PTR llDiv$[rsp], rax
; Line 1071
	lea	rcx, QWORD PTR llTime$[rsp]
	call	??BCRefTime@@QEBA_JXZ			; CRefTime::operator __int64
	cmp	rax, QWORD PTR llDiv$[rsp]
	jl	SHORT $LN2@CDisp@3
; Line 1072
	lea	rcx, QWORD PTR llTime$[rsp]
	call	??BCRefTime@@QEBA_JXZ			; CRefTime::operator __int64
	cdq
	idiv	QWORD PTR llDiv$[rsp]
	mov	r8d, eax
	lea	rdx, OFFSET FLAT:$SG85003
	mov	rcx, QWORD PTR lpsz$[rsp]
	call	QWORD PTR __imp_wsprintfW
	cdqe
	mov	rcx, QWORD PTR lpsz$[rsp]
	lea	rax, QWORD PTR [rcx+rax*2]
	mov	QWORD PTR lpsz$[rsp], rax
; Line 1073
	lea	rcx, QWORD PTR llTime$[rsp]
	call	??BCRefTime@@QEBA_JXZ			; CRefTime::operator __int64
	cdq
	idiv	QWORD PTR llDiv$[rsp]
	mov	rax, rdx
	mov	rdx, rax
	lea	rcx, QWORD PTR llTime$[rsp]
	call	??4CRefTime@@QEAAAEAV0@_J@Z		; CRefTime::operator=
$LN2@CDisp@3:
; Line 1075
	mov	QWORD PTR llDiv$[rsp], 600000000	; 23c34600H
; Line 1076
	lea	rcx, QWORD PTR llTime$[rsp]
	call	??BCRefTime@@QEBA_JXZ			; CRefTime::operator __int64
	cmp	rax, QWORD PTR llDiv$[rsp]
	jl	SHORT $LN1@CDisp@3
; Line 1077
	lea	rcx, QWORD PTR llTime$[rsp]
	call	??BCRefTime@@QEBA_JXZ			; CRefTime::operator __int64
	cdq
	idiv	QWORD PTR llDiv$[rsp]
	mov	r8d, eax
	lea	rdx, OFFSET FLAT:$SG85007
	mov	rcx, QWORD PTR lpsz$[rsp]
	call	QWORD PTR __imp_wsprintfW
	cdqe
	mov	rcx, QWORD PTR lpsz$[rsp]
	lea	rax, QWORD PTR [rcx+rax*2]
	mov	QWORD PTR lpsz$[rsp], rax
; Line 1078
	lea	rcx, QWORD PTR llTime$[rsp]
	call	??BCRefTime@@QEBA_JXZ			; CRefTime::operator __int64
	cdq
	idiv	QWORD PTR llDiv$[rsp]
	mov	rax, rdx
	mov	rdx, rax
	lea	rcx, QWORD PTR llTime$[rsp]
	call	??4CRefTime@@QEAAAEAV0@_J@Z		; CRefTime::operator=
$LN1@CDisp@3:
; Line 1082
	lea	rcx, QWORD PTR llTime$[rsp]
	call	??BCRefTime@@QEBA_JXZ			; CRefTime::operator __int64
	cdq
	mov	ecx, 10000000				; 00989680H
	idiv	rcx
	mov	rax, rdx
	cdq
	mov	ecx, 10000				; 00002710H
	idiv	rcx
	mov	QWORD PTR tv187[rsp], rax
	lea	rcx, QWORD PTR llTime$[rsp]
	call	??BCRefTime@@QEBA_JXZ			; CRefTime::operator __int64
	cdq
	mov	ecx, 10000000				; 00989680H
	idiv	ecx
	mov	rcx, QWORD PTR tv187[rsp]
	mov	r9d, ecx
	mov	r8d, eax
	lea	rdx, OFFSET FLAT:$SG85010
	mov	rcx, QWORD PTR lpsz$[rsp]
	call	QWORD PTR __imp_wsprintfW
	npad	1
; Line 1083
	mov	rax, QWORD PTR this$[rsp]
	add	rsp, 64					; 00000040H
	pop	rdi
	ret	0
??0CDisp@@QEAA@VCRefTime@@@Z ENDP			; CDisp::CDisp
; Function compile flags: /Odtp /RTCsu
_TEXT	ENDS
;	COMDAT text$x
text$x	SEGMENT
lpsz$ = 32
llDiv$ = 40
$T86162 = 48
tv187 = 56
this$ = 80
llTime$ = 88
?dtor$0@?0???0CDisp@@QEAA@VCRefTime@@@Z@4HA PROC	; `CDisp::CDisp'::`1'::dtor$0
	mov	QWORD PTR [rsp+8], rcx
	mov	QWORD PTR [rsp+16], rdx
	push	rbp
	push	rdi
	sub	rsp, 40					; 00000028H
	mov	rbp, rdx
	mov	rcx, QWORD PTR this$[rbp]
	call	??1CDispBasic@@QEAA@XZ			; CDispBasic::~CDispBasic
	add	rsp, 40					; 00000028H
	pop	rdi
	pop	rbp
	ret	0
?dtor$0@?0???0CDisp@@QEAA@VCRefTime@@@Z@4HA ENDP	; `CDisp::CDisp'::`1'::dtor$0
text$x	ENDS
;	COMDAT pdata
; File c:\downloads\wpf mediakit - copy\src\filters\baseclasses\reftime.h
pdata	SEGMENT
$pdata$??BCRefTime@@QEBA_JXZ DD imagerel $LN3
	DD	imagerel $LN3+16
	DD	imagerel $unwind$??BCRefTime@@QEBA_JXZ
pdata	ENDS
;	COMDAT xdata
xdata	SEGMENT
$unwind$??BCRefTime@@QEBA_JXZ DD 010601H
	DD	07006H
; Function compile flags: /Odtp /RTCsu
xdata	ENDS
;	COMDAT ??BCRefTime@@QEBA_JXZ
_TEXT	SEGMENT
this$ = 16
??BCRefTime@@QEBA_JXZ PROC				; CRefTime::operator __int64, COMDAT
; Line 76
$LN3:
	mov	QWORD PTR [rsp+8], rcx
	push	rdi
; Line 77
	mov	rax, QWORD PTR this$[rsp]
	mov	rax, QWORD PTR [rax]
; Line 78
	pop	rdi
	ret	0
??BCRefTime@@QEBA_JXZ ENDP				; CRefTime::operator __int64
_TEXT	ENDS
;	COMDAT pdata
pdata	SEGMENT
$pdata$??4CRefTime@@QEAAAEAV0@_J@Z DD imagerel $LN3
	DD	imagerel $LN3+31
	DD	imagerel $unwind$??4CRefTime@@QEAAAEAV0@_J@Z
pdata	ENDS
;	COMDAT xdata
xdata	SEGMENT
$unwind$??4CRefTime@@QEAAAEAV0@_J@Z DD 010b01H
	DD	0700bH
; Function compile flags: /Odtp /RTCsu
xdata	ENDS
;	COMDAT ??4CRefTime@@QEAAAEAV0@_J@Z
_TEXT	SEGMENT
this$ = 16
ll$ = 24
??4CRefTime@@QEAAAEAV0@_J@Z PROC			; CRefTime::operator=, COMDAT
; Line 87
$LN3:
	mov	QWORD PTR [rsp+16], rdx
	mov	QWORD PTR [rsp+8], rcx
	push	rdi
; Line 88
	mov	rax, QWORD PTR this$[rsp]
	mov	rcx, QWORD PTR ll$[rsp]
	mov	QWORD PTR [rax], rcx
; Line 89
	mov	rax, QWORD PTR this$[rsp]
; Line 90
	pop	rdi
	ret	0
??4CRefTime@@QEAAAEAV0@_J@Z ENDP			; CRefTime::operator=
_TEXT	ENDS
PUBLIC	__$ArrayPad$
PUBLIC	??0CDisp@@QEAA@PEAUIPin@@@Z			; CDisp::CDisp
;	COMDAT pdata
; File c:\downloads\wpf mediakit - copy\src\filters\baseclasses\wxdebug.cpp
pdata	SEGMENT
$pdata$??0CDisp@@QEAA@PEAUIPin@@@Z DD imagerel $LN8
	DD	imagerel $LN8+428
	DD	imagerel $unwind$??0CDisp@@QEAA@PEAUIPin@@@Z
pdata	ENDS
;	COMDAT pdata
pdata	SEGMENT
$pdata$?dtor$0@?0???0CDisp@@QEAA@PEAUIPin@@@Z@4HA DD imagerel ?dtor$0@?0???0CDisp@@QEAA@PEAUIPin@@@Z@4HA
	DD	imagerel ?dtor$0@?0???0CDisp@@QEAA@PEAUIPin@@@Z@4HA+38
	DD	imagerel $unwind$?dtor$0@?0???0CDisp@@QEAA@PEAUIPin@@@Z@4HA
pdata	ENDS
;	COMDAT xdata
xdata	SEGMENT
$ip2state$??0CDisp@@QEAA@PEAUIPin@@@Z DD imagerel ??0CDisp@@QEAA@PEAUIPin@@@Z
	DD	0ffffffffH
	DD	imagerel ??0CDisp@@QEAA@PEAUIPin@@@Z+85
	DD	00H
	DD	imagerel ??0CDisp@@QEAA@PEAUIPin@@@Z+374
	DD	0ffffffffH
xdata	ENDS
;	COMDAT xdata
xdata	SEGMENT
$unwind$?dtor$0@?0???0CDisp@@QEAA@PEAUIPin@@@Z@4HA DD 031001H
	DD	0700c4210H
	DD	0500bH
xdata	ENDS
;	COMDAT xdata
xdata	SEGMENT
$unwind$??0CDisp@@QEAA@PEAUIPin@@@Z DD 034719H
	DD	0580112H
	DD	0700bH
	DD	imagerel __GSHandlerCheck_EH
	DD	imagerel $cppxdata$??0CDisp@@QEAA@PEAUIPin@@@Z
	DD	02baH
xdata	ENDS
;	COMDAT xdata
xdata	SEGMENT
$stateUnwindMap$??0CDisp@@QEAA@PEAUIPin@@@Z DD 0ffffffffH
	DD	imagerel ?dtor$0@?0???0CDisp@@QEAA@PEAUIPin@@@Z@4HA
xdata	ENDS
;	COMDAT CONST
CONST	SEGMENT
??0CDisp@@QEAA@PEAUIPin@@@Z$rtcName$0 DB 070H		; CDisp::CDisp
	DB	069H
	DB	00H
	ORG $+1
??0CDisp@@QEAA@PEAUIPin@@@Z$rtcName$1 DB 073H		; CDisp::CDisp
	DB	074H
	DB	072H
	DB	00H
??0CDisp@@QEAA@PEAUIPin@@@Z$rtcName$2 DB 063H		; CDisp::CDisp
	DB	06cH
	DB	073H
	DB	069H
	DB	064H
	DB	00H
	ORG $+2
??0CDisp@@QEAA@PEAUIPin@@@Z$rtcVarDesc DD 0278H		; CDisp::CDisp
	DD	010H
	DQ	FLAT:??0CDisp@@QEAA@PEAUIPin@@@Z$rtcName$2
	DD	0160H
	DD	0100H
	DQ	FLAT:??0CDisp@@QEAA@PEAUIPin@@@Z$rtcName$1
	DD	030H
	DD	0110H
	DQ	FLAT:??0CDisp@@QEAA@PEAUIPin@@@Z$rtcName$0
	ORG $+144
??0CDisp@@QEAA@PEAUIPin@@@Z$rtcFrameData DD 03H		; CDisp::CDisp
	DD	00H
	DQ	FLAT:??0CDisp@@QEAA@PEAUIPin@@@Z$rtcVarDesc
$cppxdata$??0CDisp@@QEAA@PEAUIPin@@@Z DD 019930522H
	DD	01H
	DD	imagerel $stateUnwindMap$??0CDisp@@QEAA@PEAUIPin@@@Z
	DD	00H
	DD	00H
	DD	03H
	DD	imagerel $ip2state$??0CDisp@@QEAA@PEAUIPin@@@Z
	DD	02a8H
	DD	00H
	DD	01H
; Function compile flags: /Odtp /RTCsu
CONST	ENDS
;	COMDAT ??0CDisp@@QEAA@PEAUIPin@@@Z
_TEXT	SEGMENT
pi$ = 48
str$ = 352
clsid$ = 632
$T86196 = 672
$T86202 = 680
tv141 = 688
__$ArrayPad$ = 696
this$ = 720
pPin$ = 728
??0CDisp@@QEAA@PEAUIPin@@@Z PROC			; CDisp::CDisp, COMDAT
; Line 1090
$LN8:
	mov	QWORD PTR [rsp+16], rdx
	mov	QWORD PTR [rsp+8], rcx
	push	rdi
	sub	rsp, 704				; 000002c0H
	mov	rdi, rsp
	mov	ecx, 176				; 000000b0H
	mov	eax, -858993460				; ccccccccH
	rep stosd
	mov	rcx, QWORD PTR [rsp+720]
	mov	QWORD PTR $T86202[rsp], -2
	mov	rax, QWORD PTR __security_cookie
	xor	rax, rsp
	mov	QWORD PTR __$ArrayPad$[rsp], rax
	mov	rcx, QWORD PTR this$[rsp]
	call	??0CDispBasic@@QEAA@XZ			; CDispBasic::CDispBasic
	npad	1
; Line 1095
	cmp	QWORD PTR pPin$[rsp], 0
	je	SHORT $LN4@CDisp@4
; Line 1096
	mov	rax, QWORD PTR pPin$[rsp]
	mov	rax, QWORD PTR [rax]
	lea	rdx, QWORD PTR pi$[rsp]
	mov	rcx, QWORD PTR pPin$[rsp]
	call	QWORD PTR [rax+64]
; Line 1097
	mov	rax, QWORD PTR pi$[rsp]
	mov	rax, QWORD PTR [rax]
	lea	rdx, QWORD PTR clsid$[rsp]
	mov	rcx, QWORD PTR pi$[rsp]
	call	QWORD PTR [rax+24]
; Line 1098
	cmp	QWORD PTR pi$[rsp], 0
	je	SHORT $LN3@CDisp@4
	mov	rax, QWORD PTR pi$[rsp]
	mov	rax, QWORD PTR [rax]
	mov	rcx, QWORD PTR pi$[rsp]
	call	QWORD PTR [rax+16]
$LN3@CDisp@4:
; Line 1103
	lea	rdx, QWORD PTR pi$[rsp+12]
	lea	rcx, QWORD PTR str$[rsp]
	call	QWORD PTR __imp_lstrcpyW
; Line 1105
	jmp	SHORT $LN2@CDisp@4
$LN4@CDisp@4:
; Line 1106
	lea	rdx, OFFSET FLAT:$SG85021
	lea	rcx, QWORD PTR str$[rsp]
	call	QWORD PTR __imp_lstrcpyW
$LN2@CDisp@4:
; Line 1109
	lea	rcx, QWORD PTR str$[rsp]
	call	QWORD PTR __imp_lstrlenW
	add	eax, 64					; 00000040H
	cdqe
	mov	QWORD PTR tv141[rsp], rax
	mov	eax, 2
	mov	rcx, QWORD PTR tv141[rsp]
	mul	rcx
	mov	rcx, -1
	cmovo	rax, rcx
	mov	rcx, rax
	call	??2@YAPEAX_K@Z				; operator new
	mov	QWORD PTR $T86196[rsp], rax
	mov	rax, QWORD PTR this$[rsp]
	mov	rcx, QWORD PTR $T86196[rsp]
	mov	QWORD PTR [rax], rcx
; Line 1110
	mov	rax, QWORD PTR this$[rsp]
	cmp	QWORD PTR [rax], 0
	jne	SHORT $LN1@CDisp@4
; Line 1111
	jmp	SHORT $LN5@CDisp@4
$LN1@CDisp@4:
; Line 1114
	lea	rdx, QWORD PTR clsid$[rsp]
	lea	rcx, OFFSET FLAT:?GuidNames@@3VCGuidNameList@@A ; GuidNames
	call	??ACGuidNameList@@QEAAPEADAEBU_GUID@@@Z	; CGuidNameList::operator[]
	lea	r9, QWORD PTR str$[rsp]
	mov	r8, rax
	lea	rdx, OFFSET FLAT:$SG85026
	mov	rax, QWORD PTR this$[rsp]
	mov	rcx, QWORD PTR [rax]
	call	QWORD PTR __imp_wsprintfW
	npad	1
$LN5@CDisp@4:
; Line 1115
	mov	rax, QWORD PTR this$[rsp]
	mov	rdi, rax
	mov	rcx, rsp
	lea	rdx, OFFSET FLAT:??0CDisp@@QEAA@PEAUIPin@@@Z$rtcFrameData
	call	_RTC_CheckStackVars
	mov	rax, rdi
	mov	rcx, QWORD PTR __$ArrayPad$[rsp]
	xor	rcx, rsp
	call	__security_check_cookie
	add	rsp, 704				; 000002c0H
	pop	rdi
	ret	0
??0CDisp@@QEAA@PEAUIPin@@@Z ENDP			; CDisp::CDisp
; Function compile flags: /Odtp /RTCsu
_TEXT	ENDS
;	COMDAT text$x
text$x	SEGMENT
pi$ = 48
str$ = 352
clsid$ = 632
$T86196 = 672
$T86202 = 680
tv141 = 688
__$ArrayPad$ = 696
this$ = 720
pPin$ = 728
?dtor$0@?0???0CDisp@@QEAA@PEAUIPin@@@Z@4HA PROC		; `CDisp::CDisp'::`1'::dtor$0
	mov	QWORD PTR [rsp+8], rcx
	mov	QWORD PTR [rsp+16], rdx
	push	rbp
	push	rdi
	sub	rsp, 40					; 00000028H
	mov	rbp, rdx
	mov	rcx, QWORD PTR this$[rbp]
	call	??1CDispBasic@@QEAA@XZ			; CDispBasic::~CDispBasic
	add	rsp, 40					; 00000028H
	pop	rdi
	pop	rbp
	ret	0
?dtor$0@?0???0CDisp@@QEAA@PEAUIPin@@@Z@4HA ENDP		; `CDisp::CDisp'::`1'::dtor$0
text$x	ENDS
PUBLIC	??1CDisp@@QEAA@XZ				; CDisp::~CDisp
PUBLIC	__$ArrayPad$
PUBLIC	??0CDisp@@QEAA@PEAUIUnknown@@@Z			; CDisp::CDisp
EXTRN	IID_IPin:BYTE
EXTRN	IID_IBaseFilter:BYTE
;	COMDAT pdata
pdata	SEGMENT
$pdata$??0CDisp@@QEAA@PEAUIUnknown@@@Z DD imagerel $LN10
	DD	imagerel $LN10+506
	DD	imagerel $unwind$??0CDisp@@QEAA@PEAUIUnknown@@@Z
pdata	ENDS
;	COMDAT pdata
pdata	SEGMENT
$pdata$?dtor$0@?0???0CDisp@@QEAA@PEAUIUnknown@@@Z@4HA DD imagerel ?dtor$0@?0???0CDisp@@QEAA@PEAUIUnknown@@@Z@4HA
	DD	imagerel ?dtor$0@?0???0CDisp@@QEAA@PEAUIUnknown@@@Z@4HA+38
	DD	imagerel $unwind$?dtor$0@?0???0CDisp@@QEAA@PEAUIUnknown@@@Z@4HA
pdata	ENDS
;	COMDAT xdata
xdata	SEGMENT
$ip2state$??0CDisp@@QEAA@PEAUIUnknown@@@Z DD imagerel ??0CDisp@@QEAA@PEAUIUnknown@@@Z
	DD	0ffffffffH
	DD	imagerel ??0CDisp@@QEAA@PEAUIUnknown@@@Z+85
	DD	00H
	DD	imagerel ??0CDisp@@QEAA@PEAUIUnknown@@@Z+452
	DD	0ffffffffH
xdata	ENDS
;	COMDAT xdata
xdata	SEGMENT
$unwind$?dtor$0@?0???0CDisp@@QEAA@PEAUIUnknown@@@Z@4HA DD 031001H
	DD	0700c4210H
	DD	0500bH
xdata	ENDS
;	COMDAT xdata
xdata	SEGMENT
$unwind$??0CDisp@@QEAA@PEAUIUnknown@@@Z DD 034719H
	DD	0460112H
	DD	0700bH
	DD	imagerel __GSHandlerCheck_EH
	DD	imagerel $cppxdata$??0CDisp@@QEAA@PEAUIUnknown@@@Z
	DD	0222H
xdata	ENDS
;	COMDAT xdata
xdata	SEGMENT
$stateUnwindMap$??0CDisp@@QEAA@PEAUIUnknown@@@Z DD 0ffffffffH
	DD	imagerel ?dtor$0@?0???0CDisp@@QEAA@PEAUIUnknown@@@Z@4HA
xdata	ENDS
;	COMDAT CONST
CONST	SEGMENT
??0CDisp@@QEAA@PEAUIUnknown@@@Z$rtcName$0 DB 070H	; CDisp::CDisp
	DB	066H
	DB	00H
	ORG $+1
??0CDisp@@QEAA@PEAUIUnknown@@@Z$rtcName$1 DB 066H	; CDisp::CDisp
	DB	069H
	DB	00H
	ORG $+1
??0CDisp@@QEAA@PEAUIUnknown@@@Z$rtcName$2 DB 070H	; CDisp::CDisp
	DB	070H
	DB	00H
	ORG $+5
??0CDisp@@QEAA@PEAUIUnknown@@@Z$rtcVarDesc DD 0178H	; CDisp::CDisp
	DD	08H
	DQ	FLAT:??0CDisp@@QEAA@PEAUIUnknown@@@Z$rtcName$2
	DD	050H
	DD	0108H
	DQ	FLAT:??0CDisp@@QEAA@PEAUIUnknown@@@Z$rtcName$1
	DD	028H
	DD	08H
	DQ	FLAT:??0CDisp@@QEAA@PEAUIUnknown@@@Z$rtcName$0
	ORG $+144
??0CDisp@@QEAA@PEAUIUnknown@@@Z$rtcFrameData DD 03H	; CDisp::CDisp
	DD	00H
	DQ	FLAT:??0CDisp@@QEAA@PEAUIUnknown@@@Z$rtcVarDesc
$cppxdata$??0CDisp@@QEAA@PEAUIUnknown@@@Z DD 019930522H
	DD	01H
	DD	imagerel $stateUnwindMap$??0CDisp@@QEAA@PEAUIUnknown@@@Z
	DD	00H
	DD	00H
	DD	03H
	DD	imagerel $ip2state$??0CDisp@@QEAA@PEAUIUnknown@@@Z
	DD	0210H
	DD	00H
	DD	01H
; Function compile flags: /Odtp /RTCsu
CONST	ENDS
;	COMDAT ??0CDisp@@QEAA@PEAUIUnknown@@@Z
_TEXT	SEGMENT
pf$ = 40
hr$ = 52
fi$85036 = 80
pp$ = 376
$T85048 = 400
$T86226 = 520
$T86234 = 528
tv137 = 536
__$ArrayPad$ = 544
this$ = 576
pUnk$ = 584
??0CDisp@@QEAA@PEAUIUnknown@@@Z PROC			; CDisp::CDisp, COMDAT
; Line 1119
$LN10:
	mov	QWORD PTR [rsp+16], rdx
	mov	QWORD PTR [rsp+8], rcx
	push	rdi
	sub	rsp, 560				; 00000230H
	mov	rdi, rsp
	mov	ecx, 140				; 0000008cH
	mov	eax, -858993460				; ccccccccH
	rep stosd
	mov	rcx, QWORD PTR [rsp+576]
	mov	QWORD PTR $T86234[rsp], -2
	mov	rax, QWORD PTR __security_cookie
	xor	rax, rsp
	mov	QWORD PTR __$ArrayPad$[rsp], rax
	mov	rcx, QWORD PTR this$[rsp]
	call	??0CDispBasic@@QEAA@XZ			; CDispBasic::CDispBasic
	npad	1
; Line 1121
	mov	rax, QWORD PTR pUnk$[rsp]
	mov	rax, QWORD PTR [rax]
	lea	r8, QWORD PTR pf$[rsp]
	lea	rdx, OFFSET FLAT:IID_IBaseFilter
	mov	rcx, QWORD PTR pUnk$[rsp]
	call	QWORD PTR [rax]
	mov	DWORD PTR hr$[rsp], eax
; Line 1122
	cmp	DWORD PTR hr$[rsp], 0
	jl	$LN5@CDisp@5
; Line 1125
	mov	rax, QWORD PTR pf$[rsp]
	mov	rax, QWORD PTR [rax]
	lea	rdx, QWORD PTR fi$85036[rsp]
	mov	rcx, QWORD PTR pf$[rsp]
	call	QWORD PTR [rax+96]
	mov	DWORD PTR hr$[rsp], eax
; Line 1126
	cmp	DWORD PTR hr$[rsp], 0
	jl	$LN4@CDisp@5
; Line 1128
	cmp	QWORD PTR fi$85036[rsp+256], 0
	je	SHORT $LN3@CDisp@5
	mov	rax, QWORD PTR fi$85036[rsp+256]
	mov	rax, QWORD PTR [rax]
	mov	rcx, QWORD PTR fi$85036[rsp+256]
	call	QWORD PTR [rax+16]
$LN3@CDisp@5:
; Line 1130
	lea	rcx, QWORD PTR fi$85036[rsp]
	call	QWORD PTR __imp_lstrlenW
	inc	eax
	cdqe
	mov	QWORD PTR tv137[rsp], rax
	mov	eax, 2
	mov	rcx, QWORD PTR tv137[rsp]
	mul	rcx
	mov	rcx, -1
	cmovo	rax, rcx
	mov	rcx, rax
	call	??2@YAPEAX_K@Z				; operator new
	mov	QWORD PTR $T86226[rsp], rax
	mov	rax, QWORD PTR this$[rsp]
	mov	rcx, QWORD PTR $T86226[rsp]
	mov	QWORD PTR [rax], rcx
; Line 1131
	mov	rax, QWORD PTR this$[rsp]
	cmp	QWORD PTR [rax], 0
	je	SHORT $LN4@CDisp@5
; Line 1133
	lea	r8, QWORD PTR fi$85036[rsp]
	lea	rdx, OFFSET FLAT:$SG85043
	mov	rax, QWORD PTR this$[rsp]
	mov	rcx, QWORD PTR [rax]
	call	QWORD PTR __imp_wsprintfW
$LN4@CDisp@5:
; Line 1137
	mov	rax, QWORD PTR pf$[rsp]
	mov	rax, QWORD PTR [rax]
	mov	rcx, QWORD PTR pf$[rsp]
	call	QWORD PTR [rax+16]
; Line 1139
	jmp	SHORT $LN6@CDisp@5
$LN5@CDisp@5:
; Line 1143
	mov	rax, QWORD PTR pUnk$[rsp]
	mov	rax, QWORD PTR [rax]
	lea	r8, QWORD PTR pp$[rsp]
	lea	rdx, OFFSET FLAT:IID_IPin
	mov	rcx, QWORD PTR pUnk$[rsp]
	call	QWORD PTR [rax]
	mov	DWORD PTR hr$[rsp], eax
; Line 1144
	cmp	DWORD PTR hr$[rsp], 0
	jl	SHORT $LN6@CDisp@5
; Line 1146
	mov	rdx, QWORD PTR pp$[rsp]
	lea	rcx, QWORD PTR $T85048[rsp]
	call	??0CDisp@@QEAA@PEAUIPin@@@Z		; CDisp::CDisp
	lea	rcx, QWORD PTR $T85048[rsp]
	call	??1CDisp@@QEAA@XZ			; CDisp::~CDisp
; Line 1147
	mov	rax, QWORD PTR pp$[rsp]
	mov	rax, QWORD PTR [rax]
	mov	rcx, QWORD PTR pp$[rsp]
	call	QWORD PTR [rax+16]
	npad	1
$LN6@CDisp@5:
; Line 1150
	mov	rax, QWORD PTR this$[rsp]
	mov	rdi, rax
	mov	rcx, rsp
	lea	rdx, OFFSET FLAT:??0CDisp@@QEAA@PEAUIUnknown@@@Z$rtcFrameData
	call	_RTC_CheckStackVars
	mov	rax, rdi
	mov	rcx, QWORD PTR __$ArrayPad$[rsp]
	xor	rcx, rsp
	call	__security_check_cookie
	add	rsp, 560				; 00000230H
	pop	rdi
	ret	0
??0CDisp@@QEAA@PEAUIUnknown@@@Z ENDP			; CDisp::CDisp
; Function compile flags: /Odtp /RTCsu
_TEXT	ENDS
;	COMDAT text$x
text$x	SEGMENT
pf$ = 40
hr$ = 52
fi$85036 = 80
pp$ = 376
$T85048 = 400
$T86226 = 520
$T86234 = 528
tv137 = 536
__$ArrayPad$ = 544
this$ = 576
pUnk$ = 584
?dtor$0@?0???0CDisp@@QEAA@PEAUIUnknown@@@Z@4HA PROC	; `CDisp::CDisp'::`1'::dtor$0
	mov	QWORD PTR [rsp+8], rcx
	mov	QWORD PTR [rsp+16], rdx
	push	rbp
	push	rdi
	sub	rsp, 40					; 00000028H
	mov	rbp, rdx
	mov	rcx, QWORD PTR this$[rbp]
	call	??1CDispBasic@@QEAA@XZ			; CDispBasic::~CDispBasic
	add	rsp, 40					; 00000028H
	pop	rdi
	pop	rbp
	ret	0
?dtor$0@?0???0CDisp@@QEAA@PEAUIUnknown@@@Z@4HA ENDP	; `CDisp::CDisp'::`1'::dtor$0
text$x	ENDS
;	COMDAT pdata
pdata	SEGMENT
$pdata$??1CDisp@@QEAA@XZ DD imagerel $LN4
	DD	imagerel $LN4+46
	DD	imagerel $unwind$??1CDisp@@QEAA@XZ
pdata	ENDS
;	COMDAT xdata
xdata	SEGMENT
$unwind$??1CDisp@@QEAA@XZ DD 021e01H
	DD	07006320aH
; Function compile flags: /Odtp /RTCsu
xdata	ENDS
;	COMDAT ??1CDisp@@QEAA@XZ
_TEXT	SEGMENT
this$ = 48
??1CDisp@@QEAA@XZ PROC					; CDisp::~CDisp, COMDAT
; Line 1154
$LN4:
	mov	QWORD PTR [rsp+8], rcx
	push	rdi
	sub	rsp, 32					; 00000020H
	mov	rdi, rsp
	mov	ecx, 8
	mov	eax, -858993460				; ccccccccH
	rep stosd
	mov	rcx, QWORD PTR [rsp+48]
; Line 1155
	mov	rcx, QWORD PTR this$[rsp]
	call	??1CDispBasic@@QEAA@XZ			; CDispBasic::~CDispBasic
	add	rsp, 32					; 00000020H
	pop	rdi
	ret	0
??1CDisp@@QEAA@XZ ENDP					; CDisp::~CDisp
_TEXT	ENDS
;	COMDAT pdata
pdata	SEGMENT
$pdata$??1CDispBasic@@QEAA@XZ DD imagerel $LN4
	DD	imagerel $LN4+78
	DD	imagerel $unwind$??1CDispBasic@@QEAA@XZ
pdata	ENDS
;	COMDAT xdata
xdata	SEGMENT
$unwind$??1CDispBasic@@QEAA@XZ DD 021e01H
	DD	07006520aH
; Function compile flags: /Odtp /RTCsu
xdata	ENDS
;	COMDAT ??1CDispBasic@@QEAA@XZ
_TEXT	SEGMENT
$T86268 = 32
this$ = 64
??1CDispBasic@@QEAA@XZ PROC				; CDispBasic::~CDispBasic, COMDAT
; Line 1158
$LN4:
	mov	QWORD PTR [rsp+8], rcx
	push	rdi
	sub	rsp, 48					; 00000030H
	mov	rdi, rsp
	mov	ecx, 12
	mov	eax, -858993460				; ccccccccH
	rep stosd
	mov	rcx, QWORD PTR [rsp+64]
; Line 1159
	mov	rax, QWORD PTR this$[rsp]
	add	rax, 8
	mov	rcx, QWORD PTR this$[rsp]
	cmp	QWORD PTR [rcx], rax
	je	SHORT $LN1@CDispBasic
; Line 1160
	mov	rax, QWORD PTR this$[rsp]
	mov	rax, QWORD PTR [rax]
	mov	QWORD PTR $T86268[rsp], rax
	mov	rcx, QWORD PTR $T86268[rsp]
	call	??3@YAXPEAX@Z				; operator delete
$LN1@CDispBasic:
; Line 1162
	add	rsp, 48					; 00000030H
	pop	rdi
	ret	0
??1CDispBasic@@QEAA@XZ ENDP				; CDispBasic::~CDispBasic
_TEXT	ENDS
PUBLIC	??0CDisp@@QEAA@N@Z				; CDisp::CDisp
EXTRN	_swprintf:PROC
EXTRN	_fltused:DWORD
;	COMDAT pdata
pdata	SEGMENT
$pdata$??0CDisp@@QEAA@N@Z DD imagerel $LN4
	DD	imagerel $LN4+92
	DD	imagerel $unwind$??0CDisp@@QEAA@N@Z
pdata	ENDS
;	COMDAT xdata
xdata	SEGMENT
$unwind$??0CDisp@@QEAA@N@Z DD 022401H
	DD	0700c3210H
; Function compile flags: /Odtp /RTCsu
xdata	ENDS
;	COMDAT ??0CDisp@@QEAA@N@Z
_TEXT	SEGMENT
this$ = 48
d$ = 56
??0CDisp@@QEAA@N@Z PROC					; CDisp::CDisp, COMDAT
; Line 1165
$LN4:
	movsdx	QWORD PTR [rsp+16], xmm1
	mov	QWORD PTR [rsp+8], rcx
	push	rdi
	sub	rsp, 32					; 00000020H
	mov	rdi, rsp
	mov	ecx, 8
	mov	eax, -858993460				; ccccccccH
	rep stosd
	mov	rcx, QWORD PTR [rsp+48]
	mov	rcx, QWORD PTR this$[rsp]
	call	??0CDispBasic@@QEAA@XZ			; CDispBasic::CDispBasic
; Line 1167
	mov	rax, QWORD PTR this$[rsp]
	add	rax, 8
	movsdx	xmm2, QWORD PTR d$[rsp]
	movd	r8, xmm2
	lea	rdx, OFFSET FLAT:$SG85061
	mov	rcx, rax
	call	_swprintf
; Line 1171
	mov	rax, QWORD PTR this$[rsp]
	add	rsp, 32					; 00000020H
	pop	rdi
	ret	0
??0CDisp@@QEAA@N@Z ENDP					; CDisp::CDisp
_TEXT	ENDS
PUBLIC	!=
PUBLIC	?DisplayType@@YAXPEA_WPEBU_AMMediaType@@@Z	; DisplayType
EXTRN	MEDIASUBTYPE_MPEG1Packet:BYTE
EXTRN	MEDIATYPE_Audio:BYTE
EXTRN	FORMAT_VideoInfo:BYTE
EXTRN	GetSubtypeNameW:PROC
;	COMDAT pdata
pdata	SEGMENT
$pdata$?DisplayType@@YAXPEA_WPEBU_AMMediaType@@@Z DD imagerel $LN16
	DD	imagerel $LN16+1343
	DD	imagerel $unwind$?DisplayType@@YAXPEA_WPEBU_AMMediaType@@@Z
pdata	ENDS
;	COMDAT xdata
xdata	SEGMENT
$unwind$?DisplayType@@YAXPEA_WPEBU_AMMediaType@@@Z DD 022301H
	DD	0700bb20fH
; Function compile flags: /Odtp /RTCsu
xdata	ENDS
;	COMDAT ?DisplayType@@YAXPEA_WPEBU_AMMediaType@@@Z
_TEXT	SEGMENT
pbmi$85078 = 64
pVideoInfo$85080 = 72
pwfx$85100 = 80
tv68 = 88
label$ = 112
pmtIn$ = 120
?DisplayType@@YAXPEA_WPEBU_AMMediaType@@@Z PROC		; DisplayType, COMDAT
; Line 1182
$LN16:
	mov	QWORD PTR [rsp+16], rdx
	mov	QWORD PTR [rsp+8], rcx
	push	rdi
	sub	rsp, 96					; 00000060H
	mov	rdi, rsp
	mov	ecx, 24
	mov	eax, -858993460				; ccccccccH
	rep stosd
	mov	rcx, QWORD PTR [rsp+112]
; Line 1186
	lea	r8, OFFSET FLAT:$SG85066
	mov	edx, 5
	mov	ecx, 2
	call	?DbgLogInfo@@YAXKKPEB_WZZ		; DbgLogInfo
; Line 1189
	mov	rax, QWORD PTR pmtIn$[rsp]
	add	rax, 16
	mov	rdx, rax
	lea	rcx, OFFSET FLAT:?GuidNames@@3VCGuidNameList@@A ; GuidNames
	call	??ACGuidNameList@@QEAAPEADAEBU_GUID@@@Z	; CGuidNameList::operator[]
	mov	QWORD PTR tv68[rsp], rax
	mov	rdx, QWORD PTR pmtIn$[rsp]
	lea	rcx, OFFSET FLAT:?GuidNames@@3VCGuidNameList@@A ; GuidNames
	call	??ACGuidNameList@@QEAAPEADAEBU_GUID@@@Z	; CGuidNameList::operator[]
	mov	rcx, QWORD PTR tv68[rsp]
	mov	QWORD PTR [rsp+40], rcx
	mov	QWORD PTR [rsp+32], rax
	mov	r9, QWORD PTR label$[rsp]
	lea	r8, OFFSET FLAT:$SG85067
	mov	edx, 2
	mov	ecx, 2
	call	?DbgLogInfo@@YAXKKPEB_WZZ		; DbgLogInfo
; Line 1190
	mov	rax, QWORD PTR pmtIn$[rsp]
	add	rax, 16
	mov	rcx, rax
	call	GetSubtypeNameW
	mov	r9, rax
	lea	r8, OFFSET FLAT:$SG85068
	mov	edx, 5
	mov	ecx, 2
	call	?DbgLogInfo@@YAXKKPEB_WZZ		; DbgLogInfo
; Line 1194
	mov	rax, QWORD PTR pmtIn$[rsp]
	cmp	DWORD PTR [rax+36], 0
	je	SHORT $LN13@DisplayTyp
; Line 1195
	lea	r8, OFFSET FLAT:$SG85070
	mov	edx, 5
	mov	ecx, 2
	call	?DbgLogInfo@@YAXKKPEB_WZZ		; DbgLogInfo
; Line 1196
	jmp	SHORT $LN12@DisplayTyp
$LN13@DisplayTyp:
; Line 1197
	lea	r8, OFFSET FLAT:$SG85072
	mov	edx, 5
	mov	ecx, 2
	call	?DbgLogInfo@@YAXKKPEB_WZZ		; DbgLogInfo
$LN12@DisplayTyp:
; Line 1200
	mov	rax, QWORD PTR pmtIn$[rsp]
	cmp	DWORD PTR [rax+32], 0
	je	SHORT $LN11@DisplayTyp
; Line 1201
	mov	rax, QWORD PTR pmtIn$[rsp]
	mov	r9d, DWORD PTR [rax+40]
	lea	r8, OFFSET FLAT:$SG85074
	mov	edx, 5
	mov	ecx, 2
	call	?DbgLogInfo@@YAXKKPEB_WZZ		; DbgLogInfo
; Line 1202
	jmp	SHORT $LN10@DisplayTyp
$LN11@DisplayTyp:
; Line 1203
	lea	r8, OFFSET FLAT:$SG85076
	mov	edx, 5
	mov	ecx, 2
	call	?DbgLogInfo@@YAXKKPEB_WZZ		; DbgLogInfo
$LN10@DisplayTyp:
; Line 1206
	mov	rax, QWORD PTR pmtIn$[rsp]
	add	rax, 44					; 0000002cH
	lea	rdx, OFFSET FLAT:FORMAT_VideoInfo
	mov	rcx, rax
	call	==
	test	eax, eax
	je	$LN9@DisplayTyp
; Line 1208
	mov	rax, QWORD PTR pmtIn$[rsp]
	mov	rax, QWORD PTR [rax+80]
	add	rax, 48					; 00000030H
	mov	QWORD PTR pbmi$85078[rsp], rax
; Line 1209
	mov	rax, QWORD PTR pmtIn$[rsp]
	mov	rax, QWORD PTR [rax+80]
	mov	QWORD PTR pVideoInfo$85080[rsp], rax
; Line 1215
	mov	rax, QWORD PTR pVideoInfo$85080[rsp]
	mov	eax, DWORD PTR [rax+12]
	mov	DWORD PTR [rsp+48], eax
	mov	rax, QWORD PTR pVideoInfo$85080[rsp]
	mov	eax, DWORD PTR [rax+8]
	mov	DWORD PTR [rsp+40], eax
	mov	rax, QWORD PTR pVideoInfo$85080[rsp]
	mov	eax, DWORD PTR [rax+4]
	mov	DWORD PTR [rsp+32], eax
	mov	rax, QWORD PTR pVideoInfo$85080[rsp]
	mov	r9d, DWORD PTR [rax]
	lea	r8, OFFSET FLAT:$SG85082
	mov	edx, 5
	mov	ecx, 2
	call	?DbgLogInfo@@YAXKKPEB_WZZ		; DbgLogInfo
; Line 1221
	mov	rax, QWORD PTR pVideoInfo$85080[rsp]
	mov	eax, DWORD PTR [rax+28]
	mov	DWORD PTR [rsp+48], eax
	mov	rax, QWORD PTR pVideoInfo$85080[rsp]
	mov	eax, DWORD PTR [rax+24]
	mov	DWORD PTR [rsp+40], eax
	mov	rax, QWORD PTR pVideoInfo$85080[rsp]
	mov	eax, DWORD PTR [rax+20]
	mov	DWORD PTR [rsp+32], eax
	mov	rax, QWORD PTR pVideoInfo$85080[rsp]
	mov	r9d, DWORD PTR [rax+16]
	lea	r8, OFFSET FLAT:$SG85083
	mov	edx, 5
	mov	ecx, 2
	call	?DbgLogInfo@@YAXKKPEB_WZZ		; DbgLogInfo
; Line 1223
	mov	rax, QWORD PTR pbmi$85078[rsp]
	mov	r9d, DWORD PTR [rax]
	lea	r8, OFFSET FLAT:$SG85084
	mov	edx, 5
	mov	ecx, 2
	call	?DbgLogInfo@@YAXKKPEB_WZZ		; DbgLogInfo
; Line 1224
	mov	rax, QWORD PTR pbmi$85078[rsp]
	cmp	DWORD PTR [rax+16], 256			; 00000100H
	jae	SHORT $LN8@DisplayTyp
; Line 1227
	mov	rax, QWORD PTR pbmi$85078[rsp]
	movzx	eax, WORD PTR [rax+14]
	mov	rcx, QWORD PTR pbmi$85078[rsp]
	mov	ecx, DWORD PTR [rcx+16]
	mov	DWORD PTR [rsp+48], ecx
	mov	DWORD PTR [rsp+40], eax
	mov	rax, QWORD PTR pbmi$85078[rsp]
	mov	eax, DWORD PTR [rax+8]
	mov	DWORD PTR [rsp+32], eax
	mov	rax, QWORD PTR pbmi$85078[rsp]
	mov	r9d, DWORD PTR [rax+4]
	lea	r8, OFFSET FLAT:$SG85086
	mov	edx, 2
	mov	ecx, 2
	call	?DbgLogInfo@@YAXKKPEB_WZZ		; DbgLogInfo
; Line 1228
	jmp	SHORT $LN7@DisplayTyp
$LN8@DisplayTyp:
; Line 1231
	mov	rax, QWORD PTR pbmi$85078[rsp]
	add	rax, 16
	mov	rcx, QWORD PTR pbmi$85078[rsp]
	movzx	ecx, WORD PTR [rcx+14]
	mov	QWORD PTR [rsp+48], rax
	mov	DWORD PTR [rsp+40], ecx
	mov	rax, QWORD PTR pbmi$85078[rsp]
	mov	eax, DWORD PTR [rax+8]
	mov	DWORD PTR [rsp+32], eax
	mov	rax, QWORD PTR pbmi$85078[rsp]
	mov	r9d, DWORD PTR [rax+4]
	lea	r8, OFFSET FLAT:$SG85088
	mov	edx, 2
	mov	ecx, 2
	call	?DbgLogInfo@@YAXKKPEB_WZZ		; DbgLogInfo
$LN7@DisplayTyp:
; Line 1234
	mov	rax, QWORD PTR pbmi$85078[rsp]
	mov	r9d, DWORD PTR [rax+20]
	lea	r8, OFFSET FLAT:$SG85089
	mov	edx, 2
	mov	ecx, 2
	call	?DbgLogInfo@@YAXKKPEB_WZZ		; DbgLogInfo
; Line 1235
	mov	rax, QWORD PTR pbmi$85078[rsp]
	movzx	eax, WORD PTR [rax+12]
	mov	r9d, eax
	lea	r8, OFFSET FLAT:$SG85090
	mov	edx, 5
	mov	ecx, 2
	call	?DbgLogInfo@@YAXKKPEB_WZZ		; DbgLogInfo
; Line 1236
	mov	rax, QWORD PTR pbmi$85078[rsp]
	mov	r9d, DWORD PTR [rax+24]
	lea	r8, OFFSET FLAT:$SG85091
	mov	edx, 5
	mov	ecx, 2
	call	?DbgLogInfo@@YAXKKPEB_WZZ		; DbgLogInfo
; Line 1237
	mov	rax, QWORD PTR pbmi$85078[rsp]
	mov	r9d, DWORD PTR [rax+28]
	lea	r8, OFFSET FLAT:$SG85092
	mov	edx, 5
	mov	ecx, 2
	call	?DbgLogInfo@@YAXKKPEB_WZZ		; DbgLogInfo
; Line 1238
	mov	rax, QWORD PTR pbmi$85078[rsp]
	mov	r9d, DWORD PTR [rax+32]
	lea	r8, OFFSET FLAT:$SG85093
	mov	edx, 5
	mov	ecx, 2
	call	?DbgLogInfo@@YAXKKPEB_WZZ		; DbgLogInfo
	jmp	$LN6@DisplayTyp
$LN9@DisplayTyp:
; Line 1240
	lea	rdx, OFFSET FLAT:MEDIATYPE_Audio
	mov	rcx, QWORD PTR pmtIn$[rsp]
	call	==
	test	eax, eax
	je	$LN5@DisplayTyp
; Line 1242
	mov	rax, QWORD PTR pmtIn$[rsp]
	add	rax, 44					; 0000002cH
	mov	rdx, rax
	lea	rcx, OFFSET FLAT:?GuidNames@@3VCGuidNameList@@A ; GuidNames
	call	??ACGuidNameList@@QEAAPEADAEBU_GUID@@@Z	; CGuidNameList::operator[]
	mov	r9, rax
	lea	r8, OFFSET FLAT:$SG85096
	mov	edx, 2
	mov	ecx, 2
	call	?DbgLogInfo@@YAXKKPEB_WZZ		; DbgLogInfo
; Line 1244
	mov	rax, QWORD PTR pmtIn$[rsp]
	add	rax, 16
	mov	rdx, rax
	lea	rcx, OFFSET FLAT:?GuidNames@@3VCGuidNameList@@A ; GuidNames
	call	??ACGuidNameList@@QEAAPEADAEBU_GUID@@@Z	; CGuidNameList::operator[]
	mov	r9, rax
	lea	r8, OFFSET FLAT:$SG85097
	mov	edx, 2
	mov	ecx, 2
	call	?DbgLogInfo@@YAXKKPEB_WZZ		; DbgLogInfo
; Line 1247
	mov	rax, QWORD PTR pmtIn$[rsp]
	add	rax, 16
	lea	rdx, OFFSET FLAT:MEDIASUBTYPE_MPEG1Packet
	mov	rcx, rax
	call	!=
	test	eax, eax
	je	$LN4@DisplayTyp
	mov	rax, QWORD PTR pmtIn$[rsp]
	mov	eax, DWORD PTR [rax+72]
	cmp	rax, 16
	jb	$LN4@DisplayTyp
; Line 1251
	mov	rax, QWORD PTR pmtIn$[rsp]
	mov	rax, QWORD PTR [rax+80]
	mov	QWORD PTR pwfx$85100[rsp], rax
; Line 1252
	mov	rax, QWORD PTR pwfx$85100[rsp]
	movzx	eax, WORD PTR [rax]
	mov	r9d, eax
	lea	r8, OFFSET FLAT:$SG85102
	mov	edx, 2
	mov	ecx, 2
	call	?DbgLogInfo@@YAXKKPEB_WZZ		; DbgLogInfo
; Line 1253
	mov	rax, QWORD PTR pwfx$85100[rsp]
	movzx	eax, WORD PTR [rax+2]
	mov	r9d, eax
	lea	r8, OFFSET FLAT:$SG85103
	mov	edx, 2
	mov	ecx, 2
	call	?DbgLogInfo@@YAXKKPEB_WZZ		; DbgLogInfo
; Line 1254
	mov	rax, QWORD PTR pwfx$85100[rsp]
	mov	r9d, DWORD PTR [rax+4]
	lea	r8, OFFSET FLAT:$SG85104
	mov	edx, 2
	mov	ecx, 2
	call	?DbgLogInfo@@YAXKKPEB_WZZ		; DbgLogInfo
; Line 1255
	mov	rax, QWORD PTR pwfx$85100[rsp]
	mov	r9d, DWORD PTR [rax+8]
	lea	r8, OFFSET FLAT:$SG85105
	mov	edx, 2
	mov	ecx, 2
	call	?DbgLogInfo@@YAXKKPEB_WZZ		; DbgLogInfo
; Line 1256
	mov	rax, QWORD PTR pwfx$85100[rsp]
	movzx	eax, WORD PTR [rax+12]
	mov	r9d, eax
	lea	r8, OFFSET FLAT:$SG85106
	mov	edx, 2
	mov	ecx, 2
	call	?DbgLogInfo@@YAXKKPEB_WZZ		; DbgLogInfo
; Line 1257
	mov	rax, QWORD PTR pwfx$85100[rsp]
	movzx	eax, WORD PTR [rax+14]
	mov	r9d, eax
	lea	r8, OFFSET FLAT:$SG85107
	mov	edx, 2
	mov	ecx, 2
	call	?DbgLogInfo@@YAXKKPEB_WZZ		; DbgLogInfo
; Line 1261
	mov	rax, QWORD PTR pmtIn$[rsp]
	mov	eax, DWORD PTR [rax+72]
	cmp	rax, 18
	jb	SHORT $LN3@DisplayTyp
; Line 1262
	mov	rax, QWORD PTR pwfx$85100[rsp]
	movzx	eax, WORD PTR [rax+16]
	mov	r9d, eax
	lea	r8, OFFSET FLAT:$SG85110
	mov	edx, 2
	mov	ecx, 2
	call	?DbgLogInfo@@YAXKKPEB_WZZ		; DbgLogInfo
$LN3@DisplayTyp:
$LN4@DisplayTyp:
; Line 1267
	jmp	SHORT $LN1@DisplayTyp
$LN5@DisplayTyp:
; Line 1269
	mov	rax, QWORD PTR pmtIn$[rsp]
	add	rax, 44					; 0000002cH
	mov	rdx, rax
	lea	rcx, OFFSET FLAT:?GuidNames@@3VCGuidNameList@@A ; GuidNames
	call	??ACGuidNameList@@QEAAPEADAEBU_GUID@@@Z	; CGuidNameList::operator[]
	mov	r9, rax
	lea	r8, OFFSET FLAT:$SG85113
	mov	edx, 2
	mov	ecx, 2
	call	?DbgLogInfo@@YAXKKPEB_WZZ		; DbgLogInfo
$LN1@DisplayTyp:
$LN6@DisplayTyp:
; Line 1272
	add	rsp, 96					; 00000060H
	pop	rdi
	ret	0
?DisplayType@@YAXPEA_WPEBU_AMMediaType@@@Z ENDP		; DisplayType
_TEXT	ENDS
;	COMDAT pdata
; File c:\program files (x86)\microsoft sdks\windows\v7.0a\include\guiddef.h
pdata	SEGMENT
$pdata$!= DD	imagerel $LN5
	DD	imagerel $LN5+82
	DD	imagerel $unwind$!=
pdata	ENDS
;	COMDAT xdata
xdata	SEGMENT
$unwind$!= DD	022301H
	DD	0700b520fH
; Function compile flags: /Odtp /RTCsu
xdata	ENDS
;	COMDAT !=
_TEXT	SEGMENT
tv68 = 32
guidOne$ = 64
guidOther$ = 72
!=	PROC						; COMDAT
; Line 198
$LN5:
	mov	QWORD PTR [rsp+16], rdx
	mov	QWORD PTR [rsp+8], rcx
	push	rdi
	sub	rsp, 48					; 00000030H
	mov	rdi, rsp
	mov	ecx, 12
	mov	eax, -858993460				; ccccccccH
	rep stosd
	mov	rcx, QWORD PTR [rsp+64]
; Line 199
	mov	rdx, QWORD PTR guidOther$[rsp]
	mov	rcx, QWORD PTR guidOne$[rsp]
	call	==
	test	eax, eax
	jne	SHORT $LN3@
	mov	DWORD PTR tv68[rsp], 1
	jmp	SHORT $LN4@
$LN3@:
	mov	DWORD PTR tv68[rsp], 0
$LN4@:
	mov	eax, DWORD PTR tv68[rsp]
; Line 200
	add	rsp, 48					; 00000030H
	pop	rdi
	ret	0
!=	ENDP
_TEXT	ENDS
PUBLIC	__$ArrayPad$
PUBLIC	?DumpGraph@@YAXPEAUIFilterGraph@@K@Z		; DumpGraph
EXTRN	?FreeMediaType@@YAXAEAU_AMMediaType@@@Z:PROC	; FreeMediaType
;	COMDAT pdata
; File c:\downloads\wpf mediakit - copy\src\filters\baseclasses\wxdebug.cpp
pdata	SEGMENT
$pdata$?DumpGraph@@YAXPEAUIFilterGraph@@K@Z DD imagerel $LN25
	DD	imagerel $LN25+1069
	DD	imagerel $unwind$?DumpGraph@@YAXPEAUIFilterGraph@@K@Z
pdata	ENDS
;	COMDAT xdata
xdata	SEGMENT
$unwind$?DumpGraph@@YAXPEAUIFilterGraph@@K@Z DD 033a19H
	DD	0800111H
	DD	0700aH
	DD	imagerel __GSHandlerCheck
	DD	03f0H
xdata	ENDS
;	COMDAT CONST
CONST	SEGMENT
?DumpGraph@@YAXPEAUIFilterGraph@@K@Z$rtcName$0 DB 070H	; DumpGraph
	DB	046H
	DB	069H
	DB	06cH
	DB	074H
	DB	065H
	DB	072H
	DB	073H
	DB	00H
	ORG $+7
?DumpGraph@@YAXPEAUIFilterGraph@@K@Z$rtcName$1 DB 070H	; DumpGraph
	DB	046H
	DB	069H
	DB	06cH
	DB	074H
	DB	065H
	DB	072H
	DB	00H
?DumpGraph@@YAXPEAUIFilterGraph@@K@Z$rtcName$2 DB 06eH	; DumpGraph
	DB	00H
	ORG $+2
?DumpGraph@@YAXPEAUIFilterGraph@@K@Z$rtcName$3 DB 069H	; DumpGraph
	DB	06eH
	DB	066H
	DB	06fH
	DB	00H
	ORG $+3
?DumpGraph@@YAXPEAUIFilterGraph@@K@Z$rtcName$4 DB 070H	; DumpGraph
	DB	069H
	DB	06eH
	DB	073H
	DB	00H
	ORG $+3
?DumpGraph@@YAXPEAUIFilterGraph@@K@Z$rtcName$5 DB 070H	; DumpGraph
	DB	050H
	DB	069H
	DB	06eH
	DB	00H
	ORG $+3
?DumpGraph@@YAXPEAUIFilterGraph@@K@Z$rtcName$6 DB 069H	; DumpGraph
	DB	06eH
	DB	066H
	DB	06fH
	DB	00H
	ORG $+3
?DumpGraph@@YAXPEAUIFilterGraph@@K@Z$rtcName$8 DB 06dH	; DumpGraph
	DB	074H
	DB	00H
	ORG $+1
?DumpGraph@@YAXPEAUIFilterGraph@@K@Z$rtcName$7 DB 070H	; DumpGraph
	DB	050H
	DB	069H
	DB	06eH
	DB	043H
	DB	06fH
	DB	06eH
	DB	06eH
	DB	065H
	DB	063H
	DB	074H
	DB	065H
	DB	064H
	DB	00H
	ORG $+2
?DumpGraph@@YAXPEAUIFilterGraph@@K@Z$rtcVarDesc DD 0370H ; DumpGraph
	DD	058H
	DQ	FLAT:?DumpGraph@@YAXPEAUIFilterGraph@@K@Z$rtcName$8
	DD	0348H
	DD	08H
	DQ	FLAT:?DumpGraph@@YAXPEAUIFilterGraph@@K@Z$rtcName$7
	DD	0220H
	DD	0110H
	DQ	FLAT:?DumpGraph@@YAXPEAUIFilterGraph@@K@Z$rtcName$6
	DD	01f8H
	DD	08H
	DQ	FLAT:?DumpGraph@@YAXPEAUIFilterGraph@@K@Z$rtcName$5
	DD	01d8H
	DD	08H
	DQ	FLAT:?DumpGraph@@YAXPEAUIFilterGraph@@K@Z$rtcName$4
	DD	0b0H
	DD	0108H
	DQ	FLAT:?DumpGraph@@YAXPEAUIFilterGraph@@K@Z$rtcName$3
	DD	084H
	DD	04H
	DQ	FLAT:?DumpGraph@@YAXPEAUIFilterGraph@@K@Z$rtcName$2
	DD	068H
	DD	08H
	DQ	FLAT:?DumpGraph@@YAXPEAUIFilterGraph@@K@Z$rtcName$1
	DD	048H
	DD	08H
	DQ	FLAT:?DumpGraph@@YAXPEAUIFilterGraph@@K@Z$rtcName$0
	ORG $+432
?DumpGraph@@YAXPEAUIFilterGraph@@K@Z$rtcFrameData DD 09H ; DumpGraph
	DD	00H
	DQ	FLAT:?DumpGraph@@YAXPEAUIFilterGraph@@K@Z$rtcVarDesc
; Function compile flags: /Odtp /RTCsu
CONST	ENDS
;	COMDAT ?DumpGraph@@YAXPEAUIFilterGraph@@K@Z
_TEXT	SEGMENT
pFilters$ = 72
pFilter$ = 104
n$ = 132
info$85130 = 176
pins$85137 = 472
pPin$85142 = 504
info$85147 = 544
pPinConnected$85153 = 840
hr$85154 = 852
mt$85160 = 880
tv184 = 992
tv209 = 1000
__$ArrayPad$ = 1008
pGraph$ = 1040
dwLevel$ = 1048
?DumpGraph@@YAXPEAUIFilterGraph@@K@Z PROC		; DumpGraph, COMDAT
; Line 1276
$LN25:
	mov	DWORD PTR [rsp+16], edx
	mov	QWORD PTR [rsp+8], rcx
	push	rdi
	sub	rsp, 1024				; 00000400H
	mov	rdi, rsp
	mov	ecx, 256				; 00000100H
	mov	eax, -858993460				; ccccccccH
	rep stosd
	mov	rcx, QWORD PTR [rsp+1040]
	mov	rax, QWORD PTR __security_cookie
	xor	rax, rsp
	mov	QWORD PTR __$ArrayPad$[rsp], rax
; Line 1277
	cmp	QWORD PTR pGraph$[rsp], 0
	jne	SHORT $LN18@DumpGraph
; Line 1279
	jmp	$LN19@DumpGraph
$LN18@DumpGraph:
; Line 1284
	mov	r9, QWORD PTR pGraph$[rsp]
	lea	r8, OFFSET FLAT:$SG85120
	mov	edx, DWORD PTR dwLevel$[rsp]
	mov	ecx, 2
	call	?DbgLogInfo@@YAXKKPEB_WZZ		; DbgLogInfo
; Line 1286
	mov	rax, QWORD PTR pGraph$[rsp]
	mov	rax, QWORD PTR [rax]
	lea	rdx, QWORD PTR pFilters$[rsp]
	mov	rcx, QWORD PTR pGraph$[rsp]
	call	QWORD PTR [rax+40]
	test	eax, eax
	jge	SHORT $LN17@DumpGraph
; Line 1287
	lea	r8, OFFSET FLAT:$SG85123
	mov	edx, DWORD PTR dwLevel$[rsp]
	mov	ecx, 2
	call	?DbgLogInfo@@YAXKKPEB_WZZ		; DbgLogInfo
$LN17@DumpGraph:
$LN16@DumpGraph:
; Line 1292
	mov	rax, QWORD PTR pFilters$[rsp]
	mov	rax, QWORD PTR [rax]
	lea	r9, QWORD PTR n$[rsp]
	lea	r8, QWORD PTR pFilter$[rsp]
	mov	edx, 1
	mov	rcx, QWORD PTR pFilters$[rsp]
	call	QWORD PTR [rax+24]
	test	eax, eax
	jne	$LN15@DumpGraph
; Line 1295
	mov	rax, QWORD PTR pFilter$[rsp]
	mov	rax, QWORD PTR [rax]
	lea	rdx, QWORD PTR info$85130[rsp]
	mov	rcx, QWORD PTR pFilter$[rsp]
	call	QWORD PTR [rax+96]
	test	eax, eax
	jge	SHORT $LN14@DumpGraph
; Line 1296
	mov	r9, QWORD PTR pFilter$[rsp]
	lea	r8, OFFSET FLAT:$SG85133
	mov	edx, DWORD PTR dwLevel$[rsp]
	mov	ecx, 2
	call	?DbgLogInfo@@YAXKKPEB_WZZ		; DbgLogInfo
; Line 1297
	jmp	$LN13@DumpGraph
$LN14@DumpGraph:
; Line 1298
	cmp	QWORD PTR info$85130[rsp+256], 0
	je	SHORT $LN12@DumpGraph
	mov	rax, QWORD PTR info$85130[rsp+256]
	mov	rax, QWORD PTR [rax]
	mov	rcx, QWORD PTR info$85130[rsp+256]
	call	QWORD PTR [rax+16]
$LN12@DumpGraph:
; Line 1302
	lea	rax, QWORD PTR info$85130[rsp]
	mov	QWORD PTR [rsp+32], rax
	mov	r9, QWORD PTR pFilter$[rsp]
	lea	r8, OFFSET FLAT:$SG85136
	mov	edx, DWORD PTR dwLevel$[rsp]
	mov	ecx, 2
	call	?DbgLogInfo@@YAXKKPEB_WZZ		; DbgLogInfo
; Line 1306
	mov	rax, QWORD PTR pFilter$[rsp]
	mov	rax, QWORD PTR [rax]
	lea	rdx, QWORD PTR pins$85137[rsp]
	mov	rcx, QWORD PTR pFilter$[rsp]
	call	QWORD PTR [rax+80]
	test	eax, eax
	jge	SHORT $LN11@DumpGraph
; Line 1307
	lea	r8, OFFSET FLAT:$SG85140
	mov	edx, DWORD PTR dwLevel$[rsp]
	mov	ecx, 2
	call	?DbgLogInfo@@YAXKKPEB_WZZ		; DbgLogInfo
; Line 1308
	jmp	$LN10@DumpGraph
$LN11@DumpGraph:
$LN9@DumpGraph:
; Line 1311
	mov	rax, QWORD PTR pins$85137[rsp]
	mov	rax, QWORD PTR [rax]
	lea	r9, QWORD PTR n$[rsp]
	lea	r8, QWORD PTR pPin$85142[rsp]
	mov	edx, 1
	mov	rcx, QWORD PTR pins$85137[rsp]
	call	QWORD PTR [rax+24]
	test	eax, eax
	jne	$LN8@DumpGraph
; Line 1314
	mov	rax, QWORD PTR pPin$85142[rsp]
	mov	rax, QWORD PTR [rax]
	lea	rdx, QWORD PTR info$85147[rsp]
	mov	rcx, QWORD PTR pPin$85142[rsp]
	call	QWORD PTR [rax+64]
	test	eax, eax
	jge	SHORT $LN7@DumpGraph
; Line 1315
	mov	r9, QWORD PTR pPin$85142[rsp]
	lea	r8, OFFSET FLAT:$SG85150
	mov	edx, DWORD PTR dwLevel$[rsp]
	mov	ecx, 2
	call	?DbgLogInfo@@YAXKKPEB_WZZ		; DbgLogInfo
; Line 1316
	jmp	$LN6@DumpGraph
$LN7@DumpGraph:
; Line 1317
	cmp	QWORD PTR info$85147[rsp], 0
	je	SHORT $LN5@DumpGraph
	mov	rax, QWORD PTR info$85147[rsp]
	mov	rax, QWORD PTR [rax]
	mov	rcx, QWORD PTR info$85147[rsp]
	call	QWORD PTR [rax+16]
$LN5@DumpGraph:
; Line 1319
	mov	QWORD PTR pPinConnected$85153[rsp], 0
; Line 1321
	mov	rax, QWORD PTR pPin$85142[rsp]
	mov	rax, QWORD PTR [rax]
	lea	rdx, QWORD PTR pPinConnected$85153[rsp]
	mov	rcx, QWORD PTR pPin$85142[rsp]
	call	QWORD PTR [rax+48]
	mov	DWORD PTR hr$85154[rsp], eax
; Line 1323
	cmp	QWORD PTR pPinConnected$85153[rsp], 0
	je	$LN4@DumpGraph
; Line 1328
	cmp	DWORD PTR info$85147[rsp+8], 0
	jne	SHORT $LN21@DumpGraph
	lea	rax, OFFSET FLAT:$SG85156
	mov	QWORD PTR tv184[rsp], rax
	jmp	SHORT $LN22@DumpGraph
$LN21@DumpGraph:
	lea	rax, OFFSET FLAT:$SG85157
	mov	QWORD PTR tv184[rsp], rax
$LN22@DumpGraph:
	mov	rax, QWORD PTR pPinConnected$85153[rsp]
	mov	QWORD PTR [rsp+48], rax
	mov	rax, QWORD PTR tv184[rsp]
	mov	QWORD PTR [rsp+40], rax
	lea	rax, QWORD PTR info$85147[rsp+12]
	mov	QWORD PTR [rsp+32], rax
	mov	r9, QWORD PTR pPin$85142[rsp]
	lea	r8, OFFSET FLAT:$SG85158
	mov	edx, DWORD PTR dwLevel$[rsp]
	mov	ecx, 2
	call	?DbgLogInfo@@YAXKKPEB_WZZ		; DbgLogInfo
; Line 1330
	mov	rax, QWORD PTR pPinConnected$85153[rsp]
	mov	rax, QWORD PTR [rax]
	mov	rcx, QWORD PTR pPinConnected$85153[rsp]
	call	QWORD PTR [rax+16]
; Line 1334
	cmp	DWORD PTR info$85147[rsp+8], 1
	jne	SHORT $LN3@DumpGraph
; Line 1337
	mov	rax, QWORD PTR pPin$85142[rsp]
	mov	rax, QWORD PTR [rax]
	lea	rdx, QWORD PTR mt$85160[rsp]
	mov	rcx, QWORD PTR pPin$85142[rsp]
	call	QWORD PTR [rax+56]
	mov	DWORD PTR hr$85154[rsp], eax
; Line 1339
	cmp	DWORD PTR hr$85154[rsp], 0
	jl	SHORT $LN2@DumpGraph
; Line 1340
	lea	rdx, QWORD PTR mt$85160[rsp]
	lea	rcx, OFFSET FLAT:$SG85163
	call	?DisplayType@@YAXPEA_WPEBU_AMMediaType@@@Z ; DisplayType
; Line 1342
	lea	rcx, QWORD PTR mt$85160[rsp]
	call	?FreeMediaType@@YAXAEAU_AMMediaType@@@Z	; FreeMediaType
$LN2@DumpGraph:
$LN3@DumpGraph:
; Line 1345
	jmp	SHORT $LN1@DumpGraph
$LN4@DumpGraph:
; Line 1349
	cmp	DWORD PTR info$85147[rsp+8], 0
	jne	SHORT $LN23@DumpGraph
	lea	rax, OFFSET FLAT:$SG85165
	mov	QWORD PTR tv209[rsp], rax
	jmp	SHORT $LN24@DumpGraph
$LN23@DumpGraph:
	lea	rax, OFFSET FLAT:$SG85166
	mov	QWORD PTR tv209[rsp], rax
$LN24@DumpGraph:
	mov	rax, QWORD PTR tv209[rsp]
	mov	QWORD PTR [rsp+40], rax
	lea	rax, QWORD PTR info$85147[rsp+12]
	mov	QWORD PTR [rsp+32], rax
	mov	r9, QWORD PTR pPin$85142[rsp]
	lea	r8, OFFSET FLAT:$SG85167
	mov	edx, DWORD PTR dwLevel$[rsp]
	mov	ecx, 2
	call	?DbgLogInfo@@YAXKKPEB_WZZ		; DbgLogInfo
$LN1@DumpGraph:
$LN6@DumpGraph:
; Line 1354
	mov	rax, QWORD PTR pPin$85142[rsp]
	mov	rax, QWORD PTR [rax]
	mov	rcx, QWORD PTR pPin$85142[rsp]
	call	QWORD PTR [rax+16]
; Line 1356
	jmp	$LN9@DumpGraph
$LN8@DumpGraph:
; Line 1358
	mov	rax, QWORD PTR pins$85137[rsp]
	mov	rax, QWORD PTR [rax]
	mov	rcx, QWORD PTR pins$85137[rsp]
	call	QWORD PTR [rax+16]
$LN10@DumpGraph:
$LN13@DumpGraph:
; Line 1363
	mov	rax, QWORD PTR pFilter$[rsp]
	mov	rax, QWORD PTR [rax]
	mov	rcx, QWORD PTR pFilter$[rsp]
	call	QWORD PTR [rax+16]
; Line 1364
	jmp	$LN16@DumpGraph
$LN15@DumpGraph:
; Line 1366
	mov	rax, QWORD PTR pFilters$[rsp]
	mov	rax, QWORD PTR [rax]
	mov	rcx, QWORD PTR pFilters$[rsp]
	call	QWORD PTR [rax+16]
$LN19@DumpGraph:
; Line 1368
	mov	rcx, rsp
	lea	rdx, OFFSET FLAT:?DumpGraph@@YAXPEAUIFilterGraph@@K@Z$rtcFrameData
	call	_RTC_CheckStackVars
	mov	rcx, QWORD PTR __$ArrayPad$[rsp]
	xor	rcx, rsp
	call	__security_check_cookie
	add	rsp, 1024				; 00000400H
	pop	rdi
	ret	0
?DumpGraph@@YAXPEAUIFilterGraph@@K@Z ENDP		; DumpGraph
_TEXT	ENDS
END
