; Listing generated by Microsoft (R) Optimizing Compiler Version 16.00.30319.01 

include listing.inc

INCLUDELIB LIBCMTD
INCLUDELIB OLDNAMES

PUBLIC	IID_IAMFilterGraphCallback
CONST	SEGMENT
$SG82278 DB	'.', 00H, '.', 00H, '\', 00H, 'w', 00H, 'x', 00H, 'l', 00H
	DB	'i', 00H, 's', 00H, 't', 00H, '.', 00H, 'c', 00H, 'p', 00H, 'p'
	DB	00H, 00H, 00H
	ORG $+4
$SG82279 DB	'p', 00H, 'n', 00H, ' ', 00H, '!', 00H, '=', 00H, ' ', 00H
	DB	'N', 00H, 'U', 00H, 'L', 00H, 'L', 00H, 00H, 00H
	ORG $+2
$SG82314 DB	'.', 00H, '.', 00H, '\', 00H, 'w', 00H, 'x', 00H, 'l', 00H
	DB	'i', 00H, 's', 00H, 't', 00H, '.', 00H, 'c', 00H, 'p', 00H, 'p'
	DB	00H, 00H, 00H
	ORG $+4
$SG82315 DB	'p', 00H, 'C', 00H, 'u', 00H, 'r', 00H, 'r', 00H, 'e', 00H
	DB	'n', 00H, 't', 00H, ' ', 00H, '!', 00H, '=', 00H, ' ', 00H, 'N'
	DB	00H, 'U', 00H, 'L', 00H, 'L', 00H, 00H, 00H
	ORG $+6
$SG82323 DB	'.', 00H, '.', 00H, '\', 00H, 'w', 00H, 'x', 00H, 'l', 00H
	DB	'i', 00H, 's', 00H, 't', 00H, '.', 00H, 'c', 00H, 'p', 00H, 'p'
	DB	00H, 00H, 00H
	ORG $+4
$SG82324 DB	'm', 00H, '_', 00H, 'C', 00H, 'o', 00H, 'u', 00H, 'n', 00H
	DB	't', 00H, ' ', 00H, '>', 00H, '=', 00H, ' ', 00H, '0', 00H, 00H
	DB	00H
	ORG $+6
$SG82382 DB	'.', 00H, '.', 00H, '\', 00H, 'w', 00H, 'x', 00H, 'l', 00H
	DB	'i', 00H, 's', 00H, 't', 00H, '.', 00H, 'c', 00H, 'p', 00H, 'p'
	DB	00H, 00H, 00H
	ORG $+4
$SG82383 DB	'p', 00H, 'A', 00H, 'f', 00H, 't', 00H, 'e', 00H, 'r', 00H
	DB	' ', 00H, '!', 00H, '=', 00H, ' ', 00H, 'N', 00H, 'U', 00H, 'L'
	DB	00H, 'L', 00H, 00H, 00H
	ORG $+2
$SG82395 DB	'.', 00H, '.', 00H, '\', 00H, 'w', 00H, 'x', 00H, 'l', 00H
	DB	'i', 00H, 's', 00H, 't', 00H, '.', 00H, 'c', 00H, 'p', 00H, 'p'
	DB	00H, 00H, 00H
	ORG $+4
$SG82396 DB	'p', 00H, 'B', 00H, 'e', 00H, 'f', 00H, 'o', 00H, 'r', 00H
	DB	'e', 00H, ' ', 00H, '!', 00H, '=', 00H, ' ', 00H, 'N', 00H, 'U'
	DB	00H, 'L', 00H, 'L', 00H, 00H, 00H
$SG82417 DB	'.', 00H, '.', 00H, '\', 00H, 'w', 00H, 'x', 00H, 'l', 00H
	DB	'i', 00H, 's', 00H, 't', 00H, '.', 00H, 'c', 00H, 'p', 00H, 'p'
	DB	00H, 00H, 00H
	ORG $+4
$SG82418 DB	'p', 00H, 'B', 00H, 'e', 00H, 'f', 00H, 'o', 00H, 'r', 00H
	DB	'e', 00H, ' ', 00H, '!', 00H, '=', 00H, ' ', 00H, 'N', 00H, 'U'
	DB	00H, 'L', 00H, 'L', 00H, 00H, 00H
$SG82430 DB	'.', 00H, '.', 00H, '\', 00H, 'w', 00H, 'x', 00H, 'l', 00H
	DB	'i', 00H, 's', 00H, 't', 00H, '.', 00H, 'c', 00H, 'p', 00H, 'p'
	DB	00H, 00H, 00H
	ORG $+4
$SG82431 DB	'p', 00H, 'A', 00H, 'f', 00H, 't', 00H, 'e', 00H, 'r', 00H
	DB	' ', 00H, '!', 00H, '=', 00H, ' ', 00H, 'N', 00H, 'U', 00H, 'L'
	DB	00H, 'L', 00H, 00H, 00H
CONST	ENDS
;	COMDAT IID_IAMFilterGraphCallback
CONST	SEGMENT
IID_IAMFilterGraphCallback DD 056a868fdH
	DW	0ad4H
	DW	011ceH
	DB	0b0H
	DB	0a3H
	DB	00H
	DB	020H
	DB	0afH
	DB	0bH
	DB	0a7H
	DB	070H
CONST	ENDS
PUBLIC	??0CNodeCache@CBaseList@@QEAA@H@Z		; CBaseList::CNodeCache::CNodeCache
PUBLIC	??0CBaseList@@QEAA@PEA_WH@Z			; CBaseList::CBaseList
EXTRN	__CxxFrameHandler3:PROC
EXTRN	??1CBaseObject@@QEAA@XZ:PROC			; CBaseObject::~CBaseObject
EXTRN	??0CBaseObject@@QEAA@PEB_W@Z:PROC		; CBaseObject::CBaseObject
EXTRN	_RTC_Shutdown:PROC
EXTRN	_RTC_InitBase:PROC
;	COMDAT pdata
; File c:\downloads\wpf mediakit - copy\src\filters\baseclasses\wxlist.cpp
pdata	SEGMENT
$pdata$??0CBaseList@@QEAA@PEA_WH@Z DD imagerel $LN5
	DD	imagerel $LN5+136
	DD	imagerel $unwind$??0CBaseList@@QEAA@PEA_WH@Z
pdata	ENDS
;	COMDAT pdata
pdata	SEGMENT
$pdata$?dtor$0@?0???0CBaseList@@QEAA@PEA_WH@Z@4HA DD imagerel ?dtor$0@?0???0CBaseList@@QEAA@PEA_WH@Z@4HA
	DD	imagerel ?dtor$0@?0???0CBaseList@@QEAA@PEA_WH@Z@4HA+35
	DD	imagerel $unwind$?dtor$0@?0???0CBaseList@@QEAA@PEA_WH@Z@4HA
pdata	ENDS
;	COMDAT xdata
xdata	SEGMENT
$ip2state$??0CBaseList@@QEAA@PEA_WH@Z DD imagerel ??0CBaseList@@QEAA@PEA_WH@Z
	DD	0ffffffffH
	DD	imagerel ??0CBaseList@@QEAA@PEA_WH@Z+65
	DD	00H
	DD	imagerel ??0CBaseList@@QEAA@PEA_WH@Z+125
	DD	0ffffffffH
xdata	ENDS
;	COMDAT xdata
xdata	SEGMENT
$unwind$?dtor$0@?0???0CBaseList@@QEAA@PEA_WH@Z@4HA DD 031001H
	DD	0700c4210H
	DD	0500bH
xdata	ENDS
;	COMDAT xdata
xdata	SEGMENT
$unwind$??0CBaseList@@QEAA@PEA_WH@Z DD 023111H
	DD	070105214H
	DD	imagerel __CxxFrameHandler3
	DD	imagerel $cppxdata$??0CBaseList@@QEAA@PEA_WH@Z
xdata	ENDS
;	COMDAT CONST
CONST	SEGMENT
$cppxdata$??0CBaseList@@QEAA@PEA_WH@Z DD 019930522H
	DD	01H
	DD	imagerel $stateUnwindMap$??0CBaseList@@QEAA@PEA_WH@Z
	DD	00H
	DD	00H
	DD	03H
	DD	imagerel $ip2state$??0CBaseList@@QEAA@PEA_WH@Z
	DD	020H
	DD	00H
	DD	01H
CONST	ENDS
;	COMDAT xdata
xdata	SEGMENT
$stateUnwindMap$??0CBaseList@@QEAA@PEA_WH@Z DD 0ffffffffH
	DD	imagerel ?dtor$0@?0???0CBaseList@@QEAA@PEA_WH@Z@4HA
xdata	ENDS
;	COMDAT rtc$TMZ
rtc$TMZ	SEGMENT
_RTC_Shutdown.rtc$TMZ DQ FLAT:_RTC_Shutdown
rtc$TMZ	ENDS
;	COMDAT rtc$IMZ
rtc$IMZ	SEGMENT
_RTC_InitBase.rtc$IMZ DQ FLAT:_RTC_InitBase
; Function compile flags: /Odtp /RTCsu
rtc$IMZ	ENDS
;	COMDAT ??0CBaseList@@QEAA@PEA_WH@Z
_TEXT	SEGMENT
$T83031 = 32
this$ = 64
pName$ = 72
iItems$ = 80
??0CBaseList@@QEAA@PEA_WH@Z PROC			; CBaseList::CBaseList, COMDAT
; Line 90
$LN5:
	mov	DWORD PTR [rsp+24], r8d
	mov	QWORD PTR [rsp+16], rdx
	mov	QWORD PTR [rsp+8], rcx
	push	rdi
	sub	rsp, 48					; 00000030H
	mov	rdi, rsp
	mov	ecx, 12
	mov	eax, -858993460				; ccccccccH
	rep stosd
	mov	rcx, QWORD PTR [rsp+64]
	mov	QWORD PTR $T83031[rsp], -2
	mov	rdx, QWORD PTR pName$[rsp]
	mov	rcx, QWORD PTR this$[rsp]
	call	??0CBaseObject@@QEAA@PEB_W@Z		; CBaseObject::CBaseObject
	npad	1
	mov	rax, QWORD PTR this$[rsp]
	mov	QWORD PTR [rax+8], 0
	mov	rax, QWORD PTR this$[rsp]
	mov	QWORD PTR [rax+16], 0
	mov	rax, QWORD PTR this$[rsp]
	mov	DWORD PTR [rax+24], 0
	mov	rax, QWORD PTR this$[rsp]
	add	rax, 32					; 00000020H
	mov	edx, DWORD PTR iItems$[rsp]
	mov	rcx, rax
	call	??0CNodeCache@CBaseList@@QEAA@H@Z	; CBaseList::CNodeCache::CNodeCache
	npad	1
; Line 91
	mov	rax, QWORD PTR this$[rsp]
	add	rsp, 48					; 00000030H
	pop	rdi
	ret	0
??0CBaseList@@QEAA@PEA_WH@Z ENDP			; CBaseList::CBaseList
; Function compile flags: /Odtp /RTCsu
_TEXT	ENDS
;	COMDAT text$x
text$x	SEGMENT
$T83031 = 32
this$ = 64
pName$ = 72
iItems$ = 80
?dtor$0@?0???0CBaseList@@QEAA@PEA_WH@Z@4HA PROC		; `CBaseList::CBaseList'::`1'::dtor$0
	mov	QWORD PTR [rsp+8], rcx
	mov	QWORD PTR [rsp+16], rdx
	push	rbp
	push	rdi
	sub	rsp, 40					; 00000028H
	mov	rbp, rdx
	mov	rcx, QWORD PTR this$[rbp]
	call	??1CBaseObject@@QEAA@XZ			; CBaseObject::~CBaseObject
	add	rsp, 40					; 00000028H
	pop	rdi
	pop	rbp
	ret	0
?dtor$0@?0???0CBaseList@@QEAA@PEA_WH@Z@4HA ENDP		; `CBaseList::CBaseList'::`1'::dtor$0
text$x	ENDS
;	COMDAT pdata
; File c:\downloads\wpf mediakit - copy\src\filters\baseclasses\wxlist.h
pdata	SEGMENT
$pdata$??0CNodeCache@CBaseList@@QEAA@H@Z DD imagerel $LN3
	DD	imagerel $LN3+53
	DD	imagerel $unwind$??0CNodeCache@CBaseList@@QEAA@H@Z
pdata	ENDS
;	COMDAT xdata
xdata	SEGMENT
$unwind$??0CNodeCache@CBaseList@@QEAA@H@Z DD 010a01H
	DD	0700aH
; Function compile flags: /Odtp /RTCsu
xdata	ENDS
;	COMDAT ??0CNodeCache@CBaseList@@QEAA@H@Z
_TEXT	SEGMENT
this$ = 16
iCacheSize$ = 24
??0CNodeCache@CBaseList@@QEAA@H@Z PROC			; CBaseList::CNodeCache::CNodeCache, COMDAT
; Line 127
$LN3:
	mov	DWORD PTR [rsp+16], edx
	mov	QWORD PTR [rsp+8], rcx
	push	rdi
	mov	rax, QWORD PTR this$[rsp]
	mov	ecx, DWORD PTR iCacheSize$[rsp]
	mov	DWORD PTR [rax], ecx
	mov	rax, QWORD PTR this$[rsp]
	mov	DWORD PTR [rax+4], 0
	mov	rax, QWORD PTR this$[rsp]
	mov	QWORD PTR [rax+8], 0
	mov	rax, QWORD PTR this$[rsp]
	pop	rdi
	ret	0
??0CNodeCache@CBaseList@@QEAA@H@Z ENDP			; CBaseList::CNodeCache::CNodeCache
_TEXT	ENDS
PUBLIC	??0CBaseList@@QEAA@PEA_W@Z			; CBaseList::CBaseList
;	COMDAT pdata
; File c:\downloads\wpf mediakit - copy\src\filters\baseclasses\wxlist.cpp
pdata	SEGMENT
$pdata$??0CBaseList@@QEAA@PEA_W@Z DD imagerel $LN5
	DD	imagerel $LN5+132
	DD	imagerel $unwind$??0CBaseList@@QEAA@PEA_W@Z
pdata	ENDS
;	COMDAT pdata
pdata	SEGMENT
$pdata$?dtor$0@?0???0CBaseList@@QEAA@PEA_W@Z@4HA DD imagerel ?dtor$0@?0???0CBaseList@@QEAA@PEA_W@Z@4HA
	DD	imagerel ?dtor$0@?0???0CBaseList@@QEAA@PEA_W@Z@4HA+35
	DD	imagerel $unwind$?dtor$0@?0???0CBaseList@@QEAA@PEA_W@Z@4HA
pdata	ENDS
;	COMDAT xdata
xdata	SEGMENT
$ip2state$??0CBaseList@@QEAA@PEA_W@Z DD imagerel ??0CBaseList@@QEAA@PEA_W@Z
	DD	0ffffffffH
	DD	imagerel ??0CBaseList@@QEAA@PEA_W@Z+60
	DD	00H
	DD	imagerel ??0CBaseList@@QEAA@PEA_W@Z+121
	DD	0ffffffffH
xdata	ENDS
;	COMDAT xdata
xdata	SEGMENT
$unwind$?dtor$0@?0???0CBaseList@@QEAA@PEA_W@Z@4HA DD 031001H
	DD	0700c4210H
	DD	0500bH
xdata	ENDS
;	COMDAT xdata
xdata	SEGMENT
$unwind$??0CBaseList@@QEAA@PEA_W@Z DD 022c11H
	DD	0700b520fH
	DD	imagerel __CxxFrameHandler3
	DD	imagerel $cppxdata$??0CBaseList@@QEAA@PEA_W@Z
xdata	ENDS
;	COMDAT CONST
CONST	SEGMENT
$cppxdata$??0CBaseList@@QEAA@PEA_W@Z DD 019930522H
	DD	01H
	DD	imagerel $stateUnwindMap$??0CBaseList@@QEAA@PEA_W@Z
	DD	00H
	DD	00H
	DD	03H
	DD	imagerel $ip2state$??0CBaseList@@QEAA@PEA_W@Z
	DD	020H
	DD	00H
	DD	01H
CONST	ENDS
;	COMDAT xdata
xdata	SEGMENT
$stateUnwindMap$??0CBaseList@@QEAA@PEA_W@Z DD 0ffffffffH
	DD	imagerel ?dtor$0@?0???0CBaseList@@QEAA@PEA_W@Z@4HA
; Function compile flags: /Odtp /RTCsu
xdata	ENDS
;	COMDAT ??0CBaseList@@QEAA@PEA_W@Z
_TEXT	SEGMENT
$T83066 = 32
this$ = 64
pName$ = 72
??0CBaseList@@QEAA@PEA_W@Z PROC				; CBaseList::CBaseList, COMDAT
; Line 101
$LN5:
	mov	QWORD PTR [rsp+16], rdx
	mov	QWORD PTR [rsp+8], rcx
	push	rdi
	sub	rsp, 48					; 00000030H
	mov	rdi, rsp
	mov	ecx, 12
	mov	eax, -858993460				; ccccccccH
	rep stosd
	mov	rcx, QWORD PTR [rsp+64]
	mov	QWORD PTR $T83066[rsp], -2
	mov	rdx, QWORD PTR pName$[rsp]
	mov	rcx, QWORD PTR this$[rsp]
	call	??0CBaseObject@@QEAA@PEB_W@Z		; CBaseObject::CBaseObject
	npad	1
	mov	rax, QWORD PTR this$[rsp]
	mov	QWORD PTR [rax+8], 0
	mov	rax, QWORD PTR this$[rsp]
	mov	QWORD PTR [rax+16], 0
	mov	rax, QWORD PTR this$[rsp]
	mov	DWORD PTR [rax+24], 0
	mov	rax, QWORD PTR this$[rsp]
	add	rax, 32					; 00000020H
	mov	edx, 10
	mov	rcx, rax
	call	??0CNodeCache@CBaseList@@QEAA@H@Z	; CBaseList::CNodeCache::CNodeCache
	npad	1
; Line 102
	mov	rax, QWORD PTR this$[rsp]
	add	rsp, 48					; 00000030H
	pop	rdi
	ret	0
??0CBaseList@@QEAA@PEA_W@Z ENDP				; CBaseList::CBaseList
; Function compile flags: /Odtp /RTCsu
_TEXT	ENDS
;	COMDAT text$x
text$x	SEGMENT
$T83066 = 32
this$ = 64
pName$ = 72
?dtor$0@?0???0CBaseList@@QEAA@PEA_W@Z@4HA PROC		; `CBaseList::CBaseList'::`1'::dtor$0
	mov	QWORD PTR [rsp+8], rcx
	mov	QWORD PTR [rsp+16], rdx
	push	rbp
	push	rdi
	sub	rsp, 40					; 00000028H
	mov	rbp, rdx
	mov	rcx, QWORD PTR this$[rbp]
	call	??1CBaseObject@@QEAA@XZ			; CBaseObject::~CBaseObject
	add	rsp, 40					; 00000028H
	pop	rdi
	pop	rbp
	ret	0
?dtor$0@?0???0CBaseList@@QEAA@PEA_W@Z@4HA ENDP		; `CBaseList::CBaseList'::`1'::dtor$0
text$x	ENDS
PUBLIC	??0CBaseList@@QEAA@PEADH@Z			; CBaseList::CBaseList
EXTRN	??0CBaseObject@@QEAA@PEBD@Z:PROC		; CBaseObject::CBaseObject
;	COMDAT pdata
pdata	SEGMENT
$pdata$??0CBaseList@@QEAA@PEADH@Z DD imagerel $LN5
	DD	imagerel $LN5+136
	DD	imagerel $unwind$??0CBaseList@@QEAA@PEADH@Z
pdata	ENDS
;	COMDAT pdata
pdata	SEGMENT
$pdata$?dtor$0@?0???0CBaseList@@QEAA@PEADH@Z@4HA DD imagerel ?dtor$0@?0???0CBaseList@@QEAA@PEADH@Z@4HA
	DD	imagerel ?dtor$0@?0???0CBaseList@@QEAA@PEADH@Z@4HA+35
	DD	imagerel $unwind$?dtor$0@?0???0CBaseList@@QEAA@PEADH@Z@4HA
pdata	ENDS
;	COMDAT xdata
xdata	SEGMENT
$ip2state$??0CBaseList@@QEAA@PEADH@Z DD imagerel ??0CBaseList@@QEAA@PEADH@Z
	DD	0ffffffffH
	DD	imagerel ??0CBaseList@@QEAA@PEADH@Z+65
	DD	00H
	DD	imagerel ??0CBaseList@@QEAA@PEADH@Z+125
	DD	0ffffffffH
xdata	ENDS
;	COMDAT xdata
xdata	SEGMENT
$unwind$?dtor$0@?0???0CBaseList@@QEAA@PEADH@Z@4HA DD 031001H
	DD	0700c4210H
	DD	0500bH
xdata	ENDS
;	COMDAT xdata
xdata	SEGMENT
$unwind$??0CBaseList@@QEAA@PEADH@Z DD 023111H
	DD	070105214H
	DD	imagerel __CxxFrameHandler3
	DD	imagerel $cppxdata$??0CBaseList@@QEAA@PEADH@Z
xdata	ENDS
;	COMDAT CONST
CONST	SEGMENT
$cppxdata$??0CBaseList@@QEAA@PEADH@Z DD 019930522H
	DD	01H
	DD	imagerel $stateUnwindMap$??0CBaseList@@QEAA@PEADH@Z
	DD	00H
	DD	00H
	DD	03H
	DD	imagerel $ip2state$??0CBaseList@@QEAA@PEADH@Z
	DD	020H
	DD	00H
	DD	01H
CONST	ENDS
;	COMDAT xdata
xdata	SEGMENT
$stateUnwindMap$??0CBaseList@@QEAA@PEADH@Z DD 0ffffffffH
	DD	imagerel ?dtor$0@?0???0CBaseList@@QEAA@PEADH@Z@4HA
; Function compile flags: /Odtp /RTCsu
xdata	ENDS
;	COMDAT ??0CBaseList@@QEAA@PEADH@Z
_TEXT	SEGMENT
$T83091 = 32
this$ = 64
pName$ = 72
iItems$ = 80
??0CBaseList@@QEAA@PEADH@Z PROC				; CBaseList::CBaseList, COMDAT
; Line 114
$LN5:
	mov	DWORD PTR [rsp+24], r8d
	mov	QWORD PTR [rsp+16], rdx
	mov	QWORD PTR [rsp+8], rcx
	push	rdi
	sub	rsp, 48					; 00000030H
	mov	rdi, rsp
	mov	ecx, 12
	mov	eax, -858993460				; ccccccccH
	rep stosd
	mov	rcx, QWORD PTR [rsp+64]
	mov	QWORD PTR $T83091[rsp], -2
	mov	rdx, QWORD PTR pName$[rsp]
	mov	rcx, QWORD PTR this$[rsp]
	call	??0CBaseObject@@QEAA@PEBD@Z		; CBaseObject::CBaseObject
	npad	1
	mov	rax, QWORD PTR this$[rsp]
	mov	QWORD PTR [rax+8], 0
	mov	rax, QWORD PTR this$[rsp]
	mov	QWORD PTR [rax+16], 0
	mov	rax, QWORD PTR this$[rsp]
	mov	DWORD PTR [rax+24], 0
	mov	rax, QWORD PTR this$[rsp]
	add	rax, 32					; 00000020H
	mov	edx, DWORD PTR iItems$[rsp]
	mov	rcx, rax
	call	??0CNodeCache@CBaseList@@QEAA@H@Z	; CBaseList::CNodeCache::CNodeCache
	npad	1
; Line 115
	mov	rax, QWORD PTR this$[rsp]
	add	rsp, 48					; 00000030H
	pop	rdi
	ret	0
??0CBaseList@@QEAA@PEADH@Z ENDP				; CBaseList::CBaseList
; Function compile flags: /Odtp /RTCsu
_TEXT	ENDS
;	COMDAT text$x
text$x	SEGMENT
$T83091 = 32
this$ = 64
pName$ = 72
iItems$ = 80
?dtor$0@?0???0CBaseList@@QEAA@PEADH@Z@4HA PROC		; `CBaseList::CBaseList'::`1'::dtor$0
	mov	QWORD PTR [rsp+8], rcx
	mov	QWORD PTR [rsp+16], rdx
	push	rbp
	push	rdi
	sub	rsp, 40					; 00000028H
	mov	rbp, rdx
	mov	rcx, QWORD PTR this$[rbp]
	call	??1CBaseObject@@QEAA@XZ			; CBaseObject::~CBaseObject
	add	rsp, 40					; 00000028H
	pop	rdi
	pop	rbp
	ret	0
?dtor$0@?0???0CBaseList@@QEAA@PEADH@Z@4HA ENDP		; `CBaseList::CBaseList'::`1'::dtor$0
text$x	ENDS
PUBLIC	??0CBaseList@@QEAA@PEAD@Z			; CBaseList::CBaseList
;	COMDAT pdata
pdata	SEGMENT
$pdata$??0CBaseList@@QEAA@PEAD@Z DD imagerel $LN5
	DD	imagerel $LN5+132
	DD	imagerel $unwind$??0CBaseList@@QEAA@PEAD@Z
pdata	ENDS
;	COMDAT pdata
pdata	SEGMENT
$pdata$?dtor$0@?0???0CBaseList@@QEAA@PEAD@Z@4HA DD imagerel ?dtor$0@?0???0CBaseList@@QEAA@PEAD@Z@4HA
	DD	imagerel ?dtor$0@?0???0CBaseList@@QEAA@PEAD@Z@4HA+35
	DD	imagerel $unwind$?dtor$0@?0???0CBaseList@@QEAA@PEAD@Z@4HA
pdata	ENDS
;	COMDAT xdata
xdata	SEGMENT
$ip2state$??0CBaseList@@QEAA@PEAD@Z DD imagerel ??0CBaseList@@QEAA@PEAD@Z
	DD	0ffffffffH
	DD	imagerel ??0CBaseList@@QEAA@PEAD@Z+60
	DD	00H
	DD	imagerel ??0CBaseList@@QEAA@PEAD@Z+121
	DD	0ffffffffH
xdata	ENDS
;	COMDAT xdata
xdata	SEGMENT
$unwind$?dtor$0@?0???0CBaseList@@QEAA@PEAD@Z@4HA DD 031001H
	DD	0700c4210H
	DD	0500bH
xdata	ENDS
;	COMDAT xdata
xdata	SEGMENT
$unwind$??0CBaseList@@QEAA@PEAD@Z DD 022c11H
	DD	0700b520fH
	DD	imagerel __CxxFrameHandler3
	DD	imagerel $cppxdata$??0CBaseList@@QEAA@PEAD@Z
xdata	ENDS
;	COMDAT CONST
CONST	SEGMENT
$cppxdata$??0CBaseList@@QEAA@PEAD@Z DD 019930522H
	DD	01H
	DD	imagerel $stateUnwindMap$??0CBaseList@@QEAA@PEAD@Z
	DD	00H
	DD	00H
	DD	03H
	DD	imagerel $ip2state$??0CBaseList@@QEAA@PEAD@Z
	DD	020H
	DD	00H
	DD	01H
CONST	ENDS
;	COMDAT xdata
xdata	SEGMENT
$stateUnwindMap$??0CBaseList@@QEAA@PEAD@Z DD 0ffffffffH
	DD	imagerel ?dtor$0@?0???0CBaseList@@QEAA@PEAD@Z@4HA
; Function compile flags: /Odtp /RTCsu
xdata	ENDS
;	COMDAT ??0CBaseList@@QEAA@PEAD@Z
_TEXT	SEGMENT
$T83116 = 32
this$ = 64
pName$ = 72
??0CBaseList@@QEAA@PEAD@Z PROC				; CBaseList::CBaseList, COMDAT
; Line 125
$LN5:
	mov	QWORD PTR [rsp+16], rdx
	mov	QWORD PTR [rsp+8], rcx
	push	rdi
	sub	rsp, 48					; 00000030H
	mov	rdi, rsp
	mov	ecx, 12
	mov	eax, -858993460				; ccccccccH
	rep stosd
	mov	rcx, QWORD PTR [rsp+64]
	mov	QWORD PTR $T83116[rsp], -2
	mov	rdx, QWORD PTR pName$[rsp]
	mov	rcx, QWORD PTR this$[rsp]
	call	??0CBaseObject@@QEAA@PEBD@Z		; CBaseObject::CBaseObject
	npad	1
	mov	rax, QWORD PTR this$[rsp]
	mov	QWORD PTR [rax+8], 0
	mov	rax, QWORD PTR this$[rsp]
	mov	QWORD PTR [rax+16], 0
	mov	rax, QWORD PTR this$[rsp]
	mov	DWORD PTR [rax+24], 0
	mov	rax, QWORD PTR this$[rsp]
	add	rax, 32					; 00000020H
	mov	edx, 10
	mov	rcx, rax
	call	??0CNodeCache@CBaseList@@QEAA@H@Z	; CBaseList::CNodeCache::CNodeCache
	npad	1
; Line 126
	mov	rax, QWORD PTR this$[rsp]
	add	rsp, 48					; 00000030H
	pop	rdi
	ret	0
??0CBaseList@@QEAA@PEAD@Z ENDP				; CBaseList::CBaseList
; Function compile flags: /Odtp /RTCsu
_TEXT	ENDS
;	COMDAT text$x
text$x	SEGMENT
$T83116 = 32
this$ = 64
pName$ = 72
?dtor$0@?0???0CBaseList@@QEAA@PEAD@Z@4HA PROC		; `CBaseList::CBaseList'::`1'::dtor$0
	mov	QWORD PTR [rsp+8], rcx
	mov	QWORD PTR [rsp+16], rdx
	push	rbp
	push	rdi
	sub	rsp, 40					; 00000028H
	mov	rbp, rdx
	mov	rcx, QWORD PTR this$[rbp]
	call	??1CBaseObject@@QEAA@XZ			; CBaseObject::~CBaseObject
	add	rsp, 40					; 00000028H
	pop	rdi
	pop	rbp
	ret	0
?dtor$0@?0???0CBaseList@@QEAA@PEAD@Z@4HA ENDP		; `CBaseList::CBaseList'::`1'::dtor$0
text$x	ENDS
PUBLIC	??1CNodeCache@CBaseList@@QEAA@XZ		; CBaseList::CNodeCache::~CNodeCache
PUBLIC	?RemoveAll@CBaseList@@QEAAXXZ			; CBaseList::RemoveAll
PUBLIC	??1CBaseList@@QEAA@XZ				; CBaseList::~CBaseList
;	COMDAT pdata
pdata	SEGMENT
$pdata$??1CBaseList@@QEAA@XZ DD imagerel $LN5
	DD	imagerel $LN5+84
	DD	imagerel $unwind$??1CBaseList@@QEAA@XZ
pdata	ENDS
;	COMDAT pdata
pdata	SEGMENT
$pdata$?dtor$0@?0???1CBaseList@@QEAA@XZ@4HA DD imagerel ?dtor$0@?0???1CBaseList@@QEAA@XZ@4HA
	DD	imagerel ?dtor$0@?0???1CBaseList@@QEAA@XZ@4HA+35
	DD	imagerel $unwind$?dtor$0@?0???1CBaseList@@QEAA@XZ@4HA
pdata	ENDS
;	COMDAT pdata
pdata	SEGMENT
$pdata$?dtor$1@?0???1CBaseList@@QEAA@XZ@4HA DD imagerel ?dtor$1@?0???1CBaseList@@QEAA@XZ@4HA
	DD	imagerel ?dtor$1@?0???1CBaseList@@QEAA@XZ@4HA+39
	DD	imagerel $unwind$?dtor$1@?0???1CBaseList@@QEAA@XZ@4HA
pdata	ENDS
;	COMDAT xdata
xdata	SEGMENT
$ip2state$??1CBaseList@@QEAA@XZ DD imagerel ??1CBaseList@@QEAA@XZ
	DD	0ffffffffH
	DD	imagerel ??1CBaseList@@QEAA@XZ+39
	DD	01H
	DD	imagerel ??1CBaseList@@QEAA@XZ+50
	DD	00H
	DD	imagerel ??1CBaseList@@QEAA@XZ+68
	DD	0ffffffffH
xdata	ENDS
;	COMDAT xdata
xdata	SEGMENT
$unwind$?dtor$1@?0???1CBaseList@@QEAA@XZ@4HA DD 031001H
	DD	0700c4210H
	DD	0500bH
xdata	ENDS
;	COMDAT xdata
xdata	SEGMENT
$unwind$?dtor$0@?0???1CBaseList@@QEAA@XZ@4HA DD 031001H
	DD	0700c4210H
	DD	0500bH
xdata	ENDS
;	COMDAT xdata
xdata	SEGMENT
$unwind$??1CBaseList@@QEAA@XZ DD 022711H
	DD	07006520aH
	DD	imagerel __CxxFrameHandler3
	DD	imagerel $cppxdata$??1CBaseList@@QEAA@XZ
xdata	ENDS
;	COMDAT CONST
CONST	SEGMENT
$cppxdata$??1CBaseList@@QEAA@XZ DD 019930522H
	DD	02H
	DD	imagerel $stateUnwindMap$??1CBaseList@@QEAA@XZ
	DD	00H
	DD	00H
	DD	04H
	DD	imagerel $ip2state$??1CBaseList@@QEAA@XZ
	DD	020H
	DD	00H
	DD	01H
CONST	ENDS
;	COMDAT xdata
xdata	SEGMENT
$stateUnwindMap$??1CBaseList@@QEAA@XZ DD 0ffffffffH
	DD	imagerel ?dtor$0@?0???1CBaseList@@QEAA@XZ@4HA
	DD	00H
	DD	imagerel ?dtor$1@?0???1CBaseList@@QEAA@XZ@4HA
; Function compile flags: /Odtp /RTCsu
xdata	ENDS
;	COMDAT ??1CBaseList@@QEAA@XZ
_TEXT	SEGMENT
$T83141 = 32
this$ = 64
??1CBaseList@@QEAA@XZ PROC				; CBaseList::~CBaseList, COMDAT
; Line 137
$LN5:
	mov	QWORD PTR [rsp+8], rcx
	push	rdi
	sub	rsp, 48					; 00000030H
	mov	rdi, rsp
	mov	ecx, 12
	mov	eax, -858993460				; ccccccccH
	rep stosd
	mov	rcx, QWORD PTR [rsp+64]
	mov	QWORD PTR $T83141[rsp], -2
; Line 140
	mov	rcx, QWORD PTR this$[rsp]
	call	?RemoveAll@CBaseList@@QEAAXXZ		; CBaseList::RemoveAll
	npad	1
; Line 142
	mov	rax, QWORD PTR this$[rsp]
	add	rax, 32					; 00000020H
	mov	rcx, rax
	call	??1CNodeCache@CBaseList@@QEAA@XZ	; CBaseList::CNodeCache::~CNodeCache
	npad	1
	mov	rcx, QWORD PTR this$[rsp]
	call	??1CBaseObject@@QEAA@XZ			; CBaseObject::~CBaseObject
	add	rsp, 48					; 00000030H
	pop	rdi
	ret	0
??1CBaseList@@QEAA@XZ ENDP				; CBaseList::~CBaseList
; Function compile flags: /Odtp /RTCsu
_TEXT	ENDS
;	COMDAT text$x
text$x	SEGMENT
$T83141 = 32
this$ = 64
?dtor$0@?0???1CBaseList@@QEAA@XZ@4HA PROC		; `CBaseList::~CBaseList'::`1'::dtor$0
	mov	QWORD PTR [rsp+8], rcx
	mov	QWORD PTR [rsp+16], rdx
	push	rbp
	push	rdi
	sub	rsp, 40					; 00000028H
	mov	rbp, rdx
	mov	rcx, QWORD PTR this$[rbp]
	call	??1CBaseObject@@QEAA@XZ			; CBaseObject::~CBaseObject
	add	rsp, 40					; 00000028H
	pop	rdi
	pop	rbp
	ret	0
?dtor$0@?0???1CBaseList@@QEAA@XZ@4HA ENDP		; `CBaseList::~CBaseList'::`1'::dtor$0
; Function compile flags: /Odtp /RTCsu
$T83141 = 32
this$ = 64
?dtor$1@?0???1CBaseList@@QEAA@XZ@4HA PROC		; `CBaseList::~CBaseList'::`1'::dtor$1
	mov	QWORD PTR [rsp+8], rcx
	mov	QWORD PTR [rsp+16], rdx
	push	rbp
	push	rdi
	sub	rsp, 40					; 00000028H
	mov	rbp, rdx
	mov	rcx, QWORD PTR this$[rbp]
	add	rcx, 32					; 00000020H
	call	??1CNodeCache@CBaseList@@QEAA@XZ	; CBaseList::CNodeCache::~CNodeCache
	add	rsp, 40					; 00000028H
	pop	rdi
	pop	rbp
	ret	0
?dtor$1@?0???1CBaseList@@QEAA@XZ@4HA ENDP		; `CBaseList::~CBaseList'::`1'::dtor$1
text$x	ENDS
PUBLIC	??_GCNode@CBaseList@@QEAAPEAXI@Z		; CBaseList::CNode::`scalar deleting destructor'
PUBLIC	?Next@CNode@CBaseList@@QEBAPEAV12@XZ		; CBaseList::CNode::Next
;	COMDAT pdata
; File c:\downloads\wpf mediakit - copy\src\filters\baseclasses\wxlist.h
pdata	SEGMENT
$pdata$??1CNodeCache@CBaseList@@QEAA@XZ DD imagerel $LN7
	DD	imagerel $LN7+144
	DD	imagerel $unwind$??1CNodeCache@CBaseList@@QEAA@XZ
pdata	ENDS
;	COMDAT xdata
xdata	SEGMENT
$unwind$??1CNodeCache@CBaseList@@QEAA@XZ DD 021e01H
	DD	07006920aH
; Function compile flags: /Odtp /RTCsu
xdata	ENDS
;	COMDAT ??1CNodeCache@CBaseList@@QEAA@XZ
_TEXT	SEGMENT
pNode$ = 32
pCurrent$76398 = 40
$T83163 = 48
$T83164 = 56
tv72 = 64
this$ = 96
??1CNodeCache@CBaseList@@QEAA@XZ PROC			; CBaseList::CNodeCache::~CNodeCache, COMDAT
; Line 128
$LN7:
	mov	QWORD PTR [rsp+8], rcx
	push	rdi
	sub	rsp, 80					; 00000050H
	mov	rdi, rsp
	mov	ecx, 20
	mov	eax, -858993460				; ccccccccH
	rep stosd
	mov	rcx, QWORD PTR [rsp+96]
; Line 129
	mov	rax, QWORD PTR this$[rsp]
	mov	rax, QWORD PTR [rax+8]
	mov	QWORD PTR pNode$[rsp], rax
$LN2@CNodeCache:
; Line 130
	cmp	QWORD PTR pNode$[rsp], 0
	je	SHORT $LN1@CNodeCache
; Line 131
	mov	rax, QWORD PTR pNode$[rsp]
	mov	QWORD PTR pCurrent$76398[rsp], rax
; Line 132
	mov	rcx, QWORD PTR pNode$[rsp]
	call	?Next@CNode@CBaseList@@QEBAPEAV12@XZ	; CBaseList::CNode::Next
	mov	QWORD PTR pNode$[rsp], rax
; Line 133
	mov	rax, QWORD PTR pCurrent$76398[rsp]
	mov	QWORD PTR $T83164[rsp], rax
	mov	rax, QWORD PTR $T83164[rsp]
	mov	QWORD PTR $T83163[rsp], rax
	cmp	QWORD PTR $T83163[rsp], 0
	je	SHORT $LN5@CNodeCache
	mov	edx, 1
	mov	rcx, QWORD PTR $T83163[rsp]
	call	??_GCNode@CBaseList@@QEAAPEAXI@Z
	mov	QWORD PTR tv72[rsp], rax
	jmp	SHORT $LN6@CNodeCache
$LN5@CNodeCache:
	mov	QWORD PTR tv72[rsp], 0
$LN6@CNodeCache:
; Line 134
	jmp	SHORT $LN2@CNodeCache
$LN1@CNodeCache:
; Line 135
	add	rsp, 80					; 00000050H
	pop	rdi
	ret	0
??1CNodeCache@CBaseList@@QEAA@XZ ENDP			; CBaseList::CNodeCache::~CNodeCache
_TEXT	ENDS
;	COMDAT pdata
pdata	SEGMENT
$pdata$?Next@CNode@CBaseList@@QEBAPEAV12@XZ DD imagerel $LN3
	DD	imagerel $LN3+17
	DD	imagerel $unwind$?Next@CNode@CBaseList@@QEBAPEAV12@XZ
pdata	ENDS
;	COMDAT xdata
xdata	SEGMENT
$unwind$?Next@CNode@CBaseList@@QEBAPEAV12@XZ DD 010601H
	DD	07006H
; Function compile flags: /Odtp /RTCsu
xdata	ENDS
;	COMDAT ?Next@CNode@CBaseList@@QEBAPEAV12@XZ
_TEXT	SEGMENT
this$ = 16
?Next@CNode@CBaseList@@QEBAPEAV12@XZ PROC		; CBaseList::CNode::Next, COMDAT
; Line 102
$LN3:
	mov	QWORD PTR [rsp+8], rcx
	push	rdi
	mov	rax, QWORD PTR this$[rsp]
	mov	rax, QWORD PTR [rax+16]
	pop	rdi
	ret	0
?Next@CNode@CBaseList@@QEBAPEAV12@XZ ENDP		; CBaseList::CNode::Next
_TEXT	ENDS
PUBLIC	??1CNode@CBaseList@@QEAA@XZ			; CBaseList::CNode::~CNode
EXTRN	??3@YAXPEAX@Z:PROC				; operator delete
;	COMDAT pdata
pdata	SEGMENT
$pdata$??_GCNode@CBaseList@@QEAAPEAXI@Z DD imagerel $LN4
	DD	imagerel $LN4+76
	DD	imagerel $unwind$??_GCNode@CBaseList@@QEAAPEAXI@Z
pdata	ENDS
;	COMDAT xdata
xdata	SEGMENT
$unwind$??_GCNode@CBaseList@@QEAAPEAXI@Z DD 022201H
	DD	0700a320eH
; Function compile flags: /Odtp /RTCsu
xdata	ENDS
;	COMDAT ??_GCNode@CBaseList@@QEAAPEAXI@Z
_TEXT	SEGMENT
this$ = 48
__flags$ = 56
??_GCNode@CBaseList@@QEAAPEAXI@Z PROC			; CBaseList::CNode::`scalar deleting destructor', COMDAT
$LN4:
	mov	DWORD PTR [rsp+16], edx
	mov	QWORD PTR [rsp+8], rcx
	push	rdi
	sub	rsp, 32					; 00000020H
	mov	rdi, rsp
	mov	ecx, 8
	mov	eax, -858993460				; ccccccccH
	rep stosd
	mov	rcx, QWORD PTR [rsp+48]
	mov	rcx, QWORD PTR this$[rsp]
	call	??1CNode@CBaseList@@QEAA@XZ
	mov	eax, DWORD PTR __flags$[rsp]
	and	eax, 1
	test	eax, eax
	je	SHORT $LN1@scalar
	mov	rcx, QWORD PTR this$[rsp]
	call	??3@YAXPEAX@Z				; operator delete
$LN1@scalar:
	mov	rax, QWORD PTR this$[rsp]
	add	rsp, 32					; 00000020H
	pop	rdi
	ret	0
??_GCNode@CBaseList@@QEAAPEAXI@Z ENDP			; CBaseList::CNode::`scalar deleting destructor'
_TEXT	ENDS
;	COMDAT pdata
pdata	SEGMENT
$pdata$??1CNode@CBaseList@@QEAA@XZ DD imagerel $LN4
	DD	imagerel $LN4+46
	DD	imagerel $unwind$??1CNode@CBaseList@@QEAA@XZ
pdata	ENDS
;	COMDAT xdata
xdata	SEGMENT
$unwind$??1CNode@CBaseList@@QEAA@XZ DD 021e01H
	DD	07006320aH
; Function compile flags: /Odtp /RTCsu
xdata	ENDS
;	COMDAT ??1CNode@CBaseList@@QEAA@XZ
_TEXT	SEGMENT
this$ = 48
??1CNode@CBaseList@@QEAA@XZ PROC			; CBaseList::CNode::~CNode, COMDAT
$LN4:
	mov	QWORD PTR [rsp+8], rcx
	push	rdi
	sub	rsp, 32					; 00000020H
	mov	rdi, rsp
	mov	ecx, 8
	mov	eax, -858993460				; ccccccccH
	rep stosd
	mov	rcx, QWORD PTR [rsp+48]
	mov	rcx, QWORD PTR this$[rsp]
	call	??1CBaseObject@@QEAA@XZ			; CBaseObject::~CBaseObject
	add	rsp, 32					; 00000020H
	pop	rdi
	ret	0
??1CNode@CBaseList@@QEAA@XZ ENDP			; CBaseList::CNode::~CNode
_TEXT	ENDS
;	COMDAT pdata
; File c:\downloads\wpf mediakit - copy\src\filters\baseclasses\wxlist.cpp
pdata	SEGMENT
$pdata$?RemoveAll@CBaseList@@QEAAXXZ DD imagerel $LN7
	DD	imagerel $LN7+182
	DD	imagerel $unwind$?RemoveAll@CBaseList@@QEAAXXZ
pdata	ENDS
;	COMDAT xdata
xdata	SEGMENT
$unwind$?RemoveAll@CBaseList@@QEAAXXZ DD 021e01H
	DD	07006920aH
; Function compile flags: /Odtp /RTCsu
xdata	ENDS
;	COMDAT ?RemoveAll@CBaseList@@QEAAXXZ
_TEXT	SEGMENT
pn$ = 32
op$82255 = 40
$T83199 = 48
$T83200 = 56
tv72 = 64
this$ = 96
?RemoveAll@CBaseList@@QEAAXXZ PROC			; CBaseList::RemoveAll, COMDAT
; Line 152
$LN7:
	mov	QWORD PTR [rsp+8], rcx
	push	rdi
	sub	rsp, 80					; 00000050H
	mov	rdi, rsp
	mov	ecx, 20
	mov	eax, -858993460				; ccccccccH
	rep stosd
	mov	rcx, QWORD PTR [rsp+96]
; Line 158
	mov	rax, QWORD PTR this$[rsp]
	mov	rax, QWORD PTR [rax+8]
	mov	QWORD PTR pn$[rsp], rax
$LN2@RemoveAll:
; Line 159
	cmp	QWORD PTR pn$[rsp], 0
	je	SHORT $LN1@RemoveAll
; Line 160
	mov	rax, QWORD PTR pn$[rsp]
	mov	QWORD PTR op$82255[rsp], rax
; Line 161
	mov	rcx, QWORD PTR pn$[rsp]
	call	?Next@CNode@CBaseList@@QEBAPEAV12@XZ	; CBaseList::CNode::Next
	mov	QWORD PTR pn$[rsp], rax
; Line 162
	mov	rax, QWORD PTR op$82255[rsp]
	mov	QWORD PTR $T83200[rsp], rax
	mov	rax, QWORD PTR $T83200[rsp]
	mov	QWORD PTR $T83199[rsp], rax
	cmp	QWORD PTR $T83199[rsp], 0
	je	SHORT $LN5@RemoveAll
	mov	edx, 1
	mov	rcx, QWORD PTR $T83199[rsp]
	call	??_GCNode@CBaseList@@QEAAPEAXI@Z
	mov	QWORD PTR tv72[rsp], rax
	jmp	SHORT $LN6@RemoveAll
$LN5@RemoveAll:
	mov	QWORD PTR tv72[rsp], 0
$LN6@RemoveAll:
; Line 163
	jmp	SHORT $LN2@RemoveAll
$LN1@RemoveAll:
; Line 167
	mov	rax, QWORD PTR this$[rsp]
	mov	DWORD PTR [rax+24], 0
; Line 168
	mov	rax, QWORD PTR this$[rsp]
	mov	QWORD PTR [rax+16], 0
	mov	rax, QWORD PTR this$[rsp]
	mov	QWORD PTR [rax+8], 0
; Line 170
	add	rsp, 80					; 00000050H
	pop	rdi
	ret	0
?RemoveAll@CBaseList@@QEAAXXZ ENDP			; CBaseList::RemoveAll
_TEXT	ENDS
PUBLIC	?GetHeadPositionI@CBaseList@@QEBAPEAU__POSITION@@XZ ; CBaseList::GetHeadPositionI
;	COMDAT pdata
pdata	SEGMENT
$pdata$?GetHeadPositionI@CBaseList@@QEBAPEAU__POSITION@@XZ DD imagerel $LN3
	DD	imagerel $LN3+17
	DD	imagerel $unwind$?GetHeadPositionI@CBaseList@@QEBAPEAU__POSITION@@XZ
pdata	ENDS
;	COMDAT xdata
xdata	SEGMENT
$unwind$?GetHeadPositionI@CBaseList@@QEBAPEAU__POSITION@@XZ DD 010601H
	DD	07006H
; Function compile flags: /Odtp /RTCsu
xdata	ENDS
;	COMDAT ?GetHeadPositionI@CBaseList@@QEBAPEAU__POSITION@@XZ
_TEXT	SEGMENT
this$ = 16
?GetHeadPositionI@CBaseList@@QEBAPEAU__POSITION@@XZ PROC ; CBaseList::GetHeadPositionI, COMDAT
; Line 185
$LN3:
	mov	QWORD PTR [rsp+8], rcx
	push	rdi
; Line 186
	mov	rax, QWORD PTR this$[rsp]
	mov	rax, QWORD PTR [rax+8]
; Line 187
	pop	rdi
	ret	0
?GetHeadPositionI@CBaseList@@QEBAPEAU__POSITION@@XZ ENDP ; CBaseList::GetHeadPositionI
_TEXT	ENDS
PUBLIC	?GetTailPositionI@CBaseList@@QEBAPEAU__POSITION@@XZ ; CBaseList::GetTailPositionI
;	COMDAT pdata
pdata	SEGMENT
$pdata$?GetTailPositionI@CBaseList@@QEBAPEAU__POSITION@@XZ DD imagerel $LN3
	DD	imagerel $LN3+17
	DD	imagerel $unwind$?GetTailPositionI@CBaseList@@QEBAPEAU__POSITION@@XZ
pdata	ENDS
;	COMDAT xdata
xdata	SEGMENT
$unwind$?GetTailPositionI@CBaseList@@QEBAPEAU__POSITION@@XZ DD 010601H
	DD	07006H
; Function compile flags: /Odtp /RTCsu
xdata	ENDS
;	COMDAT ?GetTailPositionI@CBaseList@@QEBAPEAU__POSITION@@XZ
_TEXT	SEGMENT
this$ = 16
?GetTailPositionI@CBaseList@@QEBAPEAU__POSITION@@XZ PROC ; CBaseList::GetTailPositionI, COMDAT
; Line 192
$LN3:
	mov	QWORD PTR [rsp+8], rcx
	push	rdi
; Line 193
	mov	rax, QWORD PTR this$[rsp]
	mov	rax, QWORD PTR [rax+16]
; Line 194
	pop	rdi
	ret	0
?GetTailPositionI@CBaseList@@QEBAPEAU__POSITION@@XZ ENDP ; CBaseList::GetTailPositionI
_TEXT	ENDS
PUBLIC	?GetCountI@CBaseList@@QEBAHXZ			; CBaseList::GetCountI
;	COMDAT pdata
pdata	SEGMENT
$pdata$?GetCountI@CBaseList@@QEBAHXZ DD imagerel $LN3
	DD	imagerel $LN3+16
	DD	imagerel $unwind$?GetCountI@CBaseList@@QEBAHXZ
pdata	ENDS
;	COMDAT xdata
xdata	SEGMENT
$unwind$?GetCountI@CBaseList@@QEBAHXZ DD 010601H
	DD	07006H
; Function compile flags: /Odtp /RTCsu
xdata	ENDS
;	COMDAT ?GetCountI@CBaseList@@QEBAHXZ
_TEXT	SEGMENT
this$ = 16
?GetCountI@CBaseList@@QEBAHXZ PROC			; CBaseList::GetCountI, COMDAT
; Line 207
$LN3:
	mov	QWORD PTR [rsp+8], rcx
	push	rdi
; Line 208
	mov	rax, QWORD PTR this$[rsp]
	mov	eax, DWORD PTR [rax+24]
; Line 209
	pop	rdi
	ret	0
?GetCountI@CBaseList@@QEBAHXZ ENDP			; CBaseList::GetCountI
_TEXT	ENDS
PUBLIC	?GetData@CNode@CBaseList@@QEBAPEAXXZ		; CBaseList::CNode::GetData
PUBLIC	?GetNextI@CBaseList@@IEBAPEAXAEAPEAU__POSITION@@@Z ; CBaseList::GetNextI
EXTRN	?DbgAssert@@YAXPEB_W0H@Z:PROC			; DbgAssert
;	COMDAT pdata
pdata	SEGMENT
$pdata$?GetNextI@CBaseList@@IEBAPEAXAEAPEAU__POSITION@@@Z DD imagerel $LN5
	DD	imagerel $LN5+140
	DD	imagerel $unwind$?GetNextI@CBaseList@@IEBAPEAXAEAPEAU__POSITION@@@Z
pdata	ENDS
;	COMDAT xdata
xdata	SEGMENT
$unwind$?GetNextI@CBaseList@@IEBAPEAXAEAPEAU__POSITION@@@Z DD 022301H
	DD	0700b520fH
; Function compile flags: /Odtp /RTCsu
xdata	ENDS
;	COMDAT ?GetNextI@CBaseList@@IEBAPEAXAEAPEAU__POSITION@@@Z
_TEXT	SEGMENT
pObject$ = 32
pn$ = 40
this$ = 64
rp$ = 72
?GetNextI@CBaseList@@IEBAPEAXAEAPEAU__POSITION@@@Z PROC	; CBaseList::GetNextI, COMDAT
; Line 219
$LN5:
	mov	QWORD PTR [rsp+16], rdx
	mov	QWORD PTR [rsp+8], rcx
	push	rdi
	sub	rsp, 48					; 00000030H
	mov	rdi, rsp
	mov	ecx, 12
	mov	eax, -858993460				; ccccccccH
	rep stosd
	mov	rcx, QWORD PTR [rsp+64]
; Line 222
	mov	rax, QWORD PTR rp$[rsp]
	cmp	QWORD PTR [rax], 0
	jne	SHORT $LN2@GetNextI
; Line 223
	xor	eax, eax
	jmp	SHORT $LN3@GetNextI
$LN2@GetNextI:
; Line 232
	mov	rax, QWORD PTR rp$[rsp]
	mov	rax, QWORD PTR [rax]
	mov	QWORD PTR pn$[rsp], rax
; Line 233
	cmp	QWORD PTR pn$[rsp], 0
	jne	SHORT $LN1@GetNextI
	mov	r8d, 233				; 000000e9H
	lea	rdx, OFFSET FLAT:$SG82278
	lea	rcx, OFFSET FLAT:$SG82279
	call	?DbgAssert@@YAXPEB_W0H@Z		; DbgAssert
$LN1@GetNextI:
; Line 234
	mov	rcx, QWORD PTR pn$[rsp]
	call	?Next@CNode@CBaseList@@QEBAPEAV12@XZ	; CBaseList::CNode::Next
	mov	rcx, QWORD PTR rp$[rsp]
	mov	QWORD PTR [rcx], rax
; Line 238
	mov	rcx, QWORD PTR pn$[rsp]
	call	?GetData@CNode@CBaseList@@QEBAPEAXXZ	; CBaseList::CNode::GetData
	mov	QWORD PTR pObject$[rsp], rax
; Line 240
	mov	rax, QWORD PTR pObject$[rsp]
$LN3@GetNextI:
; Line 241
	add	rsp, 48					; 00000030H
	pop	rdi
	ret	0
?GetNextI@CBaseList@@IEBAPEAXAEAPEAU__POSITION@@@Z ENDP	; CBaseList::GetNextI
_TEXT	ENDS
;	COMDAT pdata
; File c:\downloads\wpf mediakit - copy\src\filters\baseclasses\wxlist.h
pdata	SEGMENT
$pdata$?GetData@CNode@CBaseList@@QEBAPEAXXZ DD imagerel $LN3
	DD	imagerel $LN3+17
	DD	imagerel $unwind$?GetData@CNode@CBaseList@@QEBAPEAXXZ
pdata	ENDS
;	COMDAT xdata
xdata	SEGMENT
$unwind$?GetData@CNode@CBaseList@@QEBAPEAXXZ DD 010601H
	DD	07006H
; Function compile flags: /Odtp /RTCsu
xdata	ENDS
;	COMDAT ?GetData@CNode@CBaseList@@QEBAPEAXXZ
_TEXT	SEGMENT
this$ = 16
?GetData@CNode@CBaseList@@QEBAPEAXXZ PROC		; CBaseList::CNode::GetData, COMDAT
; Line 114
$LN3:
	mov	QWORD PTR [rsp+8], rcx
	push	rdi
	mov	rax, QWORD PTR this$[rsp]
	mov	rax, QWORD PTR [rax+24]
	pop	rdi
	ret	0
?GetData@CNode@CBaseList@@QEBAPEAXXZ ENDP		; CBaseList::CNode::GetData
_TEXT	ENDS
PUBLIC	?GetI@CBaseList@@IEBAPEAXPEAU__POSITION@@@Z	; CBaseList::GetI
;	COMDAT pdata
; File c:\downloads\wpf mediakit - copy\src\filters\baseclasses\wxlist.cpp
pdata	SEGMENT
$pdata$?GetI@CBaseList@@IEBAPEAXPEAU__POSITION@@@Z DD imagerel $LN4
	DD	imagerel $LN4+83
	DD	imagerel $unwind$?GetI@CBaseList@@IEBAPEAXPEAU__POSITION@@@Z
pdata	ENDS
;	COMDAT xdata
xdata	SEGMENT
$unwind$?GetI@CBaseList@@IEBAPEAXPEAU__POSITION@@@Z DD 022301H
	DD	0700b520fH
; Function compile flags: /Odtp /RTCsu
xdata	ENDS
;	COMDAT ?GetI@CBaseList@@IEBAPEAXPEAU__POSITION@@@Z
_TEXT	SEGMENT
pn$ = 32
pObject$ = 40
this$ = 64
p$ = 72
?GetI@CBaseList@@IEBAPEAXPEAU__POSITION@@@Z PROC	; CBaseList::GetI, COMDAT
; Line 253
$LN4:
	mov	QWORD PTR [rsp+16], rdx
	mov	QWORD PTR [rsp+8], rcx
	push	rdi
	sub	rsp, 48					; 00000030H
	mov	rdi, rsp
	mov	ecx, 12
	mov	eax, -858993460				; ccccccccH
	rep stosd
	mov	rcx, QWORD PTR [rsp+64]
; Line 254
	cmp	QWORD PTR p$[rsp], 0
	jne	SHORT $LN1@GetI
; Line 255
	xor	eax, eax
	jmp	SHORT $LN2@GetI
$LN1@GetI:
; Line 258
	mov	rax, QWORD PTR p$[rsp]
	mov	QWORD PTR pn$[rsp], rax
; Line 259
	mov	rcx, QWORD PTR pn$[rsp]
	call	?GetData@CNode@CBaseList@@QEBAPEAXXZ	; CBaseList::CNode::GetData
	mov	QWORD PTR pObject$[rsp], rax
; Line 261
	mov	rax, QWORD PTR pObject$[rsp]
$LN2@GetI:
; Line 262
	add	rsp, 48					; 00000030H
	pop	rdi
	ret	0
?GetI@CBaseList@@IEBAPEAXPEAU__POSITION@@@Z ENDP	; CBaseList::GetI
_TEXT	ENDS
PUBLIC	?Next@CBaseList@@QEBAPEAU__POSITION@@PEAU2@@Z	; CBaseList::Next
PUBLIC	?FindI@CBaseList@@IEBAPEAU__POSITION@@PEAX@Z	; CBaseList::FindI
;	COMDAT pdata
pdata	SEGMENT
$pdata$?FindI@CBaseList@@IEBAPEAU__POSITION@@PEAX@Z DD imagerel $LN7
	DD	imagerel $LN7+119
	DD	imagerel $unwind$?FindI@CBaseList@@IEBAPEAU__POSITION@@PEAX@Z
pdata	ENDS
;	COMDAT xdata
xdata	SEGMENT
$unwind$?FindI@CBaseList@@IEBAPEAU__POSITION@@PEAX@Z DD 022301H
	DD	0700b520fH
; Function compile flags: /Odtp /RTCsu
xdata	ENDS
;	COMDAT ?FindI@CBaseList@@IEBAPEAU__POSITION@@PEAX@Z
_TEXT	SEGMENT
pn$ = 32
this$ = 64
pObj$ = 72
?FindI@CBaseList@@IEBAPEAU__POSITION@@PEAX@Z PROC	; CBaseList::FindI, COMDAT
; Line 270
$LN7:
	mov	QWORD PTR [rsp+16], rdx
	mov	QWORD PTR [rsp+8], rcx
	push	rdi
	sub	rsp, 48					; 00000030H
	mov	rdi, rsp
	mov	ecx, 12
	mov	eax, -858993460				; ccccccccH
	rep stosd
	mov	rcx, QWORD PTR [rsp+64]
; Line 272
	mov	rcx, QWORD PTR this$[rsp]
	call	?GetHeadPositionI@CBaseList@@QEBAPEAU__POSITION@@XZ ; CBaseList::GetHeadPositionI
	mov	QWORD PTR pn$[rsp], rax
	jmp	SHORT $LN4@FindI
$LN3@FindI:
	mov	rdx, QWORD PTR pn$[rsp]
	mov	rcx, QWORD PTR this$[rsp]
	call	?Next@CBaseList@@QEBAPEAU__POSITION@@PEAU2@@Z ; CBaseList::Next
	mov	QWORD PTR pn$[rsp], rax
$LN4@FindI:
	cmp	QWORD PTR pn$[rsp], 0
	je	SHORT $LN2@FindI
; Line 273
	mov	rdx, QWORD PTR pn$[rsp]
	mov	rcx, QWORD PTR this$[rsp]
	call	?GetI@CBaseList@@IEBAPEAXPEAU__POSITION@@@Z ; CBaseList::GetI
	cmp	rax, QWORD PTR pObj$[rsp]
	jne	SHORT $LN1@FindI
; Line 274
	mov	rax, QWORD PTR pn$[rsp]
	jmp	SHORT $LN5@FindI
$LN1@FindI:
; Line 276
	jmp	SHORT $LN3@FindI
$LN2@FindI:
; Line 277
	xor	eax, eax
$LN5@FindI:
; Line 278
	add	rsp, 48					; 00000030H
	pop	rdi
	ret	0
?FindI@CBaseList@@IEBAPEAU__POSITION@@PEAX@Z ENDP	; CBaseList::FindI
_TEXT	ENDS
;	COMDAT pdata
; File c:\downloads\wpf mediakit - copy\src\filters\baseclasses\wxlist.h
pdata	SEGMENT
$pdata$?Next@CBaseList@@QEBAPEAU__POSITION@@PEAU2@@Z DD imagerel $LN4
	DD	imagerel $LN4+80
	DD	imagerel $unwind$?Next@CBaseList@@QEBAPEAU__POSITION@@PEAU2@@Z
pdata	ENDS
;	COMDAT xdata
xdata	SEGMENT
$unwind$?Next@CBaseList@@QEBAPEAU__POSITION@@PEAU2@@Z DD 022301H
	DD	0700b520fH
; Function compile flags: /Odtp /RTCsu
xdata	ENDS
;	COMDAT ?Next@CBaseList@@QEBAPEAU__POSITION@@PEAU2@@Z
_TEXT	SEGMENT
pn$ = 32
this$ = 64
pos$ = 72
?Next@CBaseList@@QEBAPEAU__POSITION@@PEAU2@@Z PROC	; CBaseList::Next, COMDAT
; Line 261
$LN4:
	mov	QWORD PTR [rsp+16], rdx
	mov	QWORD PTR [rsp+8], rcx
	push	rdi
	sub	rsp, 48					; 00000030H
	mov	rdi, rsp
	mov	ecx, 12
	mov	eax, -858993460				; ccccccccH
	rep stosd
	mov	rcx, QWORD PTR [rsp+64]
; Line 262
	cmp	QWORD PTR pos$[rsp], 0
	jne	SHORT $LN1@Next
; Line 263
	mov	rax, QWORD PTR this$[rsp]
	mov	rax, QWORD PTR [rax+8]
	jmp	SHORT $LN2@Next
$LN1@Next:
; Line 265
	mov	rax, QWORD PTR pos$[rsp]
	mov	QWORD PTR pn$[rsp], rax
; Line 266
	mov	rcx, QWORD PTR pn$[rsp]
	call	?Next@CNode@CBaseList@@QEBAPEAV12@XZ	; CBaseList::CNode::Next
$LN2@Next:
; Line 267
	add	rsp, 48					; 00000030H
	pop	rdi
	ret	0
?Next@CBaseList@@QEBAPEAU__POSITION@@PEAU2@@Z ENDP	; CBaseList::Next
_TEXT	ENDS
PUBLIC	?RemoveI@CBaseList@@IEAAPEAXPEAU__POSITION@@@Z	; CBaseList::RemoveI
PUBLIC	?RemoveHeadI@CBaseList@@IEAAPEAXXZ		; CBaseList::RemoveHeadI
;	COMDAT pdata
; File c:\downloads\wpf mediakit - copy\src\filters\baseclasses\wxlist.cpp
pdata	SEGMENT
$pdata$?RemoveHeadI@CBaseList@@IEAAPEAXXZ DD imagerel $LN3
	DD	imagerel $LN3+55
	DD	imagerel $unwind$?RemoveHeadI@CBaseList@@IEAAPEAXXZ
pdata	ENDS
;	COMDAT xdata
xdata	SEGMENT
$unwind$?RemoveHeadI@CBaseList@@IEAAPEAXXZ DD 021e01H
	DD	07006320aH
; Function compile flags: /Odtp /RTCsu
xdata	ENDS
;	COMDAT ?RemoveHeadI@CBaseList@@IEAAPEAXXZ
_TEXT	SEGMENT
this$ = 48
?RemoveHeadI@CBaseList@@IEAAPEAXXZ PROC			; CBaseList::RemoveHeadI, COMDAT
; Line 287
$LN3:
	mov	QWORD PTR [rsp+8], rcx
	push	rdi
	sub	rsp, 32					; 00000020H
	mov	rdi, rsp
	mov	ecx, 8
	mov	eax, -858993460				; ccccccccH
	rep stosd
	mov	rcx, QWORD PTR [rsp+48]
; Line 295
	mov	rax, QWORD PTR this$[rsp]
	mov	rdx, QWORD PTR [rax+8]
	mov	rcx, QWORD PTR this$[rsp]
	call	?RemoveI@CBaseList@@IEAAPEAXPEAU__POSITION@@@Z ; CBaseList::RemoveI
; Line 296
	add	rsp, 32					; 00000020H
	pop	rdi
	ret	0
?RemoveHeadI@CBaseList@@IEAAPEAXXZ ENDP			; CBaseList::RemoveHeadI
_TEXT	ENDS
PUBLIC	?RemoveTailI@CBaseList@@IEAAPEAXXZ		; CBaseList::RemoveTailI
;	COMDAT pdata
pdata	SEGMENT
$pdata$?RemoveTailI@CBaseList@@IEAAPEAXXZ DD imagerel $LN3
	DD	imagerel $LN3+55
	DD	imagerel $unwind$?RemoveTailI@CBaseList@@IEAAPEAXXZ
pdata	ENDS
;	COMDAT xdata
xdata	SEGMENT
$unwind$?RemoveTailI@CBaseList@@IEAAPEAXXZ DD 021e01H
	DD	07006320aH
; Function compile flags: /Odtp /RTCsu
xdata	ENDS
;	COMDAT ?RemoveTailI@CBaseList@@IEAAPEAXXZ
_TEXT	SEGMENT
this$ = 48
?RemoveTailI@CBaseList@@IEAAPEAXXZ PROC			; CBaseList::RemoveTailI, COMDAT
; Line 305
$LN3:
	mov	QWORD PTR [rsp+8], rcx
	push	rdi
	sub	rsp, 32					; 00000020H
	mov	rdi, rsp
	mov	ecx, 8
	mov	eax, -858993460				; ccccccccH
	rep stosd
	mov	rcx, QWORD PTR [rsp+48]
; Line 313
	mov	rax, QWORD PTR this$[rsp]
	mov	rdx, QWORD PTR [rax+16]
	mov	rcx, QWORD PTR this$[rsp]
	call	?RemoveI@CBaseList@@IEAAPEAXPEAU__POSITION@@@Z ; CBaseList::RemoveI
; Line 314
	add	rsp, 32					; 00000020H
	pop	rdi
	ret	0
?RemoveTailI@CBaseList@@IEAAPEAXXZ ENDP			; CBaseList::RemoveTailI
_TEXT	ENDS
PUBLIC	?AddToCache@CNodeCache@CBaseList@@QEAAXPEAVCNode@2@@Z ; CBaseList::CNodeCache::AddToCache
PUBLIC	?SetPrev@CNode@CBaseList@@QEAAXPEAV12@@Z	; CBaseList::CNode::SetPrev
PUBLIC	?SetNext@CNode@CBaseList@@QEAAXPEAV12@@Z	; CBaseList::CNode::SetNext
PUBLIC	?Prev@CNode@CBaseList@@QEBAPEAV12@XZ		; CBaseList::CNode::Prev
;	COMDAT pdata
pdata	SEGMENT
$pdata$?RemoveI@CBaseList@@IEAAPEAXPEAU__POSITION@@@Z DD imagerel $LN10
	DD	imagerel $LN10+329
	DD	imagerel $unwind$?RemoveI@CBaseList@@IEAAPEAXPEAU__POSITION@@@Z
pdata	ENDS
;	COMDAT xdata
xdata	SEGMENT
$unwind$?RemoveI@CBaseList@@IEAAPEAXPEAU__POSITION@@@Z DD 022301H
	DD	0700b720fH
; Function compile flags: /Odtp /RTCsu
xdata	ENDS
;	COMDAT ?RemoveI@CBaseList@@IEAAPEAXPEAU__POSITION@@@Z
_TEXT	SEGMENT
pCurrent$ = 32
pNode$ = 40
pObject$ = 48
this$ = 80
pos$ = 88
?RemoveI@CBaseList@@IEAAPEAXPEAU__POSITION@@@Z PROC	; CBaseList::RemoveI, COMDAT
; Line 327
$LN10:
	mov	QWORD PTR [rsp+16], rdx
	mov	QWORD PTR [rsp+8], rcx
	push	rdi
	sub	rsp, 64					; 00000040H
	mov	rdi, rsp
	mov	ecx, 16
	mov	eax, -858993460				; ccccccccH
	rep stosd
	mov	rcx, QWORD PTR [rsp+80]
; Line 331
	cmp	QWORD PTR pos$[rsp], 0
	jne	SHORT $LN7@RemoveI
	xor	eax, eax
	jmp	$LN8@RemoveI
$LN7@RemoveI:
; Line 334
	mov	rax, QWORD PTR pos$[rsp]
	mov	QWORD PTR pCurrent$[rsp], rax
; Line 335
	cmp	QWORD PTR pCurrent$[rsp], 0
	jne	SHORT $LN6@RemoveI
	mov	r8d, 335				; 0000014fH
	lea	rdx, OFFSET FLAT:$SG82314
	lea	rcx, OFFSET FLAT:$SG82315
	call	?DbgAssert@@YAXPEB_W0H@Z		; DbgAssert
$LN6@RemoveI:
; Line 339
	mov	rcx, QWORD PTR pCurrent$[rsp]
	call	?Prev@CNode@CBaseList@@QEBAPEAV12@XZ	; CBaseList::CNode::Prev
	mov	QWORD PTR pNode$[rsp], rax
; Line 340
	cmp	QWORD PTR pNode$[rsp], 0
	jne	SHORT $LN5@RemoveI
; Line 341
	mov	rcx, QWORD PTR pCurrent$[rsp]
	call	?Next@CNode@CBaseList@@QEBAPEAV12@XZ	; CBaseList::CNode::Next
	mov	rcx, QWORD PTR this$[rsp]
	mov	QWORD PTR [rcx+8], rax
; Line 342
	jmp	SHORT $LN4@RemoveI
$LN5@RemoveI:
; Line 343
	mov	rcx, QWORD PTR pCurrent$[rsp]
	call	?Next@CNode@CBaseList@@QEBAPEAV12@XZ	; CBaseList::CNode::Next
	mov	rdx, rax
	mov	rcx, QWORD PTR pNode$[rsp]
	call	?SetNext@CNode@CBaseList@@QEAAXPEAV12@@Z ; CBaseList::CNode::SetNext
$LN4@RemoveI:
; Line 348
	mov	rcx, QWORD PTR pCurrent$[rsp]
	call	?Next@CNode@CBaseList@@QEBAPEAV12@XZ	; CBaseList::CNode::Next
	mov	QWORD PTR pNode$[rsp], rax
; Line 349
	cmp	QWORD PTR pNode$[rsp], 0
	jne	SHORT $LN3@RemoveI
; Line 350
	mov	rcx, QWORD PTR pCurrent$[rsp]
	call	?Prev@CNode@CBaseList@@QEBAPEAV12@XZ	; CBaseList::CNode::Prev
	mov	rcx, QWORD PTR this$[rsp]
	mov	QWORD PTR [rcx+16], rax
; Line 351
	jmp	SHORT $LN2@RemoveI
$LN3@RemoveI:
; Line 352
	mov	rcx, QWORD PTR pCurrent$[rsp]
	call	?Prev@CNode@CBaseList@@QEBAPEAV12@XZ	; CBaseList::CNode::Prev
	mov	rdx, rax
	mov	rcx, QWORD PTR pNode$[rsp]
	call	?SetPrev@CNode@CBaseList@@QEAAXPEAV12@@Z ; CBaseList::CNode::SetPrev
$LN2@RemoveI:
; Line 357
	mov	rcx, QWORD PTR pCurrent$[rsp]
	call	?GetData@CNode@CBaseList@@QEBAPEAXXZ	; CBaseList::CNode::GetData
	mov	QWORD PTR pObject$[rsp], rax
; Line 372
	mov	rax, QWORD PTR this$[rsp]
	add	rax, 32					; 00000020H
	mov	rdx, QWORD PTR pCurrent$[rsp]
	mov	rcx, rax
	call	?AddToCache@CNodeCache@CBaseList@@QEAAXPEAVCNode@2@@Z ; CBaseList::CNodeCache::AddToCache
; Line 376
	mov	rax, QWORD PTR this$[rsp]
	mov	eax, DWORD PTR [rax+24]
	dec	eax
	mov	rcx, QWORD PTR this$[rsp]
	mov	DWORD PTR [rcx+24], eax
; Line 377
	mov	rax, QWORD PTR this$[rsp]
	cmp	DWORD PTR [rax+24], 0
	jge	SHORT $LN1@RemoveI
	mov	r8d, 377				; 00000179H
	lea	rdx, OFFSET FLAT:$SG82323
	lea	rcx, OFFSET FLAT:$SG82324
	call	?DbgAssert@@YAXPEB_W0H@Z		; DbgAssert
$LN1@RemoveI:
; Line 378
	mov	rax, QWORD PTR pObject$[rsp]
$LN8@RemoveI:
; Line 379
	add	rsp, 64					; 00000040H
	pop	rdi
	ret	0
?RemoveI@CBaseList@@IEAAPEAXPEAU__POSITION@@@Z ENDP	; CBaseList::RemoveI
_TEXT	ENDS
;	COMDAT pdata
; File c:\downloads\wpf mediakit - copy\src\filters\baseclasses\wxlist.h
pdata	SEGMENT
$pdata$?Prev@CNode@CBaseList@@QEBAPEAV12@XZ DD imagerel $LN3
	DD	imagerel $LN3+17
	DD	imagerel $unwind$?Prev@CNode@CBaseList@@QEBAPEAV12@XZ
pdata	ENDS
;	COMDAT xdata
xdata	SEGMENT
$unwind$?Prev@CNode@CBaseList@@QEBAPEAV12@XZ DD 010601H
	DD	07006H
; Function compile flags: /Odtp /RTCsu
xdata	ENDS
;	COMDAT ?Prev@CNode@CBaseList@@QEBAPEAV12@XZ
_TEXT	SEGMENT
this$ = 16
?Prev@CNode@CBaseList@@QEBAPEAV12@XZ PROC		; CBaseList::CNode::Prev, COMDAT
; Line 98
$LN3:
	mov	QWORD PTR [rsp+8], rcx
	push	rdi
	mov	rax, QWORD PTR this$[rsp]
	mov	rax, QWORD PTR [rax+8]
	pop	rdi
	ret	0
?Prev@CNode@CBaseList@@QEBAPEAV12@XZ ENDP		; CBaseList::CNode::Prev
_TEXT	ENDS
;	COMDAT pdata
pdata	SEGMENT
$pdata$?SetPrev@CNode@CBaseList@@QEAAXPEAV12@@Z DD imagerel $LN3
	DD	imagerel $LN3+27
	DD	imagerel $unwind$?SetPrev@CNode@CBaseList@@QEAAXPEAV12@@Z
pdata	ENDS
;	COMDAT xdata
xdata	SEGMENT
$unwind$?SetPrev@CNode@CBaseList@@QEAAXPEAV12@@Z DD 010b01H
	DD	0700bH
; Function compile flags: /Odtp /RTCsu
xdata	ENDS
;	COMDAT ?SetPrev@CNode@CBaseList@@QEAAXPEAV12@@Z
_TEXT	SEGMENT
this$ = 16
p$ = 24
?SetPrev@CNode@CBaseList@@QEAAXPEAV12@@Z PROC		; CBaseList::CNode::SetPrev, COMDAT
; Line 106
$LN3:
	mov	QWORD PTR [rsp+16], rdx
	mov	QWORD PTR [rsp+8], rcx
	push	rdi
	mov	rax, QWORD PTR this$[rsp]
	mov	rcx, QWORD PTR p$[rsp]
	mov	QWORD PTR [rax+8], rcx
	pop	rdi
	ret	0
?SetPrev@CNode@CBaseList@@QEAAXPEAV12@@Z ENDP		; CBaseList::CNode::SetPrev
_TEXT	ENDS
;	COMDAT pdata
pdata	SEGMENT
$pdata$?SetNext@CNode@CBaseList@@QEAAXPEAV12@@Z DD imagerel $LN3
	DD	imagerel $LN3+27
	DD	imagerel $unwind$?SetNext@CNode@CBaseList@@QEAAXPEAV12@@Z
pdata	ENDS
;	COMDAT xdata
xdata	SEGMENT
$unwind$?SetNext@CNode@CBaseList@@QEAAXPEAV12@@Z DD 010b01H
	DD	0700bH
; Function compile flags: /Odtp /RTCsu
xdata	ENDS
;	COMDAT ?SetNext@CNode@CBaseList@@QEAAXPEAV12@@Z
_TEXT	SEGMENT
this$ = 16
p$ = 24
?SetNext@CNode@CBaseList@@QEAAXPEAV12@@Z PROC		; CBaseList::CNode::SetNext, COMDAT
; Line 110
$LN3:
	mov	QWORD PTR [rsp+16], rdx
	mov	QWORD PTR [rsp+8], rcx
	push	rdi
	mov	rax, QWORD PTR this$[rsp]
	mov	rcx, QWORD PTR p$[rsp]
	mov	QWORD PTR [rax+16], rcx
	pop	rdi
	ret	0
?SetNext@CNode@CBaseList@@QEAAXPEAV12@@Z ENDP		; CBaseList::CNode::SetNext
_TEXT	ENDS
;	COMDAT pdata
pdata	SEGMENT
$pdata$?AddToCache@CNodeCache@CBaseList@@QEAAXPEAVCNode@2@@Z DD imagerel $LN7
	DD	imagerel $LN7+170
	DD	imagerel $unwind$?AddToCache@CNodeCache@CBaseList@@QEAAXPEAVCNode@2@@Z
pdata	ENDS
;	COMDAT xdata
xdata	SEGMENT
$unwind$?AddToCache@CNodeCache@CBaseList@@QEAAXPEAVCNode@2@@Z DD 022301H
	DD	0700b720fH
; Function compile flags: /Odtp /RTCsu
xdata	ENDS
;	COMDAT ?AddToCache@CNodeCache@CBaseList@@QEAAXPEAVCNode@2@@Z
_TEXT	SEGMENT
$T83308 = 32
$T83309 = 40
tv78 = 48
this$ = 80
pNode$ = 88
?AddToCache@CNodeCache@CBaseList@@QEAAXPEAVCNode@2@@Z PROC ; CBaseList::CNodeCache::AddToCache, COMDAT
; Line 137
$LN7:
	mov	QWORD PTR [rsp+16], rdx
	mov	QWORD PTR [rsp+8], rcx
	push	rdi
	sub	rsp, 64					; 00000040H
	mov	rdi, rsp
	mov	ecx, 16
	mov	eax, -858993460				; ccccccccH
	rep stosd
	mov	rcx, QWORD PTR [rsp+80]
; Line 138
	mov	rax, QWORD PTR this$[rsp]
	mov	rcx, QWORD PTR this$[rsp]
	mov	ecx, DWORD PTR [rcx]
	cmp	DWORD PTR [rax+4], ecx
	jge	SHORT $LN2@AddToCache
; Line 139
	mov	rax, QWORD PTR this$[rsp]
	mov	rdx, QWORD PTR [rax+8]
	mov	rcx, QWORD PTR pNode$[rsp]
	call	?SetNext@CNode@CBaseList@@QEAAXPEAV12@@Z ; CBaseList::CNode::SetNext
; Line 140
	mov	rax, QWORD PTR this$[rsp]
	mov	rcx, QWORD PTR pNode$[rsp]
	mov	QWORD PTR [rax+8], rcx
; Line 141
	mov	rax, QWORD PTR this$[rsp]
	mov	eax, DWORD PTR [rax+4]
	inc	eax
	mov	rcx, QWORD PTR this$[rsp]
	mov	DWORD PTR [rcx+4], eax
; Line 142
	jmp	SHORT $LN1@AddToCache
$LN2@AddToCache:
; Line 143
	mov	rax, QWORD PTR pNode$[rsp]
	mov	QWORD PTR $T83309[rsp], rax
	mov	rax, QWORD PTR $T83309[rsp]
	mov	QWORD PTR $T83308[rsp], rax
	cmp	QWORD PTR $T83308[rsp], 0
	je	SHORT $LN5@AddToCache
	mov	edx, 1
	mov	rcx, QWORD PTR $T83308[rsp]
	call	??_GCNode@CBaseList@@QEAAPEAXI@Z
	mov	QWORD PTR tv78[rsp], rax
	jmp	SHORT $LN6@AddToCache
$LN5@AddToCache:
	mov	QWORD PTR tv78[rsp], 0
$LN6@AddToCache:
$LN1@AddToCache:
; Line 145
	add	rsp, 64					; 00000040H
	pop	rdi
	ret	0
?AddToCache@CNodeCache@CBaseList@@QEAAXPEAVCNode@2@@Z ENDP ; CBaseList::CNodeCache::AddToCache
_TEXT	ENDS
PUBLIC	?SetData@CNode@CBaseList@@QEAAXPEAX@Z		; CBaseList::CNode::SetData
PUBLIC	??0CNode@CBaseList@@QEAA@XZ			; CBaseList::CNode::CNode
PUBLIC	?RemoveFromCache@CNodeCache@CBaseList@@QEAAPEAVCNode@2@XZ ; CBaseList::CNodeCache::RemoveFromCache
PUBLIC	?AddTailI@CBaseList@@IEAAPEAU__POSITION@@PEAX@Z	; CBaseList::AddTailI
EXTRN	??2@YAPEAX_K@Z:PROC				; operator new
;	COMDAT pdata
; File c:\downloads\wpf mediakit - copy\src\filters\baseclasses\wxlist.cpp
pdata	SEGMENT
$pdata$?AddTailI@CBaseList@@IEAAPEAU__POSITION@@PEAX@Z DD imagerel $LN10
	DD	imagerel $LN10+294
	DD	imagerel $unwind$?AddTailI@CBaseList@@IEAAPEAU__POSITION@@PEAX@Z
pdata	ENDS
;	COMDAT pdata
pdata	SEGMENT
$pdata$?dtor$0@?0??AddTailI@CBaseList@@IEAAPEAU__POSITION@@PEAX@Z@4HA DD imagerel ?dtor$0@?0??AddTailI@CBaseList@@IEAAPEAU__POSITION@@PEAX@Z@4HA
	DD	imagerel ?dtor$0@?0??AddTailI@CBaseList@@IEAAPEAU__POSITION@@PEAX@Z@4HA+35
	DD	imagerel $unwind$?dtor$0@?0??AddTailI@CBaseList@@IEAAPEAU__POSITION@@PEAX@Z@4HA
pdata	ENDS
;	COMDAT xdata
xdata	SEGMENT
$ip2state$?AddTailI@CBaseList@@IEAAPEAU__POSITION@@PEAX@Z DD imagerel ?AddTailI@CBaseList@@IEAAPEAU__POSITION@@PEAX@Z
	DD	0ffffffffH
	DD	imagerel ?AddTailI@CBaseList@@IEAAPEAU__POSITION@@PEAX@Z+89
	DD	00H
	DD	imagerel ?AddTailI@CBaseList@@IEAAPEAU__POSITION@@PEAX@Z+133
	DD	0ffffffffH
xdata	ENDS
;	COMDAT xdata
xdata	SEGMENT
$unwind$?dtor$0@?0??AddTailI@CBaseList@@IEAAPEAU__POSITION@@PEAX@Z@4HA DD 031001H
	DD	0700c4210H
	DD	0500bH
xdata	ENDS
;	COMDAT xdata
xdata	SEGMENT
$unwind$?AddTailI@CBaseList@@IEAAPEAU__POSITION@@PEAX@Z DD 022c11H
	DD	0700b920fH
	DD	imagerel __CxxFrameHandler3
	DD	imagerel $cppxdata$?AddTailI@CBaseList@@IEAAPEAU__POSITION@@PEAX@Z
xdata	ENDS
;	COMDAT CONST
CONST	SEGMENT
$cppxdata$?AddTailI@CBaseList@@IEAAPEAU__POSITION@@PEAX@Z DD 019930522H
	DD	01H
	DD	imagerel $stateUnwindMap$?AddTailI@CBaseList@@IEAAPEAU__POSITION@@PEAX@Z
	DD	00H
	DD	00H
	DD	03H
	DD	imagerel $ip2state$?AddTailI@CBaseList@@IEAAPEAU__POSITION@@PEAX@Z
	DD	038H
	DD	00H
	DD	01H
CONST	ENDS
;	COMDAT xdata
xdata	SEGMENT
$stateUnwindMap$?AddTailI@CBaseList@@IEAAPEAU__POSITION@@PEAX@Z DD 0ffffffffH
	DD	imagerel ?dtor$0@?0??AddTailI@CBaseList@@IEAAPEAU__POSITION@@PEAX@Z@4HA
; Function compile flags: /Odtp /RTCsu
xdata	ENDS
;	COMDAT ?AddTailI@CBaseList@@IEAAPEAU__POSITION@@PEAX@Z
_TEXT	SEGMENT
pNode$ = 32
$T83319 = 40
$T83320 = 48
$T83328 = 56
tv75 = 64
this$ = 96
pObject$ = 104
?AddTailI@CBaseList@@IEAAPEAU__POSITION@@PEAX@Z PROC	; CBaseList::AddTailI, COMDAT
; Line 388
$LN10:
	mov	QWORD PTR [rsp+16], rdx
	mov	QWORD PTR [rsp+8], rcx
	push	rdi
	sub	rsp, 80					; 00000050H
	mov	rdi, rsp
	mov	ecx, 20
	mov	eax, -858993460				; ccccccccH
	rep stosd
	mov	rcx, QWORD PTR [rsp+96]
	mov	QWORD PTR $T83328[rsp], -2
; Line 397
	mov	rax, QWORD PTR this$[rsp]
	add	rax, 32					; 00000020H
	mov	rcx, rax
	call	?RemoveFromCache@CNodeCache@CBaseList@@QEAAPEAVCNode@2@XZ ; CBaseList::CNodeCache::RemoveFromCache
	mov	QWORD PTR pNode$[rsp], rax
; Line 398
	cmp	QWORD PTR pNode$[rsp], 0
	jne	SHORT $LN4@AddTailI
; Line 399
	mov	ecx, 32					; 00000020H
	call	??2@YAPEAX_K@Z				; operator new
	mov	QWORD PTR $T83320[rsp], rax
	cmp	QWORD PTR $T83320[rsp], 0
	je	SHORT $LN7@AddTailI
	mov	rcx, QWORD PTR $T83320[rsp]
	call	??0CNode@CBaseList@@QEAA@XZ		; CBaseList::CNode::CNode
	mov	QWORD PTR tv75[rsp], rax
	jmp	SHORT $LN8@AddTailI
$LN7@AddTailI:
	mov	QWORD PTR tv75[rsp], 0
$LN8@AddTailI:
	mov	rax, QWORD PTR tv75[rsp]
	mov	QWORD PTR $T83319[rsp], rax
	mov	rax, QWORD PTR $T83319[rsp]
	mov	QWORD PTR pNode$[rsp], rax
$LN4@AddTailI:
; Line 404
	cmp	QWORD PTR pNode$[rsp], 0
	jne	SHORT $LN3@AddTailI
; Line 405
	xor	eax, eax
	jmp	$LN5@AddTailI
$LN3@AddTailI:
; Line 412
	mov	rdx, QWORD PTR pObject$[rsp]
	mov	rcx, QWORD PTR pNode$[rsp]
	call	?SetData@CNode@CBaseList@@QEAAXPEAX@Z	; CBaseList::CNode::SetData
; Line 413
	xor	edx, edx
	mov	rcx, QWORD PTR pNode$[rsp]
	call	?SetNext@CNode@CBaseList@@QEAAXPEAV12@@Z ; CBaseList::CNode::SetNext
; Line 414
	mov	rax, QWORD PTR this$[rsp]
	mov	rdx, QWORD PTR [rax+16]
	mov	rcx, QWORD PTR pNode$[rsp]
	call	?SetPrev@CNode@CBaseList@@QEAAXPEAV12@@Z ; CBaseList::CNode::SetPrev
; Line 416
	mov	rax, QWORD PTR this$[rsp]
	cmp	QWORD PTR [rax+16], 0
	jne	SHORT $LN2@AddTailI
; Line 417
	mov	rax, QWORD PTR this$[rsp]
	mov	rcx, QWORD PTR pNode$[rsp]
	mov	QWORD PTR [rax+8], rcx
; Line 418
	jmp	SHORT $LN1@AddTailI
$LN2@AddTailI:
; Line 419
	mov	rdx, QWORD PTR pNode$[rsp]
	mov	rax, QWORD PTR this$[rsp]
	mov	rcx, QWORD PTR [rax+16]
	call	?SetNext@CNode@CBaseList@@QEAAXPEAV12@@Z ; CBaseList::CNode::SetNext
$LN1@AddTailI:
; Line 427
	mov	rax, QWORD PTR this$[rsp]
	mov	rcx, QWORD PTR pNode$[rsp]
	mov	QWORD PTR [rax+16], rcx
; Line 428
	mov	rax, QWORD PTR this$[rsp]
	mov	eax, DWORD PTR [rax+24]
	inc	eax
	mov	rcx, QWORD PTR this$[rsp]
	mov	DWORD PTR [rcx+24], eax
; Line 430
	mov	rax, QWORD PTR pNode$[rsp]
$LN5@AddTailI:
; Line 431
	add	rsp, 80					; 00000050H
	pop	rdi
	ret	0
?AddTailI@CBaseList@@IEAAPEAU__POSITION@@PEAX@Z ENDP	; CBaseList::AddTailI
; Function compile flags: /Odtp /RTCsu
_TEXT	ENDS
;	COMDAT text$x
text$x	SEGMENT
pNode$ = 32
$T83319 = 40
$T83320 = 48
$T83328 = 56
tv75 = 64
this$ = 96
pObject$ = 104
?dtor$0@?0??AddTailI@CBaseList@@IEAAPEAU__POSITION@@PEAX@Z@4HA PROC ; `CBaseList::AddTailI'::`1'::dtor$0
	mov	QWORD PTR [rsp+8], rcx
	mov	QWORD PTR [rsp+16], rdx
	push	rbp
	push	rdi
	sub	rsp, 40					; 00000028H
	mov	rbp, rdx
	mov	rcx, QWORD PTR $T83320[rbp]
	call	??3@YAXPEAX@Z				; operator delete
	add	rsp, 40					; 00000028H
	pop	rdi
	pop	rbp
	ret	0
?dtor$0@?0??AddTailI@CBaseList@@IEAAPEAU__POSITION@@PEAX@Z@4HA ENDP ; `CBaseList::AddTailI'::`1'::dtor$0
text$x	ENDS
PUBLIC	??_C@_1BE@ENAIAFNG@?$AAL?$AAi?$AAs?$AAt?$AA?5?$AAn?$AAo?$AAd?$AAe?$AA?$AA@ ; `string'
;	COMDAT pdata
; File c:\downloads\wpf mediakit - copy\src\filters\baseclasses\wxlist.h
pdata	SEGMENT
$pdata$??0CNode@CBaseList@@QEAA@XZ DD imagerel $LN4
	DD	imagerel $LN4+58
	DD	imagerel $unwind$??0CNode@CBaseList@@QEAA@XZ
pdata	ENDS
;	COMDAT xdata
xdata	SEGMENT
$unwind$??0CNode@CBaseList@@QEAA@XZ DD 021e01H
	DD	07006320aH
xdata	ENDS
;	COMDAT ??_C@_1BE@ENAIAFNG@?$AAL?$AAi?$AAs?$AAt?$AA?5?$AAn?$AAo?$AAd?$AAe?$AA?$AA@
CONST	SEGMENT
??_C@_1BE@ENAIAFNG@?$AAL?$AAi?$AAs?$AAt?$AA?5?$AAn?$AAo?$AAd?$AAe?$AA?$AA@ DB 'L'
	DB	00H, 'i', 00H, 's', 00H, 't', 00H, ' ', 00H, 'n', 00H, 'o', 00H
	DB	'd', 00H, 'e', 00H, 00H, 00H			; `string'
; Function compile flags: /Odtp /RTCsu
CONST	ENDS
;	COMDAT ??0CNode@CBaseList@@QEAA@XZ
_TEXT	SEGMENT
this$ = 48
??0CNode@CBaseList@@QEAA@XZ PROC			; CBaseList::CNode::CNode, COMDAT
; Line 93
$LN4:
	mov	QWORD PTR [rsp+8], rcx
	push	rdi
	sub	rsp, 32					; 00000020H
	mov	rdi, rsp
	mov	ecx, 8
	mov	eax, -858993460				; ccccccccH
	rep stosd
	mov	rcx, QWORD PTR [rsp+48]
	lea	rdx, OFFSET FLAT:??_C@_1BE@ENAIAFNG@?$AAL?$AAi?$AAs?$AAt?$AA?5?$AAn?$AAo?$AAd?$AAe?$AA?$AA@
	mov	rcx, QWORD PTR this$[rsp]
	call	??0CBaseObject@@QEAA@PEB_W@Z		; CBaseObject::CBaseObject
; Line 94
	mov	rax, QWORD PTR this$[rsp]
	add	rsp, 32					; 00000020H
	pop	rdi
	ret	0
??0CNode@CBaseList@@QEAA@XZ ENDP			; CBaseList::CNode::CNode
_TEXT	ENDS
;	COMDAT pdata
pdata	SEGMENT
$pdata$?SetData@CNode@CBaseList@@QEAAXPEAX@Z DD imagerel $LN3
	DD	imagerel $LN3+27
	DD	imagerel $unwind$?SetData@CNode@CBaseList@@QEAAXPEAX@Z
pdata	ENDS
;	COMDAT xdata
xdata	SEGMENT
$unwind$?SetData@CNode@CBaseList@@QEAAXPEAX@Z DD 010b01H
	DD	0700bH
; Function compile flags: /Odtp /RTCsu
xdata	ENDS
;	COMDAT ?SetData@CNode@CBaseList@@QEAAXPEAX@Z
_TEXT	SEGMENT
this$ = 16
p$ = 24
?SetData@CNode@CBaseList@@QEAAXPEAX@Z PROC		; CBaseList::CNode::SetData, COMDAT
; Line 118
$LN3:
	mov	QWORD PTR [rsp+16], rdx
	mov	QWORD PTR [rsp+8], rcx
	push	rdi
	mov	rax, QWORD PTR this$[rsp]
	mov	rcx, QWORD PTR p$[rsp]
	mov	QWORD PTR [rax+24], rcx
	pop	rdi
	ret	0
?SetData@CNode@CBaseList@@QEAAXPEAX@Z ENDP		; CBaseList::CNode::SetData
_TEXT	ENDS
PUBLIC	??_C@_1BK@LCOEFNMB@?$AAm?$AA_?$AAi?$AAU?$AAs?$AAe?$AAd?$AA?5?$AA?$DN?$AA?$DN?$AA?5?$AA0?$AA?$AA@ ; `string'
PUBLIC	??_C@_1BK@FJNDOGMC@?$AAm?$AA_?$AAi?$AAU?$AAs?$AAe?$AAd?$AA?5?$AA?$DO?$AA?$DN?$AA?5?$AA0?$AA?$AA@ ; `string'
PUBLIC	??_C@_1IE@JBHFKHJF@?$AAC?$AA?3?$AA?2?$AAD?$AAo?$AAw?$AAn?$AAl?$AAo?$AAa?$AAd?$AAs?$AA?2?$AAW?$AAP?$AAF?$AA?5?$AAM?$AAe?$AAd?$AAi?$AAa?$AAK?$AAi?$AAt?$AA?5?$AA?9?$AA?5?$AAC?$AAo?$AAp?$AAy@ ; `string'
;	COMDAT pdata
pdata	SEGMENT
$pdata$?RemoveFromCache@CNodeCache@CBaseList@@QEAAPEAVCNode@2@XZ DD imagerel $LN7
	DD	imagerel $LN7+174
	DD	imagerel $unwind$?RemoveFromCache@CNodeCache@CBaseList@@QEAAPEAVCNode@2@XZ
pdata	ENDS
;	COMDAT xdata
xdata	SEGMENT
$unwind$?RemoveFromCache@CNodeCache@CBaseList@@QEAAPEAVCNode@2@XZ DD 021e01H
	DD	07006520aH
xdata	ENDS
;	COMDAT ??_C@_1BK@LCOEFNMB@?$AAm?$AA_?$AAi?$AAU?$AAs?$AAe?$AAd?$AA?5?$AA?$DN?$AA?$DN?$AA?5?$AA0?$AA?$AA@
CONST	SEGMENT
??_C@_1BK@LCOEFNMB@?$AAm?$AA_?$AAi?$AAU?$AAs?$AAe?$AAd?$AA?5?$AA?$DN?$AA?$DN?$AA?5?$AA0?$AA?$AA@ DB 'm'
	DB	00H, '_', 00H, 'i', 00H, 'U', 00H, 's', 00H, 'e', 00H, 'd', 00H
	DB	' ', 00H, '=', 00H, '=', 00H, ' ', 00H, '0', 00H, 00H, 00H ; `string'
CONST	ENDS
;	COMDAT ??_C@_1BK@FJNDOGMC@?$AAm?$AA_?$AAi?$AAU?$AAs?$AAe?$AAd?$AA?5?$AA?$DO?$AA?$DN?$AA?5?$AA0?$AA?$AA@
CONST	SEGMENT
??_C@_1BK@FJNDOGMC@?$AAm?$AA_?$AAi?$AAU?$AAs?$AAe?$AAd?$AA?5?$AA?$DO?$AA?$DN?$AA?5?$AA0?$AA?$AA@ DB 'm'
	DB	00H, '_', 00H, 'i', 00H, 'U', 00H, 's', 00H, 'e', 00H, 'd', 00H
	DB	' ', 00H, '>', 00H, '=', 00H, ' ', 00H, '0', 00H, 00H, 00H ; `string'
CONST	ENDS
;	COMDAT ??_C@_1IE@JBHFKHJF@?$AAC?$AA?3?$AA?2?$AAD?$AAo?$AAw?$AAn?$AAl?$AAo?$AAa?$AAd?$AAs?$AA?2?$AAW?$AAP?$AAF?$AA?5?$AAM?$AAe?$AAd?$AAi?$AAa?$AAK?$AAi?$AAt?$AA?5?$AA?9?$AA?5?$AAC?$AAo?$AAp?$AAy@
CONST	SEGMENT
??_C@_1IE@JBHFKHJF@?$AAC?$AA?3?$AA?2?$AAD?$AAo?$AAw?$AAn?$AAl?$AAo?$AAa?$AAd?$AAs?$AA?2?$AAW?$AAP?$AAF?$AA?5?$AAM?$AAe?$AAd?$AAi?$AAa?$AAK?$AAi?$AAt?$AA?5?$AA?9?$AA?5?$AAC?$AAo?$AAp?$AAy@ DB 'C'
	DB	00H, ':', 00H, '\', 00H, 'D', 00H, 'o', 00H, 'w', 00H, 'n', 00H
	DB	'l', 00H, 'o', 00H, 'a', 00H, 'd', 00H, 's', 00H, '\', 00H, 'W'
	DB	00H, 'P', 00H, 'F', 00H, ' ', 00H, 'M', 00H, 'e', 00H, 'd', 00H
	DB	'i', 00H, 'a', 00H, 'K', 00H, 'i', 00H, 't', 00H, ' ', 00H, '-'
	DB	00H, ' ', 00H, 'C', 00H, 'o', 00H, 'p', 00H, 'y', 00H, '\', 00H
	DB	's', 00H, 'r', 00H, 'c', 00H, '\', 00H, 'f', 00H, 'i', 00H, 'l'
	DB	00H, 't', 00H, 'e', 00H, 'r', 00H, 's', 00H, '\', 00H, 'B', 00H
	DB	'a', 00H, 's', 00H, 'e', 00H, 'C', 00H, 'l', 00H, 'a', 00H, 's'
	DB	00H, 's', 00H, 'e', 00H, 's', 00H, '\', 00H, 'w', 00H, 'x', 00H
	DB	'l', 00H, 'i', 00H, 's', 00H, 't', 00H, '.', 00H, 'h', 00H, 00H
	DB	00H						; `string'
; Function compile flags: /Odtp /RTCsu
CONST	ENDS
;	COMDAT ?RemoveFromCache@CNodeCache@CBaseList@@QEAAPEAVCNode@2@XZ
_TEXT	SEGMENT
pNode$ = 32
this$ = 64
?RemoveFromCache@CNodeCache@CBaseList@@QEAAPEAVCNode@2@XZ PROC ; CBaseList::CNodeCache::RemoveFromCache, COMDAT
; Line 147
$LN7:
	mov	QWORD PTR [rsp+8], rcx
	push	rdi
	sub	rsp, 48					; 00000030H
	mov	rdi, rsp
	mov	ecx, 12
	mov	eax, -858993460				; ccccccccH
	rep stosd
	mov	rcx, QWORD PTR [rsp+64]
; Line 148
	mov	rax, QWORD PTR this$[rsp]
	mov	rax, QWORD PTR [rax+8]
	mov	QWORD PTR pNode$[rsp], rax
; Line 149
	cmp	QWORD PTR pNode$[rsp], 0
	je	SHORT $LN4@RemoveFrom
; Line 150
	mov	rcx, QWORD PTR pNode$[rsp]
	call	?Next@CNode@CBaseList@@QEBAPEAV12@XZ	; CBaseList::CNode::Next
	mov	rcx, QWORD PTR this$[rsp]
	mov	QWORD PTR [rcx+8], rax
; Line 151
	mov	rax, QWORD PTR this$[rsp]
	mov	eax, DWORD PTR [rax+4]
	dec	eax
	mov	rcx, QWORD PTR this$[rsp]
	mov	DWORD PTR [rcx+4], eax
; Line 152
	mov	rax, QWORD PTR this$[rsp]
	cmp	DWORD PTR [rax+4], 0
	jge	SHORT $LN3@RemoveFrom
	mov	r8d, 152				; 00000098H
	lea	rdx, OFFSET FLAT:??_C@_1IE@JBHFKHJF@?$AAC?$AA?3?$AA?2?$AAD?$AAo?$AAw?$AAn?$AAl?$AAo?$AAa?$AAd?$AAs?$AA?2?$AAW?$AAP?$AAF?$AA?5?$AAM?$AAe?$AAd?$AAi?$AAa?$AAK?$AAi?$AAt?$AA?5?$AA?9?$AA?5?$AAC?$AAo?$AAp?$AAy@
	lea	rcx, OFFSET FLAT:??_C@_1BK@FJNDOGMC@?$AAm?$AA_?$AAi?$AAU?$AAs?$AAe?$AAd?$AA?5?$AA?$DO?$AA?$DN?$AA?5?$AA0?$AA?$AA@
	call	?DbgAssert@@YAXPEB_W0H@Z		; DbgAssert
$LN3@RemoveFrom:
; Line 153
	jmp	SHORT $LN2@RemoveFrom
$LN4@RemoveFrom:
; Line 154
	mov	rax, QWORD PTR this$[rsp]
	cmp	DWORD PTR [rax+4], 0
	je	SHORT $LN1@RemoveFrom
	mov	r8d, 154				; 0000009aH
	lea	rdx, OFFSET FLAT:??_C@_1IE@JBHFKHJF@?$AAC?$AA?3?$AA?2?$AAD?$AAo?$AAw?$AAn?$AAl?$AAo?$AAa?$AAd?$AAs?$AA?2?$AAW?$AAP?$AAF?$AA?5?$AAM?$AAe?$AAd?$AAi?$AAa?$AAK?$AAi?$AAt?$AA?5?$AA?9?$AA?5?$AAC?$AAo?$AAp?$AAy@
	lea	rcx, OFFSET FLAT:??_C@_1BK@LCOEFNMB@?$AAm?$AA_?$AAi?$AAU?$AAs?$AAe?$AAd?$AA?5?$AA?$DN?$AA?$DN?$AA?5?$AA0?$AA?$AA@
	call	?DbgAssert@@YAXPEB_W0H@Z		; DbgAssert
$LN1@RemoveFrom:
$LN2@RemoveFrom:
; Line 156
	mov	rax, QWORD PTR pNode$[rsp]
; Line 157
	add	rsp, 48					; 00000030H
	pop	rdi
	ret	0
?RemoveFromCache@CNodeCache@CBaseList@@QEAAPEAVCNode@2@XZ ENDP ; CBaseList::CNodeCache::RemoveFromCache
_TEXT	ENDS
PUBLIC	?AddHeadI@CBaseList@@IEAAPEAU__POSITION@@PEAX@Z	; CBaseList::AddHeadI
;	COMDAT pdata
; File c:\downloads\wpf mediakit - copy\src\filters\baseclasses\wxlist.cpp
pdata	SEGMENT
$pdata$?AddHeadI@CBaseList@@IEAAPEAU__POSITION@@PEAX@Z DD imagerel $LN10
	DD	imagerel $LN10+294
	DD	imagerel $unwind$?AddHeadI@CBaseList@@IEAAPEAU__POSITION@@PEAX@Z
pdata	ENDS
;	COMDAT pdata
pdata	SEGMENT
$pdata$?dtor$0@?0??AddHeadI@CBaseList@@IEAAPEAU__POSITION@@PEAX@Z@4HA DD imagerel ?dtor$0@?0??AddHeadI@CBaseList@@IEAAPEAU__POSITION@@PEAX@Z@4HA
	DD	imagerel ?dtor$0@?0??AddHeadI@CBaseList@@IEAAPEAU__POSITION@@PEAX@Z@4HA+35
	DD	imagerel $unwind$?dtor$0@?0??AddHeadI@CBaseList@@IEAAPEAU__POSITION@@PEAX@Z@4HA
pdata	ENDS
;	COMDAT xdata
xdata	SEGMENT
$ip2state$?AddHeadI@CBaseList@@IEAAPEAU__POSITION@@PEAX@Z DD imagerel ?AddHeadI@CBaseList@@IEAAPEAU__POSITION@@PEAX@Z
	DD	0ffffffffH
	DD	imagerel ?AddHeadI@CBaseList@@IEAAPEAU__POSITION@@PEAX@Z+89
	DD	00H
	DD	imagerel ?AddHeadI@CBaseList@@IEAAPEAU__POSITION@@PEAX@Z+133
	DD	0ffffffffH
xdata	ENDS
;	COMDAT xdata
xdata	SEGMENT
$unwind$?dtor$0@?0??AddHeadI@CBaseList@@IEAAPEAU__POSITION@@PEAX@Z@4HA DD 031001H
	DD	0700c4210H
	DD	0500bH
xdata	ENDS
;	COMDAT xdata
xdata	SEGMENT
$unwind$?AddHeadI@CBaseList@@IEAAPEAU__POSITION@@PEAX@Z DD 022c11H
	DD	0700b920fH
	DD	imagerel __CxxFrameHandler3
	DD	imagerel $cppxdata$?AddHeadI@CBaseList@@IEAAPEAU__POSITION@@PEAX@Z
xdata	ENDS
;	COMDAT CONST
CONST	SEGMENT
$cppxdata$?AddHeadI@CBaseList@@IEAAPEAU__POSITION@@PEAX@Z DD 019930522H
	DD	01H
	DD	imagerel $stateUnwindMap$?AddHeadI@CBaseList@@IEAAPEAU__POSITION@@PEAX@Z
	DD	00H
	DD	00H
	DD	03H
	DD	imagerel $ip2state$?AddHeadI@CBaseList@@IEAAPEAU__POSITION@@PEAX@Z
	DD	038H
	DD	00H
	DD	01H
CONST	ENDS
;	COMDAT xdata
xdata	SEGMENT
$stateUnwindMap$?AddHeadI@CBaseList@@IEAAPEAU__POSITION@@PEAX@Z DD 0ffffffffH
	DD	imagerel ?dtor$0@?0??AddHeadI@CBaseList@@IEAAPEAU__POSITION@@PEAX@Z@4HA
; Function compile flags: /Odtp /RTCsu
xdata	ENDS
;	COMDAT ?AddHeadI@CBaseList@@IEAAPEAU__POSITION@@PEAX@Z
_TEXT	SEGMENT
pNode$ = 32
$T83371 = 40
$T83372 = 48
$T83380 = 56
tv75 = 64
this$ = 96
pObject$ = 104
?AddHeadI@CBaseList@@IEAAPEAU__POSITION@@PEAX@Z PROC	; CBaseList::AddHeadI, COMDAT
; Line 439
$LN10:
	mov	QWORD PTR [rsp+16], rdx
	mov	QWORD PTR [rsp+8], rcx
	push	rdi
	sub	rsp, 80					; 00000050H
	mov	rdi, rsp
	mov	ecx, 20
	mov	eax, -858993460				; ccccccccH
	rep stosd
	mov	rcx, QWORD PTR [rsp+96]
	mov	QWORD PTR $T83380[rsp], -2
; Line 446
	mov	rax, QWORD PTR this$[rsp]
	add	rax, 32					; 00000020H
	mov	rcx, rax
	call	?RemoveFromCache@CNodeCache@CBaseList@@QEAAPEAVCNode@2@XZ ; CBaseList::CNodeCache::RemoveFromCache
	mov	QWORD PTR pNode$[rsp], rax
; Line 447
	cmp	QWORD PTR pNode$[rsp], 0
	jne	SHORT $LN4@AddHeadI
; Line 448
	mov	ecx, 32					; 00000020H
	call	??2@YAPEAX_K@Z				; operator new
	mov	QWORD PTR $T83372[rsp], rax
	cmp	QWORD PTR $T83372[rsp], 0
	je	SHORT $LN7@AddHeadI
	mov	rcx, QWORD PTR $T83372[rsp]
	call	??0CNode@CBaseList@@QEAA@XZ		; CBaseList::CNode::CNode
	mov	QWORD PTR tv75[rsp], rax
	jmp	SHORT $LN8@AddHeadI
$LN7@AddHeadI:
	mov	QWORD PTR tv75[rsp], 0
$LN8@AddHeadI:
	mov	rax, QWORD PTR tv75[rsp]
	mov	QWORD PTR $T83371[rsp], rax
	mov	rax, QWORD PTR $T83371[rsp]
	mov	QWORD PTR pNode$[rsp], rax
$LN4@AddHeadI:
; Line 453
	cmp	QWORD PTR pNode$[rsp], 0
	jne	SHORT $LN3@AddHeadI
; Line 454
	xor	eax, eax
	jmp	$LN5@AddHeadI
$LN3@AddHeadI:
; Line 461
	mov	rdx, QWORD PTR pObject$[rsp]
	mov	rcx, QWORD PTR pNode$[rsp]
	call	?SetData@CNode@CBaseList@@QEAAXPEAX@Z	; CBaseList::CNode::SetData
; Line 464
	xor	edx, edx
	mov	rcx, QWORD PTR pNode$[rsp]
	call	?SetPrev@CNode@CBaseList@@QEAAXPEAV12@@Z ; CBaseList::CNode::SetPrev
; Line 465
	mov	rax, QWORD PTR this$[rsp]
	mov	rdx, QWORD PTR [rax+8]
	mov	rcx, QWORD PTR pNode$[rsp]
	call	?SetNext@CNode@CBaseList@@QEAAXPEAV12@@Z ; CBaseList::CNode::SetNext
; Line 467
	mov	rax, QWORD PTR this$[rsp]
	cmp	QWORD PTR [rax+8], 0
	jne	SHORT $LN2@AddHeadI
; Line 468
	mov	rax, QWORD PTR this$[rsp]
	mov	rcx, QWORD PTR pNode$[rsp]
	mov	QWORD PTR [rax+16], rcx
; Line 469
	jmp	SHORT $LN1@AddHeadI
$LN2@AddHeadI:
; Line 470
	mov	rdx, QWORD PTR pNode$[rsp]
	mov	rax, QWORD PTR this$[rsp]
	mov	rcx, QWORD PTR [rax+8]
	call	?SetPrev@CNode@CBaseList@@QEAAXPEAV12@@Z ; CBaseList::CNode::SetPrev
$LN1@AddHeadI:
; Line 472
	mov	rax, QWORD PTR this$[rsp]
	mov	rcx, QWORD PTR pNode$[rsp]
	mov	QWORD PTR [rax+8], rcx
; Line 474
	mov	rax, QWORD PTR this$[rsp]
	mov	eax, DWORD PTR [rax+24]
	inc	eax
	mov	rcx, QWORD PTR this$[rsp]
	mov	DWORD PTR [rcx+24], eax
; Line 476
	mov	rax, QWORD PTR pNode$[rsp]
$LN5@AddHeadI:
; Line 477
	add	rsp, 80					; 00000050H
	pop	rdi
	ret	0
?AddHeadI@CBaseList@@IEAAPEAU__POSITION@@PEAX@Z ENDP	; CBaseList::AddHeadI
; Function compile flags: /Odtp /RTCsu
_TEXT	ENDS
;	COMDAT text$x
text$x	SEGMENT
pNode$ = 32
$T83371 = 40
$T83372 = 48
$T83380 = 56
tv75 = 64
this$ = 96
pObject$ = 104
?dtor$0@?0??AddHeadI@CBaseList@@IEAAPEAU__POSITION@@PEAX@Z@4HA PROC ; `CBaseList::AddHeadI'::`1'::dtor$0
	mov	QWORD PTR [rsp+8], rcx
	mov	QWORD PTR [rsp+16], rdx
	push	rbp
	push	rdi
	sub	rsp, 40					; 00000028H
	mov	rbp, rdx
	mov	rcx, QWORD PTR $T83372[rbp]
	call	??3@YAXPEAX@Z				; operator delete
	add	rsp, 40					; 00000028H
	pop	rdi
	pop	rbp
	ret	0
?dtor$0@?0??AddHeadI@CBaseList@@IEAAPEAU__POSITION@@PEAX@Z@4HA ENDP ; `CBaseList::AddHeadI'::`1'::dtor$0
text$x	ENDS
PUBLIC	?AddTail@CBaseList@@QEAAHPEAV1@@Z		; CBaseList::AddTail
EXTRN	_RTC_CheckStackVars:PROC
;	COMDAT pdata
pdata	SEGMENT
$pdata$?AddTail@CBaseList@@QEAAHPEAV1@@Z DD imagerel $LN6
	DD	imagerel $LN6+129
	DD	imagerel $unwind$?AddTail@CBaseList@@QEAAHPEAV1@@Z
pdata	ENDS
;	COMDAT xdata
xdata	SEGMENT
$unwind$?AddTail@CBaseList@@QEAAHPEAV1@@Z DD 022301H
	DD	0700b720fH
xdata	ENDS
;	COMDAT CONST
CONST	SEGMENT
?AddTail@CBaseList@@QEAAHPEAV1@@Z$rtcName$0 DB 070H	; CBaseList::AddTail
	DB	06fH
	DB	073H
	DB	00H
	ORG $+12
?AddTail@CBaseList@@QEAAHPEAV1@@Z$rtcVarDesc DD 028H	; CBaseList::AddTail
	DD	08H
	DQ	FLAT:?AddTail@CBaseList@@QEAAHPEAV1@@Z$rtcName$0
	ORG $+48
?AddTail@CBaseList@@QEAAHPEAV1@@Z$rtcFrameData DD 01H	; CBaseList::AddTail
	DD	00H
	DQ	FLAT:?AddTail@CBaseList@@QEAAHPEAV1@@Z$rtcVarDesc
; Function compile flags: /Odtp /RTCsu
CONST	ENDS
;	COMDAT ?AddTail@CBaseList@@QEAAHPEAV1@@Z
_TEXT	SEGMENT
pos$ = 40
this$ = 80
pList$ = 88
?AddTail@CBaseList@@QEAAHPEAV1@@Z PROC			; CBaseList::AddTail, COMDAT
; Line 486
$LN6:
	mov	QWORD PTR [rsp+16], rdx
	mov	QWORD PTR [rsp+8], rcx
	push	rdi
	sub	rsp, 64					; 00000040H
	mov	rdi, rsp
	mov	ecx, 16
	mov	eax, -858993460				; ccccccccH
	rep stosd
	mov	rcx, QWORD PTR [rsp+80]
; Line 492
	mov	rcx, QWORD PTR pList$[rsp]
	call	?GetHeadPositionI@CBaseList@@QEBAPEAU__POSITION@@XZ ; CBaseList::GetHeadPositionI
	mov	QWORD PTR pos$[rsp], rax
$LN3@AddTail:
; Line 494
	cmp	QWORD PTR pos$[rsp], 0
	je	SHORT $LN2@AddTail
; Line 495
	lea	rdx, QWORD PTR pos$[rsp]
	mov	rcx, QWORD PTR pList$[rsp]
	call	?GetNextI@CBaseList@@IEBAPEAXAEAPEAU__POSITION@@@Z ; CBaseList::GetNextI
	mov	rdx, rax
	mov	rcx, QWORD PTR this$[rsp]
	call	?AddTailI@CBaseList@@IEAAPEAU__POSITION@@PEAX@Z ; CBaseList::AddTailI
	test	rax, rax
	jne	SHORT $LN1@AddTail
; Line 496
	xor	eax, eax
	jmp	SHORT $LN4@AddTail
$LN1@AddTail:
; Line 498
	jmp	SHORT $LN3@AddTail
$LN2@AddTail:
; Line 499
	mov	eax, 1
$LN4@AddTail:
; Line 500
	mov	rdi, rax
	mov	rcx, rsp
	lea	rdx, OFFSET FLAT:?AddTail@CBaseList@@QEAAHPEAV1@@Z$rtcFrameData
	call	_RTC_CheckStackVars
	mov	rax, rdi
	add	rsp, 64					; 00000040H
	pop	rdi
	ret	0
?AddTail@CBaseList@@QEAAHPEAV1@@Z ENDP			; CBaseList::AddTail
_TEXT	ENDS
PUBLIC	?Prev@CBaseList@@QEBAPEAU__POSITION@@PEAU2@@Z	; CBaseList::Prev
PUBLIC	?AddHead@CBaseList@@QEAAHPEAV1@@Z		; CBaseList::AddHead
;	COMDAT pdata
pdata	SEGMENT
$pdata$?AddHead@CBaseList@@QEAAHPEAV1@@Z DD imagerel $LN7
	DD	imagerel $LN7+130
	DD	imagerel $unwind$?AddHead@CBaseList@@QEAAHPEAV1@@Z
pdata	ENDS
;	COMDAT xdata
xdata	SEGMENT
$unwind$?AddHead@CBaseList@@QEAAHPEAV1@@Z DD 022301H
	DD	0700b520fH
; Function compile flags: /Odtp /RTCsu
xdata	ENDS
;	COMDAT ?AddHead@CBaseList@@QEAAHPEAV1@@Z
_TEXT	SEGMENT
pos$ = 32
this$ = 64
pList$ = 72
?AddHead@CBaseList@@QEAAHPEAV1@@Z PROC			; CBaseList::AddHead, COMDAT
; Line 509
$LN7:
	mov	QWORD PTR [rsp+16], rdx
	mov	QWORD PTR [rsp+8], rcx
	push	rdi
	sub	rsp, 48					; 00000030H
	mov	rdi, rsp
	mov	ecx, 12
	mov	eax, -858993460				; ccccccccH
	rep stosd
	mov	rcx, QWORD PTR [rsp+64]
; Line 520
	mov	rcx, QWORD PTR pList$[rsp]
	call	?GetTailPositionI@CBaseList@@QEBAPEAU__POSITION@@XZ ; CBaseList::GetTailPositionI
	mov	QWORD PTR pos$[rsp], rax
	jmp	SHORT $LN4@AddHead
$LN3@AddHead:
	mov	rdx, QWORD PTR pos$[rsp]
	mov	rcx, QWORD PTR pList$[rsp]
	call	?Prev@CBaseList@@QEBAPEAU__POSITION@@PEAU2@@Z ; CBaseList::Prev
	mov	QWORD PTR pos$[rsp], rax
$LN4@AddHead:
	cmp	QWORD PTR pos$[rsp], 0
	je	SHORT $LN2@AddHead
; Line 521
	mov	rdx, QWORD PTR pos$[rsp]
	mov	rcx, QWORD PTR pList$[rsp]
	call	?GetI@CBaseList@@IEBAPEAXPEAU__POSITION@@@Z ; CBaseList::GetI
	mov	rdx, rax
	mov	rcx, QWORD PTR this$[rsp]
	call	?AddHeadI@CBaseList@@IEAAPEAU__POSITION@@PEAX@Z ; CBaseList::AddHeadI
	test	rax, rax
	jne	SHORT $LN1@AddHead
; Line 522
	xor	eax, eax
	jmp	SHORT $LN5@AddHead
$LN1@AddHead:
; Line 524
	jmp	SHORT $LN3@AddHead
$LN2@AddHead:
; Line 525
	mov	eax, 1
$LN5@AddHead:
; Line 526
	add	rsp, 48					; 00000030H
	pop	rdi
	ret	0
?AddHead@CBaseList@@QEAAHPEAV1@@Z ENDP			; CBaseList::AddHead
_TEXT	ENDS
;	COMDAT pdata
; File c:\downloads\wpf mediakit - copy\src\filters\baseclasses\wxlist.h
pdata	SEGMENT
$pdata$?Prev@CBaseList@@QEBAPEAU__POSITION@@PEAU2@@Z DD imagerel $LN4
	DD	imagerel $LN4+80
	DD	imagerel $unwind$?Prev@CBaseList@@QEBAPEAU__POSITION@@PEAU2@@Z
pdata	ENDS
;	COMDAT xdata
xdata	SEGMENT
$unwind$?Prev@CBaseList@@QEBAPEAU__POSITION@@PEAU2@@Z DD 022301H
	DD	0700b520fH
; Function compile flags: /Odtp /RTCsu
xdata	ENDS
;	COMDAT ?Prev@CBaseList@@QEBAPEAU__POSITION@@PEAU2@@Z
_TEXT	SEGMENT
pn$ = 32
this$ = 64
pos$ = 72
?Prev@CBaseList@@QEBAPEAU__POSITION@@PEAU2@@Z PROC	; CBaseList::Prev, COMDAT
; Line 271
$LN4:
	mov	QWORD PTR [rsp+16], rdx
	mov	QWORD PTR [rsp+8], rcx
	push	rdi
	sub	rsp, 48					; 00000030H
	mov	rdi, rsp
	mov	ecx, 12
	mov	eax, -858993460				; ccccccccH
	rep stosd
	mov	rcx, QWORD PTR [rsp+64]
; Line 272
	cmp	QWORD PTR pos$[rsp], 0
	jne	SHORT $LN1@Prev
; Line 273
	mov	rax, QWORD PTR this$[rsp]
	mov	rax, QWORD PTR [rax+16]
	jmp	SHORT $LN2@Prev
$LN1@Prev:
; Line 275
	mov	rax, QWORD PTR pos$[rsp]
	mov	QWORD PTR pn$[rsp], rax
; Line 276
	mov	rcx, QWORD PTR pn$[rsp]
	call	?Prev@CNode@CBaseList@@QEBAPEAV12@XZ	; CBaseList::CNode::Prev
$LN2@Prev:
; Line 277
	add	rsp, 48					; 00000030H
	pop	rdi
	ret	0
?Prev@CBaseList@@QEBAPEAU__POSITION@@PEAU2@@Z ENDP	; CBaseList::Prev
_TEXT	ENDS
PUBLIC	?AddAfterI@CBaseList@@IEAAPEAU__POSITION@@PEAU2@PEAX@Z ; CBaseList::AddAfterI
;	COMDAT pdata
; File c:\downloads\wpf mediakit - copy\src\filters\baseclasses\wxlist.cpp
pdata	SEGMENT
$pdata$?AddAfterI@CBaseList@@IEAAPEAU__POSITION@@PEAU2@PEAX@Z DD imagerel $LN12
	DD	imagerel $LN12+431
	DD	imagerel $unwind$?AddAfterI@CBaseList@@IEAAPEAU__POSITION@@PEAU2@PEAX@Z
pdata	ENDS
;	COMDAT pdata
pdata	SEGMENT
$pdata$?dtor$0@?0??AddAfterI@CBaseList@@IEAAPEAU__POSITION@@PEAU2@PEAX@Z@4HA DD imagerel ?dtor$0@?0??AddAfterI@CBaseList@@IEAAPEAU__POSITION@@PEAU2@PEAX@Z@4HA
	DD	imagerel ?dtor$0@?0??AddAfterI@CBaseList@@IEAAPEAU__POSITION@@PEAU2@PEAX@Z@4HA+35
	DD	imagerel $unwind$?dtor$0@?0??AddAfterI@CBaseList@@IEAAPEAU__POSITION@@PEAU2@PEAX@Z@4HA
pdata	ENDS
;	COMDAT xdata
xdata	SEGMENT
$ip2state$?AddAfterI@CBaseList@@IEAAPEAU__POSITION@@PEAU2@PEAX@Z DD imagerel ?AddAfterI@CBaseList@@IEAAPEAU__POSITION@@PEAU2@PEAX@Z
	DD	0ffffffffH
	DD	imagerel ?AddAfterI@CBaseList@@IEAAPEAU__POSITION@@PEAU2@PEAX@Z+207
	DD	00H
	DD	imagerel ?AddAfterI@CBaseList@@IEAAPEAU__POSITION@@PEAU2@PEAX@Z+251
	DD	0ffffffffH
xdata	ENDS
;	COMDAT xdata
xdata	SEGMENT
$unwind$?dtor$0@?0??AddAfterI@CBaseList@@IEAAPEAU__POSITION@@PEAU2@PEAX@Z@4HA DD 031001H
	DD	0700c4210H
	DD	0500bH
xdata	ENDS
;	COMDAT xdata
xdata	SEGMENT
$unwind$?AddAfterI@CBaseList@@IEAAPEAU__POSITION@@PEAU2@PEAX@Z DD 023111H
	DD	07010b214H
	DD	imagerel __CxxFrameHandler3
	DD	imagerel $cppxdata$?AddAfterI@CBaseList@@IEAAPEAU__POSITION@@PEAU2@PEAX@Z
xdata	ENDS
;	COMDAT CONST
CONST	SEGMENT
$cppxdata$?AddAfterI@CBaseList@@IEAAPEAU__POSITION@@PEAU2@PEAX@Z DD 019930522H
	DD	01H
	DD	imagerel $stateUnwindMap$?AddAfterI@CBaseList@@IEAAPEAU__POSITION@@PEAU2@PEAX@Z
	DD	00H
	DD	00H
	DD	03H
	DD	imagerel $ip2state$?AddAfterI@CBaseList@@IEAAPEAU__POSITION@@PEAU2@PEAX@Z
	DD	048H
	DD	00H
	DD	01H
CONST	ENDS
;	COMDAT xdata
xdata	SEGMENT
$stateUnwindMap$?AddAfterI@CBaseList@@IEAAPEAU__POSITION@@PEAU2@PEAX@Z DD 0ffffffffH
	DD	imagerel ?dtor$0@?0??AddAfterI@CBaseList@@IEAAPEAU__POSITION@@PEAU2@PEAX@Z@4HA
; Function compile flags: /Odtp /RTCsu
xdata	ENDS
;	COMDAT ?AddAfterI@CBaseList@@IEAAPEAU__POSITION@@PEAU2@PEAX@Z
_TEXT	SEGMENT
pAfter$ = 32
pNode$ = 40
pBefore$ = 48
$T83424 = 56
$T83425 = 64
$T83433 = 72
tv88 = 80
this$ = 112
pos$ = 120
pObj$ = 128
?AddAfterI@CBaseList@@IEAAPEAU__POSITION@@PEAU2@PEAX@Z PROC ; CBaseList::AddAfterI, COMDAT
; Line 536
$LN12:
	mov	QWORD PTR [rsp+24], r8
	mov	QWORD PTR [rsp+16], rdx
	mov	QWORD PTR [rsp+8], rcx
	push	rdi
	sub	rsp, 96					; 00000060H
	mov	rdi, rsp
	mov	ecx, 24
	mov	eax, -858993460				; ccccccccH
	rep stosd
	mov	rcx, QWORD PTR [rsp+112]
	mov	QWORD PTR $T83433[rsp], -2
; Line 537
	cmp	QWORD PTR pos$[rsp], 0
	jne	SHORT $LN6@AddAfterI
; Line 538
	mov	rdx, QWORD PTR pObj$[rsp]
	mov	rcx, QWORD PTR this$[rsp]
	call	?AddHeadI@CBaseList@@IEAAPEAU__POSITION@@PEAX@Z ; CBaseList::AddHeadI
	jmp	$LN7@AddAfterI
$LN6@AddAfterI:
; Line 543
	mov	rax, QWORD PTR pos$[rsp]
	mov	QWORD PTR pAfter$[rsp], rax
; Line 544
	cmp	QWORD PTR pAfter$[rsp], 0
	jne	SHORT $LN5@AddAfterI
	mov	r8d, 544				; 00000220H
	lea	rdx, OFFSET FLAT:$SG82382
	lea	rcx, OFFSET FLAT:$SG82383
	call	?DbgAssert@@YAXPEB_W0H@Z		; DbgAssert
$LN5@AddAfterI:
; Line 545
	mov	rax, QWORD PTR this$[rsp]
	mov	rax, QWORD PTR [rax+16]
	cmp	QWORD PTR pAfter$[rsp], rax
	jne	SHORT $LN4@AddAfterI
; Line 546
	mov	rdx, QWORD PTR pObj$[rsp]
	mov	rcx, QWORD PTR this$[rsp]
	call	?AddTailI@CBaseList@@IEAAPEAU__POSITION@@PEAX@Z ; CBaseList::AddTailI
	jmp	$LN7@AddAfterI
$LN4@AddAfterI:
; Line 550
	mov	rax, QWORD PTR this$[rsp]
	add	rax, 32					; 00000020H
	mov	rcx, rax
	call	?RemoveFromCache@CNodeCache@CBaseList@@QEAAPEAVCNode@2@XZ ; CBaseList::CNodeCache::RemoveFromCache
	mov	QWORD PTR pNode$[rsp], rax
; Line 551
	cmp	QWORD PTR pNode$[rsp], 0
	jne	SHORT $LN3@AddAfterI
; Line 552
	mov	ecx, 32					; 00000020H
	call	??2@YAPEAX_K@Z				; operator new
	mov	QWORD PTR $T83425[rsp], rax
	cmp	QWORD PTR $T83425[rsp], 0
	je	SHORT $LN9@AddAfterI
	mov	rcx, QWORD PTR $T83425[rsp]
	call	??0CNode@CBaseList@@QEAA@XZ		; CBaseList::CNode::CNode
	mov	QWORD PTR tv88[rsp], rax
	jmp	SHORT $LN10@AddAfterI
$LN9@AddAfterI:
	mov	QWORD PTR tv88[rsp], 0
$LN10@AddAfterI:
	mov	rax, QWORD PTR tv88[rsp]
	mov	QWORD PTR $T83424[rsp], rax
	mov	rax, QWORD PTR $T83424[rsp]
	mov	QWORD PTR pNode$[rsp], rax
$LN3@AddAfterI:
; Line 557
	cmp	QWORD PTR pNode$[rsp], 0
	jne	SHORT $LN2@AddAfterI
; Line 558
	xor	eax, eax
	jmp	$LN7@AddAfterI
$LN2@AddAfterI:
; Line 565
	mov	rdx, QWORD PTR pObj$[rsp]
	mov	rcx, QWORD PTR pNode$[rsp]
	call	?SetData@CNode@CBaseList@@QEAAXPEAX@Z	; CBaseList::CNode::SetData
; Line 570
	mov	rcx, QWORD PTR pAfter$[rsp]
	call	?Next@CNode@CBaseList@@QEBAPEAV12@XZ	; CBaseList::CNode::Next
	mov	QWORD PTR pBefore$[rsp], rax
; Line 571
	cmp	QWORD PTR pBefore$[rsp], 0
	jne	SHORT $LN1@AddAfterI
	mov	r8d, 571				; 0000023bH
	lea	rdx, OFFSET FLAT:$SG82395
	lea	rcx, OFFSET FLAT:$SG82396
	call	?DbgAssert@@YAXPEB_W0H@Z		; DbgAssert
$LN1@AddAfterI:
; Line 574
	mov	rdx, QWORD PTR pAfter$[rsp]
	mov	rcx, QWORD PTR pNode$[rsp]
	call	?SetPrev@CNode@CBaseList@@QEAAXPEAV12@@Z ; CBaseList::CNode::SetPrev
; Line 575
	mov	rdx, QWORD PTR pBefore$[rsp]
	mov	rcx, QWORD PTR pNode$[rsp]
	call	?SetNext@CNode@CBaseList@@QEAAXPEAV12@@Z ; CBaseList::CNode::SetNext
; Line 576
	mov	rdx, QWORD PTR pNode$[rsp]
	mov	rcx, QWORD PTR pBefore$[rsp]
	call	?SetPrev@CNode@CBaseList@@QEAAXPEAV12@@Z ; CBaseList::CNode::SetPrev
; Line 577
	mov	rdx, QWORD PTR pNode$[rsp]
	mov	rcx, QWORD PTR pAfter$[rsp]
	call	?SetNext@CNode@CBaseList@@QEAAXPEAV12@@Z ; CBaseList::CNode::SetNext
; Line 579
	mov	rax, QWORD PTR this$[rsp]
	mov	eax, DWORD PTR [rax+24]
	inc	eax
	mov	rcx, QWORD PTR this$[rsp]
	mov	DWORD PTR [rcx+24], eax
; Line 581
	mov	rax, QWORD PTR pNode$[rsp]
$LN7@AddAfterI:
; Line 583
	add	rsp, 96					; 00000060H
	pop	rdi
	ret	0
?AddAfterI@CBaseList@@IEAAPEAU__POSITION@@PEAU2@PEAX@Z ENDP ; CBaseList::AddAfterI
; Function compile flags: /Odtp /RTCsu
_TEXT	ENDS
;	COMDAT text$x
text$x	SEGMENT
pAfter$ = 32
pNode$ = 40
pBefore$ = 48
$T83424 = 56
$T83425 = 64
$T83433 = 72
tv88 = 80
this$ = 112
pos$ = 120
pObj$ = 128
?dtor$0@?0??AddAfterI@CBaseList@@IEAAPEAU__POSITION@@PEAU2@PEAX@Z@4HA PROC ; `CBaseList::AddAfterI'::`1'::dtor$0
	mov	QWORD PTR [rsp+8], rcx
	mov	QWORD PTR [rsp+16], rdx
	push	rbp
	push	rdi
	sub	rsp, 40					; 00000028H
	mov	rbp, rdx
	mov	rcx, QWORD PTR $T83425[rbp]
	call	??3@YAXPEAX@Z				; operator delete
	add	rsp, 40					; 00000028H
	pop	rdi
	pop	rbp
	ret	0
?dtor$0@?0??AddAfterI@CBaseList@@IEAAPEAU__POSITION@@PEAU2@PEAX@Z@4HA ENDP ; `CBaseList::AddAfterI'::`1'::dtor$0
text$x	ENDS
PUBLIC	?AddAfter@CBaseList@@QEAAHPEAU__POSITION@@PEAV1@@Z ; CBaseList::AddAfter
;	COMDAT pdata
pdata	SEGMENT
$pdata$?AddAfter@CBaseList@@QEAAHPEAU__POSITION@@PEAV1@@Z DD imagerel $LN7
	DD	imagerel $LN7+148
	DD	imagerel $unwind$?AddAfter@CBaseList@@QEAAHPEAU__POSITION@@PEAV1@@Z
pdata	ENDS
;	COMDAT xdata
xdata	SEGMENT
$unwind$?AddAfter@CBaseList@@QEAAHPEAU__POSITION@@PEAV1@@Z DD 022801H
	DD	070105214H
; Function compile flags: /Odtp /RTCsu
xdata	ENDS
;	COMDAT ?AddAfter@CBaseList@@QEAAHPEAU__POSITION@@PEAV1@@Z
_TEXT	SEGMENT
pos$ = 32
this$ = 64
p$ = 72
pList$ = 80
?AddAfter@CBaseList@@QEAAHPEAU__POSITION@@PEAV1@@Z PROC	; CBaseList::AddAfter, COMDAT
; Line 588
$LN7:
	mov	QWORD PTR [rsp+24], r8
	mov	QWORD PTR [rsp+16], rdx
	mov	QWORD PTR [rsp+8], rcx
	push	rdi
	sub	rsp, 48					; 00000030H
	mov	rdi, rsp
	mov	ecx, 12
	mov	eax, -858993460				; ccccccccH
	rep stosd
	mov	rcx, QWORD PTR [rsp+64]
; Line 590
	mov	rcx, QWORD PTR pList$[rsp]
	call	?GetHeadPositionI@CBaseList@@QEBAPEAU__POSITION@@XZ ; CBaseList::GetHeadPositionI
	mov	QWORD PTR pos$[rsp], rax
	jmp	SHORT $LN4@AddAfter
$LN3@AddAfter:
	mov	rdx, QWORD PTR pos$[rsp]
	mov	rcx, QWORD PTR pList$[rsp]
	call	?Next@CBaseList@@QEBAPEAU__POSITION@@PEAU2@@Z ; CBaseList::Next
	mov	QWORD PTR pos$[rsp], rax
$LN4@AddAfter:
	cmp	QWORD PTR pos$[rsp], 0
	je	SHORT $LN2@AddAfter
; Line 592
	mov	rdx, QWORD PTR pos$[rsp]
	mov	rcx, QWORD PTR pList$[rsp]
	call	?GetI@CBaseList@@IEBAPEAXPEAU__POSITION@@@Z ; CBaseList::GetI
	mov	r8, rax
	mov	rdx, QWORD PTR p$[rsp]
	mov	rcx, QWORD PTR this$[rsp]
	call	?AddAfterI@CBaseList@@IEAAPEAU__POSITION@@PEAU2@PEAX@Z ; CBaseList::AddAfterI
	mov	QWORD PTR p$[rsp], rax
; Line 593
	cmp	QWORD PTR p$[rsp], 0
	jne	SHORT $LN1@AddAfter
	xor	eax, eax
	jmp	SHORT $LN5@AddAfter
$LN1@AddAfter:
; Line 594
	jmp	SHORT $LN3@AddAfter
$LN2@AddAfter:
; Line 595
	mov	eax, 1
$LN5@AddAfter:
; Line 596
	add	rsp, 48					; 00000030H
	pop	rdi
	ret	0
?AddAfter@CBaseList@@QEAAHPEAU__POSITION@@PEAV1@@Z ENDP	; CBaseList::AddAfter
_TEXT	ENDS
PUBLIC	?AddBeforeI@CBaseList@@IEAAPEAU__POSITION@@PEAU2@PEAX@Z ; CBaseList::AddBeforeI
;	COMDAT pdata
pdata	SEGMENT
$pdata$?AddBeforeI@CBaseList@@IEAAPEAU__POSITION@@PEAU2@PEAX@Z DD imagerel $LN12
	DD	imagerel $LN12+431
	DD	imagerel $unwind$?AddBeforeI@CBaseList@@IEAAPEAU__POSITION@@PEAU2@PEAX@Z
pdata	ENDS
;	COMDAT pdata
pdata	SEGMENT
$pdata$?dtor$0@?0??AddBeforeI@CBaseList@@IEAAPEAU__POSITION@@PEAU2@PEAX@Z@4HA DD imagerel ?dtor$0@?0??AddBeforeI@CBaseList@@IEAAPEAU__POSITION@@PEAU2@PEAX@Z@4HA
	DD	imagerel ?dtor$0@?0??AddBeforeI@CBaseList@@IEAAPEAU__POSITION@@PEAU2@PEAX@Z@4HA+35
	DD	imagerel $unwind$?dtor$0@?0??AddBeforeI@CBaseList@@IEAAPEAU__POSITION@@PEAU2@PEAX@Z@4HA
pdata	ENDS
;	COMDAT xdata
xdata	SEGMENT
$ip2state$?AddBeforeI@CBaseList@@IEAAPEAU__POSITION@@PEAU2@PEAX@Z DD imagerel ?AddBeforeI@CBaseList@@IEAAPEAU__POSITION@@PEAU2@PEAX@Z
	DD	0ffffffffH
	DD	imagerel ?AddBeforeI@CBaseList@@IEAAPEAU__POSITION@@PEAU2@PEAX@Z+207
	DD	00H
	DD	imagerel ?AddBeforeI@CBaseList@@IEAAPEAU__POSITION@@PEAU2@PEAX@Z+251
	DD	0ffffffffH
xdata	ENDS
;	COMDAT xdata
xdata	SEGMENT
$unwind$?dtor$0@?0??AddBeforeI@CBaseList@@IEAAPEAU__POSITION@@PEAU2@PEAX@Z@4HA DD 031001H
	DD	0700c4210H
	DD	0500bH
xdata	ENDS
;	COMDAT xdata
xdata	SEGMENT
$unwind$?AddBeforeI@CBaseList@@IEAAPEAU__POSITION@@PEAU2@PEAX@Z DD 023111H
	DD	07010b214H
	DD	imagerel __CxxFrameHandler3
	DD	imagerel $cppxdata$?AddBeforeI@CBaseList@@IEAAPEAU__POSITION@@PEAU2@PEAX@Z
xdata	ENDS
;	COMDAT CONST
CONST	SEGMENT
$cppxdata$?AddBeforeI@CBaseList@@IEAAPEAU__POSITION@@PEAU2@PEAX@Z DD 019930522H
	DD	01H
	DD	imagerel $stateUnwindMap$?AddBeforeI@CBaseList@@IEAAPEAU__POSITION@@PEAU2@PEAX@Z
	DD	00H
	DD	00H
	DD	03H
	DD	imagerel $ip2state$?AddBeforeI@CBaseList@@IEAAPEAU__POSITION@@PEAU2@PEAX@Z
	DD	048H
	DD	00H
	DD	01H
CONST	ENDS
;	COMDAT xdata
xdata	SEGMENT
$stateUnwindMap$?AddBeforeI@CBaseList@@IEAAPEAU__POSITION@@PEAU2@PEAX@Z DD 0ffffffffH
	DD	imagerel ?dtor$0@?0??AddBeforeI@CBaseList@@IEAAPEAU__POSITION@@PEAU2@PEAX@Z@4HA
; Function compile flags: /Odtp /RTCsu
xdata	ENDS
;	COMDAT ?AddBeforeI@CBaseList@@IEAAPEAU__POSITION@@PEAU2@PEAX@Z
_TEXT	SEGMENT
pBefore$ = 32
pNode$ = 40
pAfter$ = 48
$T83458 = 56
$T83459 = 64
$T83467 = 72
tv88 = 80
this$ = 112
pos$ = 120
pObj$ = 128
?AddBeforeI@CBaseList@@IEAAPEAU__POSITION@@PEAU2@PEAX@Z PROC ; CBaseList::AddBeforeI, COMDAT
; Line 606
$LN12:
	mov	QWORD PTR [rsp+24], r8
	mov	QWORD PTR [rsp+16], rdx
	mov	QWORD PTR [rsp+8], rcx
	push	rdi
	sub	rsp, 96					; 00000060H
	mov	rdi, rsp
	mov	ecx, 24
	mov	eax, -858993460				; ccccccccH
	rep stosd
	mov	rcx, QWORD PTR [rsp+112]
	mov	QWORD PTR $T83467[rsp], -2
; Line 607
	cmp	QWORD PTR pos$[rsp], 0
	jne	SHORT $LN6@AddBeforeI
; Line 608
	mov	rdx, QWORD PTR pObj$[rsp]
	mov	rcx, QWORD PTR this$[rsp]
	call	?AddTailI@CBaseList@@IEAAPEAU__POSITION@@PEAX@Z ; CBaseList::AddTailI
	jmp	$LN7@AddBeforeI
$LN6@AddBeforeI:
; Line 612
	mov	rax, QWORD PTR pos$[rsp]
	mov	QWORD PTR pBefore$[rsp], rax
; Line 613
	cmp	QWORD PTR pBefore$[rsp], 0
	jne	SHORT $LN5@AddBeforeI
	mov	r8d, 613				; 00000265H
	lea	rdx, OFFSET FLAT:$SG82417
	lea	rcx, OFFSET FLAT:$SG82418
	call	?DbgAssert@@YAXPEB_W0H@Z		; DbgAssert
$LN5@AddBeforeI:
; Line 614
	mov	rax, QWORD PTR this$[rsp]
	mov	rax, QWORD PTR [rax+8]
	cmp	QWORD PTR pBefore$[rsp], rax
	jne	SHORT $LN4@AddBeforeI
; Line 615
	mov	rdx, QWORD PTR pObj$[rsp]
	mov	rcx, QWORD PTR this$[rsp]
	call	?AddHeadI@CBaseList@@IEAAPEAU__POSITION@@PEAX@Z ; CBaseList::AddHeadI
	jmp	$LN7@AddBeforeI
$LN4@AddBeforeI:
; Line 617
	mov	rax, QWORD PTR this$[rsp]
	add	rax, 32					; 00000020H
	mov	rcx, rax
	call	?RemoveFromCache@CNodeCache@CBaseList@@QEAAPEAVCNode@2@XZ ; CBaseList::CNodeCache::RemoveFromCache
	mov	QWORD PTR pNode$[rsp], rax
; Line 618
	cmp	QWORD PTR pNode$[rsp], 0
	jne	SHORT $LN3@AddBeforeI
; Line 619
	mov	ecx, 32					; 00000020H
	call	??2@YAPEAX_K@Z				; operator new
	mov	QWORD PTR $T83459[rsp], rax
	cmp	QWORD PTR $T83459[rsp], 0
	je	SHORT $LN9@AddBeforeI
	mov	rcx, QWORD PTR $T83459[rsp]
	call	??0CNode@CBaseList@@QEAA@XZ		; CBaseList::CNode::CNode
	mov	QWORD PTR tv88[rsp], rax
	jmp	SHORT $LN10@AddBeforeI
$LN9@AddBeforeI:
	mov	QWORD PTR tv88[rsp], 0
$LN10@AddBeforeI:
	mov	rax, QWORD PTR tv88[rsp]
	mov	QWORD PTR $T83458[rsp], rax
	mov	rax, QWORD PTR $T83458[rsp]
	mov	QWORD PTR pNode$[rsp], rax
$LN3@AddBeforeI:
; Line 624
	cmp	QWORD PTR pNode$[rsp], 0
	jne	SHORT $LN2@AddBeforeI
; Line 625
	xor	eax, eax
	jmp	$LN7@AddBeforeI
$LN2@AddBeforeI:
; Line 632
	mov	rdx, QWORD PTR pObj$[rsp]
	mov	rcx, QWORD PTR pNode$[rsp]
	call	?SetData@CNode@CBaseList@@QEAAXPEAX@Z	; CBaseList::CNode::SetData
; Line 638
	mov	rcx, QWORD PTR pBefore$[rsp]
	call	?Prev@CNode@CBaseList@@QEBAPEAV12@XZ	; CBaseList::CNode::Prev
	mov	QWORD PTR pAfter$[rsp], rax
; Line 639
	cmp	QWORD PTR pAfter$[rsp], 0
	jne	SHORT $LN1@AddBeforeI
	mov	r8d, 639				; 0000027fH
	lea	rdx, OFFSET FLAT:$SG82430
	lea	rcx, OFFSET FLAT:$SG82431
	call	?DbgAssert@@YAXPEB_W0H@Z		; DbgAssert
$LN1@AddBeforeI:
; Line 642
	mov	rdx, QWORD PTR pAfter$[rsp]
	mov	rcx, QWORD PTR pNode$[rsp]
	call	?SetPrev@CNode@CBaseList@@QEAAXPEAV12@@Z ; CBaseList::CNode::SetPrev
; Line 643
	mov	rdx, QWORD PTR pBefore$[rsp]
	mov	rcx, QWORD PTR pNode$[rsp]
	call	?SetNext@CNode@CBaseList@@QEAAXPEAV12@@Z ; CBaseList::CNode::SetNext
; Line 644
	mov	rdx, QWORD PTR pNode$[rsp]
	mov	rcx, QWORD PTR pBefore$[rsp]
	call	?SetPrev@CNode@CBaseList@@QEAAXPEAV12@@Z ; CBaseList::CNode::SetPrev
; Line 645
	mov	rdx, QWORD PTR pNode$[rsp]
	mov	rcx, QWORD PTR pAfter$[rsp]
	call	?SetNext@CNode@CBaseList@@QEAAXPEAV12@@Z ; CBaseList::CNode::SetNext
; Line 647
	mov	rax, QWORD PTR this$[rsp]
	mov	eax, DWORD PTR [rax+24]
	inc	eax
	mov	rcx, QWORD PTR this$[rsp]
	mov	DWORD PTR [rcx+24], eax
; Line 649
	mov	rax, QWORD PTR pNode$[rsp]
$LN7@AddBeforeI:
; Line 651
	add	rsp, 96					; 00000060H
	pop	rdi
	ret	0
?AddBeforeI@CBaseList@@IEAAPEAU__POSITION@@PEAU2@PEAX@Z ENDP ; CBaseList::AddBeforeI
; Function compile flags: /Odtp /RTCsu
_TEXT	ENDS
;	COMDAT text$x
text$x	SEGMENT
pBefore$ = 32
pNode$ = 40
pAfter$ = 48
$T83458 = 56
$T83459 = 64
$T83467 = 72
tv88 = 80
this$ = 112
pos$ = 120
pObj$ = 128
?dtor$0@?0??AddBeforeI@CBaseList@@IEAAPEAU__POSITION@@PEAU2@PEAX@Z@4HA PROC ; `CBaseList::AddBeforeI'::`1'::dtor$0
	mov	QWORD PTR [rsp+8], rcx
	mov	QWORD PTR [rsp+16], rdx
	push	rbp
	push	rdi
	sub	rsp, 40					; 00000028H
	mov	rbp, rdx
	mov	rcx, QWORD PTR $T83459[rbp]
	call	??3@YAXPEAX@Z				; operator delete
	add	rsp, 40					; 00000028H
	pop	rdi
	pop	rbp
	ret	0
?dtor$0@?0??AddBeforeI@CBaseList@@IEAAPEAU__POSITION@@PEAU2@PEAX@Z@4HA ENDP ; `CBaseList::AddBeforeI'::`1'::dtor$0
text$x	ENDS
PUBLIC	?AddBefore@CBaseList@@QEAAHPEAU__POSITION@@PEAV1@@Z ; CBaseList::AddBefore
;	COMDAT pdata
pdata	SEGMENT
$pdata$?AddBefore@CBaseList@@QEAAHPEAU__POSITION@@PEAV1@@Z DD imagerel $LN7
	DD	imagerel $LN7+148
	DD	imagerel $unwind$?AddBefore@CBaseList@@QEAAHPEAU__POSITION@@PEAV1@@Z
pdata	ENDS
;	COMDAT xdata
xdata	SEGMENT
$unwind$?AddBefore@CBaseList@@QEAAHPEAU__POSITION@@PEAV1@@Z DD 022801H
	DD	070105214H
; Function compile flags: /Odtp /RTCsu
xdata	ENDS
;	COMDAT ?AddBefore@CBaseList@@QEAAHPEAU__POSITION@@PEAV1@@Z
_TEXT	SEGMENT
pos$ = 32
this$ = 64
p$ = 72
pList$ = 80
?AddBefore@CBaseList@@QEAAHPEAU__POSITION@@PEAV1@@Z PROC ; CBaseList::AddBefore, COMDAT
; Line 656
$LN7:
	mov	QWORD PTR [rsp+24], r8
	mov	QWORD PTR [rsp+16], rdx
	mov	QWORD PTR [rsp+8], rcx
	push	rdi
	sub	rsp, 48					; 00000030H
	mov	rdi, rsp
	mov	ecx, 12
	mov	eax, -858993460				; ccccccccH
	rep stosd
	mov	rcx, QWORD PTR [rsp+64]
; Line 658
	mov	rcx, QWORD PTR pList$[rsp]
	call	?GetTailPositionI@CBaseList@@QEBAPEAU__POSITION@@XZ ; CBaseList::GetTailPositionI
	mov	QWORD PTR pos$[rsp], rax
	jmp	SHORT $LN4@AddBefore
$LN3@AddBefore:
	mov	rdx, QWORD PTR pos$[rsp]
	mov	rcx, QWORD PTR pList$[rsp]
	call	?Prev@CBaseList@@QEBAPEAU__POSITION@@PEAU2@@Z ; CBaseList::Prev
	mov	QWORD PTR pos$[rsp], rax
$LN4@AddBefore:
	cmp	QWORD PTR pos$[rsp], 0
	je	SHORT $LN2@AddBefore
; Line 660
	mov	rdx, QWORD PTR pos$[rsp]
	mov	rcx, QWORD PTR pList$[rsp]
	call	?GetI@CBaseList@@IEBAPEAXPEAU__POSITION@@@Z ; CBaseList::GetI
	mov	r8, rax
	mov	rdx, QWORD PTR p$[rsp]
	mov	rcx, QWORD PTR this$[rsp]
	call	?AddBeforeI@CBaseList@@IEAAPEAU__POSITION@@PEAU2@PEAX@Z ; CBaseList::AddBeforeI
	mov	QWORD PTR p$[rsp], rax
; Line 661
	cmp	QWORD PTR p$[rsp], 0
	jne	SHORT $LN1@AddBefore
	xor	eax, eax
	jmp	SHORT $LN5@AddBefore
$LN1@AddBefore:
; Line 662
	jmp	SHORT $LN3@AddBefore
$LN2@AddBefore:
; Line 663
	mov	eax, 1
$LN5@AddBefore:
; Line 664
	add	rsp, 48					; 00000030H
	pop	rdi
	ret	0
?AddBefore@CBaseList@@QEAAHPEAU__POSITION@@PEAV1@@Z ENDP ; CBaseList::AddBefore
_TEXT	ENDS
PUBLIC	?MoveToTail@CBaseList@@QEAAHPEAU__POSITION@@PEAV1@@Z ; CBaseList::MoveToTail
;	COMDAT pdata
pdata	SEGMENT
$pdata$?MoveToTail@CBaseList@@QEAAHPEAU__POSITION@@PEAV1@@Z DD imagerel $LN11
	DD	imagerel $LN11+372
	DD	imagerel $unwind$?MoveToTail@CBaseList@@QEAAHPEAU__POSITION@@PEAV1@@Z
pdata	ENDS
;	COMDAT xdata
xdata	SEGMENT
$unwind$?MoveToTail@CBaseList@@QEAAHPEAU__POSITION@@PEAV1@@Z DD 022801H
	DD	070105214H
; Function compile flags: /Odtp /RTCsu
xdata	ENDS
;	COMDAT ?MoveToTail@CBaseList@@QEAAHPEAU__POSITION@@PEAV1@@Z
_TEXT	SEGMENT
p$ = 32
cMove$ = 40
this$ = 64
pos$ = 72
pList$ = 80
?MoveToTail@CBaseList@@QEAAHPEAU__POSITION@@PEAV1@@Z PROC ; CBaseList::MoveToTail, COMDAT
; Line 686
$LN11:
	mov	QWORD PTR [rsp+24], r8
	mov	QWORD PTR [rsp+16], rdx
	mov	QWORD PTR [rsp+8], rcx
	push	rdi
	sub	rsp, 48					; 00000030H
	mov	rdi, rsp
	mov	ecx, 12
	mov	eax, -858993460				; ccccccccH
	rep stosd
	mov	rcx, QWORD PTR [rsp+64]
; Line 698
	cmp	QWORD PTR pos$[rsp], 0
	jne	SHORT $LN8@MoveToTail
	mov	eax, 1
	jmp	$LN9@MoveToTail
$LN8@MoveToTail:
; Line 702
	mov	rax, QWORD PTR pos$[rsp]
	mov	QWORD PTR p$[rsp], rax
; Line 703
	mov	DWORD PTR cMove$[rsp], 0
$LN7@MoveToTail:
; Line 704
	cmp	QWORD PTR p$[rsp], 0
	je	SHORT $LN6@MoveToTail
; Line 705
	mov	rcx, QWORD PTR p$[rsp]
	call	?Prev@CNode@CBaseList@@QEBAPEAV12@XZ	; CBaseList::CNode::Prev
	mov	QWORD PTR p$[rsp], rax
; Line 706
	mov	eax, DWORD PTR cMove$[rsp]
	inc	eax
	mov	DWORD PTR cMove$[rsp], eax
; Line 707
	jmp	SHORT $LN7@MoveToTail
$LN6@MoveToTail:
; Line 711
	mov	rax, QWORD PTR pList$[rsp]
	cmp	QWORD PTR [rax+16], 0
	je	SHORT $LN5@MoveToTail
; Line 712
	mov	rax, QWORD PTR this$[rsp]
	mov	rdx, QWORD PTR [rax+8]
	mov	rax, QWORD PTR pList$[rsp]
	mov	rcx, QWORD PTR [rax+16]
	call	?SetNext@CNode@CBaseList@@QEAAXPEAV12@@Z ; CBaseList::CNode::SetNext
$LN5@MoveToTail:
; Line 713
	mov	rax, QWORD PTR this$[rsp]
	cmp	QWORD PTR [rax+8], 0
	je	SHORT $LN4@MoveToTail
; Line 714
	mov	rax, QWORD PTR pList$[rsp]
	mov	rdx, QWORD PTR [rax+16]
	mov	rax, QWORD PTR this$[rsp]
	mov	rcx, QWORD PTR [rax+8]
	call	?SetPrev@CNode@CBaseList@@QEAAXPEAV12@@Z ; CBaseList::CNode::SetPrev
$LN4@MoveToTail:
; Line 718
	mov	rax, QWORD PTR pos$[rsp]
	mov	QWORD PTR p$[rsp], rax
; Line 720
	mov	rax, QWORD PTR pList$[rsp]
	cmp	QWORD PTR [rax+8], 0
	jne	SHORT $LN3@MoveToTail
; Line 721
	mov	rax, QWORD PTR pList$[rsp]
	mov	rcx, QWORD PTR this$[rsp]
	mov	rcx, QWORD PTR [rcx+8]
	mov	QWORD PTR [rax+8], rcx
$LN3@MoveToTail:
; Line 722
	mov	rcx, QWORD PTR p$[rsp]
	call	?Next@CNode@CBaseList@@QEBAPEAV12@XZ	; CBaseList::CNode::Next
	mov	rcx, QWORD PTR this$[rsp]
	mov	QWORD PTR [rcx+8], rax
; Line 723
	mov	rax, QWORD PTR this$[rsp]
	cmp	QWORD PTR [rax+8], 0
	jne	SHORT $LN2@MoveToTail
; Line 724
	mov	rax, QWORD PTR this$[rsp]
	mov	QWORD PTR [rax+16], 0
$LN2@MoveToTail:
; Line 725
	mov	rax, QWORD PTR pList$[rsp]
	mov	rcx, QWORD PTR p$[rsp]
	mov	QWORD PTR [rax+16], rcx
; Line 729
	mov	rax, QWORD PTR this$[rsp]
	cmp	QWORD PTR [rax+8], 0
	je	SHORT $LN1@MoveToTail
; Line 730
	xor	edx, edx
	mov	rax, QWORD PTR this$[rsp]
	mov	rcx, QWORD PTR [rax+8]
	call	?SetPrev@CNode@CBaseList@@QEAAXPEAV12@@Z ; CBaseList::CNode::SetPrev
$LN1@MoveToTail:
; Line 731
	xor	edx, edx
	mov	rcx, QWORD PTR p$[rsp]
	call	?SetNext@CNode@CBaseList@@QEAAXPEAV12@@Z ; CBaseList::CNode::SetNext
; Line 735
	mov	rax, QWORD PTR this$[rsp]
	mov	ecx, DWORD PTR cMove$[rsp]
	mov	eax, DWORD PTR [rax+24]
	sub	eax, ecx
	mov	rcx, QWORD PTR this$[rsp]
	mov	DWORD PTR [rcx+24], eax
; Line 736
	mov	rax, QWORD PTR pList$[rsp]
	mov	eax, DWORD PTR [rax+24]
	add	eax, DWORD PTR cMove$[rsp]
	mov	rcx, QWORD PTR pList$[rsp]
	mov	DWORD PTR [rcx+24], eax
; Line 738
	mov	eax, 1
$LN9@MoveToTail:
; Line 740
	add	rsp, 48					; 00000030H
	pop	rdi
	ret	0
?MoveToTail@CBaseList@@QEAAHPEAU__POSITION@@PEAV1@@Z ENDP ; CBaseList::MoveToTail
_TEXT	ENDS
PUBLIC	?MoveToHead@CBaseList@@QEAAHPEAU__POSITION@@PEAV1@@Z ; CBaseList::MoveToHead
;	COMDAT pdata
pdata	SEGMENT
$pdata$?MoveToHead@CBaseList@@QEAAHPEAU__POSITION@@PEAV1@@Z DD imagerel $LN11
	DD	imagerel $LN11+372
	DD	imagerel $unwind$?MoveToHead@CBaseList@@QEAAHPEAU__POSITION@@PEAV1@@Z
pdata	ENDS
;	COMDAT xdata
xdata	SEGMENT
$unwind$?MoveToHead@CBaseList@@QEAAHPEAU__POSITION@@PEAV1@@Z DD 022801H
	DD	070105214H
; Function compile flags: /Odtp /RTCsu
xdata	ENDS
;	COMDAT ?MoveToHead@CBaseList@@QEAAHPEAU__POSITION@@PEAV1@@Z
_TEXT	SEGMENT
p$ = 32
cMove$ = 40
this$ = 64
pos$ = 72
pList$ = 80
?MoveToHead@CBaseList@@QEAAHPEAU__POSITION@@PEAV1@@Z PROC ; CBaseList::MoveToHead, COMDAT
; Line 760
$LN11:
	mov	QWORD PTR [rsp+24], r8
	mov	QWORD PTR [rsp+16], rdx
	mov	QWORD PTR [rsp+8], rcx
	push	rdi
	sub	rsp, 48					; 00000030H
	mov	rdi, rsp
	mov	ecx, 12
	mov	eax, -858993460				; ccccccccH
	rep stosd
	mov	rcx, QWORD PTR [rsp+64]
; Line 764
	cmp	QWORD PTR pos$[rsp], 0
	jne	SHORT $LN8@MoveToHead
	mov	eax, 1
	jmp	$LN9@MoveToHead
$LN8@MoveToHead:
; Line 767
	mov	rax, QWORD PTR pos$[rsp]
	mov	QWORD PTR p$[rsp], rax
; Line 768
	mov	DWORD PTR cMove$[rsp], 0
$LN7@MoveToHead:
; Line 769
	cmp	QWORD PTR p$[rsp], 0
	je	SHORT $LN6@MoveToHead
; Line 770
	mov	rcx, QWORD PTR p$[rsp]
	call	?Next@CNode@CBaseList@@QEBAPEAV12@XZ	; CBaseList::CNode::Next
	mov	QWORD PTR p$[rsp], rax
; Line 771
	mov	eax, DWORD PTR cMove$[rsp]
	inc	eax
	mov	DWORD PTR cMove$[rsp], eax
; Line 772
	jmp	SHORT $LN7@MoveToHead
$LN6@MoveToHead:
; Line 776
	mov	rax, QWORD PTR pList$[rsp]
	cmp	QWORD PTR [rax+8], 0
	je	SHORT $LN5@MoveToHead
; Line 777
	mov	rax, QWORD PTR this$[rsp]
	mov	rdx, QWORD PTR [rax+16]
	mov	rax, QWORD PTR pList$[rsp]
	mov	rcx, QWORD PTR [rax+8]
	call	?SetPrev@CNode@CBaseList@@QEAAXPEAV12@@Z ; CBaseList::CNode::SetPrev
$LN5@MoveToHead:
; Line 778
	mov	rax, QWORD PTR this$[rsp]
	cmp	QWORD PTR [rax+16], 0
	je	SHORT $LN4@MoveToHead
; Line 779
	mov	rax, QWORD PTR pList$[rsp]
	mov	rdx, QWORD PTR [rax+8]
	mov	rax, QWORD PTR this$[rsp]
	mov	rcx, QWORD PTR [rax+16]
	call	?SetNext@CNode@CBaseList@@QEAAXPEAV12@@Z ; CBaseList::CNode::SetNext
$LN4@MoveToHead:
; Line 783
	mov	rax, QWORD PTR pos$[rsp]
	mov	QWORD PTR p$[rsp], rax
; Line 786
	mov	rax, QWORD PTR pList$[rsp]
	cmp	QWORD PTR [rax+16], 0
	jne	SHORT $LN3@MoveToHead
; Line 787
	mov	rax, QWORD PTR pList$[rsp]
	mov	rcx, QWORD PTR this$[rsp]
	mov	rcx, QWORD PTR [rcx+16]
	mov	QWORD PTR [rax+16], rcx
$LN3@MoveToHead:
; Line 789
	mov	rcx, QWORD PTR p$[rsp]
	call	?Prev@CNode@CBaseList@@QEBAPEAV12@XZ	; CBaseList::CNode::Prev
	mov	rcx, QWORD PTR this$[rsp]
	mov	QWORD PTR [rcx+16], rax
; Line 790
	mov	rax, QWORD PTR this$[rsp]
	cmp	QWORD PTR [rax+16], 0
	jne	SHORT $LN2@MoveToHead
; Line 791
	mov	rax, QWORD PTR this$[rsp]
	mov	QWORD PTR [rax+8], 0
$LN2@MoveToHead:
; Line 792
	mov	rax, QWORD PTR pList$[rsp]
	mov	rcx, QWORD PTR p$[rsp]
	mov	QWORD PTR [rax+8], rcx
; Line 796
	mov	rax, QWORD PTR this$[rsp]
	cmp	QWORD PTR [rax+16], 0
	je	SHORT $LN1@MoveToHead
; Line 797
	xor	edx, edx
	mov	rax, QWORD PTR this$[rsp]
	mov	rcx, QWORD PTR [rax+16]
	call	?SetNext@CNode@CBaseList@@QEAAXPEAV12@@Z ; CBaseList::CNode::SetNext
$LN1@MoveToHead:
; Line 798
	xor	edx, edx
	mov	rcx, QWORD PTR p$[rsp]
	call	?SetPrev@CNode@CBaseList@@QEAAXPEAV12@@Z ; CBaseList::CNode::SetPrev
; Line 802
	mov	rax, QWORD PTR this$[rsp]
	mov	ecx, DWORD PTR cMove$[rsp]
	mov	eax, DWORD PTR [rax+24]
	sub	eax, ecx
	mov	rcx, QWORD PTR this$[rsp]
	mov	DWORD PTR [rcx+24], eax
; Line 803
	mov	rax, QWORD PTR pList$[rsp]
	mov	eax, DWORD PTR [rax+24]
	add	eax, DWORD PTR cMove$[rsp]
	mov	rcx, QWORD PTR pList$[rsp]
	mov	DWORD PTR [rcx+24], eax
; Line 805
	mov	eax, 1
$LN9@MoveToHead:
; Line 807
	add	rsp, 48					; 00000030H
	pop	rdi
	ret	0
?MoveToHead@CBaseList@@QEAAHPEAU__POSITION@@PEAV1@@Z ENDP ; CBaseList::MoveToHead
_TEXT	ENDS
PUBLIC	?Reverse@CBaseList@@QEAAXXZ			; CBaseList::Reverse
;	COMDAT pdata
pdata	SEGMENT
$pdata$?Reverse@CBaseList@@QEAAXXZ DD imagerel $LN5
	DD	imagerel $LN5+169
	DD	imagerel $unwind$?Reverse@CBaseList@@QEAAXXZ
pdata	ENDS
;	COMDAT xdata
xdata	SEGMENT
$unwind$?Reverse@CBaseList@@QEAAXXZ DD 021e01H
	DD	07006520aH
; Function compile flags: /Odtp /RTCsu
xdata	ENDS
;	COMDAT ?Reverse@CBaseList@@QEAAXXZ
_TEXT	SEGMENT
p$ = 32
q$82486 = 40
this$ = 64
?Reverse@CBaseList@@QEAAXXZ PROC			; CBaseList::Reverse, COMDAT
; Line 814
$LN5:
	mov	QWORD PTR [rsp+8], rcx
	push	rdi
	sub	rsp, 48					; 00000030H
	mov	rdi, rsp
	mov	ecx, 12
	mov	eax, -858993460				; ccccccccH
	rep stosd
	mov	rcx, QWORD PTR [rsp+64]
; Line 836
	mov	rax, QWORD PTR this$[rsp]
	mov	rax, QWORD PTR [rax+8]
	mov	QWORD PTR p$[rsp], rax
$LN2@Reverse:
; Line 837
	cmp	QWORD PTR p$[rsp], 0
	je	SHORT $LN1@Reverse
; Line 839
	mov	rcx, QWORD PTR p$[rsp]
	call	?Next@CNode@CBaseList@@QEBAPEAV12@XZ	; CBaseList::CNode::Next
	mov	QWORD PTR q$82486[rsp], rax
; Line 840
	mov	rcx, QWORD PTR p$[rsp]
	call	?Prev@CNode@CBaseList@@QEBAPEAV12@XZ	; CBaseList::CNode::Prev
	mov	rdx, rax
	mov	rcx, QWORD PTR p$[rsp]
	call	?SetNext@CNode@CBaseList@@QEAAXPEAV12@@Z ; CBaseList::CNode::SetNext
; Line 841
	mov	rdx, QWORD PTR q$82486[rsp]
	mov	rcx, QWORD PTR p$[rsp]
	call	?SetPrev@CNode@CBaseList@@QEAAXPEAV12@@Z ; CBaseList::CNode::SetPrev
; Line 842
	mov	rax, QWORD PTR q$82486[rsp]
	mov	QWORD PTR p$[rsp], rax
; Line 843
	jmp	SHORT $LN2@Reverse
$LN1@Reverse:
; Line 845
	mov	rax, QWORD PTR this$[rsp]
	mov	rax, QWORD PTR [rax+8]
	mov	QWORD PTR p$[rsp], rax
; Line 846
	mov	rax, QWORD PTR this$[rsp]
	mov	rcx, QWORD PTR this$[rsp]
	mov	rcx, QWORD PTR [rcx+16]
	mov	QWORD PTR [rax+8], rcx
; Line 847
	mov	rax, QWORD PTR this$[rsp]
	mov	rcx, QWORD PTR p$[rsp]
	mov	QWORD PTR [rax+16], rcx
; Line 885
	add	rsp, 48					; 00000030H
	pop	rdi
	ret	0
?Reverse@CBaseList@@QEAAXXZ ENDP			; CBaseList::Reverse
_TEXT	ENDS
END
